
========================================================================

** ELF Header Information

    File Name: bin\em9304_test_bridge.axf

    Machine class: ELFCLASS32 (32-bit)
    Data encoding: ELFDATA2LSB (Little endian)
    Header version: EV_CURRENT (Current version)
    Operating System ABI: none
    ABI Version: 0
    File Type: ET_EXEC (Executable) (2)
    Machine: EM_ARM (ARM)

    Image Entry point: 0x000000e9
    Flags: EF_ARM_HASENTRY + EF_ARM_ABI_FLOAT_HARD (0x05000402)

    ARM ELF revision: 5 (ABI version 2)

    Conforms to Hard float procedure-call standard

    Built with
    Component: ARM Compiler 5.06 update 5 (build 528) Tool: armasm [4d35e1]
    Component: ARM Compiler 5.06 update 5 (build 528) Tool: armlink [4d35e2]

    Header size: 52 bytes (0x34)
    Program header entry size: 32 bytes (0x20)
    Section header entry size: 40 bytes (0x28)

    Program header entries: 1
    Section header entries: 16

    Program header offset: 98700 (0x0001818c)
    Section header offset: 98732 (0x000181ac)

    Section header string table index: 15

========================================================================

** Program header #0 (PT_LOAD) [PF_X + PF_W + PF_R + PF_ARM_ENTRY]
    Size : 17976 bytes (14744 bytes in file)
    Virtual address: 0x00000000 (Alignment 8)


========================================================================

** Section #1 'FLASH' (SHT_PROGBITS) [SHF_ALLOC + SHF_EXECINSTR]
    Size   : 14600 bytes (alignment 4)
    Address: 0x00000000

    $d
    RESET
    __Vectors
        0x00000000:    10000d30    0...    DCD    268438832
        0x00000004:    000000c1    ....    DCD    193
        0x00000008:    000000dd    ....    DCD    221
        0x0000000c:    00000189    ....    DCD    393
        0x00000010:    00000189    ....    DCD    393
        0x00000014:    00000189    ....    DCD    393
        0x00000018:    00000189    ....    DCD    393
        0x0000001c:    00000000    ....    DCD    0
        0x00000020:    00000000    ....    DCD    0
        0x00000024:    00000000    ....    DCD    0
        0x00000028:    00000000    ....    DCD    0
        0x0000002c:    000000e3    ....    DCD    227
        0x00000030:    000000e3    ....    DCD    227
        0x00000034:    00000000    ....    DCD    0
        0x00000038:    000000e3    ....    DCD    227
        0x0000003c:    000000e3    ....    DCD    227
        0x00000040:    000000e3    ....    DCD    227
        0x00000044:    000000e3    ....    DCD    227
        0x00000048:    000000e3    ....    DCD    227
        0x0000004c:    000000e3    ....    DCD    227
        0x00000050:    000000e3    ....    DCD    227
        0x00000054:    000000e3    ....    DCD    227
        0x00000058:    000000e3    ....    DCD    227
        0x0000005c:    000000e3    ....    DCD    227
        0x00000060:    000000e3    ....    DCD    227
        0x00000064:    000000e3    ....    DCD    227
        0x00000068:    000000e3    ....    DCD    227
        0x0000006c:    00003361    a3..    DCD    13153
        0x00000070:    00000e9d    ....    DCD    3741
        0x00000074:    0000064d    M...    DCD    1613
        0x00000078:    00003381    .3..    DCD    13185
        0x0000007c:    000000e3    ....    DCD    227
        0x00000080:    000000e3    ....    DCD    227
        0x00000084:    000000e3    ....    DCD    227
        0x00000088:    000000e3    ....    DCD    227
        0x0000008c:    000000e3    ....    DCD    227
        0x00000090:    000000e3    ....    DCD    227
        0x00000094:    000000e3    ....    DCD    227
        0x00000098:    000000e3    ....    DCD    227
        0x0000009c:    000000e3    ....    DCD    227
        0x000000a0:    000000e3    ....    DCD    227
        0x000000a4:    000000e3    ....    DCD    227
        0x000000a8:    000000e3    ....    DCD    227
        0x000000ac:    000000e3    ....    DCD    227
        0x000000b0:    000000e3    ....    DCD    227
        0x000000b4:    000000e3    ....    DCD    227
        0x000000b8:    000000e3    ....    DCD    227
        0x000000bc:    000000e3    ....    DCD    227
    $t
    $v0
    Reset_Handler
        0x000000c0:    f64e5088    N..P    MOV      r0,#0xed88
        0x000000c4:    f2ce0000    ....    MOVT     r0,#0xe000
        0x000000c8:    6801        .h      LDR      r1,[r0,#0]
        0x000000ca:    f4410170    A.p.    ORR      r1,r1,#0xf00000
        0x000000ce:    6001        .`      STR      r1,[r0,#0]
        0x000000d0:    f3bf8f4f    ..O.    DSB      
        0x000000d4:    f3bf8f6f    ..o.    ISB      
        0x000000d8:    4802        .H      LDR      r0,[pc,#8] ; [0xe4] = 0xe9
        0x000000da:    4700        .G      BX       r0
    am_nmi_isr
        0x000000dc:    e7fe        ..      B        am_nmi_isr ; 0xdc
        0x000000de:    e7fe        ..      B        0xde ; am_nmi_isr + 2
    am_memmanage_isr
        0x000000e0:    e7fe        ..      B        am_memmanage_isr ; 0xe0
    am_adc_isr
    am_brownout_isr
    am_clkgen_isr
    am_debugmon_isr
    am_flash_isr
    am_iomaster0_isr
    am_iomaster1_isr
    am_iomaster2_isr
    am_iomaster3_isr
    am_iomaster4_isr
    am_ioslave_acc_isr
    am_ioslave_ios_isr
    am_pdm_isr
    am_pendsv_isr
    am_software0_isr
    am_software1_isr
    am_software2_isr
    am_software3_isr
    am_stimer_cmpr0_isr
    am_stimer_cmpr1_isr
    am_stimer_cmpr2_isr
    am_stimer_cmpr3_isr
    am_stimer_cmpr4_isr
    am_stimer_cmpr5_isr
    am_stimer_cmpr6_isr
    am_stimer_cmpr7_isr
    am_stimer_isr
    am_svcall_isr
    am_systick_isr
    am_uart0_isr
    am_uart1_isr
    am_vcomp_isr
    am_watchdog_isr
        0x000000e2:    e7fe        ..      B        am_adc_isr ; 0xe2
    $d
        0x000000e4:    000000e9    ....    DCD    233
    $t
    !!!main
    __main
        0x000000e8:    f000f802    ....    BL       __scatterload ; 0xf0
        0x000000ec:    f000f83c    ..<.    BL       __rt_entry ; 0x168
    !!!scatter
    __scatterload
    __scatterload_rt2
    __scatterload_rt2_thumb_only
        0x000000f0:    a00a        ..      ADR      r0,{pc}+0x2c ; 0x11c
        0x000000f2:    e8900c00    ....    LDM      r0,{r10,r11}
        0x000000f6:    4482        .D      ADD      r10,r10,r0
        0x000000f8:    4483        .D      ADD      r11,r11,r0
        0x000000fa:    f1aa0701    ....    SUB      r7,r10,#1
    __scatterload_null
        0x000000fe:    45da        .E      CMP      r10,r11
        0x00000100:    d101        ..      BNE      0x106 ; __scatterload_null + 8
        0x00000102:    f000f831    ..1.    BL       __rt_entry ; 0x168
        0x00000106:    f2af0e09    ....    ADR      lr,{pc}-7 ; 0xff
        0x0000010a:    e8ba000f    ....    LDM      r10!,{r0-r3}
        0x0000010e:    f0130f01    ....    TST      r3,#1
        0x00000112:    bf18        ..      IT       NE
        0x00000114:    1afb        ..      SUBNE    r3,r7,r3
        0x00000116:    f0430301    C...    ORR      r3,r3,#1
        0x0000011a:    4718        .G      BX       r3
    $d
        0x0000011c:    000037cc    .7..    DCD    14284
        0x00000120:    000037ec    .7..    DCD    14316
    $t
    !!handler_copy
    __scatterload_copy
        0x00000124:    3a10        .:      SUBS     r2,r2,#0x10
        0x00000126:    bf24        $.      ITT      CS
        0x00000128:    c878        x.      LDMCS    r0!,{r3-r6}
        0x0000012a:    c178        x.      STMCS    r1!,{r3-r6}
        0x0000012c:    d8fa        ..      BHI      __scatterload_copy ; 0x124
        0x0000012e:    0752        R.      LSLS     r2,r2,#29
        0x00000130:    bf24        $.      ITT      CS
        0x00000132:    c830        0.      LDMCS    r0!,{r4,r5}
        0x00000134:    c130        0.      STMCS    r1!,{r4,r5}
        0x00000136:    bf44        D.      ITT      MI
        0x00000138:    6804        .h      LDRMI    r4,[r0,#0]
        0x0000013a:    600c        .`      STRMI    r4,[r1,#0]
        0x0000013c:    4770        pG      BX       lr
        0x0000013e:    0000        ..      MOVS     r0,r0
    !!handler_zi
    __scatterload_zeroinit
        0x00000140:    2300        .#      MOVS     r3,#0
        0x00000142:    2400        .$      MOVS     r4,#0
        0x00000144:    2500        .%      MOVS     r5,#0
        0x00000146:    2600        .&      MOVS     r6,#0
        0x00000148:    3a10        .:      SUBS     r2,r2,#0x10
        0x0000014a:    bf28        (.      IT       CS
        0x0000014c:    c178        x.      STMCS    r1!,{r3-r6}
        0x0000014e:    d8fb        ..      BHI      0x148 ; __scatterload_zeroinit + 8
        0x00000150:    0752        R.      LSLS     r2,r2,#29
        0x00000152:    bf28        (.      IT       CS
        0x00000154:    c130        0.      STMCS    r1!,{r4,r5}
        0x00000156:    bf48        H.      IT       MI
        0x00000158:    600b        .`      STRMI    r3,[r1,#0]
        0x0000015a:    4770        pG      BX       lr
    .ARM.Collect$$libinit$$00000000
    __rt_lib_init
        0x0000015c:    b51f        ..      PUSH     {r0-r4,lr}
    .ARM.Collect$$libinit$$00000001
    __rt_lib_init_fp_1
        0x0000015e:    f003fb87    ....    BL       _fp_init ; 0x3870
    .ARM.Collect$$libinit$$00000004
    .ARM.Collect$$libinit$$0000000A
    .ARM.Collect$$libinit$$0000000C
    .ARM.Collect$$libinit$$0000000E
    .ARM.Collect$$libinit$$00000011
    .ARM.Collect$$libinit$$00000013
    .ARM.Collect$$libinit$$00000015
    .ARM.Collect$$libinit$$00000017
    .ARM.Collect$$libinit$$00000019
    .ARM.Collect$$libinit$$0000001B
    .ARM.Collect$$libinit$$0000001D
    .ARM.Collect$$libinit$$0000001F
    .ARM.Collect$$libinit$$00000021
    .ARM.Collect$$libinit$$00000023
    .ARM.Collect$$libinit$$00000025
    .ARM.Collect$$libinit$$0000002C
    .ARM.Collect$$libinit$$0000002E
    .ARM.Collect$$libinit$$00000030
    .ARM.Collect$$libinit$$00000032
    .ARM.Collect$$libinit$$00000033
    __rt_lib_init_alloca_1
    __rt_lib_init_argv_1
    __rt_lib_init_atexit_1
    __rt_lib_init_clock_1
    __rt_lib_init_cpp_1
    __rt_lib_init_exceptions_1
    __rt_lib_init_fp_trap_1
    __rt_lib_init_getenv_1
    __rt_lib_init_heap_1
    __rt_lib_init_lc_collate_1
    __rt_lib_init_lc_ctype_1
    __rt_lib_init_lc_monetary_1
    __rt_lib_init_lc_numeric_1
    __rt_lib_init_lc_time_1
    __rt_lib_init_preinit_1
    __rt_lib_init_rand_1
    __rt_lib_init_return
    __rt_lib_init_signal_1
    __rt_lib_init_stdio_1
    __rt_lib_init_user_alloc_1
        0x00000162:    bd1f        ..      POP      {r0-r4,pc}
    .ARM.Collect$$libshutdown$$00000000
    __rt_lib_shutdown
        0x00000164:    b510        ..      PUSH     {r4,lr}
    .ARM.Collect$$libshutdown$$00000002
    .ARM.Collect$$libshutdown$$00000004
    .ARM.Collect$$libshutdown$$00000007
    .ARM.Collect$$libshutdown$$0000000A
    .ARM.Collect$$libshutdown$$0000000C
    .ARM.Collect$$libshutdown$$0000000F
    .ARM.Collect$$libshutdown$$00000010
    __rt_lib_shutdown_cpp_1
    __rt_lib_shutdown_fp_trap_1
    __rt_lib_shutdown_heap_1
    __rt_lib_shutdown_return
    __rt_lib_shutdown_signal_1
    __rt_lib_shutdown_stdio_1
    __rt_lib_shutdown_user_alloc_1
        0x00000166:    bd10        ..      POP      {r4,pc}
    .ARM.Collect$$rtentry$$00000000
    .ARM.Collect$$rtentry$$00000002
    .ARM.Collect$$rtentry$$00000004
    __rt_entry
    __rt_entry_presh_1
    __rt_entry_sh
        0x00000168:    f000f8e3    ....    BL       __user_setup_stackheap ; 0x332
        0x0000016c:    4611        .F      MOV      r1,r2
    .ARM.Collect$$rtentry$$00000009
    .ARM.Collect$$rtentry$$0000000A
    __rt_entry_li
    __rt_entry_postsh_1
        0x0000016e:    f7fffff5    ....    BL       __rt_lib_init ; 0x15c
    .ARM.Collect$$rtentry$$0000000C
    .ARM.Collect$$rtentry$$0000000D
    __rt_entry_main
    __rt_entry_postli_1
        0x00000172:    f003fa25    ..%.    BL       main ; 0x35c0
        0x00000176:    f000f901    ....    BL       exit ; 0x37c
    .ARM.Collect$$rtexit$$00000000
    __rt_exit
        0x0000017a:    b403        ..      PUSH     {r0,r1}
    .ARM.Collect$$rtexit$$00000002
    .ARM.Collect$$rtexit$$00000003
    __rt_exit_ls
    __rt_exit_prels_1
        0x0000017c:    f7fffff2    ....    BL       __rt_lib_shutdown ; 0x164
    .ARM.Collect$$rtexit$$00000004
    __rt_exit_exit
        0x00000180:    bc03        ..      POP      {r0,r1}
        0x00000182:    f000f909    ....    BL       _sys_exit ; 0x398
        0x00000186:    0000        ..      MOVS     r0,r0
    .emb_text
    $v0
    am_fault_isr
        0x00000188:    b580        ..      PUSH     {r7,lr}
        0x0000018a:    4668        hF      MOV      r0,sp
        0x0000018c:    3008        .0      ADDS     r0,r0,#8
        0x0000018e:    f003f921    ..!.    BL       am_util_faultisr_collect_data ; 0x33d4
        0x00000192:    bd01        ..      POP      {r0,pc}
    getStackedReg
        0x00000194:    0080        ..      LSLS     r0,r0,#2
        0x00000196:    1840        @.      ADDS     r0,r0,r1
        0x00000198:    6800        .h      LDR      r0,[r0,#0]
        0x0000019a:    4770        pG      BX       lr
    .emb_text
    $v0
    am_hal_interrupt_master_enable
        0x0000019c:    f3ef8010    ....    MRS      r0,PRIMASK
        0x000001a0:    b662        b.      CPSIE    i
        0x000001a2:    4770        pG      BX       lr
    am_hal_interrupt_master_disable
        0x000001a4:    f3ef8010    ....    MRS      r0,PRIMASK
        0x000001a8:    b672        r.      CPSID    i
        0x000001aa:    4770        pG      BX       lr
    am_hal_interrupt_master_set
        0x000001ac:    f3808810    ....    MSR      PRIMASK,r0
        0x000001b0:    4770        pG      BX       lr
        0x000001b2:    0000        ..      MOVS     r0,r0
    .emb_text
    $v0
    __asm___12_am_hal_iom_c_97762dd2__iom_workaround_loop
        0x000001b4:    b132        2.      CBZ      r2,0x1c4 ; __asm___12_am_hal_iom_c_97762dd2__iom_workaround_loop + 16
        0x000001b6:    4a07        .J      LDR      r2,[pc,#28] ; [0x1d4] = 0x40010084
        0x000001b8:    6813        .h      LDR      r3,[r2,#0]
        0x000001ba:    f4135380    ...S    ANDS     r3,r3,#0x1000
        0x000001be:    d0fb        ..      BEQ      0x1b8 ; __asm___12_am_hal_iom_c_97762dd2__iom_workaround_loop + 4
        0x000001c0:    6008        .`      STR      r0,[r1,#0]
        0x000001c2:    4770        pG      BX       lr
        0x000001c4:    4a03        .J      LDR      r2,[pc,#12] ; [0x1d4] = 0x40010084
        0x000001c6:    6813        .h      LDR      r3,[r2,#0]
        0x000001c8:    f4135380    ...S    ANDS     r3,r3,#0x1000
        0x000001cc:    d1fb        ..      BNE      0x1c6 ; __asm___12_am_hal_iom_c_97762dd2__iom_workaround_loop + 18
        0x000001ce:    6008        .`      STR      r0,[r1,#0]
        0x000001d0:    4770        pG      BX       lr
        0x000001d2:    bf00        ..      NOP      
    $d
        0x000001d4:    40010084    ...@    DCD    1073807492
    $t
    .text
    $v0
    __user_initial_stackheap
        0x000001d8:    4802        .H      LDR      r0,[pc,#8] ; [0x1e4] = 0x10000530
        0x000001da:    4903        .I      LDR      r1,[pc,#12] ; [0x1e8] = 0x10000d30
        0x000001dc:    4a01        .J      LDR      r2,[pc,#4] ; [0x1e4] = 0x10000530
        0x000001de:    4b03        .K      LDR      r3,[pc,#12] ; [0x1ec] = 0x10000530
        0x000001e0:    4770        pG      BX       lr
    $d
        0x000001e2:    0000        ..      DCW    0
        0x000001e4:    10000530    0...    DCD    268436784
        0x000001e8:    10000d30    0...    DCD    268438832
        0x000001ec:    10000530    0...    DCD    268436784
    $t
    .text
    __aeabi_memcpy
    __rt_memcpy
        0x000001f0:    2a03        .*      CMP      r2,#3
        0x000001f2:    f2408030    @.0.    BLS.W    _memcpy_lastbytes ; 0x256
        0x000001f6:    f0100c03    ....    ANDS     r12,r0,#3
        0x000001fa:    f0008015    ....    BEQ.W    0x228 ; __aeabi_memcpy + 56
        0x000001fe:    f8113b01    ...;    LDRB     r3,[r1],#1
        0x00000202:    f1bc0f02    ....    CMP      r12,#2
        0x00000206:    4462        bD      ADD      r2,r2,r12
        0x00000208:    bf98        ..      IT       LS
        0x0000020a:    f811cb01    ....    LDRBLS   r12,[r1],#1
        0x0000020e:    f8003b01    ...;    STRB     r3,[r0],#1
        0x00000212:    bf38        8.      IT       CC
        0x00000214:    f8113b01    ...;    LDRBCC   r3,[r1],#1
        0x00000218:    f1a20204    ....    SUB      r2,r2,#4
        0x0000021c:    bf98        ..      IT       LS
        0x0000021e:    f800cb01    ....    STRBLS   r12,[r0],#1
        0x00000222:    bf38        8.      IT       CC
        0x00000224:    f8003b01    ...;    STRBCC   r3,[r0],#1
        0x00000228:    f0110303    ....    ANDS     r3,r1,#3
        0x0000022c:    f000804f    ..O.    BEQ.W    __aeabi_memcpy4 ; 0x2ce
        0x00000230:    3a08        .:      SUBS     r2,r2,#8
        0x00000232:    f0c08008    ....    BCC.W    0x246 ; __aeabi_memcpy + 86
        0x00000236:    f8513b04    Q..;    LDR      r3,[r1],#4
        0x0000023a:    3a08        .:      SUBS     r2,r2,#8
        0x0000023c:    f851cb04    Q...    LDR      r12,[r1],#4
        0x00000240:    e8a01008    ....    STM      r0!,{r3,r12}
        0x00000244:    e7f5        ..      B        0x232 ; __aeabi_memcpy + 66
        0x00000246:    1d12        ..      ADDS     r2,r2,#4
        0x00000248:    bf5c        \.      ITT      PL
        0x0000024a:    f8513b04    Q..;    LDRPL    r3,[r1],#4
        0x0000024e:    f8403b04    @..;    STRPL    r3,[r0],#4
        0x00000252:    f3af8000    ....    NOP.W    
    _memcpy_lastbytes
        0x00000256:    07d2        ..      LSLS     r2,r2,#31
        0x00000258:    bf24        $.      ITT      CS
        0x0000025a:    f8113b01    ...;    LDRBCS   r3,[r1],#1
        0x0000025e:    f811cb01    ....    LDRBCS   r12,[r1],#1
        0x00000262:    bf48        H.      IT       MI
        0x00000264:    f8112b01    ...+    LDRBMI   r2,[r1],#1
        0x00000268:    bf24        $.      ITT      CS
        0x0000026a:    f8003b01    ...;    STRBCS   r3,[r0],#1
        0x0000026e:    f800cb01    ....    STRBCS   r12,[r0],#1
        0x00000272:    bf48        H.      IT       MI
        0x00000274:    f8002b01    ...+    STRBMI   r2,[r0],#1
        0x00000278:    4770        pG      BX       lr
    .text
    __aeabi_memclr4
    __aeabi_memclr8
    __rt_memclr_w
        0x0000027a:    f04f0200    O...    MOV      r2,#0
    _memset_w
        0x0000027e:    b500        ..      PUSH     {lr}
        0x00000280:    4613        .F      MOV      r3,r2
        0x00000282:    4694        .F      MOV      r12,r2
        0x00000284:    4696        .F      MOV      lr,r2
        0x00000286:    3920         9      SUBS     r1,r1,#0x20
        0x00000288:    bf22        ".      ITTT     CS
        0x0000028a:    e8a0500c    ...P    STMCS    r0!,{r2,r3,r12,lr}
        0x0000028e:    e8a0500c    ...P    STMCS    r0!,{r2,r3,r12,lr}
        0x00000292:    f1b10120    .. .    SUBSCS   r1,r1,#0x20
        0x00000296:    f4bfaff7    ....    BCS.W    0x288 ; _memset_w + 10
        0x0000029a:    0709        ..      LSLS     r1,r1,#28
        0x0000029c:    bf28        (.      IT       CS
        0x0000029e:    e8a0500c    ...P    STMCS    r0!,{r2,r3,r12,lr}
        0x000002a2:    bf48        H.      IT       MI
        0x000002a4:    c00c        ..      STMMI    r0!,{r2,r3}
        0x000002a6:    f85deb04    ]...    POP      {lr}
        0x000002aa:    0089        ..      LSLS     r1,r1,#2
        0x000002ac:    bf28        (.      IT       CS
        0x000002ae:    f8402b04    @..+    STRCS    r2,[r0],#4
        0x000002b2:    bf08        ..      IT       EQ
        0x000002b4:    4770        pG      BXEQ     lr
        0x000002b6:    bf48        H.      IT       MI
        0x000002b8:    f8202b02     ..+    STRHMI   r2,[r0],#2
        0x000002bc:    f0114f80    ...O    TST      r1,#0x40000000
        0x000002c0:    bf18        ..      IT       NE
        0x000002c2:    f8002b01    ...+    STRBNE   r2,[r0],#1
        0x000002c6:    4770        pG      BX       lr
    .text
    __use_two_region_memory
        0x000002c8:    4770        pG      BX       lr
    __rt_heap_escrow$2region
        0x000002ca:    4770        pG      BX       lr
    __rt_heap_expand$2region
        0x000002cc:    4770        pG      BX       lr
    .text
    __aeabi_memcpy4
    __aeabi_memcpy8
    __rt_memcpy_w
        0x000002ce:    b510        ..      PUSH     {r4,lr}
        0x000002d0:    3a20         :      SUBS     r2,r2,#0x20
        0x000002d2:    f0c0800b    ....    BCC.W    0x2ec ; __aeabi_memcpy4 + 30
        0x000002d6:    e8b15018    ...P    LDM      r1!,{r3,r4,r12,lr}
        0x000002da:    3a20         :      SUBS     r2,r2,#0x20
        0x000002dc:    e8a05018    ...P    STM      r0!,{r3,r4,r12,lr}
        0x000002e0:    e8b15018    ...P    LDM      r1!,{r3,r4,r12,lr}
        0x000002e4:    e8a05018    ...P    STM      r0!,{r3,r4,r12,lr}
        0x000002e8:    f4bfaff5    ....    BCS.W    0x2d6 ; __aeabi_memcpy4 + 8
        0x000002ec:    ea5f7c02    _..|    LSLS     r12,r2,#28
        0x000002f0:    bf24        $.      ITT      CS
        0x000002f2:    e8b15018    ...P    LDMCS    r1!,{r3,r4,r12,lr}
        0x000002f6:    e8a05018    ...P    STMCS    r0!,{r3,r4,r12,lr}
        0x000002fa:    bf44        D.      ITT      MI
        0x000002fc:    c918        ..      LDMMI    r1!,{r3,r4}
        0x000002fe:    c018        ..      STMMI    r0!,{r3,r4}
        0x00000300:    e8bd4010    ...@    POP      {r4,lr}
        0x00000304:    ea5f7c82    _..|    LSLS     r12,r2,#30
        0x00000308:    bf24        $.      ITT      CS
        0x0000030a:    f8513b04    Q..;    LDRCS    r3,[r1],#4
        0x0000030e:    f8403b04    @..;    STRCS    r3,[r0],#4
        0x00000312:    bf08        ..      IT       EQ
        0x00000314:    4770        pG      BXEQ     lr
    _memcpy_lastbytes_aligned
        0x00000316:    07d2        ..      LSLS     r2,r2,#31
        0x00000318:    bf28        (.      IT       CS
        0x0000031a:    f8313b02    1..;    LDRHCS   r3,[r1],#2
        0x0000031e:    bf48        H.      IT       MI
        0x00000320:    f8112b01    ...+    LDRBMI   r2,[r1],#1
        0x00000324:    bf28        (.      IT       CS
        0x00000326:    f8203b02     ..;    STRHCS   r3,[r0],#2
        0x0000032a:    bf48        H.      IT       MI
        0x0000032c:    f8002b01    ...+    STRBMI   r2,[r0],#1
        0x00000330:    4770        pG      BX       lr
    .text
    __user_setup_stackheap
        0x00000332:    4675        uF      MOV      r5,lr
        0x00000334:    f000f82c    ..,.    BL       __user_libspace ; 0x390
        0x00000338:    46ae        .F      MOV      lr,r5
        0x0000033a:    0005        ..      MOVS     r5,r0
        0x0000033c:    4669        iF      MOV      r1,sp
        0x0000033e:    4653        SF      MOV      r3,r10
        0x00000340:    f0200007     ...    BIC      r0,r0,#7
        0x00000344:    4685        .F      MOV      sp,r0
        0x00000346:    b018        ..      ADD      sp,sp,#0x60
        0x00000348:    b520         .      PUSH     {r5,lr}
        0x0000034a:    f7ffff45    ..E.    BL       __user_initial_stackheap ; 0x1d8
        0x0000034e:    e8bd4020    .. @    POP      {r5,lr}
        0x00000352:    f04f0600    O...    MOV      r6,#0
        0x00000356:    f04f0700    O...    MOV      r7,#0
        0x0000035a:    f04f0800    O...    MOV      r8,#0
        0x0000035e:    f04f0b00    O...    MOV      r11,#0
        0x00000362:    f0210107    !...    BIC      r1,r1,#7
        0x00000366:    46ac        .F      MOV      r12,r5
        0x00000368:    e8ac09c0    ....    STM      r12!,{r6-r8,r11}
        0x0000036c:    e8ac09c0    ....    STM      r12!,{r6-r8,r11}
        0x00000370:    e8ac09c0    ....    STM      r12!,{r6-r8,r11}
        0x00000374:    e8ac09c0    ....    STM      r12!,{r6-r8,r11}
        0x00000378:    468d        .F      MOV      sp,r1
        0x0000037a:    4770        pG      BX       lr
    .text
    exit
        0x0000037c:    b510        ..      PUSH     {r4,lr}
        0x0000037e:    4604        .F      MOV      r4,r0
        0x00000380:    f3af8000    ....    NOP.W    
        0x00000384:    4620         F      MOV      r0,r4
        0x00000386:    e8bd4010    ...@    POP      {r4,lr}
        0x0000038a:    f7ffbef6    ....    B.W      __rt_exit ; 0x17a
        0x0000038e:    0000        ..      MOVS     r0,r0
    .text
    __user_libspace
    __user_perproc_libspace
    __user_perthread_libspace
        0x00000390:    4800        .H      LDR      r0,[pc,#0] ; [0x394] = 0x100004d0
        0x00000392:    4770        pG      BX       lr
    $d
        0x00000394:    100004d0    ....    DCD    268436688
    $t
    .text
    _sys_exit
        0x00000398:    4901        .I      LDR      r1,[pc,#4] ; [0x3a0] = 0x20026
        0x0000039a:    2018        .       MOVS     r0,#0x18
        0x0000039c:    beab        ..      BKPT     #0xab
        0x0000039e:    e7fe        ..      B        0x39e ; _sys_exit + 6
    $d
        0x000003a0:    00020026    &...    DCD    131110
    $t
    .text
    __I$use$semihosting
    __use_no_semihosting_swi
        0x000003a4:    4770        pG      BX       lr
    .text
    __semihosting_library_function
        0x000003a6:    0000        ..      MOVS     r0,r0
    i.am_bsp_iom_spi_pins_enable
    am_bsp_iom_spi_pins_enable
        0x000003a8:    b5f8        ..      PUSH     {r3-r7,lr}
        0x000003aa:    2500        .%      MOVS     r5,#0
        0x000003ac:    4c9b        .L      LDR      r4,[pc,#620] ; [0x61c] = 0x40010000
        0x000003ae:    2673        s&      MOVS     r6,#0x73
        0x000003b0:    b138        8.      CBZ      r0,0x3c2 ; am_bsp_iom_spi_pins_enable + 26
        0x000003b2:    2801        .(      CMP      r0,#1
        0x000003b4:    d051        Q.      BEQ      0x45a ; am_bsp_iom_spi_pins_enable + 178
        0x000003b6:    2802        .(      CMP      r0,#2
        0x000003b8:    d07e        ~.      BEQ      0x4b8 ; am_bsp_iom_spi_pins_enable + 272
        0x000003ba:    2805        .(      CMP      r0,#5
        0x000003bc:    f00080e4    ....    BEQ.W    0x588 ; am_bsp_iom_spi_pins_enable + 480
        0x000003c0:    e7fe        ..      B        0x3c0 ; am_bsp_iom_spi_pins_enable + 24
        0x000003c2:    f7fffeef    ....    BL       am_hal_interrupt_master_disable ; 0x1a4
        0x000003c6:    9000        ..      STR      r0,[sp,#0]
        0x000003c8:    6626        &f      STR      r6,[r4,#0x60]
        0x000003ca:    6c20         l      LDR      r0,[r4,#0x40]
        0x000003cc:    f42000e0     ...    BIC      r0,r0,#0x700000
        0x000003d0:    f4401000    @...    ORR      r0,r0,#0x200000
        0x000003d4:    6420         d      STR      r0,[r4,#0x40]
        0x000003d6:    6860        `h      LDR      r0,[r4,#4]
        0x000003d8:    f420407f     ..@    BIC      r0,r0,#0xff00
        0x000003dc:    f4406060    @.``    ORR      r0,r0,#0xe00
        0x000003e0:    6060        ``      STR      r0,[r4,#4]
        0x000003e2:    f8d400e4    ....    LDR      r0,[r4,#0xe4]
        0x000003e6:    f420407f     ..@    BIC      r0,r0,#0xff00
        0x000003ea:    f8c400e4    ....    STR      r0,[r4,#0xe4]
        0x000003ee:    6625        %f      STR      r5,[r4,#0x60]
        0x000003f0:    9800        ..      LDR      r0,[sp,#0]
        0x000003f2:    f7fffedb    ....    BL       am_hal_interrupt_master_set ; 0x1ac
        0x000003f6:    f7fffed5    ....    BL       am_hal_interrupt_master_disable ; 0x1a4
        0x000003fa:    9000        ..      STR      r0,[sp,#0]
        0x000003fc:    6626        &f      STR      r6,[r4,#0x60]
        0x000003fe:    6c20         l      LDR      r0,[r4,#0x40]
        0x00000400:    f02060e0     ..`    BIC      r0,r0,#0x7000000
        0x00000404:    6420         d      STR      r0,[r4,#0x40]
        0x00000406:    6860        `h      LDR      r0,[r4,#4]
        0x00000408:    f420007f     ...    BIC      r0,r0,#0xff0000
        0x0000040c:    f4402020    @.      ORR      r0,r0,#0xa0000
        0x00000410:    6060        ``      STR      r0,[r4,#4]
        0x00000412:    f8d400e4    ....    LDR      r0,[r4,#0xe4]
        0x00000416:    f420007f     ...    BIC      r0,r0,#0xff0000
        0x0000041a:    f8c400e4    ....    STR      r0,[r4,#0xe4]
        0x0000041e:    6625        %f      STR      r5,[r4,#0x60]
        0x00000420:    9800        ..      LDR      r0,[sp,#0]
        0x00000422:    f7fffec3    ....    BL       am_hal_interrupt_master_set ; 0x1ac
        0x00000426:    f7fffebd    ....    BL       am_hal_interrupt_master_disable ; 0x1a4
        0x0000042a:    9000        ..      STR      r0,[sp,#0]
        0x0000042c:    6626        &f      STR      r6,[r4,#0x60]
        0x0000042e:    6c20         l      LDR      r0,[r4,#0x40]
        0x00000430:    f02040e0     ..@    BIC      r0,r0,#0x70000000
        0x00000434:    6420         d      STR      r0,[r4,#0x40]
        0x00000436:    6860        `h      LDR      r0,[r4,#4]
        0x00000438:    f020407f     ..@    BIC      r0,r0,#0xff000000
        0x0000043c:    f0406000    @..`    ORR      r0,r0,#0x8000000
        0x00000440:    6060        ``      STR      r0,[r4,#4]
        0x00000442:    f8d400e4    ....    LDR      r0,[r4,#0xe4]
        0x00000446:    f020407f     ..@    BIC      r0,r0,#0xff000000
        0x0000044a:    f8c400e4    ....    STR      r0,[r4,#0xe4]
        0x0000044e:    6625        %f      STR      r5,[r4,#0x60]
        0x00000450:    9800        ..      LDR      r0,[sp,#0]
        0x00000452:    e8bd40f8    ...@    POP      {r3-r7,lr}
        0x00000456:    f7ffbea9    ....    B.W      am_hal_interrupt_master_set ; 0x1ac
        0x0000045a:    f7fffea3    ....    BL       am_hal_interrupt_master_disable ; 0x1a4
        0x0000045e:    9000        ..      STR      r0,[sp,#0]
        0x00000460:    6626        &f      STR      r6,[r4,#0x60]
        0x00000462:    6c60        `l      LDR      r0,[r4,#0x44]
        0x00000464:    f0200007     ...    BIC      r0,r0,#7
        0x00000468:    6460        `d      STR      r0,[r4,#0x44]
        0x0000046a:    68a0        .h      LDR      r0,[r4,#8]
        0x0000046c:    f02000ff     ...    BIC      r0,r0,#0xff
        0x00000470:    f040000e    @...    ORR      r0,r0,#0xe
        0x00000474:    60a0        .`      STR      r0,[r4,#8]
        0x00000476:    f8d400e8    ....    LDR      r0,[r4,#0xe8]
        0x0000047a:    f02000ff     ...    BIC      r0,r0,#0xff
        0x0000047e:    f8c400e8    ....    STR      r0,[r4,#0xe8]
        0x00000482:    6625        %f      STR      r5,[r4,#0x60]
        0x00000484:    9800        ..      LDR      r0,[sp,#0]
        0x00000486:    f7fffe91    ....    BL       am_hal_interrupt_master_set ; 0x1ac
        0x0000048a:    f7fffe8b    ....    BL       am_hal_interrupt_master_disable ; 0x1a4
        0x0000048e:    9000        ..      STR      r0,[sp,#0]
        0x00000490:    6626        &f      STR      r6,[r4,#0x60]
        0x00000492:    6c60        `l      LDR      r0,[r4,#0x44]
        0x00000494:    f0200070     .p.    BIC      r0,r0,#0x70
        0x00000498:    6460        `d      STR      r0,[r4,#0x44]
        0x0000049a:    68a0        .h      LDR      r0,[r4,#8]
        0x0000049c:    f420407f     ..@    BIC      r0,r0,#0xff00
        0x000004a0:    f4406020    @. `    ORR      r0,r0,#0xa00
        0x000004a4:    60a0        .`      STR      r0,[r4,#8]
        0x000004a6:    f8d400e8    ....    LDR      r0,[r4,#0xe8]
        0x000004aa:    f420407f     ..@    BIC      r0,r0,#0xff00
        0x000004ae:    f8c400e8    ....    STR      r0,[r4,#0xe8]
        0x000004b2:    6625        %f      STR      r5,[r4,#0x60]
        0x000004b4:    9800        ..      LDR      r0,[sp,#0]
        0x000004b6:    e000        ..      B        0x4ba ; am_bsp_iom_spi_pins_enable + 274
        0x000004b8:    e01b        ..      B        0x4f2 ; am_bsp_iom_spi_pins_enable + 330
        0x000004ba:    f7fffe77    ..w.    BL       am_hal_interrupt_master_set ; 0x1ac
        0x000004be:    f7fffe71    ..q.    BL       am_hal_interrupt_master_disable ; 0x1a4
        0x000004c2:    9000        ..      STR      r0,[sp,#0]
        0x000004c4:    6626        &f      STR      r6,[r4,#0x60]
        0x000004c6:    6c60        `l      LDR      r0,[r4,#0x44]
        0x000004c8:    f42060e0     ..`    BIC      r0,r0,#0x700
        0x000004cc:    6460        `d      STR      r0,[r4,#0x44]
        0x000004ce:    68a0        .h      LDR      r0,[r4,#8]
        0x000004d0:    f420007f     ...    BIC      r0,r0,#0xff0000
        0x000004d4:    f4402000    @..     ORR      r0,r0,#0x80000
        0x000004d8:    60a0        .`      STR      r0,[r4,#8]
        0x000004da:    f8d400e8    ....    LDR      r0,[r4,#0xe8]
        0x000004de:    f420007f     ...    BIC      r0,r0,#0xff0000
        0x000004e2:    f8c400e8    ....    STR      r0,[r4,#0xe8]
        0x000004e6:    6625        %f      STR      r5,[r4,#0x60]
        0x000004e8:    9800        ..      LDR      r0,[sp,#0]
        0x000004ea:    e8bd40f8    ...@    POP      {r3-r7,lr}
        0x000004ee:    f7ffbe5d    ..].    B.W      am_hal_interrupt_master_set ; 0x1ac
        0x000004f2:    f7fffe57    ..W.    BL       am_hal_interrupt_master_disable ; 0x1a4
        0x000004f6:    9000        ..      STR      r0,[sp,#0]
        0x000004f8:    6626        &f      STR      r6,[r4,#0x60]
        0x000004fa:    6ce0        .l      LDR      r0,[r4,#0x4c]
        0x000004fc:    f42040e0     ..@    BIC      r0,r0,#0x7000
        0x00000500:    64e0        .d      STR      r0,[r4,#0x4c]
        0x00000502:    69a0        .i      LDR      r0,[r4,#0x18]
        0x00000504:    f020407f     ..@    BIC      r0,r0,#0xff000000
        0x00000508:    f0405038    @.8P    ORR      r0,r0,#0x2e000000
        0x0000050c:    61a0        .a      STR      r0,[r4,#0x18]
        0x0000050e:    f8d400f8    ....    LDR      r0,[r4,#0xf8]
        0x00000512:    f020407f     ..@    BIC      r0,r0,#0xff000000
        0x00000516:    f8c400f8    ....    STR      r0,[r4,#0xf8]
        0x0000051a:    6625        %f      STR      r5,[r4,#0x60]
        0x0000051c:    9800        ..      LDR      r0,[sp,#0]
        0x0000051e:    f7fffe45    ..E.    BL       am_hal_interrupt_master_set ; 0x1ac
        0x00000522:    f7fffe3f    ..?.    BL       am_hal_interrupt_master_disable ; 0x1a4
        0x00000526:    9000        ..      STR      r0,[sp,#0]
        0x00000528:    6626        &f      STR      r6,[r4,#0x60]
        0x0000052a:    6ce0        .l      LDR      r0,[r4,#0x4c]
        0x0000052c:    f0200070     .p.    BIC      r0,r0,#0x70
        0x00000530:    64e0        .d      STR      r0,[r4,#0x4c]
        0x00000532:    69a0        .i      LDR      r0,[r4,#0x18]
        0x00000534:    f420407f     ..@    BIC      r0,r0,#0xff00
        0x00000538:    f4405028    @.(P    ORR      r0,r0,#0x2a00
        0x0000053c:    61a0        .a      STR      r0,[r4,#0x18]
        0x0000053e:    f8d400f8    ....    LDR      r0,[r4,#0xf8]
        0x00000542:    f420407f     ..@    BIC      r0,r0,#0xff00
        0x00000546:    f8c400f8    ....    STR      r0,[r4,#0xf8]
        0x0000054a:    6625        %f      STR      r5,[r4,#0x60]
        0x0000054c:    9800        ..      LDR      r0,[sp,#0]
        0x0000054e:    f7fffe2d    ..-.    BL       am_hal_interrupt_master_set ; 0x1ac
        0x00000552:    f7fffe27    ..'.    BL       am_hal_interrupt_master_disable ; 0x1a4
        0x00000556:    9000        ..      STR      r0,[sp,#0]
        0x00000558:    6626        &f      STR      r6,[r4,#0x60]
        0x0000055a:    6ce0        .l      LDR      r0,[r4,#0x4c]
        0x0000055c:    f42020e0     ..     BIC      r0,r0,#0x70000
        0x00000560:    64e0        .d      STR      r0,[r4,#0x4c]
        0x00000562:    69e0        .i      LDR      r0,[r4,#0x1c]
        0x00000564:    f02000ff     ...    BIC      r0,r0,#0xff
        0x00000568:    f0400028    @.(.    ORR      r0,r0,#0x28
        0x0000056c:    61e0        .a      STR      r0,[r4,#0x1c]
        0x0000056e:    f8d400fc    ....    LDR      r0,[r4,#0xfc]
        0x00000572:    f02000ff     ...    BIC      r0,r0,#0xff
        0x00000576:    f8c400fc    ....    STR      r0,[r4,#0xfc]
        0x0000057a:    6625        %f      STR      r5,[r4,#0x60]
        0x0000057c:    9800        ..      LDR      r0,[sp,#0]
        0x0000057e:    e8bd40f8    ...@    POP      {r3-r7,lr}
        0x00000582:    f7ffbe13    ....    B.W      am_hal_interrupt_master_set ; 0x1ac
        0x00000586:    bf00        ..      NOP      
        0x00000588:    f7fffe0c    ....    BL       am_hal_interrupt_master_disable ; 0x1a4
        0x0000058c:    9000        ..      STR      r0,[sp,#0]
        0x0000058e:    6626        &f      STR      r6,[r4,#0x60]
        0x00000590:    6da0        .m      LDR      r0,[r4,#0x58]
        0x00000592:    f0200007     ...    BIC      r0,r0,#7
        0x00000596:    65a0        .e      STR      r0,[r4,#0x58]
        0x00000598:    6b20         k      LDR      r0,[r4,#0x30]
        0x0000059a:    f02000ff     ...    BIC      r0,r0,#0xff
        0x0000059e:    f040002a    @.*.    ORR      r0,r0,#0x2a
        0x000005a2:    6320         c      STR      r0,[r4,#0x30]
        0x000005a4:    f8d40110    ....    LDR      r0,[r4,#0x110]
        0x000005a8:    f02000ff     ...    BIC      r0,r0,#0xff
        0x000005ac:    f8c40110    ....    STR      r0,[r4,#0x110]
        0x000005b0:    6625        %f      STR      r5,[r4,#0x60]
        0x000005b2:    9800        ..      LDR      r0,[sp,#0]
        0x000005b4:    f7fffdfa    ....    BL       am_hal_interrupt_master_set ; 0x1ac
        0x000005b8:    f7fffdf4    ....    BL       am_hal_interrupt_master_disable ; 0x1a4
        0x000005bc:    9000        ..      STR      r0,[sp,#0]
        0x000005be:    6626        &f      STR      r6,[r4,#0x60]
        0x000005c0:    6da0        .m      LDR      r0,[r4,#0x58]
        0x000005c2:    f0200070     .p.    BIC      r0,r0,#0x70
        0x000005c6:    65a0        .e      STR      r0,[r4,#0x58]
        0x000005c8:    6b20         k      LDR      r0,[r4,#0x30]
        0x000005ca:    f420407f     ..@    BIC      r0,r0,#0xff00
        0x000005ce:    f4405028    @.(P    ORR      r0,r0,#0x2a00
        0x000005d2:    6320         c      STR      r0,[r4,#0x30]
        0x000005d4:    f8d40110    ....    LDR      r0,[r4,#0x110]
        0x000005d8:    f420407f     ..@    BIC      r0,r0,#0xff00
        0x000005dc:    f8c40110    ....    STR      r0,[r4,#0x110]
        0x000005e0:    6625        %f      STR      r5,[r4,#0x60]
        0x000005e2:    9800        ..      LDR      r0,[sp,#0]
        0x000005e4:    f7fffde2    ....    BL       am_hal_interrupt_master_set ; 0x1ac
        0x000005e8:    f7fffddc    ....    BL       am_hal_interrupt_master_disable ; 0x1a4
        0x000005ec:    9000        ..      STR      r0,[sp,#0]
        0x000005ee:    6626        &f      STR      r6,[r4,#0x60]
        0x000005f0:    6d60        `m      LDR      r0,[r4,#0x54]
        0x000005f2:    f02040e0     ..@    BIC      r0,r0,#0x70000000
        0x000005f6:    6560        `e      STR      r0,[r4,#0x54]
        0x000005f8:    6ae0        .j      LDR      r0,[r4,#0x2c]
        0x000005fa:    f020407f     ..@    BIC      r0,r0,#0xff000000
        0x000005fe:    f0405020    @. P    ORR      r0,r0,#0x28000000
        0x00000602:    62e0        .b      STR      r0,[r4,#0x2c]
        0x00000604:    f8d4010c    ....    LDR      r0,[r4,#0x10c]
        0x00000608:    f020407f     ..@    BIC      r0,r0,#0xff000000
        0x0000060c:    f8c4010c    ....    STR      r0,[r4,#0x10c]
        0x00000610:    6625        %f      STR      r5,[r4,#0x60]
        0x00000612:    9800        ..      LDR      r0,[sp,#0]
        0x00000614:    e8bd40f8    ...@    POP      {r3-r7,lr}
        0x00000618:    f7ffbdc8    ....    B.W      am_hal_interrupt_master_set ; 0x1ac
    $d
        0x0000061c:    40010000    ...@    DCD    1073807360
    $t
    i.am_bsp_low_power_init
    am_bsp_low_power_init
        0x00000620:    b510        ..      PUSH     {r4,lr}
        0x00000622:    f002fa09    ....    BL       am_hal_pwrctrl_bucks_enable ; 0x2a38
        0x00000626:    f002fa21    ..!.    BL       am_hal_pwrctrl_low_power_init ; 0x2a6c
        0x0000062a:    f002fe93    ....    BL       am_hal_vcomp_disable ; 0x3354
        0x0000062e:    2001        .       MOVS     r0,#1
        0x00000630:    f002fc33    ..3.    BL       am_hal_rtc_osc_select ; 0x2e9a
        0x00000634:    2001        .       MOVS     r0,#1
        0x00000636:    f000fcb3    ....    BL       am_hal_clkgen_osc_stop ; 0xfa0
        0x0000063a:    e8bd4010    ...@    POP      {r4,lr}
        0x0000063e:    f002bc25    ..%.    B.W      am_hal_rtc_osc_disable ; 0x2e8c
    i.am_bsp_uart_string_print
    am_bsp_uart_string_print
        0x00000642:    4601        .F      MOV      r1,r0
        0x00000644:    2000        .       MOVS     r0,#0
        0x00000646:    f002be71    ..q.    B.W      am_hal_uart_string_transmit_polled ; 0x332c
        0x0000064a:    0000        ..      MOVS     r0,r0
    i.am_ctimer_isr
    am_ctimer_isr
        0x0000064c:    b538        8.      PUSH     {r3-r5,lr}
        0x0000064e:    2001        .       MOVS     r0,#1
        0x00000650:    f000fd8e    ....    BL       am_hal_ctimer_int_status_get ; 0x1170
        0x00000654:    4604        .F      MOV      r4,r0
        0x00000656:    4620         F      MOV      r0,r4
        0x00000658:    f000fd72    ..r.    BL       am_hal_ctimer_int_clear ; 0x1140
        0x0000065c:    4809        .H      LDR      r0,[pc,#36] ; [0x684] = 0x1000001a
        0x0000065e:    7800        .x      LDRB     r0,[r0,#0]
        0x00000660:    b170        p.      CBZ      r0,0x680 ; am_ctimer_isr + 52
        0x00000662:    f7fffd9f    ....    BL       am_hal_interrupt_master_disable ; 0x1a4
        0x00000666:    9000        ..      STR      r0,[sp,#0]
        0x00000668:    4807        .H      LDR      r0,[pc,#28] ; [0x688] = 0x40010088
        0x0000066a:    6800        .h      LDR      r0,[r0,#0]
        0x0000066c:    f0804080    ...@    EOR      r0,r0,#0x40000000
        0x00000670:    4905        .I      LDR      r1,[pc,#20] ; [0x688] = 0x40010088
        0x00000672:    3988        .9      SUBS     r1,r1,#0x88
        0x00000674:    f8c10088    ....    STR      r0,[r1,#0x88]
        0x00000678:    9800        ..      LDR      r0,[sp,#0]
        0x0000067a:    f7fffd97    ....    BL       am_hal_interrupt_master_set ; 0x1ac
        0x0000067e:    bf00        ..      NOP      
        0x00000680:    bd38        8.      POP      {r3-r5,pc}
    $d
        0x00000682:    0000        ..      DCW    0
        0x00000684:    1000001a    ....    DCD    268435482
        0x00000688:    40010088    ...@    DCD    1073807496
    $t
    i.am_devices_button_array_init
    am_devices_button_array_init
        0x0000068c:    b570        p.      PUSH     {r4-r6,lr}
        0x0000068e:    4605        .F      MOV      r5,r0
        0x00000690:    460e        .F      MOV      r6,r1
        0x00000692:    2400        .$      MOVS     r4,#0
        0x00000694:    e004        ..      B        0x6a0 ; am_devices_button_array_init + 20
        0x00000696:    eb051004    ....    ADD      r0,r5,r4,LSL #4
        0x0000069a:    f000f805    ....    BL       am_devices_button_init ; 0x6a8
        0x0000069e:    1c64        d.      ADDS     r4,r4,#1
        0x000006a0:    42b4        .B      CMP      r4,r6
        0x000006a2:    d3f8        ..      BCC      0x696 ; am_devices_button_array_init + 10
        0x000006a4:    bd70        p.      POP      {r4-r6,pc}
        0x000006a6:    0000        ..      MOVS     r0,r0
    i.am_devices_button_init
    am_devices_button_init
        0x000006a8:    b538        8.      PUSH     {r3-r5,lr}
        0x000006aa:    4604        .F      MOV      r4,r0
        0x000006ac:    6820         h      LDR      r0,[r4,#0]
        0x000006ae:    2832        2(      CMP      r0,#0x32
        0x000006b0:    d255        U.      BCS      0x75e ; am_devices_button_init + 182
        0x000006b2:    f7fffd77    ..w.    BL       am_hal_interrupt_master_disable ; 0x1a4
        0x000006b6:    9000        ..      STR      r0,[sp,#0]
        0x000006b8:    2073        s       MOVS     r0,#0x73
        0x000006ba:    492b        +I      LDR      r1,[pc,#172] ; [0x768] = 0x40010000
        0x000006bc:    6608        .f      STR      r0,[r1,#0x60]
        0x000006be:    7820         x      LDRB     r0,[r4,#0]
        0x000006c0:    f00000f8    ....    AND      r0,r0,#0xf8
        0x000006c4:    eb010050    ..P.    ADD      r0,r1,r0,LSR #1
        0x000006c8:    6c00        .l      LDR      r0,[r0,#0x40]
        0x000006ca:    7821        !x      LDRB     r1,[r4,#0]
        0x000006cc:    0749        I.      LSLS     r1,r1,#29
        0x000006ce:    0eca        ..      LSRS     r2,r1,#27
        0x000006d0:    2107        .!      MOVS     r1,#7
        0x000006d2:    4091        .@      LSLS     r1,r1,r2
        0x000006d4:    4388        .C      BICS     r0,r0,r1
        0x000006d6:    7821        !x      LDRB     r1,[r4,#0]
        0x000006d8:    0749        I.      LSLS     r1,r1,#29
        0x000006da:    0eca        ..      LSRS     r2,r1,#27
        0x000006dc:    2100        .!      MOVS     r1,#0
        0x000006de:    4091        .@      LSLS     r1,r1,r2
        0x000006e0:    4308        .C      ORRS     r0,r0,r1
        0x000006e2:    7821        !x      LDRB     r1,[r4,#0]
        0x000006e4:    f00101f8    ....    AND      r1,r1,#0xf8
        0x000006e8:    4a1f        .J      LDR      r2,[pc,#124] ; [0x768] = 0x40010000
        0x000006ea:    eb020151    ..Q.    ADD      r1,r2,r1,LSR #1
        0x000006ee:    6408        .d      STR      r0,[r1,#0x40]
        0x000006f0:    7820         x      LDRB     r0,[r4,#0]
        0x000006f2:    f00000fc    ....    AND      r0,r0,#0xfc
        0x000006f6:    4611        .F      MOV      r1,r2
        0x000006f8:    5840        @X      LDR      r0,[r0,r1]
        0x000006fa:    7821        !x      LDRB     r1,[r4,#0]
        0x000006fc:    0789        ..      LSLS     r1,r1,#30
        0x000006fe:    0eca        ..      LSRS     r2,r1,#27
        0x00000700:    21ff        .!      MOVS     r1,#0xff
        0x00000702:    4091        .@      LSLS     r1,r1,r2
        0x00000704:    4388        .C      BICS     r0,r0,r1
        0x00000706:    7821        !x      LDRB     r1,[r4,#0]
        0x00000708:    0789        ..      LSLS     r1,r1,#30
        0x0000070a:    0eca        ..      LSRS     r2,r1,#27
        0x0000070c:    2118        .!      MOVS     r1,#0x18
        0x0000070e:    4091        .@      LSLS     r1,r1,r2
        0x00000710:    4308        .C      ORRS     r0,r0,r1
        0x00000712:    7821        !x      LDRB     r1,[r4,#0]
        0x00000714:    f00101fc    ....    AND      r1,r1,#0xfc
        0x00000718:    4a13        .J      LDR      r2,[pc,#76] ; [0x768] = 0x40010000
        0x0000071a:    5088        .P      STR      r0,[r1,r2]
        0x0000071c:    7820         x      LDRB     r0,[r4,#0]
        0x0000071e:    f00000fc    ....    AND      r0,r0,#0xfc
        0x00000722:    4611        .F      MOV      r1,r2
        0x00000724:    4408        .D      ADD      r0,r0,r1
        0x00000726:    f8d000e0    ....    LDR      r0,[r0,#0xe0]
        0x0000072a:    7821        !x      LDRB     r1,[r4,#0]
        0x0000072c:    0789        ..      LSLS     r1,r1,#30
        0x0000072e:    0eca        ..      LSRS     r2,r1,#27
        0x00000730:    21ff        .!      MOVS     r1,#0xff
        0x00000732:    4091        .@      LSLS     r1,r1,r2
        0x00000734:    4388        .C      BICS     r0,r0,r1
        0x00000736:    7821        !x      LDRB     r1,[r4,#0]
        0x00000738:    0789        ..      LSLS     r1,r1,#30
        0x0000073a:    0eca        ..      LSRS     r2,r1,#27
        0x0000073c:    2100        .!      MOVS     r1,#0
        0x0000073e:    4091        .@      LSLS     r1,r1,r2
        0x00000740:    4308        .C      ORRS     r0,r0,r1
        0x00000742:    7821        !x      LDRB     r1,[r4,#0]
        0x00000744:    f00101fc    ....    AND      r1,r1,#0xfc
        0x00000748:    4a07        .J      LDR      r2,[pc,#28] ; [0x768] = 0x40010000
        0x0000074a:    4411        .D      ADD      r1,r1,r2
        0x0000074c:    f8c100e0    ....    STR      r0,[r1,#0xe0]
        0x00000750:    2000        .       MOVS     r0,#0
        0x00000752:    4611        .F      MOV      r1,r2
        0x00000754:    6608        .f      STR      r0,[r1,#0x60]
        0x00000756:    9800        ..      LDR      r0,[sp,#0]
        0x00000758:    f7fffd28    ..(.    BL       am_hal_interrupt_master_set ; 0x1ac
        0x0000075c:    bf00        ..      NOP      
        0x0000075e:    2000        .       MOVS     r0,#0
        0x00000760:    60a0        .`      STR      r0,[r4,#8]
        0x00000762:    7320         s      STRB     r0,[r4,#0xc]
        0x00000764:    7360        `s      STRB     r0,[r4,#0xd]
        0x00000766:    bd38        8.      POP      {r3-r5,pc}
    $d
        0x00000768:    40010000    ...@    DCD    1073807360
    $t
    i.am_devices_button_tick
    am_devices_button_tick
        0x0000076c:    b5f8        ..      PUSH     {r3-r7,lr}
        0x0000076e:    4604        .F      MOV      r4,r0
        0x00000770:    6820         h      LDR      r0,[r4,#0]
        0x00000772:    2832        2(      CMP      r0,#0x32
        0x00000774:    d255        U.      BCS      0x822 ; am_devices_button_tick + 182
        0x00000776:    f7fffd15    ....    BL       am_hal_interrupt_master_disable ; 0x1a4
        0x0000077a:    9000        ..      STR      r0,[sp,#0]
        0x0000077c:    2073        s       MOVS     r0,#0x73
        0x0000077e:    496d        mI      LDR      r1,[pc,#436] ; [0x934] = 0x40010000
        0x00000780:    6608        .f      STR      r0,[r1,#0x60]
        0x00000782:    7820         x      LDRB     r0,[r4,#0]
        0x00000784:    f00000f8    ....    AND      r0,r0,#0xf8
        0x00000788:    eb010050    ..P.    ADD      r0,r1,r0,LSR #1
        0x0000078c:    6c00        .l      LDR      r0,[r0,#0x40]
        0x0000078e:    7821        !x      LDRB     r1,[r4,#0]
        0x00000790:    0749        I.      LSLS     r1,r1,#29
        0x00000792:    0eca        ..      LSRS     r2,r1,#27
        0x00000794:    2107        .!      MOVS     r1,#7
        0x00000796:    4091        .@      LSLS     r1,r1,r2
        0x00000798:    4388        .C      BICS     r0,r0,r1
        0x0000079a:    7821        !x      LDRB     r1,[r4,#0]
        0x0000079c:    0749        I.      LSLS     r1,r1,#29
        0x0000079e:    0eca        ..      LSRS     r2,r1,#27
        0x000007a0:    2100        .!      MOVS     r1,#0
        0x000007a2:    4091        .@      LSLS     r1,r1,r2
        0x000007a4:    4308        .C      ORRS     r0,r0,r1
        0x000007a6:    7821        !x      LDRB     r1,[r4,#0]
        0x000007a8:    f00101f8    ....    AND      r1,r1,#0xf8
        0x000007ac:    4a61        aJ      LDR      r2,[pc,#388] ; [0x934] = 0x40010000
        0x000007ae:    eb020151    ..Q.    ADD      r1,r2,r1,LSR #1
        0x000007b2:    6408        .d      STR      r0,[r1,#0x40]
        0x000007b4:    7820         x      LDRB     r0,[r4,#0]
        0x000007b6:    f00000fc    ....    AND      r0,r0,#0xfc
        0x000007ba:    4611        .F      MOV      r1,r2
        0x000007bc:    5840        @X      LDR      r0,[r0,r1]
        0x000007be:    7821        !x      LDRB     r1,[r4,#0]
        0x000007c0:    0789        ..      LSLS     r1,r1,#30
        0x000007c2:    0eca        ..      LSRS     r2,r1,#27
        0x000007c4:    21ff        .!      MOVS     r1,#0xff
        0x000007c6:    4091        .@      LSLS     r1,r1,r2
        0x000007c8:    4388        .C      BICS     r0,r0,r1
        0x000007ca:    7821        !x      LDRB     r1,[r4,#0]
        0x000007cc:    0789        ..      LSLS     r1,r1,#30
        0x000007ce:    0eca        ..      LSRS     r2,r1,#27
        0x000007d0:    211a        .!      MOVS     r1,#0x1a
        0x000007d2:    4091        .@      LSLS     r1,r1,r2
        0x000007d4:    4308        .C      ORRS     r0,r0,r1
        0x000007d6:    7821        !x      LDRB     r1,[r4,#0]
        0x000007d8:    f00101fc    ....    AND      r1,r1,#0xfc
        0x000007dc:    4a55        UJ      LDR      r2,[pc,#340] ; [0x934] = 0x40010000
        0x000007de:    5088        .P      STR      r0,[r1,r2]
        0x000007e0:    7820         x      LDRB     r0,[r4,#0]
        0x000007e2:    f00000fc    ....    AND      r0,r0,#0xfc
        0x000007e6:    4611        .F      MOV      r1,r2
        0x000007e8:    4408        .D      ADD      r0,r0,r1
        0x000007ea:    f8d000e0    ....    LDR      r0,[r0,#0xe0]
        0x000007ee:    7821        !x      LDRB     r1,[r4,#0]
        0x000007f0:    0789        ..      LSLS     r1,r1,#30
        0x000007f2:    0eca        ..      LSRS     r2,r1,#27
        0x000007f4:    21ff        .!      MOVS     r1,#0xff
        0x000007f6:    4091        .@      LSLS     r1,r1,r2
        0x000007f8:    4388        .C      BICS     r0,r0,r1
        0x000007fa:    7821        !x      LDRB     r1,[r4,#0]
        0x000007fc:    0789        ..      LSLS     r1,r1,#30
        0x000007fe:    0eca        ..      LSRS     r2,r1,#27
        0x00000800:    2100        .!      MOVS     r1,#0
        0x00000802:    4091        .@      LSLS     r1,r1,r2
        0x00000804:    4308        .C      ORRS     r0,r0,r1
        0x00000806:    7821        !x      LDRB     r1,[r4,#0]
        0x00000808:    f00101fc    ....    AND      r1,r1,#0xfc
        0x0000080c:    4a49        IJ      LDR      r2,[pc,#292] ; [0x934] = 0x40010000
        0x0000080e:    4411        .D      ADD      r1,r1,r2
        0x00000810:    f8c100e0    ....    STR      r0,[r1,#0xe0]
        0x00000814:    2000        .       MOVS     r0,#0
        0x00000816:    4611        .F      MOV      r1,r2
        0x00000818:    6608        .f      STR      r0,[r1,#0x60]
        0x0000081a:    9800        ..      LDR      r0,[sp,#0]
        0x0000081c:    f7fffcc6    ....    BL       am_hal_interrupt_master_set ; 0x1ac
        0x00000820:    bf00        ..      NOP      
        0x00000822:    7820         x      LDRB     r0,[r4,#0]
        0x00000824:    f0000020    .. .    AND      r0,r0,#0x20
        0x00000828:    4942        BI      LDR      r1,[pc,#264] ; [0x934] = 0x40010000
        0x0000082a:    eb0100d0    ....    ADD      r0,r1,r0,LSR #3
        0x0000082e:    f8d00080    ....    LDR      r0,[r0,#0x80]
        0x00000832:    7821        !x      LDRB     r1,[r4,#0]
        0x00000834:    f001021f    ....    AND      r2,r1,#0x1f
        0x00000838:    2101        .!      MOVS     r1,#1
        0x0000083a:    4091        .@      LSLS     r1,r1,r2
        0x0000083c:    4008        .@      ANDS     r0,r0,r1
        0x0000083e:    b108        ..      CBZ      r0,0x844 ; am_devices_button_tick + 216
        0x00000840:    2001        .       MOVS     r0,#1
        0x00000842:    e000        ..      B        0x846 ; am_devices_button_tick + 218
        0x00000844:    2000        .       MOVS     r0,#0
        0x00000846:    4606        .F      MOV      r6,r0
        0x00000848:    6860        `h      LDR      r0,[r4,#4]
        0x0000084a:    42b0        .B      CMP      r0,r6
        0x0000084c:    d001        ..      BEQ      0x852 ; am_devices_button_tick + 230
        0x0000084e:    2001        .       MOVS     r0,#1
        0x00000850:    e000        ..      B        0x854 ; am_devices_button_tick + 232
        0x00000852:    2000        .       MOVS     r0,#0
        0x00000854:    4605        .F      MOV      r5,r0
        0x00000856:    7b20         {      LDRB     r0,[r4,#0xc]
        0x00000858:    42a8        .B      CMP      r0,r5
        0x0000085a:    d003        ..      BEQ      0x864 ; am_devices_button_tick + 248
        0x0000085c:    68a0        .h      LDR      r0,[r4,#8]
        0x0000085e:    1c40        @.      ADDS     r0,r0,#1
        0x00000860:    60a0        .`      STR      r0,[r4,#8]
        0x00000862:    e001        ..      B        0x868 ; am_devices_button_tick + 252
        0x00000864:    2000        .       MOVS     r0,#0
        0x00000866:    60a0        .`      STR      r0,[r4,#8]
        0x00000868:    68a0        .h      LDR      r0,[r4,#8]
        0x0000086a:    2804        .(      CMP      r0,#4
        0x0000086c:    d305        ..      BCC      0x87a ; am_devices_button_tick + 270
        0x0000086e:    7325        %s      STRB     r5,[r4,#0xc]
        0x00000870:    2001        .       MOVS     r0,#1
        0x00000872:    7360        `s      STRB     r0,[r4,#0xd]
        0x00000874:    2000        .       MOVS     r0,#0
        0x00000876:    60a0        .`      STR      r0,[r4,#8]
        0x00000878:    e001        ..      B        0x87e ; am_devices_button_tick + 274
        0x0000087a:    2000        .       MOVS     r0,#0
        0x0000087c:    7360        `s      STRB     r0,[r4,#0xd]
        0x0000087e:    6820         h      LDR      r0,[r4,#0]
        0x00000880:    2832        2(      CMP      r0,#0x32
        0x00000882:    d255        U.      BCS      0x930 ; am_devices_button_tick + 452
        0x00000884:    f7fffc8e    ....    BL       am_hal_interrupt_master_disable ; 0x1a4
        0x00000888:    9000        ..      STR      r0,[sp,#0]
        0x0000088a:    2073        s       MOVS     r0,#0x73
        0x0000088c:    4929        )I      LDR      r1,[pc,#164] ; [0x934] = 0x40010000
        0x0000088e:    6608        .f      STR      r0,[r1,#0x60]
        0x00000890:    7820         x      LDRB     r0,[r4,#0]
        0x00000892:    f00000f8    ....    AND      r0,r0,#0xf8
        0x00000896:    eb010050    ..P.    ADD      r0,r1,r0,LSR #1
        0x0000089a:    6c00        .l      LDR      r0,[r0,#0x40]
        0x0000089c:    7821        !x      LDRB     r1,[r4,#0]
        0x0000089e:    0749        I.      LSLS     r1,r1,#29
        0x000008a0:    0eca        ..      LSRS     r2,r1,#27
        0x000008a2:    2107        .!      MOVS     r1,#7
        0x000008a4:    4091        .@      LSLS     r1,r1,r2
        0x000008a6:    4388        .C      BICS     r0,r0,r1
        0x000008a8:    7821        !x      LDRB     r1,[r4,#0]
        0x000008aa:    0749        I.      LSLS     r1,r1,#29
        0x000008ac:    0eca        ..      LSRS     r2,r1,#27
        0x000008ae:    2100        .!      MOVS     r1,#0
        0x000008b0:    4091        .@      LSLS     r1,r1,r2
        0x000008b2:    4308        .C      ORRS     r0,r0,r1
        0x000008b4:    7821        !x      LDRB     r1,[r4,#0]
        0x000008b6:    f00101f8    ....    AND      r1,r1,#0xf8
        0x000008ba:    4a1e        .J      LDR      r2,[pc,#120] ; [0x934] = 0x40010000
        0x000008bc:    eb020151    ..Q.    ADD      r1,r2,r1,LSR #1
        0x000008c0:    6408        .d      STR      r0,[r1,#0x40]
        0x000008c2:    7820         x      LDRB     r0,[r4,#0]
        0x000008c4:    f00000fc    ....    AND      r0,r0,#0xfc
        0x000008c8:    4611        .F      MOV      r1,r2
        0x000008ca:    5840        @X      LDR      r0,[r0,r1]
        0x000008cc:    7821        !x      LDRB     r1,[r4,#0]
        0x000008ce:    0789        ..      LSLS     r1,r1,#30
        0x000008d0:    0eca        ..      LSRS     r2,r1,#27
        0x000008d2:    21ff        .!      MOVS     r1,#0xff
        0x000008d4:    4091        .@      LSLS     r1,r1,r2
        0x000008d6:    4388        .C      BICS     r0,r0,r1
        0x000008d8:    7821        !x      LDRB     r1,[r4,#0]
        0x000008da:    0789        ..      LSLS     r1,r1,#30
        0x000008dc:    0eca        ..      LSRS     r2,r1,#27
        0x000008de:    2118        .!      MOVS     r1,#0x18
        0x000008e0:    4091        .@      LSLS     r1,r1,r2
        0x000008e2:    4308        .C      ORRS     r0,r0,r1
        0x000008e4:    7821        !x      LDRB     r1,[r4,#0]
        0x000008e6:    f00101fc    ....    AND      r1,r1,#0xfc
        0x000008ea:    4a12        .J      LDR      r2,[pc,#72] ; [0x934] = 0x40010000
        0x000008ec:    5088        .P      STR      r0,[r1,r2]
        0x000008ee:    7820         x      LDRB     r0,[r4,#0]
        0x000008f0:    f00000fc    ....    AND      r0,r0,#0xfc
        0x000008f4:    4611        .F      MOV      r1,r2
        0x000008f6:    4408        .D      ADD      r0,r0,r1
        0x000008f8:    f8d000e0    ....    LDR      r0,[r0,#0xe0]
        0x000008fc:    7821        !x      LDRB     r1,[r4,#0]
        0x000008fe:    0789        ..      LSLS     r1,r1,#30
        0x00000900:    0eca        ..      LSRS     r2,r1,#27
        0x00000902:    21ff        .!      MOVS     r1,#0xff
        0x00000904:    4091        .@      LSLS     r1,r1,r2
        0x00000906:    4388        .C      BICS     r0,r0,r1
        0x00000908:    7821        !x      LDRB     r1,[r4,#0]
        0x0000090a:    0789        ..      LSLS     r1,r1,#30
        0x0000090c:    0eca        ..      LSRS     r2,r1,#27
        0x0000090e:    2100        .!      MOVS     r1,#0
        0x00000910:    4091        .@      LSLS     r1,r1,r2
        0x00000912:    4308        .C      ORRS     r0,r0,r1
        0x00000914:    7821        !x      LDRB     r1,[r4,#0]
        0x00000916:    f00101fc    ....    AND      r1,r1,#0xfc
        0x0000091a:    4a06        .J      LDR      r2,[pc,#24] ; [0x934] = 0x40010000
        0x0000091c:    4411        .D      ADD      r1,r1,r2
        0x0000091e:    f8c100e0    ....    STR      r0,[r1,#0xe0]
        0x00000922:    2000        .       MOVS     r0,#0
        0x00000924:    4611        .F      MOV      r1,r2
        0x00000926:    6608        .f      STR      r0,[r1,#0x60]
        0x00000928:    9800        ..      LDR      r0,[sp,#0]
        0x0000092a:    f7fffc3f    ..?.    BL       am_hal_interrupt_master_set ; 0x1ac
        0x0000092e:    bf00        ..      NOP      
        0x00000930:    bdf8        ..      POP      {r3-r7,pc}
    $d
        0x00000932:    0000        ..      DCW    0
        0x00000934:    40010000    ...@    DCD    1073807360
    $t
    i.am_devices_em9304_block_read
    am_devices_em9304_block_read
        0x00000938:    e92d47ff    -..G    PUSH     {r0-r10,lr}
        0x0000093c:    4605        .F      MOV      r5,r0
        0x0000093e:    460f        .F      MOV      r7,r1
        0x00000940:    4692        .F      MOV      r10,r2
        0x00000942:    2600        .&      MOVS     r6,#0
        0x00000944:    2081        .       MOVS     r0,#0x81
        0x00000946:    f88d000c    ....    STRB     r0,[sp,#0xc]
        0x0000094a:    2000        .       MOVS     r0,#0
        0x0000094c:    f88d000d    ....    STRB     r0,[sp,#0xd]
        0x00000950:    4844        DH      LDR      r0,[pc,#272] ; [0xa64] = 0x10000021
        0x00000952:    7800        .x      LDRB     r0,[r0,#0]
        0x00000954:    b118        ..      CBZ      r0,0x95e ; am_devices_em9304_block_read + 38
        0x00000956:    2000        .       MOVS     r0,#0
        0x00000958:    b004        ..      ADD      sp,sp,#0x10
        0x0000095a:    e8bd87f0    ....    POP      {r4-r10,pc}
        0x0000095e:    f000fc95    ....    BL       am_hal_gpio_input_read ; 0x128c
        0x00000962:    f04f6380    O..c    MOV      r3,#0x4000000
        0x00000966:    4018        .@      ANDS     r0,r0,r3
        0x00000968:    2100        .!      MOVS     r1,#0
        0x0000096a:    4048        H@      EORS     r0,r0,r1
        0x0000096c:    4049        I@      EORS     r1,r1,r1
        0x0000096e:    4308        .C      ORRS     r0,r0,r1
        0x00000970:    d100        ..      BNE      0x974 ; am_devices_em9304_block_read + 60
        0x00000972:    e7f1        ..      B        0x958 ; am_devices_em9304_block_read + 32
        0x00000974:    f44f5000    O..P    MOV      r0,#0x2000
        0x00000978:    493b        ;I      LDR      r1,[pc,#236] ; [0xa68] = 0x4001009c
        0x0000097a:    6008        .`      STR      r0,[r1,#0]
        0x0000097c:    f002fe14    ....    BL       isRevB2 ; 0x35a8
        0x00000980:    b1c0        ..      CBZ      r0,0x9b4 ; am_devices_em9304_block_read + 124
        0x00000982:    f04f4080    O..@    MOV      r0,#0x40000000
        0x00000986:    2102        .!      MOVS     r1,#2
        0x00000988:    e9cd1000    ....    STRD     r1,r0,[sp,#0]
        0x0000098c:    ab02        ..      ADD      r3,sp,#8
        0x0000098e:    aa03        ..      ADD      r2,sp,#0xc
        0x00000990:    2100        .!      MOVS     r1,#0
        0x00000992:    6868        hh      LDR      r0,[r5,#4]
        0x00000994:    f001f92c    ..,.    BL       am_hal_iom_spi_fullduplex ; 0x1bf0
        0x00000998:    f89d0008    ....    LDRB     r0,[sp,#8]
        0x0000099c:    28c0        .(      CMP      r0,#0xc0
        0x0000099e:    d006        ..      BEQ      0x9ae ; am_devices_em9304_block_read + 118
        0x000009a0:    f44f5000    O..P    MOV      r0,#0x2000
        0x000009a4:    4930        0I      LDR      r1,[pc,#192] ; [0xa68] = 0x4001009c
        0x000009a6:    3908        .9      SUBS     r1,r1,#8
        0x000009a8:    6008        .`      STR      r0,[r1,#0]
        0x000009aa:    2000        .       MOVS     r0,#0
        0x000009ac:    e7d4        ..      B        0x958 ; am_devices_em9304_block_read + 32
        0x000009ae:    f89d4009    ...@    LDRB     r4,[sp,#9]
        0x000009b2:    e013        ..      B        0x9dc ; am_devices_em9304_block_read + 164
        0x000009b4:    f04f4080    O..@    MOV      r0,#0x40000000
        0x000009b8:    9000        ..      STR      r0,[sp,#0]
        0x000009ba:    2301        .#      MOVS     r3,#1
        0x000009bc:    aa03        ..      ADD      r2,sp,#0xc
        0x000009be:    2100        .!      MOVS     r1,#0
        0x000009c0:    6868        hh      LDR      r0,[r5,#4]
        0x000009c2:    f001fbf5    ....    BL       am_hal_iom_spi_write ; 0x21b0
        0x000009c6:    f04f4080    O..@    MOV      r0,#0x40000000
        0x000009ca:    9000        ..      STR      r0,[sp,#0]
        0x000009cc:    2301        .#      MOVS     r3,#1
        0x000009ce:    aa02        ..      ADD      r2,sp,#8
        0x000009d0:    2100        .!      MOVS     r1,#0
        0x000009d2:    6868        hh      LDR      r0,[r5,#4]
        0x000009d4:    f001fa1c    ....    BL       am_hal_iom_spi_read ; 0x1e10
        0x000009d8:    f89d4008    ...@    LDRB     r4,[sp,#8]
        0x000009dc:    e02d        -.      B        0xa3a ; am_devices_em9304_block_read + 258
        0x000009de:    f04f0801    O...    MOV      r8,#1
        0x000009e2:    1ba0        ..      SUBS     r0,r4,r6
        0x000009e4:    28ff        .(      CMP      r0,#0xff
        0x000009e6:    dd01        ..      BLE      0x9ec ; am_devices_em9304_block_read + 180
        0x000009e8:    2000        .       MOVS     r0,#0
        0x000009ea:    e7b5        ..      B        0x958 ; am_devices_em9304_block_read + 32
        0x000009ec:    46a0        .F      MOV      r8,r4
        0x000009ee:    2000        .       MOVS     r0,#0
        0x000009f0:    491e        .I      LDR      r1,[pc,#120] ; [0xa6c] = 0x10000022
        0x000009f2:    7008        .p      STRB     r0,[r1,#0]
        0x000009f4:    481e        .H      LDR      r0,[pc,#120] ; [0xa70] = 0x359d
        0x000009f6:    f04f4180    O..A    MOV      r1,#0x40000000
        0x000009fa:    e9cd1000    ....    STRD     r1,r0,[sp,#0]
        0x000009fe:    4643        CF      MOV      r3,r8
        0x00000a00:    463a        :F      MOV      r2,r7
        0x00000a02:    2100        .!      MOVS     r1,#0
        0x00000a04:    6868        hh      LDR      r0,[r5,#4]
        0x00000a06:    f001fa7f    ....    BL       am_hal_iom_spi_read_nb ; 0x1f08
        0x00000a0a:    e011        ..      B        0xa30 ; am_devices_em9304_block_read + 248
        0x00000a0c:    f7fffbca    ....    BL       am_hal_interrupt_master_disable ; 0x1a4
        0x00000a10:    4681        .F      MOV      r9,r0
        0x00000a12:    4816        .H      LDR      r0,[pc,#88] ; [0xa6c] = 0x10000022
        0x00000a14:    7800        .x      LDRB     r0,[r0,#0]
        0x00000a16:    b930        0.      CBNZ     r0,0xa26 ; am_devices_em9304_block_read + 238
        0x00000a18:    2001        .       MOVS     r0,#1
        0x00000a1a:    f002fa49    ..I.    BL       am_hal_sysctrl_sleep ; 0x2eb0
        0x00000a1e:    4648        HF      MOV      r0,r9
        0x00000a20:    f7fffbc4    ....    BL       am_hal_interrupt_master_set ; 0x1ac
        0x00000a24:    e003        ..      B        0xa2e ; am_devices_em9304_block_read + 246
        0x00000a26:    4648        HF      MOV      r0,r9
        0x00000a28:    f7fffbc0    ....    BL       am_hal_interrupt_master_set ; 0x1ac
        0x00000a2c:    e001        ..      B        0xa32 ; am_devices_em9304_block_read + 250
        0x00000a2e:    bf00        ..      NOP      
        0x00000a30:    e7ec        ..      B        0xa0c ; am_devices_em9304_block_read + 212
        0x00000a32:    bf00        ..      NOP      
        0x00000a34:    f00806ff    ....    AND      r6,r8,#0xff
        0x00000a38:    bf00        ..      NOP      
        0x00000a3a:    f000fc27    ..'.    BL       am_hal_gpio_input_read ; 0x128c
        0x00000a3e:    f04f6380    O..c    MOV      r3,#0x4000000
        0x00000a42:    4018        .@      ANDS     r0,r0,r3
        0x00000a44:    2100        .!      MOVS     r1,#0
        0x00000a46:    4048        H@      EORS     r0,r0,r1
        0x00000a48:    4049        I@      EORS     r1,r1,r1
        0x00000a4a:    4308        .C      ORRS     r0,r0,r1
        0x00000a4c:    d003        ..      BEQ      0xa56 ; am_devices_em9304_block_read + 286
        0x00000a4e:    42a6        .B      CMP      r6,r4
        0x00000a50:    da01        ..      BGE      0xa56 ; am_devices_em9304_block_read + 286
        0x00000a52:    2c00        .,      CMP      r4,#0
        0x00000a54:    d1c3        ..      BNE      0x9de ; am_devices_em9304_block_read + 166
        0x00000a56:    f44f5000    O..P    MOV      r0,#0x2000
        0x00000a5a:    4903        .I      LDR      r1,[pc,#12] ; [0xa68] = 0x4001009c
        0x00000a5c:    3908        .9      SUBS     r1,r1,#8
        0x00000a5e:    6008        .`      STR      r0,[r1,#0]
        0x00000a60:    4630        0F      MOV      r0,r6
        0x00000a62:    e779        y.      B        0x958 ; am_devices_em9304_block_read + 32
    $d
        0x00000a64:    10000021    !...    DCD    268435489
        0x00000a68:    4001009c    ...@    DCD    1073807516
        0x00000a6c:    10000022    "...    DCD    268435490
        0x00000a70:    0000359d    .5..    DCD    13725
    $t
    i.am_devices_em9304_block_write
    am_devices_em9304_block_write
        0x00000a74:    e92d4ff0    -..O    PUSH     {r4-r11,lr}
        0x00000a78:    b0c3        ..      SUB      sp,sp,#0x10c
        0x00000a7a:    4680        .F      MOV      r8,r0
        0x00000a7c:    4689        .F      MOV      r9,r1
        0x00000a7e:    4617        .F      MOV      r7,r2
        0x00000a80:    461d        .F      MOV      r5,r3
        0x00000a82:    f04f0a00    O...    MOV      r10,#0
        0x00000a86:    2000        .       MOVS     r0,#0
        0x00000a88:    9002        ..      STR      r0,[sp,#8]
        0x00000a8a:    1c68        h.      ADDS     r0,r5,#1
        0x00000a8c:    f5b07f80    ....    CMP      r0,#0x100
        0x00000a90:    d902        ..      BLS      0xa98 ; am_devices_em9304_block_write + 36
        0x00000a92:    b043        C.      ADD      sp,sp,#0x10c
        0x00000a94:    e8bd8ff0    ....    POP      {r4-r11,pc}
        0x00000a98:    2400        .$      MOVS     r4,#0
        0x00000a9a:    e054        T.      B        0xb46 ; am_devices_em9304_block_write + 210
        0x00000a9c:    42ac        .B      CMP      r4,r5
        0x00000a9e:    d203        ..      BCS      0xaa8 ; am_devices_em9304_block_write + 52
        0x00000aa0:    4640        @F      MOV      r0,r8
        0x00000aa2:    f000f9ab    ....    BL       am_devices_em9304_tx_starts ; 0xdfc
        0x00000aa6:    4682        .F      MOV      r10,r0
        0x00000aa8:    1b28        (.      SUBS     r0,r5,r4
        0x00000aaa:    4550        PE      CMP      r0,r10
        0x00000aac:    d901        ..      BLS      0xab2 ; am_devices_em9304_block_write + 62
        0x00000aae:    4650        PF      MOV      r0,r10
        0x00000ab0:    e000        ..      B        0xab4 ; am_devices_em9304_block_write + 64
        0x00000ab2:    1b28        (.      SUBS     r0,r5,r4
        0x00000ab4:    4606        .F      MOV      r6,r0
        0x00000ab6:    2e00        ..      CMP      r6,#0
        0x00000ab8:    d042        B.      BEQ      0xb40 ; am_devices_em9304_block_write + 204
        0x00000aba:    9802        ..      LDR      r0,[sp,#8]
        0x00000abc:    b960        `.      CBNZ     r0,0xad8 ; am_devices_em9304_block_write + 100
        0x00000abe:    f88d900c    ....    STRB     r9,[sp,#0xc]
        0x00000ac2:    1e72        r.      SUBS     r2,r6,#1
        0x00000ac4:    4639        9F      MOV      r1,r7
        0x00000ac6:    f10d000d    ....    ADD      r0,sp,#0xd
        0x00000aca:    f7fffb91    ....    BL       __aeabi_memcpy ; 0x1f0
        0x00000ace:    1e70        p.      SUBS     r0,r6,#1
        0x00000ad0:    4404        .D      ADD      r4,r4,r0
        0x00000ad2:    2001        .       MOVS     r0,#1
        0x00000ad4:    9002        ..      STR      r0,[sp,#8]
        0x00000ad6:    e005        ..      B        0xae4 ; am_devices_em9304_block_write + 112
        0x00000ad8:    1939        9.      ADDS     r1,r7,r4
        0x00000ada:    4632        2F      MOV      r2,r6
        0x00000adc:    a803        ..      ADD      r0,sp,#0xc
        0x00000ade:    f7fffb87    ....    BL       __aeabi_memcpy ; 0x1f0
        0x00000ae2:    4434        4D      ADD      r4,r4,r6
        0x00000ae4:    bf00        ..      NOP      
        0x00000ae6:    f000fbd1    ....    BL       am_hal_gpio_input_read ; 0x128c
        0x00000aea:    f04f6380    O..c    MOV      r3,#0x4000000
        0x00000aee:    4018        .@      ANDS     r0,r0,r3
        0x00000af0:    2100        .!      MOVS     r1,#0
        0x00000af2:    4048        H@      EORS     r0,r0,r1
        0x00000af4:    4049        I@      EORS     r1,r1,r1
        0x00000af6:    4308        .C      ORRS     r0,r0,r1
        0x00000af8:    d0f5        ..      BEQ      0xae6 ; am_devices_em9304_block_write + 114
        0x00000afa:    2000        .       MOVS     r0,#0
        0x00000afc:    4914        .I      LDR      r1,[pc,#80] ; [0xb50] = 0x10000022
        0x00000afe:    7008        .p      STRB     r0,[r1,#0]
        0x00000b00:    4814        .H      LDR      r0,[pc,#80] ; [0xb54] = 0x359d
        0x00000b02:    0119        ..      LSLS     r1,r3,#4
        0x00000b04:    e9cd1000    ....    STRD     r1,r0,[sp,#0]
        0x00000b08:    4633        3F      MOV      r3,r6
        0x00000b0a:    aa03        ..      ADD      r2,sp,#0xc
        0x00000b0c:    2100        .!      MOVS     r1,#0
        0x00000b0e:    f8d80004    ....    LDR      r0,[r8,#4]
        0x00000b12:    f001fbc3    ....    BL       am_hal_iom_spi_write_nb ; 0x229c
        0x00000b16:    e011        ..      B        0xb3c ; am_devices_em9304_block_write + 200
        0x00000b18:    f7fffb44    ..D.    BL       am_hal_interrupt_master_disable ; 0x1a4
        0x00000b1c:    4683        .F      MOV      r11,r0
        0x00000b1e:    480c        .H      LDR      r0,[pc,#48] ; [0xb50] = 0x10000022
        0x00000b20:    7800        .x      LDRB     r0,[r0,#0]
        0x00000b22:    b930        0.      CBNZ     r0,0xb32 ; am_devices_em9304_block_write + 190
        0x00000b24:    2001        .       MOVS     r0,#1
        0x00000b26:    f002f9c3    ....    BL       am_hal_sysctrl_sleep ; 0x2eb0
        0x00000b2a:    4658        XF      MOV      r0,r11
        0x00000b2c:    f7fffb3e    ..>.    BL       am_hal_interrupt_master_set ; 0x1ac
        0x00000b30:    e003        ..      B        0xb3a ; am_devices_em9304_block_write + 198
        0x00000b32:    4658        XF      MOV      r0,r11
        0x00000b34:    f7fffb3a    ..:.    BL       am_hal_interrupt_master_set ; 0x1ac
        0x00000b38:    e001        ..      B        0xb3e ; am_devices_em9304_block_write + 202
        0x00000b3a:    bf00        ..      NOP      
        0x00000b3c:    e7ec        ..      B        0xb18 ; am_devices_em9304_block_write + 164
        0x00000b3e:    bf00        ..      NOP      
        0x00000b40:    f000f948    ..H.    BL       am_devices_em9304_tx_ends ; 0xdd4
        0x00000b44:    bf00        ..      NOP      
        0x00000b46:    42ac        .B      CMP      r4,r5
        0x00000b48:    d3a8        ..      BCC      0xa9c ; am_devices_em9304_block_write + 40
        0x00000b4a:    bf00        ..      NOP      
        0x00000b4c:    e7a1        ..      B        0xa92 ; am_devices_em9304_block_write + 30
    $d
        0x00000b4e:    0000        ..      DCW    0
        0x00000b50:    10000022    "...    DCD    268435490
        0x00000b54:    0000359d    .5..    DCD    13725
    $t
    i.am_devices_em9304_config_pins
    am_devices_em9304_config_pins
        0x00000b58:    b508        ..      PUSH     {r3,lr}
        0x00000b5a:    f7fffb23    ..#.    BL       am_hal_interrupt_master_disable ; 0x1a4
        0x00000b5e:    9000        ..      STR      r0,[sp,#0]
        0x00000b60:    2073        s       MOVS     r0,#0x73
        0x00000b62:    492b        +I      LDR      r1,[pc,#172] ; [0xc10] = 0x40010000
        0x00000b64:    6608        .f      STR      r0,[r1,#0x60]
        0x00000b66:    4608        .F      MOV      r0,r1
        0x00000b68:    6d40        @m      LDR      r0,[r0,#0x54]
        0x00000b6a:    f42000e0     ...    BIC      r0,r0,#0x700000
        0x00000b6e:    f4401000    @...    ORR      r0,r0,#0x200000
        0x00000b72:    6548        He      STR      r0,[r1,#0x54]
        0x00000b74:    4608        .F      MOV      r0,r1
        0x00000b76:    6ac0        .j      LDR      r0,[r0,#0x2c]
        0x00000b78:    f420407f     ..@    BIC      r0,r0,#0xff00
        0x00000b7c:    f44050c0    @..P    ORR      r0,r0,#0x1800
        0x00000b80:    62c8        .b      STR      r0,[r1,#0x2c]
        0x00000b82:    4824        $H      LDR      r0,[pc,#144] ; [0xc14] = 0x4001010c
        0x00000b84:    6800        .h      LDR      r0,[r0,#0]
        0x00000b86:    f420407f     ..@    BIC      r0,r0,#0xff00
        0x00000b8a:    f8c1010c    ....    STR      r0,[r1,#0x10c]
        0x00000b8e:    2000        .       MOVS     r0,#0
        0x00000b90:    6608        .f      STR      r0,[r1,#0x60]
        0x00000b92:    9800        ..      LDR      r0,[sp,#0]
        0x00000b94:    f7fffb0a    ....    BL       am_hal_interrupt_master_set ; 0x1ac
        0x00000b98:    f7fffb04    ....    BL       am_hal_interrupt_master_disable ; 0x1a4
        0x00000b9c:    9000        ..      STR      r0,[sp,#0]
        0x00000b9e:    2073        s       MOVS     r0,#0x73
        0x00000ba0:    491b        .I      LDR      r1,[pc,#108] ; [0xc10] = 0x40010000
        0x00000ba2:    6608        .f      STR      r0,[r1,#0x60]
        0x00000ba4:    4608        .F      MOV      r0,r1
        0x00000ba6:    6cc0        .l      LDR      r0,[r0,#0x4c]
        0x00000ba8:    f42060e0     ..`    BIC      r0,r0,#0x700
        0x00000bac:    64c8        .d      STR      r0,[r1,#0x4c]
        0x00000bae:    4608        .F      MOV      r0,r1
        0x00000bb0:    6980        .i      LDR      r0,[r0,#0x18]
        0x00000bb2:    f420007f     ...    BIC      r0,r0,#0xff0000
        0x00000bb6:    f44010d0    @...    ORR      r0,r0,#0x1a0000
        0x00000bba:    6188        .a      STR      r0,[r1,#0x18]
        0x00000bbc:    4608        .F      MOV      r0,r1
        0x00000bbe:    f8d000f8    ....    LDR      r0,[r0,#0xf8]
        0x00000bc2:    f420007f     ...    BIC      r0,r0,#0xff0000
        0x00000bc6:    4913        .I      LDR      r1,[pc,#76] ; [0xc14] = 0x4001010c
        0x00000bc8:    3914        .9      SUBS     r1,r1,#0x14
        0x00000bca:    6008        .`      STR      r0,[r1,#0]
        0x00000bcc:    2000        .       MOVS     r0,#0
        0x00000bce:    4910        .I      LDR      r1,[pc,#64] ; [0xc10] = 0x40010000
        0x00000bd0:    6608        .f      STR      r0,[r1,#0x60]
        0x00000bd2:    9800        ..      LDR      r0,[sp,#0]
        0x00000bd4:    f7fffaea    ....    BL       am_hal_interrupt_master_set ; 0x1ac
        0x00000bd8:    f44f5000    O..P    MOV      r0,#0x2000
        0x00000bdc:    490d        .I      LDR      r1,[pc,#52] ; [0xc14] = 0x4001010c
        0x00000bde:    3978        x9      SUBS     r1,r1,#0x78
        0x00000be0:    6008        .`      STR      r0,[r1,#0]
        0x00000be2:    f7fffadf    ....    BL       am_hal_interrupt_master_disable ; 0x1a4
        0x00000be6:    9000        ..      STR      r0,[sp,#0]
        0x00000be8:    2073        s       MOVS     r0,#0x73
        0x00000bea:    4909        .I      LDR      r1,[pc,#36] ; [0xc10] = 0x40010000
        0x00000bec:    6608        .f      STR      r0,[r1,#0x60]
        0x00000bee:    4608        .F      MOV      r0,r1
        0x00000bf0:    6cc0        .l      LDR      r0,[r0,#0x4c]
        0x00000bf2:    f4206000     ..`    BIC      r0,r0,#0x800
        0x00000bf6:    64c8        .d      STR      r0,[r1,#0x4c]
        0x00000bf8:    2000        .       MOVS     r0,#0
        0x00000bfa:    6608        .f      STR      r0,[r1,#0x60]
        0x00000bfc:    9800        ..      LDR      r0,[sp,#0]
        0x00000bfe:    f7fffad5    ....    BL       am_hal_interrupt_master_set ; 0x1ac
        0x00000c02:    f04f6080    O..`    MOV      r0,#0x4000000
        0x00000c06:    2100        .!      MOVS     r1,#0
        0x00000c08:    f000fb4c    ..L.    BL       am_hal_gpio_int_clear ; 0x12a4
        0x00000c0c:    bd08        ..      POP      {r3,pc}
    $d
        0x00000c0e:    0000        ..      DCW    0
        0x00000c10:    40010000    ...@    DCD    1073807360
        0x00000c14:    4001010c    ...@    DCD    1073807628
    $t
    i.am_devices_em9304_configure_spi_sleep
    am_devices_em9304_configure_spi_sleep
        0x00000c18:    b508        ..      PUSH     {r3,lr}
        0x00000c1a:    f7fffac3    ....    BL       am_hal_interrupt_master_disable ; 0x1a4
        0x00000c1e:    9000        ..      STR      r0,[sp,#0]
        0x00000c20:    2073        s       MOVS     r0,#0x73
        0x00000c22:    4934        4I      LDR      r1,[pc,#208] ; [0xcf4] = 0x40010000
        0x00000c24:    6608        .f      STR      r0,[r1,#0x60]
        0x00000c26:    4608        .F      MOV      r0,r1
        0x00000c28:    6d80        .m      LDR      r0,[r0,#0x58]
        0x00000c2a:    f0200007     ...    BIC      r0,r0,#7
        0x00000c2e:    f0400002    @...    ORR      r0,r0,#2
        0x00000c32:    6588        .e      STR      r0,[r1,#0x58]
        0x00000c34:    4608        .F      MOV      r0,r1
        0x00000c36:    6b00        .k      LDR      r0,[r0,#0x30]
        0x00000c38:    f02000ff     ...    BIC      r0,r0,#0xff
        0x00000c3c:    f0400018    @...    ORR      r0,r0,#0x18
        0x00000c40:    6308        .c      STR      r0,[r1,#0x30]
        0x00000c42:    482d        -H      LDR      r0,[pc,#180] ; [0xcf8] = 0x40010110
        0x00000c44:    6800        .h      LDR      r0,[r0,#0]
        0x00000c46:    f02000ff     ...    BIC      r0,r0,#0xff
        0x00000c4a:    f8c10110    ....    STR      r0,[r1,#0x110]
        0x00000c4e:    2000        .       MOVS     r0,#0
        0x00000c50:    6608        .f      STR      r0,[r1,#0x60]
        0x00000c52:    9800        ..      LDR      r0,[sp,#0]
        0x00000c54:    f7fffaaa    ....    BL       am_hal_interrupt_master_set ; 0x1ac
        0x00000c58:    f7fffaa4    ....    BL       am_hal_interrupt_master_disable ; 0x1a4
        0x00000c5c:    9000        ..      STR      r0,[sp,#0]
        0x00000c5e:    2073        s       MOVS     r0,#0x73
        0x00000c60:    4924        $I      LDR      r1,[pc,#144] ; [0xcf4] = 0x40010000
        0x00000c62:    6608        .f      STR      r0,[r1,#0x60]
        0x00000c64:    4608        .F      MOV      r0,r1
        0x00000c66:    6d80        .m      LDR      r0,[r0,#0x58]
        0x00000c68:    f0200070     .p.    BIC      r0,r0,#0x70
        0x00000c6c:    f0400020    @. .    ORR      r0,r0,#0x20
        0x00000c70:    6588        .e      STR      r0,[r1,#0x58]
        0x00000c72:    4608        .F      MOV      r0,r1
        0x00000c74:    6b00        .k      LDR      r0,[r0,#0x30]
        0x00000c76:    f420407f     ..@    BIC      r0,r0,#0xff00
        0x00000c7a:    f44050c0    @..P    ORR      r0,r0,#0x1800
        0x00000c7e:    6308        .c      STR      r0,[r1,#0x30]
        0x00000c80:    4608        .F      MOV      r0,r1
        0x00000c82:    f8d00110    ....    LDR      r0,[r0,#0x110]
        0x00000c86:    f420407f     ..@    BIC      r0,r0,#0xff00
        0x00000c8a:    491b        .I      LDR      r1,[pc,#108] ; [0xcf8] = 0x40010110
        0x00000c8c:    6008        .`      STR      r0,[r1,#0]
        0x00000c8e:    2000        .       MOVS     r0,#0
        0x00000c90:    4918        .I      LDR      r1,[pc,#96] ; [0xcf4] = 0x40010000
        0x00000c92:    6608        .f      STR      r0,[r1,#0x60]
        0x00000c94:    9800        ..      LDR      r0,[sp,#0]
        0x00000c96:    f7fffa89    ....    BL       am_hal_interrupt_master_set ; 0x1ac
        0x00000c9a:    f7fffa83    ....    BL       am_hal_interrupt_master_disable ; 0x1a4
        0x00000c9e:    9000        ..      STR      r0,[sp,#0]
        0x00000ca0:    2073        s       MOVS     r0,#0x73
        0x00000ca2:    4914        .I      LDR      r1,[pc,#80] ; [0xcf4] = 0x40010000
        0x00000ca4:    6608        .f      STR      r0,[r1,#0x60]
        0x00000ca6:    4608        .F      MOV      r0,r1
        0x00000ca8:    6d40        @m      LDR      r0,[r0,#0x54]
        0x00000caa:    f02040e0     ..@    BIC      r0,r0,#0x70000000
        0x00000cae:    f0405000    @..P    ORR      r0,r0,#0x20000000
        0x00000cb2:    6548        He      STR      r0,[r1,#0x54]
        0x00000cb4:    4608        .F      MOV      r0,r1
        0x00000cb6:    6ac0        .j      LDR      r0,[r0,#0x2c]
        0x00000cb8:    f020407f     ..@    BIC      r0,r0,#0xff000000
        0x00000cbc:    f04050c0    @..P    ORR      r0,r0,#0x18000000
        0x00000cc0:    62c8        .b      STR      r0,[r1,#0x2c]
        0x00000cc2:    4608        .F      MOV      r0,r1
        0x00000cc4:    f8d0010c    ....    LDR      r0,[r0,#0x10c]
        0x00000cc8:    f020407f     ..@    BIC      r0,r0,#0xff000000
        0x00000ccc:    490a        .I      LDR      r1,[pc,#40] ; [0xcf8] = 0x40010110
        0x00000cce:    1f09        ..      SUBS     r1,r1,#4
        0x00000cd0:    6008        .`      STR      r0,[r1,#0]
        0x00000cd2:    2000        .       MOVS     r0,#0
        0x00000cd4:    4907        .I      LDR      r1,[pc,#28] ; [0xcf4] = 0x40010000
        0x00000cd6:    6608        .f      STR      r0,[r1,#0x60]
        0x00000cd8:    9800        ..      LDR      r0,[sp,#0]
        0x00000cda:    f7fffa67    ..g.    BL       am_hal_interrupt_master_set ; 0x1ac
        0x00000cde:    f44f3080    O..0    MOV      r0,#0x10000
        0x00000ce2:    4905        .I      LDR      r1,[pc,#20] ; [0xcf8] = 0x40010110
        0x00000ce4:    3974        t9      SUBS     r1,r1,#0x74
        0x00000ce6:    6008        .`      STR      r0,[r1,#0]
        0x00000ce8:    0040        @.      LSLS     r0,r0,#1
        0x00000cea:    6008        .`      STR      r0,[r1,#0]
        0x00000cec:    1080        ..      ASRS     r0,r0,#2
        0x00000cee:    6008        .`      STR      r0,[r1,#0]
        0x00000cf0:    bd08        ..      POP      {r3,pc}
    $d
        0x00000cf2:    0000        ..      DCW    0
        0x00000cf4:    40010000    ...@    DCD    1073807360
        0x00000cf8:    40010110    ...@    DCD    1073807632
    $t
    i.am_devices_em9304_enable_interrupt
    am_devices_em9304_enable_interrupt
        0x00000cfc:    b510        ..      PUSH     {r4,lr}
        0x00000cfe:    f04f6080    O..`    MOV      r0,#0x4000000
        0x00000d02:    2100        .!      MOVS     r1,#0
        0x00000d04:    f000fae0    ....    BL       am_hal_gpio_int_enable ; 0x12c8
        0x00000d08:    bd10        ..      POP      {r4,pc}
        0x00000d0a:    0000        ..      MOVS     r0,r0
    i.am_devices_em9304_spi_awake
    am_devices_em9304_spi_awake
        0x00000d0c:    b510        ..      PUSH     {r4,lr}
        0x00000d0e:    4604        .F      MOV      r4,r0
        0x00000d10:    480a        .H      LDR      r0,[pc,#40] ; [0xd3c] = 0x50004000
        0x00000d12:    f44f5180    O..Q    MOV      r1,#0x1000
        0x00000d16:    fb010004    ....    MLA      r0,r1,r4,r0
        0x00000d1a:    f8d0011c    ....    LDR      r0,[r0,#0x11c]
        0x00000d1e:    f0004000    ...@    AND      r0,r0,#0x80000000
        0x00000d22:    b100        ..      CBZ      r0,0xd26 ; am_devices_em9304_spi_awake + 26
        0x00000d24:    bd10        ..      POP      {r4,pc}
        0x00000d26:    4620         F      MOV      r0,r4
        0x00000d28:    f000feb0    ....    BL       am_hal_iom_power_on_restore ; 0x1a8c
        0x00000d2c:    4620         F      MOV      r0,r4
        0x00000d2e:    f7fffb3b    ..;.    BL       am_bsp_iom_spi_pins_enable ; 0x3a8
        0x00000d32:    4620         F      MOV      r0,r4
        0x00000d34:    f000fc7c    ..|.    BL       am_hal_iom_enable ; 0x1630
        0x00000d38:    bf00        ..      NOP      
        0x00000d3a:    e7f3        ..      B        0xd24 ; am_devices_em9304_spi_awake + 24
    $d
        0x00000d3c:    50004000    .@.P    DCD    1342193664
    $t
    i.am_devices_em9304_spi_init
    am_devices_em9304_spi_init
        0x00000d40:    b570        p.      PUSH     {r4-r6,lr}
        0x00000d42:    4604        .F      MOV      r4,r0
        0x00000d44:    460d        .F      MOV      r5,r1
        0x00000d46:    4814        .H      LDR      r0,[pc,#80] ; [0xd98] = 0x50004000
        0x00000d48:    f44f5180    O..Q    MOV      r1,#0x1000
        0x00000d4c:    fb010004    ....    MLA      r0,r1,r4,r0
        0x00000d50:    f8d0011c    ....    LDR      r0,[r0,#0x11c]
        0x00000d54:    f0004000    ...@    AND      r0,r0,#0x80000000
        0x00000d58:    b100        ..      CBZ      r0,0xd5c ; am_devices_em9304_spi_init + 28
        0x00000d5a:    bd70        p.      POP      {r4-r6,pc}
        0x00000d5c:    4620         F      MOV      r0,r4
        0x00000d5e:    f000fee9    ....    BL       am_hal_iom_pwrctrl_enable ; 0x1b34
        0x00000d62:    4620         F      MOV      r0,r4
        0x00000d64:    f7fffb20    .. .    BL       am_bsp_iom_spi_pins_enable ; 0x3a8
        0x00000d68:    4629        )F      MOV      r1,r5
        0x00000d6a:    4620         F      MOV      r0,r4
        0x00000d6c:    f000fb04    ....    BL       am_hal_iom_config ; 0x1378
        0x00000d70:    4620         F      MOV      r0,r4
        0x00000d72:    f000fc5d    ..].    BL       am_hal_iom_enable ; 0x1630
        0x00000d76:    2103        .!      MOVS     r1,#3
        0x00000d78:    4620         F      MOV      r0,r4
        0x00000d7a:    f000fd4d    ..M.    BL       am_hal_iom_int_clear ; 0x1818
        0x00000d7e:    2103        .!      MOVS     r1,#3
        0x00000d80:    4620         F      MOV      r0,r4
        0x00000d82:    f000fd54    ..T.    BL       am_hal_iom_int_enable ; 0x182e
        0x00000d86:    201b        .       MOVS     r0,#0x1b
        0x00000d88:    f000fad0    ....    BL       am_hal_interrupt_enable ; 0x132c
        0x00000d8c:    2000        .       MOVS     r0,#0
        0x00000d8e:    4903        .I      LDR      r1,[pc,#12] ; [0xd9c] = 0x10000022
        0x00000d90:    7008        .p      STRB     r0,[r1,#0]
        0x00000d92:    bf00        ..      NOP      
        0x00000d94:    e7e1        ..      B        0xd5a ; am_devices_em9304_spi_init + 26
    $d
        0x00000d96:    0000        ..      DCW    0
        0x00000d98:    50004000    .@.P    DCD    1342193664
        0x00000d9c:    10000022    "...    DCD    268435490
    $t
    i.am_devices_em9304_spi_sleep
    am_devices_em9304_spi_sleep
        0x00000da0:    b510        ..      PUSH     {r4,lr}
        0x00000da2:    4604        .F      MOV      r4,r0
        0x00000da4:    480a        .H      LDR      r0,[pc,#40] ; [0xdd0] = 0x50004000
        0x00000da6:    f44f5180    O..Q    MOV      r1,#0x1000
        0x00000daa:    fb010004    ....    MLA      r0,r1,r4,r0
        0x00000dae:    f8d0011c    ....    LDR      r0,[r0,#0x11c]
        0x00000db2:    f0004000    ...@    AND      r0,r0,#0x80000000
        0x00000db6:    b900        ..      CBNZ     r0,0xdba ; am_devices_em9304_spi_sleep + 26
        0x00000db8:    bd10        ..      POP      {r4,pc}
        0x00000dba:    4620         F      MOV      r0,r4
        0x00000dbc:    f000fc22    ..".    BL       am_hal_iom_disable ; 0x1604
        0x00000dc0:    4620         F      MOV      r0,r4
        0x00000dc2:    f000fe15    ....    BL       am_hal_iom_power_off_save ; 0x19f0
        0x00000dc6:    f7ffff27    ..'.    BL       am_devices_em9304_configure_spi_sleep ; 0xc18
        0x00000dca:    bf00        ..      NOP      
        0x00000dcc:    e7f4        ..      B        0xdb8 ; am_devices_em9304_spi_sleep + 24
    $d
        0x00000dce:    0000        ..      DCW    0
        0x00000dd0:    50004000    .@.P    DCD    1342193664
    $t
    i.am_devices_em9304_tx_ends
    am_devices_em9304_tx_ends
        0x00000dd4:    b510        ..      PUSH     {r4,lr}
        0x00000dd6:    4906        .I      LDR      r1,[pc,#24] ; [0xdf0] = 0x3888
        0x00000dd8:    6848        Hh      LDR      r0,[r1,#4]
        0x00000dda:    f000fdff    ....    BL       am_hal_iom_poll_complete ; 0x19dc
        0x00000dde:    f44f5000    O..P    MOV      r0,#0x2000
        0x00000de2:    4904        .I      LDR      r1,[pc,#16] ; [0xdf4] = 0x40010094
        0x00000de4:    6008        .`      STR      r0,[r1,#0]
        0x00000de6:    2000        .       MOVS     r0,#0
        0x00000de8:    4903        .I      LDR      r1,[pc,#12] ; [0xdf8] = 0x10000021
        0x00000dea:    7008        .p      STRB     r0,[r1,#0]
        0x00000dec:    bd10        ..      POP      {r4,pc}
    $d
        0x00000dee:    0000        ..      DCW    0
        0x00000df0:    00003888    .8..    DCD    14472
        0x00000df4:    40010094    ...@    DCD    1073807508
        0x00000df8:    10000021    !...    DCD    268435489
    $t
    i.am_devices_em9304_tx_starts
    am_devices_em9304_tx_starts
        0x00000dfc:    b51f        ..      PUSH     {r0-r4,lr}
        0x00000dfe:    4604        .F      MOV      r4,r0
        0x00000e00:    2001        .       MOVS     r0,#1
        0x00000e02:    4924        $I      LDR      r1,[pc,#144] ; [0xe94] = 0x10000021
        0x00000e04:    7008        .p      STRB     r0,[r1,#0]
        0x00000e06:    2042        B       MOVS     r0,#0x42
        0x00000e08:    f88d000c    ....    STRB     r0,[sp,#0xc]
        0x00000e0c:    2000        .       MOVS     r0,#0
        0x00000e0e:    f88d000d    ....    STRB     r0,[sp,#0xd]
        0x00000e12:    f44f5000    O..P    MOV      r0,#0x2000
        0x00000e16:    4920         I      LDR      r1,[pc,#128] ; [0xe98] = 0x4001009c
        0x00000e18:    6008        .`      STR      r0,[r1,#0]
        0x00000e1a:    bf00        ..      NOP      
        0x00000e1c:    f000fa36    ..6.    BL       am_hal_gpio_input_read ; 0x128c
        0x00000e20:    f04f6380    O..c    MOV      r3,#0x4000000
        0x00000e24:    4018        .@      ANDS     r0,r0,r3
        0x00000e26:    2100        .!      MOVS     r1,#0
        0x00000e28:    4048        H@      EORS     r0,r0,r1
        0x00000e2a:    4049        I@      EORS     r1,r1,r1
        0x00000e2c:    4308        .C      ORRS     r0,r0,r1
        0x00000e2e:    d0f5        ..      BEQ      0xe1c ; am_devices_em9304_tx_starts + 32
        0x00000e30:    f002fbba    ....    BL       isRevB2 ; 0x35a8
        0x00000e34:    b1c8        ..      CBZ      r0,0xe6a ; am_devices_em9304_tx_starts + 110
        0x00000e36:    f04f4080    O..@    MOV      r0,#0x40000000
        0x00000e3a:    2102        .!      MOVS     r1,#2
        0x00000e3c:    e9cd1000    ....    STRD     r1,r0,[sp,#0]
        0x00000e40:    ab02        ..      ADD      r3,sp,#8
        0x00000e42:    aa03        ..      ADD      r2,sp,#0xc
        0x00000e44:    2100        .!      MOVS     r1,#0
        0x00000e46:    6860        `h      LDR      r0,[r4,#4]
        0x00000e48:    f000fed2    ....    BL       am_hal_iom_spi_fullduplex ; 0x1bf0
        0x00000e4c:    f89d0008    ....    LDRB     r0,[sp,#8]
        0x00000e50:    28c0        .(      CMP      r0,#0xc0
        0x00000e52:    d007        ..      BEQ      0xe64 ; am_devices_em9304_tx_starts + 104
        0x00000e54:    f44f5000    O..P    MOV      r0,#0x2000
        0x00000e58:    490f        .I      LDR      r1,[pc,#60] ; [0xe98] = 0x4001009c
        0x00000e5a:    3908        .9      SUBS     r1,r1,#8
        0x00000e5c:    6008        .`      STR      r0,[r1,#0]
        0x00000e5e:    2000        .       MOVS     r0,#0
        0x00000e60:    b004        ..      ADD      sp,sp,#0x10
        0x00000e62:    bd10        ..      POP      {r4,pc}
        0x00000e64:    f89d0009    ....    LDRB     r0,[sp,#9]
        0x00000e68:    e7fa        ..      B        0xe60 ; am_devices_em9304_tx_starts + 100
        0x00000e6a:    f04f4080    O..@    MOV      r0,#0x40000000
        0x00000e6e:    9000        ..      STR      r0,[sp,#0]
        0x00000e70:    2301        .#      MOVS     r3,#1
        0x00000e72:    aa03        ..      ADD      r2,sp,#0xc
        0x00000e74:    2100        .!      MOVS     r1,#0
        0x00000e76:    6860        `h      LDR      r0,[r4,#4]
        0x00000e78:    f001f99a    ....    BL       am_hal_iom_spi_write ; 0x21b0
        0x00000e7c:    f04f4080    O..@    MOV      r0,#0x40000000
        0x00000e80:    9000        ..      STR      r0,[sp,#0]
        0x00000e82:    2301        .#      MOVS     r3,#1
        0x00000e84:    aa02        ..      ADD      r2,sp,#8
        0x00000e86:    2100        .!      MOVS     r1,#0
        0x00000e88:    6860        `h      LDR      r0,[r4,#4]
        0x00000e8a:    f000ffc1    ....    BL       am_hal_iom_spi_read ; 0x1e10
        0x00000e8e:    f89d0008    ....    LDRB     r0,[sp,#8]
        0x00000e92:    e7e5        ..      B        0xe60 ; am_devices_em9304_tx_starts + 100
    $d
        0x00000e94:    10000021    !...    DCD    268435489
        0x00000e98:    4001009c    ...@    DCD    1073807516
    $t
    i.am_gpio_isr
    am_gpio_isr
        0x00000e9c:    b570        p.      PUSH     {r4-r6,lr}
        0x00000e9e:    2001        .       MOVS     r0,#1
        0x00000ea0:    f000fa20    .. .    BL       am_hal_gpio_int_status_get ; 0x12e4
        0x00000ea4:    4604        .F      MOV      r4,r0
        0x00000ea6:    460d        .F      MOV      r5,r1
        0x00000ea8:    4620         F      MOV      r0,r4
        0x00000eaa:    4629        )F      MOV      r1,r5
        0x00000eac:    f000f9fa    ....    BL       am_hal_gpio_int_clear ; 0x12a4
        0x00000eb0:    f04f6380    O..c    MOV      r3,#0x4000000
        0x00000eb4:    ea040003    ....    AND      r0,r4,r3
        0x00000eb8:    2100        .!      MOVS     r1,#0
        0x00000eba:    4048        H@      EORS     r0,r0,r1
        0x00000ebc:    4049        I@      EORS     r1,r1,r1
        0x00000ebe:    4308        .C      ORRS     r0,r0,r1
        0x00000ec0:    d002        ..      BEQ      0xec8 ; am_gpio_isr + 44
        0x00000ec2:    2001        .       MOVS     r0,#1
        0x00000ec4:    4901        .I      LDR      r1,[pc,#4] ; [0xecc] = 0x10000018
        0x00000ec6:    7008        .p      STRB     r0,[r1,#0]
        0x00000ec8:    bd70        p.      POP      {r4-r6,pc}
    $d
        0x00000eca:    0000        ..      DCW    0
        0x00000ecc:    10000018    ....    DCD    268435480
    $t
    i.am_hal_cachectrl_enable
    am_hal_cachectrl_enable
        0x00000ed0:    b570        p.      PUSH     {r4-r6,lr}
        0x00000ed2:    4604        .F      MOV      r4,r0
        0x00000ed4:    78c0        .x      LDRB     r0,[r0,#3]
        0x00000ed6:    7861        ax      LDRB     r1,[r4,#1]
        0x00000ed8:    2202        ."      MOVS     r2,#2
        0x00000eda:    ea020141    ..A.    AND      r1,r2,r1,LSL #1
        0x00000ede:    4301        .C      ORRS     r1,r1,r0
        0x00000ee0:    78a0        .x      LDRB     r0,[r4,#2]
        0x00000ee2:    2204        ."      MOVS     r2,#4
        0x00000ee4:    ea020280    ....    AND      r2,r2,r0,LSL #2
        0x00000ee8:    f3c00040    ..@.    UBFX     r0,r0,#1,#1
        0x00000eec:    ea4200c0    B...    ORR      r0,r2,r0,LSL #3
        0x00000ef0:    4308        .C      ORRS     r0,r0,r1
        0x00000ef2:    7921        !y      LDRB     r1,[r4,#4]
        0x00000ef4:    2280        ."      MOVS     r2,#0x80
        0x00000ef6:    ea0211c1    ....    AND      r1,r2,r1,LSL #7
        0x00000efa:    4308        .C      ORRS     r0,r0,r1
        0x00000efc:    79a1        .y      LDRB     r1,[r4,#6]
        0x00000efe:    00d2        ..      LSLS     r2,r2,#3
        0x00000f00:    ea022181    ...!    AND      r1,r2,r1,LSL #10
        0x00000f04:    4308        .C      ORRS     r0,r0,r1
        0x00000f06:    79e1        .y      LDRB     r1,[r4,#7]
        0x00000f08:    0052        R.      LSLS     r2,r2,#1
        0x00000f0a:    ea0221c1    ...!    AND      r1,r2,r1,LSL #11
        0x00000f0e:    4308        .C      ORRS     r0,r0,r1
        0x00000f10:    7a21        !z      LDRB     r1,[r4,#8]
        0x00000f12:    f44f4270    O.pB    MOV      r2,#0xf000
        0x00000f16:    ea023101    ...1    AND      r1,r2,r1,LSL #12
        0x00000f1a:    4308        .C      ORRS     r0,r0,r1
        0x00000f1c:    7a61        az      LDRB     r1,[r4,#9]
        0x00000f1e:    0112        ..      LSLS     r2,r2,#4
        0x00000f20:    ea024101    ...A    AND      r1,r2,r1,LSL #16
        0x00000f24:    4308        .C      ORRS     r0,r0,r1
        0x00000f26:    7aa1        .z      LDRB     r1,[r4,#0xa]
        0x00000f28:    f44f1280    O...    MOV      r2,#0x100000
        0x00000f2c:    ea025101    ...Q    AND      r1,r2,r1,LSL #20
        0x00000f30:    4308        .C      ORRS     r0,r0,r1
        0x00000f32:    7ae1        .z      LDRB     r1,[r4,#0xb]
        0x00000f34:    0112        ..      LSLS     r2,r2,#4
        0x00000f36:    ea026101    ...a    AND      r1,r2,r1,LSL #24
        0x00000f3a:    4308        .C      ORRS     r0,r0,r1
        0x00000f3c:    f0400501    @...    ORR      r5,r0,#1
        0x00000f40:    f04f4020    O. @    MOV      r0,#0xa0000000
        0x00000f44:    f001fd9e    ....    BL       am_hal_pwrctrl_memory_enable ; 0x2a84
        0x00000f48:    4814        .H      LDR      r0,[pc,#80] ; [0xf9c] = 0x40018000
        0x00000f4a:    6005        .`      STR      r5,[r0,#0]
        0x00000f4c:    2100        .!      MOVS     r1,#0
        0x00000f4e:    6882        .h      LDR      r2,[r0,#8]
        0x00000f50:    f0120f04    ....    TST      r2,#4
        0x00000f54:    bf04        ..      ITT      EQ
        0x00000f56:    6882        .h      LDREQ    r2,[r0,#8]
        0x00000f58:    f0120f04    ....    TSTEQ    r2,#4
        0x00000f5c:    d102        ..      BNE      0xf64 ; am_hal_cachectrl_enable + 148
        0x00000f5e:    1c89        ..      ADDS     r1,r1,#2
        0x00000f60:    2932        2)      CMP      r1,#0x32
        0x00000f62:    d3f4        ..      BCC      0xf4e ; am_hal_cachectrl_enable + 126
        0x00000f64:    6881        .h      LDR      r1,[r0,#8]
        0x00000f66:    f0410101    A...    ORR      r1,r1,#1
        0x00000f6a:    6081        .`      STR      r1,[r0,#8]
        0x00000f6c:    2100        .!      MOVS     r1,#0
        0x00000f6e:    6882        .h      LDR      r2,[r0,#8]
        0x00000f70:    f0120f04    ....    TST      r2,#4
        0x00000f74:    bf04        ..      ITT      EQ
        0x00000f76:    6882        .h      LDREQ    r2,[r0,#8]
        0x00000f78:    f0120f04    ....    TSTEQ    r2,#4
        0x00000f7c:    d102        ..      BNE      0xf84 ; am_hal_cachectrl_enable + 180
        0x00000f7e:    1c89        ..      ADDS     r1,r1,#2
        0x00000f80:    2932        2)      CMP      r1,#0x32
        0x00000f82:    d3f4        ..      BCC      0xf6e ; am_hal_cachectrl_enable + 158
        0x00000f84:    7961        ay      LDRB     r1,[r4,#5]
        0x00000f86:    f44f7280    O..r    MOV      r2,#0x100
        0x00000f8a:    ea022201    ..."    AND      r2,r2,r1,LSL #8
        0x00000f8e:    f3c10140    ..@.    UBFX     r1,r1,#1,#1
        0x00000f92:    ea422141    B.A!    ORR      r1,r2,r1,LSL #9
        0x00000f96:    4329        )C      ORRS     r1,r1,r5
        0x00000f98:    6001        .`      STR      r1,[r0,#0]
        0x00000f9a:    bd70        p.      POP      {r4-r6,pc}
    $d
        0x00000f9c:    40018000    ...@    DCD    1073840128
    $t
    i.am_hal_clkgen_osc_stop
    am_hal_clkgen_osc_stop
        0x00000fa0:    f0100f03    ....    TST      r0,#3
        0x00000fa4:    bf08        ..      IT       EQ
        0x00000fa6:    4770        pG      BXEQ     lr
        0x00000fa8:    f04f2140    O.@!    MOV      r1,#0x40004000
        0x00000fac:    68ca        .h      LDR      r2,[r1,#0xc]
        0x00000fae:    4310        .C      ORRS     r0,r0,r2
        0x00000fb0:    60c8        .`      STR      r0,[r1,#0xc]
        0x00000fb2:    4770        pG      BX       lr
    i.am_hal_clkgen_sysclk_get
    am_hal_clkgen_sysclk_get
        0x00000fb4:    f04f2040    O.@     MOV      r0,#0x40004000
        0x00000fb8:    6980        .i      LDR      r0,[r0,#0x18]
        0x00000fba:    f0100001    ....    ANDS     r0,r0,#1
        0x00000fbe:    bf04        ..      ITT      EQ
        0x00000fc0:    4803        .H      LDREQ    r0,[pc,#12] ; [0xfd0] = 0x2dc6c00
        0x00000fc2:    4770        pG      BXEQ     lr
        0x00000fc4:    2800        .(      CMP      r0,#0
        0x00000fc6:    bf0c        ..      ITE      EQ
        0x00000fc8:    f04f30ff    O..0    MOVEQ    r0,#0xffffffff
        0x00000fcc:    4801        .H      LDRNE    r0,[pc,#4] ; [0xfd4] = 0x16e3600
        0x00000fce:    4770        pG      BX       lr
    $d
        0x00000fd0:    02dc6c00    .l..    DCD    48000000
        0x00000fd4:    016e3600    .6n.    DCD    24000000
    $t
    i.am_hal_clkgen_sysclk_select
    am_hal_clkgen_sysclk_select
        0x00000fd8:    b510        ..      PUSH     {r4,lr}
        0x00000fda:    0004        ..      MOVS     r4,r0
        0x00000fdc:    d004        ..      BEQ      0xfe8 ; am_hal_clkgen_sysclk_select + 16
        0x00000fde:    a206        ..      ADR      r2,{pc}+0x1a ; 0xff8
        0x00000fe0:    2152        R!      MOVS     r1,#0x52
        0x00000fe2:    a013        ..      ADR      r0,{pc}+0x4e ; 0x1030
        0x00000fe4:    f000f932    ..2.    BL       am_hal_debug_error ; 0x124c
        0x00000fe8:    f04f2040    O.@     MOV      r0,#0x40004000
        0x00000fec:    2147        G!      MOVS     r1,#0x47
        0x00000fee:    6141        Aa      STR      r1,[r0,#0x14]
        0x00000ff0:    6184        .a      STR      r4,[r0,#0x18]
        0x00000ff2:    2100        .!      MOVS     r1,#0
        0x00000ff4:    6141        Aa      STR      r1,[r0,#0x14]
        0x00000ff6:    bd10        ..      POP      {r4,pc}
    $d
        0x00000ff8:    685f6d61    am_h    DCD    1751084385
        0x00000ffc:    635f6c61    al_c    DCD    1667198049
        0x00001000:    65676b6c    lkge    DCD    1701276524
        0x00001004:    79735f6e    n_sy    DCD    2037604206
        0x00001008:    6b6c6373    sclk    DCD    1802265459
        0x0000100c:    6c65735f    _sel    DCD    1818587999
        0x00001010:    28746365    ect(    DCD    678716261
        0x00001014:    69203a29    ): i    DCD    1763719721
        0x00001018:    6c61766e    nval    DCD    1818326638
        0x0000101c:    63206469    id c    DCD    1663067241
        0x00001020:    6b636f6c    lock    DCD    1801678700
        0x00001024:    74657320     set    DCD    1952805664
        0x00001028:    676e6974    ting    DCD    1735289204
        0x0000102c:    0000002e    ....    DCD    46
        0x00001030:    612f2e2e    ../a    DCD    1630481966
        0x00001034:    61685f6d    m_ha    DCD    1634230125
        0x00001038:    6c635f6c    l_cl    DCD    1818451820
        0x0000103c:    6e65676b    kgen    DCD    1852139371
        0x00001040:    0000632e    .c..    DCD    25390
    $t
    i.am_hal_clkgen_uarten_set
    am_hal_clkgen_uarten_set
        0x00001044:    2802        .(      CMP      r0,#2
        0x00001046:    bf28        (.      IT       CS
        0x00001048:    4770        pG      BXCS     lr
        0x0000104a:    2903        .)      CMP      r1,#3
        0x0000104c:    bf88        ..      IT       HI
        0x0000104e:    4770        pG      BXHI     lr
        0x00001050:    b538        8.      PUSH     {r3-r5,lr}
        0x00001052:    fb00f200    ....    MUL      r2,r0,r0
        0x00001056:    00d2        ..      LSLS     r2,r2,#3
        0x00001058:    fa01f402    ....    LSL      r4,r1,r2
        0x0000105c:    00c0        ..      LSLS     r0,r0,#3
        0x0000105e:    2103        .!      MOVS     r1,#3
        0x00001060:    fa01f000    ....    LSL      r0,r1,r0
        0x00001064:    43c5        .C      MVNS     r5,r0
        0x00001066:    f7fff89d    ....    BL       am_hal_interrupt_master_disable ; 0x1a4
        0x0000106a:    9000        ..      STR      r0,[sp,#0]
        0x0000106c:    f04f2040    O.@     MOV      r0,#0x40004000
        0x00001070:    6b41        Ak      LDR      r1,[r0,#0x34]
        0x00001072:    4029        )@      ANDS     r1,r1,r5
        0x00001074:    6341        Ac      STR      r1,[r0,#0x34]
        0x00001076:    6b41        Ak      LDR      r1,[r0,#0x34]
        0x00001078:    4321        !C      ORRS     r1,r1,r4
        0x0000107a:    6341        Ac      STR      r1,[r0,#0x34]
        0x0000107c:    9800        ..      LDR      r0,[sp,#0]
        0x0000107e:    e8bd4038    ..8@    POP      {r3-r5,lr}
        0x00001082:    f7ffb893    ....    B        am_hal_interrupt_master_set ; 0x1ac
        0x00001086:    0000        ..      MOVS     r0,r0
    i.am_hal_ctimer_clear
    am_hal_ctimer_clear
        0x00001088:    b538        8.      PUSH     {r3-r5,lr}
        0x0000108a:    460d        .F      MOV      r5,r1
        0x0000108c:    4907        .I      LDR      r1,[pc,#28] ; [0x10ac] = 0x4000800c
        0x0000108e:    eb011400    ....    ADD      r4,r1,r0,LSL #4
        0x00001092:    f7fff887    ....    BL       am_hal_interrupt_master_disable ; 0x1a4
        0x00001096:    9000        ..      STR      r0,[sp,#0]
        0x00001098:    6820         h      LDR      r0,[r4,#0]
        0x0000109a:    f0052108    ...!    AND      r1,r5,#0x8000800
        0x0000109e:    4308        .C      ORRS     r0,r0,r1
        0x000010a0:    6020         `      STR      r0,[r4,#0]
        0x000010a2:    9800        ..      LDR      r0,[sp,#0]
        0x000010a4:    e8bd4038    ..8@    POP      {r3-r5,lr}
        0x000010a8:    f7ffb880    ....    B        am_hal_interrupt_master_set ; 0x1ac
    $d
        0x000010ac:    4000800c    ...@    DCD    1073774604
    $t
    i.am_hal_ctimer_config_single
    am_hal_ctimer_config_single
        0x000010b0:    b5f8        ..      PUSH     {r3-r7,lr}
        0x000010b2:    4d20         M      LDR      r5,[pc,#128] ; [0x1134] = 0x4000800c
        0x000010b4:    4614        .F      MOV      r4,r2
        0x000010b6:    460e        .F      MOV      r6,r1
        0x000010b8:    eb051700    ....    ADD      r7,r5,r0,LSL #4
        0x000010bc:    f7fff872    ..r.    BL       am_hal_interrupt_master_disable ; 0x1a4
        0x000010c0:    9000        ..      STR      r0,[sp,#0]
        0x000010c2:    6838        8h      LDR      r0,[r7,#0]
        0x000010c4:    f5163f80    ...?    CMN      r6,#0x10000
        0x000010c8:    bf08        ..      IT       EQ
        0x000010ca:    0424        $.      LSLEQ    r4,r4,#16
        0x000010cc:    43b0        .C      BICS     r0,r0,r6
        0x000010ce:    4320         C      ORRS     r0,r0,r4
        0x000010d0:    f1b63fff    ...?    CMP      r6,#0xffffffff
        0x000010d4:    bf08        ..      IT       EQ
        0x000010d6:    f0404000    @..@    ORREQ    r0,r0,#0x80000000
        0x000010da:    6038        8`      STR      r0,[r7,#0]
        0x000010dc:    4816        .H      LDR      r0,[pc,#88] ; [0x1138] = 0x40008000
        0x000010de:    f8d00100    ....    LDR      r0,[r0,#0x100]
        0x000010e2:    4b16        .K      LDR      r3,[pc,#88] ; [0x113c] = 0x40021000
        0x000010e4:    f000000f    ....    AND      r0,r0,#0xf
        0x000010e8:    2801        .(      CMP      r0,#1
        0x000010ea:    bf1c        ..      ITT      NE
        0x000010ec:    2802        .(      CMPNE    r0,#2
        0x000010ee:    2000        .       MOVNE    r0,#0
        0x000010f0:    d01b        ..      BEQ      0x112a ; am_hal_ctimer_config_single + 122
        0x000010f2:    bf00        ..      NOP      
        0x000010f4:    eb051100    ....    ADD      r1,r5,r0,LSL #4
        0x000010f8:    680a        .h      LDR      r2,[r1,#0]
        0x000010fa:    f3c20144    ..D.    UBFX     r1,r2,#1,#5
        0x000010fe:    f3c24244    ..DB    UBFX     r2,r2,#17,#5
        0x00001102:    f1a10101    ....    SUB      r1,r1,#1
        0x00001106:    f1a20201    ....    SUB      r2,r2,#1
        0x0000110a:    2904        .)      CMP      r1,#4
        0x0000110c:    bf88        ..      IT       HI
        0x0000110e:    2a04        .*      CMPHI    r2,#4
        0x00001110:    d90b        ..      BLS      0x112a ; am_hal_ctimer_config_single + 122
        0x00001112:    1c40        @.      ADDS     r0,r0,#1
        0x00001114:    2804        .(      CMP      r0,#4
        0x00001116:    d3ed        ..      BCC      0x10f4 ; am_hal_ctimer_config_single + 68
        0x00001118:    6a18        .j      LDR      r0,[r3,#0x20]
        0x0000111a:    f0400004    @...    ORR      r0,r0,#4
        0x0000111e:    6218        .b      STR      r0,[r3,#0x20]
        0x00001120:    9800        ..      LDR      r0,[sp,#0]
        0x00001122:    e8bd40f8    ...@    POP      {r3-r7,lr}
        0x00001126:    f7ffb841    ..A.    B        am_hal_interrupt_master_set ; 0x1ac
        0x0000112a:    6a18        .j      LDR      r0,[r3,#0x20]
        0x0000112c:    f0200004     ...    BIC      r0,r0,#4
        0x00001130:    e7f5        ..      B        0x111e ; am_hal_ctimer_config_single + 110
    $d
        0x00001132:    0000        ..      DCW    0
        0x00001134:    4000800c    ...@    DCD    1073774604
        0x00001138:    40008000    ...@    DCD    1073774592
        0x0000113c:    40021000    ...@    DCD    1073876992
    $t
    i.am_hal_ctimer_int_clear
    am_hal_ctimer_int_clear
        0x00001140:    4901        .I      LDR      r1,[pc,#4] ; [0x1148] = 0x40008000
        0x00001142:    f8c10208    ....    STR      r0,[r1,#0x208]
        0x00001146:    4770        pG      BX       lr
    $d
        0x00001148:    40008000    ...@    DCD    1073774592
    $t
    i.am_hal_ctimer_int_enable
    am_hal_ctimer_int_enable
        0x0000114c:    b538        8.      PUSH     {r3-r5,lr}
        0x0000114e:    4604        .F      MOV      r4,r0
        0x00001150:    f7fff828    ..(.    BL       am_hal_interrupt_master_disable ; 0x1a4
        0x00001154:    9000        ..      STR      r0,[sp,#0]
        0x00001156:    4805        .H      LDR      r0,[pc,#20] ; [0x116c] = 0x40008000
        0x00001158:    f8d01200    ....    LDR      r1,[r0,#0x200]
        0x0000115c:    4321        !C      ORRS     r1,r1,r4
        0x0000115e:    f8c01200    ....    STR      r1,[r0,#0x200]
        0x00001162:    9800        ..      LDR      r0,[sp,#0]
        0x00001164:    e8bd4038    ..8@    POP      {r3-r5,lr}
        0x00001168:    f7ffb820    .. .    B        am_hal_interrupt_master_set ; 0x1ac
    $d
        0x0000116c:    40008000    ...@    DCD    1073774592
    $t
    i.am_hal_ctimer_int_status_get
    am_hal_ctimer_int_status_get
        0x00001170:    b538        8.      PUSH     {r3-r5,lr}
        0x00001172:    4c0a        .L      LDR      r4,[pc,#40] ; [0x119c] = 0x40008000
        0x00001174:    2800        .(      CMP      r0,#0
        0x00001176:    bf04        ..      ITT      EQ
        0x00001178:    f8d40204    ....    LDREQ    r0,[r4,#0x204]
        0x0000117c:    bd38        8.      POPEQ    {r3-r5,pc}
        0x0000117e:    f7fff811    ....    BL       am_hal_interrupt_master_disable ; 0x1a4
        0x00001182:    9000        ..      STR      r0,[sp,#0]
        0x00001184:    f8d40204    ....    LDR      r0,[r4,#0x204]
        0x00001188:    f8d41200    ....    LDR      r1,[r4,#0x200]
        0x0000118c:    ea010400    ....    AND      r4,r1,r0
        0x00001190:    9800        ..      LDR      r0,[sp,#0]
        0x00001192:    f7fff80b    ....    BL       am_hal_interrupt_master_set ; 0x1ac
        0x00001196:    4620         F      MOV      r0,r4
        0x00001198:    bd38        8.      POP      {r3-r5,pc}
    $d
        0x0000119a:    0000        ..      DCW    0
        0x0000119c:    40008000    ...@    DCD    1073774592
    $t
    i.am_hal_ctimer_period_set
    am_hal_ctimer_period_set
        0x000011a0:    e92d43f8    -..C    PUSH     {r3-r9,lr}
        0x000011a4:    460e        .F      MOV      r6,r1
        0x000011a6:    491b        .I      LDR      r1,[pc,#108] ; [0x1214] = 0x4000800c
        0x000011a8:    461d        .F      MOV      r5,r3
        0x000011aa:    eb011900    ....    ADD      r9,r1,r0,LSL #4
        0x000011ae:    491a        .I      LDR      r1,[pc,#104] ; [0x1218] = 0x40008004
        0x000011b0:    4614        .F      MOV      r4,r2
        0x000011b2:    eb011700    ....    ADD      r7,r1,r0,LSL #4
        0x000011b6:    1d09        ..      ADDS     r1,r1,#4
        0x000011b8:    eb011800    ....    ADD      r8,r1,r0,LSL #4
        0x000011bc:    f7fefff2    ....    BL       am_hal_interrupt_master_disable ; 0x1a4
        0x000011c0:    9000        ..      STR      r0,[sp,#0]
        0x000011c2:    f8d90000    ....    LDR      r0,[r9,#0]
        0x000011c6:    f5163f80    ...?    CMN      r6,#0x10000
        0x000011ca:    bf08        ..      IT       EQ
        0x000011cc:    0c00        ..      LSREQ    r0,r0,#16
        0x000011ce:    f40070e0    ...p    AND      r0,r0,#0x1c0
        0x000011d2:    2880        .(      CMP      r0,#0x80
        0x000011d4:    bf17        ..      ITETT    NE
        0x000011d6:    28c0        .(      CMPNE    r0,#0xc0
        0x000011d8:    1b65        e.      SUBEQ    r5,r4,r5
        0x000011da:    4625        %F      MOVNE    r5,r4
        0x000011dc:    2400        .$      MOVNE    r4,#0
        0x000011de:    f5a6407f    ...@    SUB      r0,r6,#0xff00
        0x000011e2:    38ff        .8      SUBS     r0,r0,#0xff
        0x000011e4:    bf04        ..      ITT      EQ
        0x000011e6:    eac54004    ...@    PKHBTEQ  r0,r5,r4,LSL #16
        0x000011ea:    6038        8`      STREQ    r0,[r7,#0]
        0x000011ec:    d00c        ..      BEQ      0x1208 ; am_hal_ctimer_period_set + 104
        0x000011ee:    f5163f80    ...?    CMN      r6,#0x10000
        0x000011f2:    eac54004    ...@    PKHBT    r0,r5,r4,LSL #16
        0x000011f6:    d005        ..      BEQ      0x1204 ; am_hal_ctimer_period_set + 100
        0x000011f8:    6038        8`      STR      r0,[r7,#0]
        0x000011fa:    0c28        (.      LSRS     r0,r5,#16
        0x000011fc:    f36f040f    o...    BFC      r4,#0,#16
        0x00001200:    eac00004    ....    PKHBT    r0,r0,r4
        0x00001204:    f8c80000    ....    STR      r0,[r8,#0]
        0x00001208:    9800        ..      LDR      r0,[sp,#0]
        0x0000120a:    e8bd43f8    ...C    POP      {r3-r9,lr}
        0x0000120e:    f7febfcd    ....    B        am_hal_interrupt_master_set ; 0x1ac
    $d
        0x00001212:    0000        ..      DCW    0
        0x00001214:    4000800c    ...@    DCD    1073774604
        0x00001218:    40008004    ...@    DCD    1073774596
    $t
    i.am_hal_ctimer_start
    am_hal_ctimer_start
        0x0000121c:    b538        8.      PUSH     {r3-r5,lr}
        0x0000121e:    460c        .F      MOV      r4,r1
        0x00001220:    4909        .I      LDR      r1,[pc,#36] ; [0x1248] = 0x4000800c
        0x00001222:    eb011500    ....    ADD      r5,r1,r0,LSL #4
        0x00001226:    f7feffbd    ....    BL       am_hal_interrupt_master_disable ; 0x1a4
        0x0000122a:    9000        ..      STR      r0,[sp,#0]
        0x0000122c:    6828        (h      LDR      r0,[r5,#0]
        0x0000122e:    f0042108    ...!    AND      r1,r4,#0x8000800
        0x00001232:    4388        .C      BICS     r0,r0,r1
        0x00001234:    f0041101    ....    AND      r1,r4,#0x10001
        0x00001238:    4308        .C      ORRS     r0,r0,r1
        0x0000123a:    6028        (`      STR      r0,[r5,#0]
        0x0000123c:    9800        ..      LDR      r0,[sp,#0]
        0x0000123e:    e8bd4038    ..8@    POP      {r3-r5,lr}
        0x00001242:    f7febfb3    ....    B        am_hal_interrupt_master_set ; 0x1ac
    $d
        0x00001246:    0000        ..      DCW    0
        0x00001248:    4000800c    ...@    DCD    1073774604
    $t
    i.am_hal_debug_error
    am_hal_debug_error
        0x0000124c:    e7fe        ..      B        am_hal_debug_error ; 0x124c
        0x0000124e:    0000        ..      MOVS     r0,r0
    i.am_hal_flash_delay
    am_hal_flash_delay
        0x00001250:    4900        .I      LDR      r1,[pc,#0] ; [0x1254] = 0x800009d
        0x00001252:    4708        .G      BX       r1
    $d
        0x00001254:    0800009d    ....    DCD    134217885
    $t
    i.am_hal_flash_delay_status_change
    am_hal_flash_delay_status_change
        0x00001258:    e92d41f0    -..A    PUSH     {r4-r8,lr}
        0x0000125c:    461d        .F      MOV      r5,r3
        0x0000125e:    4616        .F      MOV      r6,r2
        0x00001260:    460f        .F      MOV      r7,r1
        0x00001262:    1e44        D.      SUBS     r4,r0,#1
        0x00001264:    bf28        (.      IT       CS
        0x00001266:    f8df8020    .. .    LDRCS    r8,[pc,#32] ; [0x1288] = 0x800009d
        0x0000126a:    d30a        ..      BCC      0x1282 ; am_hal_flash_delay_status_change + 42
        0x0000126c:    6838        8h      LDR      r0,[r7,#0]
        0x0000126e:    4030        0@      ANDS     r0,r0,r6
        0x00001270:    42a8        .B      CMP      r0,r5
        0x00001272:    d102        ..      BNE      0x127a ; am_hal_flash_delay_status_change + 34
        0x00001274:    2001        .       MOVS     r0,#1
        0x00001276:    e8bd81f0    ....    POP      {r4-r8,pc}
        0x0000127a:    200c        .       MOVS     r0,#0xc
        0x0000127c:    47c0        .G      BLX      r8
        0x0000127e:    1e64        d.      SUBS     r4,r4,#1
        0x00001280:    d2f4        ..      BCS      0x126c ; am_hal_flash_delay_status_change + 20
        0x00001282:    2000        .       MOVS     r0,#0
        0x00001284:    e8bd81f0    ....    POP      {r4-r8,pc}
    $d
        0x00001288:    0800009d    ....    DCD    134217885
    $t
    i.am_hal_gpio_input_read
    am_hal_gpio_input_read
        0x0000128c:    4804        .H      LDR      r0,[pc,#16] ; [0x12a0] = 0x40010000
        0x0000128e:    f8d02084    ...     LDR      r2,[r0,#0x84]
        0x00001292:    f8d00080    ....    LDR      r0,[r0,#0x80]
        0x00001296:    2100        .!      MOVS     r1,#0
        0x00001298:    4308        .C      ORRS     r0,r0,r1
        0x0000129a:    4311        .C      ORRS     r1,r1,r2
        0x0000129c:    4770        pG      BX       lr
    $d
        0x0000129e:    0000        ..      DCW    0
        0x000012a0:    40010000    ...@    DCD    1073807360
    $t
    i.am_hal_gpio_int_clear
    am_hal_gpio_int_clear
        0x000012a4:    b538        8.      PUSH     {r3-r5,lr}
        0x000012a6:    4604        .F      MOV      r4,r0
        0x000012a8:    460d        .F      MOV      r5,r1
        0x000012aa:    f7feff7b    ..{.    BL       am_hal_interrupt_master_disable ; 0x1a4
        0x000012ae:    9000        ..      STR      r0,[sp,#0]
        0x000012b0:    4804        .H      LDR      r0,[pc,#16] ; [0x12c4] = 0x40010000
        0x000012b2:    f8c05218    ...R    STR      r5,[r0,#0x218]
        0x000012b6:    f8c04208    ...B    STR      r4,[r0,#0x208]
        0x000012ba:    9800        ..      LDR      r0,[sp,#0]
        0x000012bc:    e8bd4038    ..8@    POP      {r3-r5,lr}
        0x000012c0:    f7febf74    ..t.    B        am_hal_interrupt_master_set ; 0x1ac
    $d
        0x000012c4:    40010000    ...@    DCD    1073807360
    $t
    i.am_hal_gpio_int_enable
    am_hal_gpio_int_enable
        0x000012c8:    4a05        .J      LDR      r2,[pc,#20] ; [0x12e0] = 0x40010000
        0x000012ca:    f8d23210    ...2    LDR      r3,[r2,#0x210]
        0x000012ce:    4319        .C      ORRS     r1,r1,r3
        0x000012d0:    f8c21210    ....    STR      r1,[r2,#0x210]
        0x000012d4:    f8d21200    ....    LDR      r1,[r2,#0x200]
        0x000012d8:    4308        .C      ORRS     r0,r0,r1
        0x000012da:    f8c20200    ....    STR      r0,[r2,#0x200]
        0x000012de:    4770        pG      BX       lr
    $d
        0x000012e0:    40010000    ...@    DCD    1073807360
    $t
    i.am_hal_gpio_int_status_get
    am_hal_gpio_int_status_get
        0x000012e4:    b5f8        ..      PUSH     {r3-r7,lr}
        0x000012e6:    f04f34ff    O..4    MOV      r4,#0xffffffff
        0x000012ea:    4606        .F      MOV      r6,r0
        0x000012ec:    4625        %F      MOV      r5,r4
        0x000012ee:    f7feff59    ..Y.    BL       am_hal_interrupt_master_disable ; 0x1a4
        0x000012f2:    9000        ..      STR      r0,[sp,#0]
        0x000012f4:    480c        .H      LDR      r0,[pc,#48] ; [0x1328] = 0x40010000
        0x000012f6:    f8d03214    ...2    LDR      r3,[r0,#0x214]
        0x000012fa:    f8d02204    ..."    LDR      r2,[r0,#0x204]
        0x000012fe:    2100        .!      MOVS     r1,#0
        0x00001300:    430a        .C      ORRS     r2,r2,r1
        0x00001302:    430b        .C      ORRS     r3,r3,r1
        0x00001304:    b13e        >.      CBZ      r6,0x1316 ; am_hal_gpio_int_status_get + 50
        0x00001306:    f8d0c210    ....    LDR      r12,[r0,#0x210]
        0x0000130a:    f8d00200    ....    LDR      r0,[r0,#0x200]
        0x0000130e:    ea41050c    A...    ORR      r5,r1,r12
        0x00001312:    ea400401    @...    ORR      r4,r0,r1
        0x00001316:    4014        .@      ANDS     r4,r4,r2
        0x00001318:    401d        .@      ANDS     r5,r5,r3
        0x0000131a:    9800        ..      LDR      r0,[sp,#0]
        0x0000131c:    f7feff46    ..F.    BL       am_hal_interrupt_master_set ; 0x1ac
        0x00001320:    4620         F      MOV      r0,r4
        0x00001322:    4629        )F      MOV      r1,r5
        0x00001324:    bdf8        ..      POP      {r3-r7,pc}
    $d
        0x00001326:    0000        ..      DCW    0
        0x00001328:    40010000    ...@    DCD    1073807360
    $t
    i.am_hal_interrupt_enable
    am_hal_interrupt_enable
        0x0000132c:    280f        .(      CMP      r0,#0xf
        0x0000132e:    d90a        ..      BLS      0x1346 ; am_hal_interrupt_enable + 26
        0x00001330:    3810        .8      SUBS     r0,r0,#0x10
        0x00001332:    f000001f    ....    AND      r0,r0,#0x1f
        0x00001336:    2101        .!      MOVS     r1,#1
        0x00001338:    fa01f000    ....    LSL      r0,r1,r0
        0x0000133c:    f04f21e0    O..!    MOV      r1,#0xe000e000
        0x00001340:    f8c10100    ....    STR      r0,[r1,#0x100]
        0x00001344:    4770        pG      BX       lr
        0x00001346:    490b        .I      LDR      r1,[pc,#44] ; [0x1374] = 0xe000ed24
        0x00001348:    2804        .(      CMP      r0,#4
        0x0000134a:    d00d        ..      BEQ      0x1368 ; am_hal_interrupt_enable + 60
        0x0000134c:    2805        .(      CMP      r0,#5
        0x0000134e:    bf04        ..      ITT      EQ
        0x00001350:    6808        .h      LDREQ    r0,[r1,#0]
        0x00001352:    f4403000    @..0    ORREQ    r0,r0,#0x20000
        0x00001356:    d005        ..      BEQ      0x1364 ; am_hal_interrupt_enable + 56
        0x00001358:    2806        .(      CMP      r0,#6
        0x0000135a:    bf06        ..      ITTE     EQ
        0x0000135c:    6808        .h      LDREQ    r0,[r1,#0]
        0x0000135e:    f4402080    @..     ORREQ    r0,r0,#0x40000
        0x00001362:    4770        pG      BXNE     lr
        0x00001364:    6008        .`      STR      r0,[r1,#0]
        0x00001366:    4770        pG      BX       lr
        0x00001368:    6808        .h      LDR      r0,[r1,#0]
        0x0000136a:    f4403080    @..0    ORR      r0,r0,#0x10000
        0x0000136e:    6008        .`      STR      r0,[r1,#0]
        0x00001370:    4770        pG      BX       lr
    $d
        0x00001372:    0000        ..      DCW    0
        0x00001374:    e000ed24    $...    DCD    3758157092
    $t
    i.am_hal_iom_config
    am_hal_iom_config
        0x00001378:    e92d5ff0    -.._    PUSH     {r4-r12,lr}
        0x0000137c:    460c        .F      MOV      r4,r1
        0x0000137e:    6809        .h      LDR      r1,[r1,#0]
        0x00001380:    4605        .F      MOV      r5,r0
        0x00001382:    2806        .(      CMP      r0,#6
        0x00001384:    bf28        (.      IT       CS
        0x00001386:    e8bd9ff0    ....    POPCS    {r4-r12,pc}
        0x0000138a:    7a20         z      LDRB     r0,[r4,#8]
        0x0000138c:    2800        .(      CMP      r0,#0
        0x0000138e:    bf18        ..      IT       NE
        0x00001390:    f0410104    A...    ORRNE    r1,r1,#4
        0x00001394:    7a60        `z      LDRB     r0,[r4,#9]
        0x00001396:    2800        .(      CMP      r0,#0
        0x00001398:    bf18        ..      IT       NE
        0x0000139a:    f0410102    A...    ORRNE    r1,r1,#2
        0x0000139e:    4a92        .J      LDR      r2,[pc,#584] ; [0x15e8] = 0xf42400
        0x000013a0:    6860        `h      LDR      r0,[r4,#4]
        0x000013a2:    4290        .B      CMP      r0,r2
        0x000013a4:    bf28        (.      IT       CS
        0x000013a6:    f0410120    A. .    ORRCS    r1,r1,#0x20
        0x000013aa:    0328        (.      LSLS     r0,r5,#12
        0x000013ac:    f10046a0    ...F    ADD      r6,r0,#0x50000000
        0x000013b0:    f5064680    ...F    ADD      r6,r6,#0x4000
        0x000013b4:    f8c6111c    ....    STR      r1,[r6,#0x11c]
        0x000013b8:    7aa1        .z      LDRB     r1,[r4,#0xa]
        0x000013ba:    2904        .)      CMP      r1,#4
        0x000013bc:    bf38        8.      IT       CC
        0x000013be:    2104        .!      MOVCC    r1,#4
        0x000013c0:    d302        ..      BCC      0x13c8 ; am_hal_iom_config + 80
        0x000013c2:    297c        |)      CMP      r1,#0x7c
        0x000013c4:    bf88        ..      IT       HI
        0x000013c6:    217c        |!      MOVHI    r1,#0x7c
        0x000013c8:    f44f40fe    O..@    MOV      r0,#0x7f00
        0x000013cc:    ea002001    ...     AND      r0,r0,r1,LSL #8
        0x000013d0:    7ae1        .z      LDRB     r1,[r4,#0xb]
        0x000013d2:    2904        .)      CMP      r1,#4
        0x000013d4:    bf38        8.      IT       CC
        0x000013d6:    2104        .!      MOVCC    r1,#4
        0x000013d8:    d302        ..      BCC      0x13e0 ; am_hal_iom_config + 104
        0x000013da:    297c        |)      CMP      r1,#0x7c
        0x000013dc:    bf88        ..      IT       HI
        0x000013de:    217c        |!      MOVHI    r1,#0x7c
        0x000013e0:    f001017f    ....    AND      r1,r1,#0x7f
        0x000013e4:    4308        .C      ORRS     r0,r0,r1
        0x000013e6:    f8c60108    ....    STR      r0,[r6,#0x108]
        0x000013ea:    f04f0901    O...    MOV      r9,#1
        0x000013ee:    2d00        .-      CMP      r5,#0
        0x000013f0:    bf18        ..      IT       NE
        0x000013f2:    2d04        .-      CMPNE    r5,#4
        0x000013f4:    d007        ..      BEQ      0x1406 ; am_hal_iom_config + 142
        0x000013f6:    487d        }H      LDR      r0,[pc,#500] ; [0x15ec] = 0x40020000
        0x000013f8:    68c0        .h      LDR      r0,[r0,#0xc]
        0x000013fa:    b2c0        ..      UXTB     r0,r0
        0x000013fc:    2822        "(      CMP      r0,#0x22
        0x000013fe:    bf04        ..      ITT      EQ
        0x00001400:    6820         h      LDREQ    r0,[r4,#0]
        0x00001402:    2800        .(      CMPEQ    r0,#0
        0x00001404:    d07d        }.      BEQ      0x1502 ; am_hal_iom_config + 394
        0x00001406:    6863        ch      LDR      r3,[r4,#4]
        0x00001408:    f894b008    ....    LDRB     r11,[r4,#8]
        0x0000140c:    2b00        .+      CMP      r3,#0
        0x0000140e:    f00080db    ....    BEQ.W    0x15c8 ; am_hal_iom_config + 592
        0x00001412:    4877        wH      LDR      r0,[pc,#476] ; [0x15f0] = 0x2dc6c00
        0x00001414:    fbb0f1f3    ....    UDIV     r1,r0,r3
        0x00001418:    fbb0f2f3    ....    UDIV     r2,r0,r3
        0x0000141c:    fb030012    ....    MLS      r0,r3,r2,r0
        0x00001420:    2800        .(      CMP      r0,#0
        0x00001422:    bf18        ..      IT       NE
        0x00001424:    2001        .       MOVNE    r0,#1
        0x00001426:    eb010c00    ....    ADD      r12,r1,r0
        0x0000142a:    f1cc0000    ....    RSB      r0,r12,#0
        0x0000142e:    ea0c0000    ....    AND      r0,r12,r0
        0x00001432:    fab0f080    ....    CLZ      r0,r0
        0x00001436:    f1c0021f    ....    RSB      r2,r0,#0x1f
        0x0000143a:    2a06        .*      CMP      r2,#6
        0x0000143c:    dc7e        ~.      BGT      0x153c ; am_hal_iom_config + 452
        0x0000143e:    bf00        ..      NOP      
        0x00001440:    f5b36f37    ..7o    CMP      r3,#0xb70
        0x00001444:    d909        ..      BLS      0x145a ; am_hal_iom_config + 226
        0x00001446:    f5a30174    ..t.    SUB      r1,r3,#0xf40000
        0x0000144a:    486a        jH      LDR      r0,[pc,#424] ; [0x15f4] = 0x7a11ff
        0x0000144c:    f5a15110    ...Q    SUB      r1,r1,#0x2400
        0x00001450:    4281        .B      CMP      r1,r0
        0x00001452:    bf88        ..      IT       HI
        0x00001454:    f04f0a00    O...    MOVHI    r10,#0
        0x00001458:    d801        ..      BHI      0x145e ; am_hal_iom_config + 230
        0x0000145a:    f04f0a01    O...    MOV      r10,#1
        0x0000145e:    eb09084a    ..J.    ADD      r8,r9,r10,LSL #1
        0x00001462:    fa08f002    ....    LSL      r0,r8,r2
        0x00001466:    fbbcf1f0    ....    UDIV     r1,r12,r0
        0x0000146a:    fbbcf7f0    ....    UDIV     r7,r12,r0
        0x0000146e:    fb00c017    ....    MLS      r0,r0,r7,r12
        0x00001472:    2800        .(      CMP      r0,#0
        0x00001474:    bf18        ..      IT       NE
        0x00001476:    2001        .       MOVNE    r0,#1
        0x00001478:    4401        .D      ADD      r1,r1,r0
        0x0000147a:    fab1f081    ....    CLZ      r0,r1
        0x0000147e:    f1c0071f    ....    RSB      r7,r0,#0x1f
        0x00001482:    2f07        ./      CMP      r7,#7
        0x00001484:    bf84        ..      ITT      HI
        0x00001486:    18b8        ..      ADDHI    r0,r7,r2
        0x00001488:    1fc2        ..      SUBHI    r2,r0,#7
        0x0000148a:    1c50        P.      ADDS     r0,r2,#1
        0x0000148c:    2807        .(      CMP      r0,#7
        0x0000148e:    d87d        }.      BHI      0x158c ; am_hal_iom_config + 532
        0x00001490:    2f07        ./      CMP      r7,#7
        0x00001492:    d90c        ..      BLS      0x14ae ; am_hal_iom_config + 310
        0x00001494:    1ffa        ..      SUBS     r2,r7,#7
        0x00001496:    fa21f702    !...    LSR      r7,r1,r2
        0x0000149a:    fa09f202    ....    LSL      r2,r9,r2
        0x0000149e:    fbb1fef2    ....    UDIV     lr,r1,r2
        0x000014a2:    fb02111e    ....    MLS      r1,r2,lr,r1
        0x000014a6:    2900        .)      CMP      r1,#0
        0x000014a8:    bf18        ..      IT       NE
        0x000014aa:    2101        .!      MOVNE    r1,#1
        0x000014ac:    4439        9D      ADD      r1,r1,r7
        0x000014ae:    4a52        RJ      LDR      r2,[pc,#328] ; [0x15f8] = 0xb71b00
        0x000014b0:    4293        .B      CMP      r3,r2
        0x000014b2:    d207        ..      BCS      0x14c4 ; am_hal_iom_config + 332
        0x000014b4:    1e42        B.      SUBS     r2,r0,#1
        0x000014b6:    fa09f202    ....    LSL      r2,r9,r2
        0x000014ba:    4562        bE      CMP      r2,r12
        0x000014bc:    bf18        ..      IT       NE
        0x000014be:    f04f0c01    O...    MOVNE    r12,#1
        0x000014c2:    d101        ..      BNE      0x14c8 ; am_hal_iom_config + 336
        0x000014c4:    f04f0c00    O...    MOV      r12,#0
        0x000014c8:    f1bb0f01    ....    CMP      r11,#1
        0x000014cc:    bf0c        ..      ITE      EQ
        0x000014ce:    1e8a        ..      SUBEQ    r2,r1,#2
        0x000014d0:    1e4a        J.      SUBNE    r2,r1,#1
        0x000014d2:    0852        R.      LSRS     r2,r2,#1
        0x000014d4:    f44f63e0    O..c    MOV      r3,#0x700
        0x000014d8:    ea032700    ...'    AND      r7,r3,r0,LSL #8
        0x000014dc:    f44f6300    O..c    MOV      r3,#0x800
        0x000014e0:    ea0323ca    ...#    AND      r3,r3,r10,LSL #11
        0x000014e4:    f44f5980    O..Y    MOV      r9,#0x1000
        0x000014e8:    433b        ;C      ORRS     r3,r3,r7
        0x000014ea:    ea09390c    ...9    AND      r9,r9,r12,LSL #12
        0x000014ee:    ea430309    C...    ORR      r3,r3,r9
        0x000014f2:    f44f097f    O...    MOV      r9,#0xff0000
        0x000014f6:    ea094202    ...B    AND      r2,r9,r2,LSL #16
        0x000014fa:    431a        .C      ORRS     r2,r2,r3
        0x000014fc:    f04f437f    O..C    MOV      r3,#0xff000000
        0x00001500:    e000        ..      B        0x1504 ; am_hal_iom_config + 396
        0x00001502:    e026        &.      B        0x1552 ; am_hal_iom_config + 474
        0x00001504:    eb036301    ...c    ADD      r3,r3,r1,LSL #24
        0x00001508:    f1a10901    ....    SUB      r9,r1,#1
        0x0000150c:    431a        .C      ORRS     r2,r2,r3
        0x0000150e:    1e41        A.      SUBS     r1,r0,#1
        0x00001510:    fb0cfc09    ....    MUL      r12,r12,r9
        0x00001514:    4b36        6K      LDR      r3,[pc,#216] ; [0x15f0] = 0x2dc6c00
        0x00001516:    fa08f001    ....    LSL      r0,r8,r1
        0x0000151a:    f10c0c01    ....    ADD      r12,r12,#1
        0x0000151e:    fb00f00c    ....    MUL      r0,r0,r12
        0x00001522:    fbb3f8f0    ....    UDIV     r8,r3,r0
        0x00001526:    fbb3fcf0    ....    UDIV     r12,r3,r0
        0x0000152a:    fb003818    ...8    MLS      r8,r0,r8,r3
        0x0000152e:    ebb80f50    ..P.    CMP      r8,r0,LSR #1
        0x00001532:    bf8c        ..      ITE      HI
        0x00001534:    2001        .       MOVHI    r0,#1
        0x00001536:    2000        .       MOVLS    r0,#0
        0x00001538:    4460        `D      ADD      r0,r0,r12
        0x0000153a:    e000        ..      B        0x153e ; am_hal_iom_config + 454
        0x0000153c:    e051        Q.      B        0x15e2 ; am_hal_iom_config + 618
        0x0000153e:    f8dfc0bc    ....    LDR      r12,[pc,#188] ; [0x15fc] = 0x3d090
        0x00001542:    fbb0f8fc    ....    UDIV     r8,r0,r12
        0x00001546:    fb0c0818    ....    MLS      r8,r12,r8,r0
        0x0000154a:    f1b80f00    ....    CMP      r8,#0
        0x0000154e:    d137        7.      BNE      0x15c0 ; am_hal_iom_config + 584
        0x00001550:    e026        &.      B        0x15a0 ; am_hal_iom_config + 552
        0x00001552:    f8d6011c    ....    LDR      r0,[r6,#0x11c]
        0x00001556:    f0400004    @...    ORR      r0,r0,#4
        0x0000155a:    f8c6011c    ....    STR      r0,[r6,#0x11c]
        0x0000155e:    6860        `h      LDR      r0,[r4,#4]
        0x00001560:    f5a02140    ..@!    SUB      r1,r0,#0xc0000
        0x00001564:    f5b15154    ..TQ    SUBS     r1,r1,#0x3500
        0x00001568:    bf08        ..      IT       EQ
        0x0000156a:    2002        .       MOVEQ    r0,#2
        0x0000156c:    d00d        ..      BEQ      0x158a ; am_hal_iom_config + 530
        0x0000156e:    f5a021c0    ...!    SUB      r1,r0,#0x60000
        0x00001572:    f5b151d4    ...Q    SUBS     r1,r1,#0x1a80
        0x00001576:    bf08        ..      IT       EQ
        0x00001578:    2003        .       MOVEQ    r0,#3
        0x0000157a:    d006        ..      BEQ      0x158a ; am_hal_iom_config + 530
        0x0000157c:    f5a03140    ..@1    SUB      r1,r0,#0x30000
        0x00001580:    f5b16154    ..Ta    SUBS     r1,r1,#0xd40
        0x00001584:    bf0c        ..      ITE      EQ
        0x00001586:    2004        .       MOVEQ    r0,#4
        0x00001588:    2005        .       MOVNE    r0,#5
        0x0000158a:    e000        ..      B        0x158e ; am_hal_iom_config + 534
        0x0000158c:    e01c        ..      B        0x15c8 ; am_hal_iom_config + 592
        0x0000158e:    f44f61e0    O..a    MOV      r1,#0x700
        0x00001592:    ea012000    ...     AND      r0,r1,r0,LSL #8
        0x00001596:    f4402261    @.a"    ORR      r2,r0,#0xe1000
        0x0000159a:    f04252e8    B..R    ORR      r2,r2,#0x1d000000
        0x0000159e:    e00f        ..      B        0x15c0 ; am_hal_iom_config + 584
        0x000015a0:    fbb0f0fc    ....    UDIV     r0,r0,r12
        0x000015a4:    b160        `.      CBZ      r0,0x15c0 ; am_hal_iom_config + 584
        0x000015a6:    f1a00c01    ....    SUB      r12,r0,#1
        0x000015aa:    ea100f0c    ....    TST      r0,r12
        0x000015ae:    d107        ..      BNE      0x15c0 ; am_hal_iom_config + 584
        0x000015b0:    2003        .       MOVS     r0,#3
        0x000015b2:    4088        .@      LSLS     r0,r0,r1
        0x000015b4:    fbb3f1f0    ....    UDIV     r1,r3,r0
        0x000015b8:    fbb3f1f0    ....    UDIV     r1,r3,r0
        0x000015bc:    f4476200    G..b    ORR      r2,r7,#0x800
        0x000015c0:    2a00        .*      CMP      r2,#0
        0x000015c2:    bf18        ..      IT       NE
        0x000015c4:    f8c6210c    ...!    STRNE    r2,[r6,#0x10c]
        0x000015c8:    f7fffcf4    ....    BL       am_hal_clkgen_sysclk_get ; 0xfb4
        0x000015cc:    6861        ah      LDR      r1,[r4,#4]
        0x000015ce:    fbb0f0f1    ....    UDIV     r0,r0,r1
        0x000015d2:    490b        .I      LDR      r1,[pc,#44] ; [0x1600] = 0x10000308
        0x000015d4:    eb0000c0    ....    ADD      r0,r0,r0,LSL #3
        0x000015d8:    0200        ..      LSLS     r0,r0,#8
        0x000015da:    f8410025    A.%.    STR      r0,[r1,r5,LSL #2]
        0x000015de:    e8bd9ff0    ....    POP      {r4-r12,pc}
        0x000015e2:    2206        ."      MOVS     r2,#6
        0x000015e4:    e72c        ,.      B        0x1440 ; am_hal_iom_config + 200
    $d
        0x000015e6:    0000        ..      DCW    0
        0x000015e8:    00f42400    .$..    DCD    16000000
        0x000015ec:    40020000    ...@    DCD    1073872896
        0x000015f0:    02dc6c00    .l..    DCD    48000000
        0x000015f4:    007a11ff    ..z.    DCD    7999999
        0x000015f8:    00b71b00    ....    DCD    12000000
        0x000015fc:    0003d090    ....    DCD    250000
        0x00001600:    10000308    ....    DCD    268436232
    $t
    i.am_hal_iom_disable
    am_hal_iom_disable
        0x00001604:    2806        .(      CMP      r0,#6
        0x00001606:    bf34        4.      ITE      CC
        0x00001608:    4908        .I      LDRCC    r1,[pc,#32] ; [0x162c] = 0x10000064
        0x0000160a:    4770        pG      BXCS     lr
        0x0000160c:    5c0b        .\      LDRB     r3,[r1,r0]
        0x0000160e:    2b00        .+      CMP      r3,#0
        0x00001610:    d1fc        ..      BNE      0x160c ; am_hal_iom_disable + 8
        0x00001612:    0300        ..      LSLS     r0,r0,#12
        0x00001614:    f10040a0    ...@    ADD      r0,r0,#0x50000000
        0x00001618:    f5004080    ...@    ADD      r0,r0,#0x4000
        0x0000161c:    f8d0111c    ....    LDR      r1,[r0,#0x11c]
        0x00001620:    f0214100    !..A    BIC      r1,r1,#0x80000000
        0x00001624:    f8c0111c    ....    STR      r1,[r0,#0x11c]
        0x00001628:    4770        pG      BX       lr
    $d
        0x0000162a:    0000        ..      DCW    0
        0x0000162c:    10000064    d...    DCD    268435556
    $t
    i.am_hal_iom_enable
    am_hal_iom_enable
        0x00001630:    2806        .(      CMP      r0,#6
        0x00001632:    bf28        (.      IT       CS
        0x00001634:    4770        pG      BXCS     lr
        0x00001636:    0301        ..      LSLS     r1,r0,#12
        0x00001638:    f10141a0    ...A    ADD      r1,r1,#0x50000000
        0x0000163c:    f5014180    ...A    ADD      r1,r1,#0x4000
        0x00001640:    f8d1211c    ...!    LDR      r2,[r1,#0x11c]
        0x00001644:    f0424200    B..B    ORR      r2,r2,#0x80000000
        0x00001648:    f8c1211c    ...!    STR      r2,[r1,#0x11c]
        0x0000164c:    4a01        .J      LDR      r2,[pc,#4] ; [0x1654] = 0x10000064
        0x0000164e:    2100        .!      MOVS     r1,#0
        0x00001650:    5411        .T      STRB     r1,[r2,r0]
        0x00001652:    4770        pG      BX       lr
    $d
        0x00001654:    10000064    d...    DCD    268435556
    $t
    i.am_hal_iom_fifo_read
    am_hal_iom_fifo_read
        0x00001658:    2806        .(      CMP      r0,#6
        0x0000165a:    bf24        $.      ITT      CS
        0x0000165c:    2000        .       MOVCS    r0,#0
        0x0000165e:    4770        pG      BXCS     lr
        0x00001660:    b5f8        ..      PUSH     {r3-r7,lr}
        0x00001662:    0300        ..      LSLS     r0,r0,#12
        0x00001664:    f10045a0    ...E    ADD      r5,r0,#0x50000000
        0x00001668:    f5054580    ...E    ADD      r5,r5,#0x4000
        0x0000166c:    4614        .F      MOV      r4,r2
        0x0000166e:    f8d5011c    ....    LDR      r0,[r5,#0x11c]
        0x00001672:    460e        .F      MOV      r6,r1
        0x00001674:    f0100f08    ....    TST      r0,#8
        0x00001678:    d10a        ..      BNE      0x1690 ; am_hal_iom_fifo_read + 56
        0x0000167a:    f8d50100    ....    LDR      r0,[r5,#0x100]
        0x0000167e:    b2c0        ..      UXTB     r0,r0
        0x00001680:    42a0        .B      CMP      r0,r4
        0x00001682:    d205        ..      BCS      0x1690 ; am_hal_iom_fifo_read + 56
        0x00001684:    a218        ..      ADR      r2,{pc}+0x64 ; 0x16e8
        0x00001686:    f640717f    @..q    MOV      r1,#0xf7f
        0x0000168a:    a025        %.      ADR      r0,{pc}+0x96 ; 0x1720
        0x0000168c:    f7fffdde    ....    BL       am_hal_debug_error ; 0x124c
        0x00001690:    08a2        ..      LSRS     r2,r4,#2
        0x00001692:    4250        PB      RSBS     r0,r2,#0
        0x00001694:    eb040080    ....    ADD      r0,r4,r0,LSL #2
        0x00001698:    2a00        .*      CMP      r2,#0
        0x0000169a:    f04f0300    O...    MOV      r3,#0
        0x0000169e:    d906        ..      BLS      0x16ae ; am_hal_iom_fifo_read + 86
        0x000016a0:    6829        )h      LDR      r1,[r5,#0]
        0x000016a2:    f8461023    F.#.    STR      r1,[r6,r3,LSL #2]
        0x000016a6:    f1030301    ....    ADD      r3,r3,#1
        0x000016aa:    429a        .B      CMP      r2,r3
        0x000016ac:    d8f8        ..      BHI      0x16a0 ; am_hal_iom_fifo_read + 72
        0x000016ae:    b1c8        ..      CBZ      r0,0x16e4 ; am_hal_iom_fifo_read + 140
        0x000016b0:    6829        )h      LDR      r1,[r5,#0]
        0x000016b2:    9100        ..      STR      r1,[sp,#0]
        0x000016b4:    eb060183    ....    ADD      r1,r6,r3,LSL #2
        0x000016b8:    1e4b        K.      SUBS     r3,r1,#1
        0x000016ba:    f10d31ff    ...1    ADD      r1,sp,#0xffffffff
        0x000016be:    f0100f01    ....    TST      r0,#1
        0x000016c2:    d003        ..      BEQ      0x16cc ; am_hal_iom_fifo_read + 116
        0x000016c4:    f8112f01    .../    LDRB     r2,[r1,#1]!
        0x000016c8:    f8032f01    .../    STRB     r2,[r3,#1]!
        0x000016cc:    ea5f0c50    _.P.    LSRS     r12,r0,#1
        0x000016d0:    d008        ..      BEQ      0x16e4 ; am_hal_iom_fifo_read + 140
        0x000016d2:    7848        Hx      LDRB     r0,[r1,#1]
        0x000016d4:    7058        Xp      STRB     r0,[r3,#1]
        0x000016d6:    f8110f02    ....    LDRB     r0,[r1,#2]!
        0x000016da:    f8030f02    ....    STRB     r0,[r3,#2]!
        0x000016de:    f1bc0c01    ....    SUBS     r12,r12,#1
        0x000016e2:    d1f6        ..      BNE      0x16d2 ; am_hal_iom_fifo_read + 122
        0x000016e4:    4620         F      MOV      r0,r4
        0x000016e6:    bdf8        ..      POP      {r3-r7,pc}
    $d
        0x000016e8:    20656854    The     DCD    543516756
        0x000016ec:    6f666966    fifo    DCD    1868982630
        0x000016f0:    656f6420     doe    DCD    1701798944
        0x000016f4:    74276e73    sn't    DCD    1948741235
        0x000016f8:    6e6f6320     con    DCD    1852793632
        0x000016fc:    6e696174    tain    DCD    1852399988
        0x00001700:    65687420     the    DCD    1701344288
        0x00001704:    71657220     req    DCD    1902473760
        0x00001708:    74736575    uest    DCD    1953719669
        0x0000170c:    6e206465    ed n    DCD    1847616613
        0x00001710:    65626d75    umbe    DCD    1700949365
        0x00001714:    666f2072    r of    DCD    1718558834
        0x00001718:    74796220     byt    DCD    1954112032
        0x0000171c:    002e7365    es..    DCD    3044197
        0x00001720:    612f2e2e    ../a    DCD    1630481966
        0x00001724:    61685f6d    m_ha    DCD    1634230125
        0x00001728:    6f695f6c    l_io    DCD    1869176684
        0x0000172c:    00632e6d    m.c.    DCD    6499949
    $t
    i.am_hal_iom_fifo_write
    am_hal_iom_fifo_write
        0x00001730:    b570        p.      PUSH     {r4-r6,lr}
        0x00001732:    4614        .F      MOV      r4,r2
        0x00001734:    460e        .F      MOV      r6,r1
        0x00001736:    2806        .(      CMP      r0,#6
        0x00001738:    bf24        $.      ITT      CS
        0x0000173a:    2000        .       MOVCS    r0,#0
        0x0000173c:    bd70        p.      POPCS    {r4-r6,pc}
        0x0000173e:    0300        ..      LSLS     r0,r0,#12
        0x00001740:    f10045a0    ...E    ADD      r5,r0,#0x50000000
        0x00001744:    f5054580    ...E    ADD      r5,r5,#0x4000
        0x00001748:    f8d5011c    ....    LDR      r0,[r5,#0x11c]
        0x0000174c:    f0100f08    ....    TST      r0,#8
        0x00001750:    bf0c        ..      ITE      EQ
        0x00001752:    2080        .       MOVEQ    r0,#0x80
        0x00001754:    2040        @       MOVNE    r0,#0x40
        0x00001756:    f8d51100    ....    LDR      r1,[r5,#0x100]
        0x0000175a:    1a40        @.      SUBS     r0,r0,r1
        0x0000175c:    f00000fc    ....    AND      r0,r0,#0xfc
        0x00001760:    42a0        .B      CMP      r0,r4
        0x00001762:    d205        ..      BCS      0x1770 ; am_hal_iom_fifo_write + 64
        0x00001764:    a21b        ..      ADR      r2,{pc}+0x70 ; 0x17d4
        0x00001766:    f6407144    @.Dq    MOV      r1,#0xf44
        0x0000176a:    a027        '.      ADR      r0,{pc}+0x9e ; 0x1808
        0x0000176c:    f7fffd6e    ..n.    BL       am_hal_debug_error ; 0x124c
        0x00001770:    2300        .#      MOVS     r3,#0
        0x00001772:    1ce1        ..      ADDS     r1,r4,#3
        0x00001774:    2903        .)      CMP      r1,#3
        0x00001776:    d922        ".      BLS      0x17be ; am_hal_iom_fifo_write + 142
        0x00001778:    f1b44f00    ...O    CMP      r4,#0x80000000
        0x0000177c:    d21f        ..      BCS      0x17be ; am_hal_iom_fifo_write + 142
        0x0000177e:    17ca        ..      ASRS     r2,r1,#31
        0x00001780:    eb017292    ...r    ADD      r2,r1,r2,LSR #30
        0x00001784:    2903        .)      CMP      r1,#3
        0x00001786:    bfd8        ..      IT       LE
        0x00001788:    2000        .       MOVLE    r0,#0
        0x0000178a:    dd05        ..      BLE      0x1798 ; am_hal_iom_fifo_write + 104
        0x0000178c:    f3c20080    ....    UBFX     r0,r2,#2,#1
        0x00001790:    b110        ..      CBZ      r0,0x1798 ; am_hal_iom_fifo_write + 104
        0x00001792:    6831        1h      LDR      r1,[r6,#0]
        0x00001794:    6029        )`      STR      r1,[r5,#0]
        0x00001796:    2301        .#      MOVS     r3,#1
        0x00001798:    2101        .!      MOVS     r1,#1
        0x0000179a:    eb0102a2    ....    ADD      r2,r1,r2,ASR #2
        0x0000179e:    1c40        @.      ADDS     r0,r0,#1
        0x000017a0:    e009        ..      B        0x17b6 ; am_hal_iom_fifo_write + 134
        0x000017a2:    bf00        ..      NOP      
        0x000017a4:    f8561023    V.#.    LDR      r1,[r6,r3,LSL #2]
        0x000017a8:    6029        )`      STR      r1,[r5,#0]
        0x000017aa:    1c59        Y.      ADDS     r1,r3,#1
        0x000017ac:    f8563021    V.!0    LDR      r3,[r6,r1,LSL #2]
        0x000017b0:    602b        +`      STR      r3,[r5,#0]
        0x000017b2:    1c4b        K.      ADDS     r3,r1,#1
        0x000017b4:    1c80        ..      ADDS     r0,r0,#2
        0x000017b6:    4282        .B      CMP      r2,r0
        0x000017b8:    dcf4        ..      BGT      0x17a4 ; am_hal_iom_fifo_write + 116
        0x000017ba:    4620         F      MOV      r0,r4
        0x000017bc:    bd70        p.      POP      {r4-r6,pc}
        0x000017be:    2c00        .,      CMP      r4,#0
        0x000017c0:    d9fb        ..      BLS      0x17ba ; am_hal_iom_fifo_write + 138
        0x000017c2:    bf00        ..      NOP      
        0x000017c4:    f8560023    V.#.    LDR      r0,[r6,r3,LSL #2]
        0x000017c8:    6028        (`      STR      r0,[r5,#0]
        0x000017ca:    1c5b        [.      ADDS     r3,r3,#1
        0x000017cc:    ebb40f83    ....    CMP      r4,r3,LSL #2
        0x000017d0:    d8f8        ..      BHI      0x17c4 ; am_hal_iom_fifo_write + 148
        0x000017d2:    e7f2        ..      B        0x17ba ; am_hal_iom_fifo_write + 138
    $d
        0x000017d4:    20656854    The     DCD    543516756
        0x000017d8:    6f666966    fifo    DCD    1868982630
        0x000017dc:    756f6320     cou    DCD    1970234144
        0x000017e0:    276e646c    ldn'    DCD    661546092
        0x000017e4:    69662074    t fi    DCD    1768300660
        0x000017e8:    68742074    t th    DCD    1752440948
        0x000017ec:    65722065    e re    DCD    1701978213
        0x000017f0:    73657571    ques    DCD    1936029041
        0x000017f4:    20646574    ted     DCD    543450484
        0x000017f8:    626d756e    numb    DCD    1651340654
        0x000017fc:    6f207265    er o    DCD    1864397413
        0x00001800:    79622066    f by    DCD    2036473958
        0x00001804:    00736574    tes.    DCD    7562612
        0x00001808:    612f2e2e    ../a    DCD    1630481966
        0x0000180c:    61685f6d    m_ha    DCD    1634230125
        0x00001810:    6f695f6c    l_io    DCD    1869176684
        0x00001814:    00632e6d    m.c.    DCD    6499949
    $t
    i.am_hal_iom_int_clear
    am_hal_iom_int_clear
        0x00001818:    2806        .(      CMP      r0,#6
        0x0000181a:    bf28        (.      IT       CS
        0x0000181c:    4770        pG      BXCS     lr
        0x0000181e:    0300        ..      LSLS     r0,r0,#12
        0x00001820:    f10040a0    ...@    ADD      r0,r0,#0x50000000
        0x00001824:    f5004080    ...@    ADD      r0,r0,#0x4000
        0x00001828:    f8c01208    ....    STR      r1,[r0,#0x208]
        0x0000182c:    4770        pG      BX       lr
    i.am_hal_iom_int_enable
    am_hal_iom_int_enable
        0x0000182e:    2806        .(      CMP      r0,#6
        0x00001830:    bf28        (.      IT       CS
        0x00001832:    4770        pG      BXCS     lr
        0x00001834:    0300        ..      LSLS     r0,r0,#12
        0x00001836:    f10040a0    ...@    ADD      r0,r0,#0x50000000
        0x0000183a:    f5004080    ...@    ADD      r0,r0,#0x4000
        0x0000183e:    f8d02200    ..."    LDR      r2,[r0,#0x200]
        0x00001842:    4311        .C      ORRS     r1,r1,r2
        0x00001844:    f8c01200    ....    STR      r1,[r0,#0x200]
        0x00001848:    4770        pG      BX       lr
        0x0000184a:    0000        ..      MOVS     r0,r0
    i.am_hal_iom_int_service
    am_hal_iom_int_service
        0x0000184c:    2806        .(      CMP      r0,#6
        0x0000184e:    bf28        (.      IT       CS
        0x00001850:    4770        pG      BXCS     lr
        0x00001852:    e92d47f0    -..G    PUSH     {r4-r10,lr}
        0x00001856:    4605        .F      MOV      r5,r0
        0x00001858:    4a54        TJ      LDR      r2,[pc,#336] ; [0x19ac] = 0x10000290
        0x0000185a:    eb000085    ....    ADD      r0,r0,r5,LSL #2
        0x0000185e:    eb020480    ....    ADD      r4,r2,r0,LSL #2
        0x00001862:    4f53        SO      LDR      r7,[pc,#332] ; [0x19b0] = 0x1000006b
        0x00001864:    ea4f3205    O..2    LSL      r2,r5,#12
        0x00001868:    f10246a0    ...F    ADD      r6,r2,#0x50000000
        0x0000186c:    5d78        x]      LDRB     r0,[r7,r5]
        0x0000186e:    f04f0800    O...    MOV      r8,#0
        0x00001872:    4308        .C      ORRS     r0,r0,r1
        0x00001874:    5578        xU      STRB     r0,[r7,r5]
        0x00001876:    f0110f01    ....    TST      r1,#1
        0x0000187a:    f5064680    ...F    ADD      r6,r6,#0x4000
        0x0000187e:    d01f        ..      BEQ      0x18c0 ; am_hal_iom_int_service + 116
        0x00001880:    1ff8        ..      SUBS     r0,r7,#7
        0x00001882:    f8008005    ....    STRB     r8,[r0,r5]
        0x00001886:    6820         h      LDR      r0,[r4,#0]
        0x00001888:    2800        .(      CMP      r0,#0
        0x0000188a:    bf08        ..      IT       EQ
        0x0000188c:    e8bd87f0    ....    POPEQ    {r4-r10,pc}
        0x00001890:    2802        .(      CMP      r0,#2
        0x00001892:    d106        ..      BNE      0x18a2 ; am_hal_iom_int_service + 86
        0x00001894:    f8d60100    ....    LDR      r0,[r6,#0x100]
        0x00001898:    6861        ah      LDR      r1,[r4,#4]
        0x0000189a:    b2c2        ..      UXTB     r2,r0
        0x0000189c:    4628        (F      MOV      r0,r5
        0x0000189e:    f7fffedb    ....    BL       am_hal_iom_fifo_read ; 0x1658
        0x000018a2:    f8c48000    ....    STR      r8,[r4,#0]
        0x000018a6:    5d79        y]      LDRB     r1,[r7,r5]
        0x000018a8:    4628        (F      MOV      r0,r5
        0x000018aa:    f001fe59    ..Y.    BL       internal_iom_get_int_err ; 0x3560
        0x000018ae:    5578        xU      STRB     r0,[r7,r5]
        0x000018b0:    6920         i      LDR      r0,[r4,#0x10]
        0x000018b2:    2800        .(      CMP      r0,#0
        0x000018b4:    bf08        ..      IT       EQ
        0x000018b6:    e8bd87f0    ....    POPEQ    {r4-r10,pc}
        0x000018ba:    e8bd47f0    ...G    POP      {r4-r10,lr}
        0x000018be:    4700        .G      BX       r0
        0x000018c0:    f0110f02    ....    TST      r1,#2
        0x000018c4:    bf1a        ..      ITTE     NE
        0x000018c6:    6820         h      LDRNE    r0,[r4,#0]
        0x000018c8:    2800        .(      CMPNE    r0,#0
        0x000018ca:    e8bd87f0    ....    POPEQ    {r4-r10,pc}
        0x000018ce:    2801        .(      CMP      r0,#1
        0x000018d0:    f8d60108    ....    LDR      r0,[r6,#0x108]
        0x000018d4:    bf08        ..      IT       EQ
        0x000018d6:    f3c02906    ...)    UBFXEQ   r9,r0,#8,#7
        0x000018da:    d012        ..      BEQ      0x1902 ; am_hal_iom_int_service + 182
        0x000018dc:    f000087f    ....    AND      r8,r0,#0x7f
        0x000018e0:    f8d60100    ....    LDR      r0,[r6,#0x100]
        0x000018e4:    b2c0        ..      UXTB     r0,r0
        0x000018e6:    4540        @E      CMP      r0,r8
        0x000018e8:    bf38        8.      IT       CC
        0x000018ea:    e8bd87f0    ....    POPCC    {r4-r10,pc}
        0x000018ee:    68a1        .h      LDR      r1,[r4,#8]
        0x000018f0:    4281        .B      CMP      r1,r0
        0x000018f2:    d13a        :.      BNE      0x196a ; am_hal_iom_int_service + 286
        0x000018f4:    460a        .F      MOV      r2,r1
        0x000018f6:    4628        (F      MOV      r0,r5
        0x000018f8:    6861        ah      LDR      r1,[r4,#4]
        0x000018fa:    e8bd47f0    ...G    POP      {r4-r10,lr}
        0x000018fe:    f7ffbeab    ....    B.W      am_hal_iom_fifo_read ; 0x1658
        0x00001902:    2d06        .-      CMP      r5,#6
        0x00001904:    bf28        (.      IT       CS
        0x00001906:    4647        GF      MOVCS    r7,r8
        0x00001908:    d20b        ..      BCS      0x1922 ; am_hal_iom_int_service + 214
        0x0000190a:    f8d6011c    ....    LDR      r0,[r6,#0x11c]
        0x0000190e:    f0100f08    ....    TST      r0,#8
        0x00001912:    bf0c        ..      ITE      EQ
        0x00001914:    2080        .       MOVEQ    r0,#0x80
        0x00001916:    2040        @       MOVNE    r0,#0x40
        0x00001918:    f8d61100    ....    LDR      r1,[r6,#0x100]
        0x0000191c:    1a40        @.      SUBS     r0,r0,r1
        0x0000191e:    f00007fc    ....    AND      r7,r0,#0xfc
        0x00001922:    68a0        .h      LDR      r0,[r4,#8]
        0x00001924:    42b8        .B      CMP      r0,r7
        0x00001926:    bf98        ..      IT       LS
        0x00001928:    4607        .F      MOVLS    r7,r0
        0x0000192a:    463a        :F      MOV      r2,r7
        0x0000192c:    4628        (F      MOV      r0,r5
        0x0000192e:    6861        ah      LDR      r1,[r4,#4]
        0x00001930:    f7fffefe    ....    BL       am_hal_iom_fifo_write ; 0x1730
        0x00001934:    f8d60208    ....    LDR      r0,[r6,#0x208]
        0x00001938:    f0400002    @...    ORR      r0,r0,#2
        0x0000193c:    f8c60208    ....    STR      r0,[r6,#0x208]
        0x00001940:    68a0        .h      LDR      r0,[r4,#8]
        0x00001942:    f0270203    '...    BIC      r2,r7,#3
        0x00001946:    1bc1        ..      SUBS     r1,r0,r7
        0x00001948:    60a1        .`      STR      r1,[r4,#8]
        0x0000194a:    6860        `h      LDR      r0,[r4,#4]
        0x0000194c:    4410        .D      ADD      r0,r0,r2
        0x0000194e:    6060        ``      STR      r0,[r4,#4]
        0x00001950:    bf08        ..      IT       EQ
        0x00001952:    e8bd87f0    ....    POPEQ    {r4-r10,pc}
        0x00001956:    2d06        .-      CMP      r5,#6
        0x00001958:    bf2e        ..      ITEE     CS
        0x0000195a:    2000        .       MOVCS    r0,#0
        0x0000195c:    f8d60100    ....    LDRCC    r0,[r6,#0x100]
        0x00001960:    b2c0        ..      UXTBCC   r0,r0
        0x00001962:    4548        HE      CMP      r0,r9
        0x00001964:    d9cd        ..      BLS      0x1902 ; am_hal_iom_int_service + 182
        0x00001966:    e8bd87f0    ....    POP      {r4-r10,pc}
        0x0000196a:    2804        .(      CMP      r0,#4
        0x0000196c:    d314        ..      BCC      0x1998 ; am_hal_iom_int_service + 332
        0x0000196e:    f0200703     ...    BIC      r7,r0,#3
        0x00001972:    463a        :F      MOV      r2,r7
        0x00001974:    4628        (F      MOV      r0,r5
        0x00001976:    6861        ah      LDR      r1,[r4,#4]
        0x00001978:    f7fffe6e    ..n.    BL       am_hal_iom_fifo_read ; 0x1658
        0x0000197c:    68a0        .h      LDR      r0,[r4,#8]
        0x0000197e:    f0270103    '...    BIC      r1,r7,#3
        0x00001982:    1bc0        ..      SUBS     r0,r0,r7
        0x00001984:    60a0        .`      STR      r0,[r4,#8]
        0x00001986:    6860        `h      LDR      r0,[r4,#4]
        0x00001988:    4408        .D      ADD      r0,r0,r1
        0x0000198a:    6060        ``      STR      r0,[r4,#4]
        0x0000198c:    f8d60208    ....    LDR      r0,[r6,#0x208]
        0x00001990:    f0400002    @...    ORR      r0,r0,#2
        0x00001994:    f8c60208    ....    STR      r0,[r6,#0x208]
        0x00001998:    2d06        .-      CMP      r5,#6
        0x0000199a:    bf2e        ..      ITEE     CS
        0x0000199c:    2000        .       MOVCS    r0,#0
        0x0000199e:    f8d60100    ....    LDRCC    r0,[r6,#0x100]
        0x000019a2:    b2c0        ..      UXTBCC   r0,r0
        0x000019a4:    4540        @E      CMP      r0,r8
        0x000019a6:    d2a2        ..      BCS      0x18ee ; am_hal_iom_int_service + 162
        0x000019a8:    e8bd87f0    ....    POP      {r4-r10,pc}
    $d
        0x000019ac:    10000290    ....    DCD    268436112
        0x000019b0:    1000006b    k...    DCD    268435563
    $t
    i.am_hal_iom_int_status_get
    am_hal_iom_int_status_get
        0x000019b4:    2806        .(      CMP      r0,#6
        0x000019b6:    bf24        $.      ITT      CS
        0x000019b8:    2000        .       MOVCS    r0,#0
        0x000019ba:    4770        pG      BXCS     lr
        0x000019bc:    0300        ..      LSLS     r0,r0,#12
        0x000019be:    f10040a0    ...@    ADD      r0,r0,#0x50000000
        0x000019c2:    f5004080    ...@    ADD      r0,r0,#0x4000
        0x000019c6:    2900        .)      CMP      r1,#0
        0x000019c8:    bf04        ..      ITT      EQ
        0x000019ca:    f8d00204    ....    LDREQ    r0,[r0,#0x204]
        0x000019ce:    4770        pG      BXEQ     lr
        0x000019d0:    f8d01204    ....    LDR      r1,[r0,#0x204]
        0x000019d4:    f8d00200    ....    LDR      r0,[r0,#0x200]
        0x000019d8:    4008        .@      ANDS     r0,r0,r1
        0x000019da:    4770        pG      BX       lr
    i.am_hal_iom_poll_complete
    am_hal_iom_poll_complete
        0x000019dc:    2806        .(      CMP      r0,#6
        0x000019de:    bf34        4.      ITE      CC
        0x000019e0:    4902        .I      LDRCC    r1,[pc,#8] ; [0x19ec] = 0x10000064
        0x000019e2:    4770        pG      BXCS     lr
        0x000019e4:    5c0a        .\      LDRB     r2,[r1,r0]
        0x000019e6:    2a00        .*      CMP      r2,#0
        0x000019e8:    d1fc        ..      BNE      0x19e4 ; am_hal_iom_poll_complete + 8
        0x000019ea:    4770        pG      BX       lr
    $d
        0x000019ec:    10000064    d...    DCD    268435556
    $t
    i.am_hal_iom_power_off_save
    am_hal_iom_power_off_save
        0x000019f0:    b510        ..      PUSH     {r4,lr}
        0x000019f2:    4604        .F      MOV      r4,r0
        0x000019f4:    2806        .(      CMP      r0,#6
        0x000019f6:    d305        ..      BCC      0x1a04 ; am_hal_iom_power_off_save + 20
        0x000019f8:    a212        ..      ADR      r2,{pc}+0x4c ; 0x1a44
        0x000019fa:    f2403169    @.i1    MOV      r1,#0x369
        0x000019fe:    a01e        ..      ADR      r0,{pc}+0x7a ; 0x1a78
        0x00001a00:    f7fffc24    ..$.    BL       am_hal_debug_error ; 0x124c
        0x00001a04:    0320         .      LSLS     r0,r4,#12
        0x00001a06:    f10041a0    ...A    ADD      r1,r0,#0x50000000
        0x00001a0a:    f5014180    ...A    ADD      r1,r1,#0x4000
        0x00001a0e:    f8d13108    ...1    LDR      r3,[r1,#0x108]
        0x00001a12:    481d        .H      LDR      r0,[pc,#116] ; [0x1a88] = 0x100003b0
        0x00001a14:    eb040284    ....    ADD      r2,r4,r4,LSL #2
        0x00001a18:    f8403022    @."0    STR      r3,[r0,r2,LSL #2]
        0x00001a1c:    f8d1310c    ...1    LDR      r3,[r1,#0x10c]
        0x00001a20:    eb000082    ....    ADD      r0,r0,r2,LSL #2
        0x00001a24:    6043        C`      STR      r3,[r0,#4]
        0x00001a26:    f8d1211c    ...!    LDR      r2,[r1,#0x11c]
        0x00001a2a:    6082        .`      STR      r2,[r0,#8]
        0x00001a2c:    f8d11200    ....    LDR      r1,[r1,#0x200]
        0x00001a30:    60c1        .`      STR      r1,[r0,#0xc]
        0x00001a32:    2101        .!      MOVS     r1,#1
        0x00001a34:    6101        .a      STR      r1,[r0,#0x10]
        0x00001a36:    2002        .       MOVS     r0,#2
        0x00001a38:    40a0        .@      LSLS     r0,r0,r4
        0x00001a3a:    e8bd4010    ...@    POP      {r4,lr}
        0x00001a3e:    f001b8e1    ....    B.W      am_hal_pwrctrl_periph_disable ; 0x2c04
    $d
        0x00001a42:    0000        ..      DCW    0
        0x00001a44:    69797254    Tryi    DCD    1769566804
        0x00001a48:    7420676e    ng t    DCD    1948280686
        0x00001a4c:    6964206f    o di    DCD    1768169583
        0x00001a50:    6c626173    sabl    DCD    1818386803
        0x00001a54:    6e612065    e an    DCD    1851859045
        0x00001a58:    4d4f4920     IOM    DCD    1297041696
        0x00001a5c:    646f6d20     mod    DCD    1685024032
        0x00001a60:    20656c75    ule     DCD    543517813
        0x00001a64:    74616874    that    DCD    1952540788
        0x00001a68:    656f6420     doe    DCD    1701798944
        0x00001a6c:    74276e73    sn't    DCD    1948741235
        0x00001a70:    69786520     exi    DCD    1769497888
        0x00001a74:    002e7473    st..    DCD    3044467
        0x00001a78:    612f2e2e    ../a    DCD    1630481966
        0x00001a7c:    61685f6d    m_ha    DCD    1634230125
        0x00001a80:    6f695f6c    l_io    DCD    1869176684
        0x00001a84:    00632e6d    m.c.    DCD    6499949
        0x00001a88:    100003b0    ....    DCD    268436400
    $t
    i.am_hal_iom_power_on_restore
    am_hal_iom_power_on_restore
        0x00001a8c:    e92d41f0    -..A    PUSH     {r4-r8,lr}
        0x00001a90:    4605        .F      MOV      r5,r0
        0x00001a92:    2806        .(      CMP      r0,#6
        0x00001a94:    d305        ..      BCC      0x1aa2 ; am_hal_iom_power_on_restore + 22
        0x00001a96:    a215        ..      ADR      r2,{pc}+0x56 ; 0x1aec
        0x00001a98:    f2403135    @.51    MOV      r1,#0x335
        0x00001a9c:    a020         .      ADR      r0,{pc}+0x84 ; 0x1b20
        0x00001a9e:    f7fffbd5    ....    BL       am_hal_debug_error ; 0x124c
        0x00001aa2:    4f23        #O      LDR      r7,[pc,#140] ; [0x1b30] = 0x100003b0
        0x00001aa4:    eb050685    ....    ADD      r6,r5,r5,LSL #2
        0x00001aa8:    eb070486    ....    ADD      r4,r7,r6,LSL #2
        0x00001aac:    6920         i      LDR      r0,[r4,#0x10]
        0x00001aae:    2800        .(      CMP      r0,#0
        0x00001ab0:    bf08        ..      IT       EQ
        0x00001ab2:    e8bd81f0    ....    POPEQ    {r4-r8,pc}
        0x00001ab6:    2002        .       MOVS     r0,#2
        0x00001ab8:    40a8        .@      LSLS     r0,r0,r5
        0x00001aba:    f001f8e3    ....    BL       am_hal_pwrctrl_periph_enable ; 0x2c84
        0x00001abe:    0328        (.      LSLS     r0,r5,#12
        0x00001ac0:    f10040a0    ...@    ADD      r0,r0,#0x50000000
        0x00001ac4:    f5004080    ...@    ADD      r0,r0,#0x4000
        0x00001ac8:    f8571026    W.&.    LDR      r1,[r7,r6,LSL #2]
        0x00001acc:    f8c01108    ....    STR      r1,[r0,#0x108]
        0x00001ad0:    6861        ah      LDR      r1,[r4,#4]
        0x00001ad2:    f8c0110c    ....    STR      r1,[r0,#0x10c]
        0x00001ad6:    68a1        .h      LDR      r1,[r4,#8]
        0x00001ad8:    f8c0111c    ....    STR      r1,[r0,#0x11c]
        0x00001adc:    68e1        .h      LDR      r1,[r4,#0xc]
        0x00001ade:    f8c01200    ....    STR      r1,[r0,#0x200]
        0x00001ae2:    2000        .       MOVS     r0,#0
        0x00001ae4:    6120         a      STR      r0,[r4,#0x10]
        0x00001ae6:    e8bd81f0    ....    POP      {r4-r8,pc}
    $d
        0x00001aea:    0000        ..      DCW    0
        0x00001aec:    69797254    Tryi    DCD    1769566804
        0x00001af0:    7420676e    ng t    DCD    1948280686
        0x00001af4:    6e65206f    o en    DCD    1852121199
        0x00001af8:    656c6261    able    DCD    1701601889
        0x00001afc:    206e6120     an     DCD    544104736
        0x00001b00:    204d4f49    IOM     DCD    541937481
        0x00001b04:    75646f6d    modu    DCD    1969516397
        0x00001b08:    7420656c    le t    DCD    1948280172
        0x00001b0c:    20746168    hat     DCD    544498024
        0x00001b10:    73656f64    does    DCD    1936027492
        0x00001b14:    2074276e    n't     DCD    544483182
        0x00001b18:    73697865    exis    DCD    1936291941
        0x00001b1c:    00002e74    t...    DCD    11892
        0x00001b20:    612f2e2e    ../a    DCD    1630481966
        0x00001b24:    61685f6d    m_ha    DCD    1634230125
        0x00001b28:    6f695f6c    l_io    DCD    1869176684
        0x00001b2c:    00632e6d    m.c.    DCD    6499949
        0x00001b30:    100003b0    ....    DCD    268436400
    $t
    i.am_hal_iom_pwrctrl_enable
    am_hal_iom_pwrctrl_enable
        0x00001b34:    b510        ..      PUSH     {r4,lr}
        0x00001b36:    4604        .F      MOV      r4,r0
        0x00001b38:    2806        .(      CMP      r0,#6
        0x00001b3a:    d305        ..      BCC      0x1b48 ; am_hal_iom_pwrctrl_enable + 20
        0x00001b3c:    a205        ..      ADR      r2,{pc}+0x18 ; 0x1b54
        0x00001b3e:    f44f7135    O.5q    MOV      r1,#0x2d4
        0x00001b42:    a011        ..      ADR      r0,{pc}+0x46 ; 0x1b88
        0x00001b44:    f7fffb82    ....    BL       am_hal_debug_error ; 0x124c
        0x00001b48:    2002        .       MOVS     r0,#2
        0x00001b4a:    40a0        .@      LSLS     r0,r0,r4
        0x00001b4c:    e8bd4010    ...@    POP      {r4,lr}
        0x00001b50:    f001b898    ....    B.W      am_hal_pwrctrl_periph_enable ; 0x2c84
    $d
        0x00001b54:    69797254    Tryi    DCD    1769566804
        0x00001b58:    7420676e    ng t    DCD    1948280686
        0x00001b5c:    6e65206f    o en    DCD    1852121199
        0x00001b60:    656c6261    able    DCD    1701601889
        0x00001b64:    206e6120     an     DCD    544104736
        0x00001b68:    204d4f49    IOM     DCD    541937481
        0x00001b6c:    75646f6d    modu    DCD    1969516397
        0x00001b70:    7420656c    le t    DCD    1948280172
        0x00001b74:    20746168    hat     DCD    544498024
        0x00001b78:    73656f64    does    DCD    1936027492
        0x00001b7c:    2074276e    n't     DCD    544483182
        0x00001b80:    73697865    exis    DCD    1936291941
        0x00001b84:    00002e74    t...    DCD    11892
        0x00001b88:    612f2e2e    ../a    DCD    1630481966
        0x00001b8c:    61685f6d    m_ha    DCD    1634230125
        0x00001b90:    6f695f6c    l_io    DCD    1869176684
        0x00001b94:    00632e6d    m.c.    DCD    6499949
    $t
    i.am_hal_iom_sleeping_queue_flush
    am_hal_iom_sleeping_queue_flush
        0x00001b98:    e92d41f0    -..A    PUSH     {r4-r8,lr}
        0x00001b9c:    2501        .%      MOVS     r5,#1
        0x00001b9e:    4604        .F      MOV      r4,r0
        0x00001ba0:    2806        .(      CMP      r0,#6
        0x00001ba2:    bf28        (.      IT       CS
        0x00001ba4:    e8bd81f0    ....    POPCS    {r4-r8,pc}
        0x00001ba8:    4f0f        .O      LDR      r7,[pc,#60] ; [0x1be8] = 0x10000064
        0x00001baa:    4810        .H      LDR      r0,[pc,#64] ; [0x1bec] = 0x10000320
        0x00001bac:    eb040144    ..D.    ADD      r1,r4,r4,LSL #1
        0x00001bb0:    eb0006c1    ....    ADD      r6,r0,r1,LSL #3
        0x00001bb4:    f7fefaf6    ....    BL       am_hal_interrupt_master_disable ; 0x1a4
        0x00001bb8:    4680        .F      MOV      r8,r0
        0x00001bba:    5d38        8]      LDRB     r0,[r7,r4]
        0x00001bbc:    2800        .(      CMP      r0,#0
        0x00001bbe:    bf04        ..      ITT      EQ
        0x00001bc0:    68b0        .h      LDREQ    r0,[r6,#8]
        0x00001bc2:    2800        .(      CMPEQ    r0,#0
        0x00001bc4:    d00a        ..      BEQ      0x1bdc ; am_hal_iom_sleeping_queue_flush + 68
        0x00001bc6:    f04f0000    O...    MOV      r0,#0
        0x00001bca:    f001f971    ..q.    BL       am_hal_sysctrl_sleep ; 0x2eb0
        0x00001bce:    4640        @F      MOV      r0,r8
        0x00001bd0:    f7fefaec    ....    BL       am_hal_interrupt_master_set ; 0x1ac
        0x00001bd4:    2d00        .-      CMP      r5,#0
        0x00001bd6:    d1ed        ..      BNE      0x1bb4 ; am_hal_iom_sleeping_queue_flush + 28
        0x00001bd8:    e8bd81f0    ....    POP      {r4-r8,pc}
        0x00001bdc:    4640        @F      MOV      r0,r8
        0x00001bde:    e8bd41f0    ...A    POP      {r4-r8,lr}
        0x00001be2:    f7febae3    ....    B        am_hal_interrupt_master_set ; 0x1ac
    $d
        0x00001be6:    0000        ..      DCW    0
        0x00001be8:    10000064    d...    DCD    268435556
        0x00001bec:    10000320     ...    DCD    268436256
    $t
    i.am_hal_iom_spi_fullduplex
    am_hal_iom_spi_fullduplex
        0x00001bf0:    2806        .(      CMP      r0,#6
        0x00001bf2:    bf24        $.      ITT      CS
        0x00001bf4:    2002        .       MOVCS    r0,#2
        0x00001bf6:    4770        pG      BXCS     lr
        0x00001bf8:    b570        p.      PUSH     {r4-r6,lr}
        0x00001bfa:    b082        ..      SUB      sp,sp,#8
        0x00001bfc:    f8dfc03c    ..<.    LDR      r12,[pc,#60] ; [0x1c3c] = 0x1000006b
        0x00001c00:    e9dd4506    ...E    LDRD     r4,r5,[sp,#0x18]
        0x00001c04:    2600        .&      MOVS     r6,#0
        0x00001c06:    f80c6000    ...`    STRB     r6,[r12,r0]
        0x00001c0a:    b154        T.      CBZ      r4,0x1c22 ; am_hal_iom_spi_fullduplex + 50
        0x00001c0c:    4e0c        .N      LDR      r6,[pc,#48] ; [0x1c40] = 0x40020000
        0x00001c0e:    68f6        .h      LDR      r6,[r6,#0xc]
        0x00001c10:    b2f6        ..      UXTB     r6,r6
        0x00001c12:    2e22        ".      CMP      r6,#0x22
        0x00001c14:    d00b        ..      BEQ      0x1c2e ; am_hal_iom_spi_fullduplex + 62
        0x00001c16:    2105        .!      MOVS     r1,#5
        0x00001c18:    f80c1000    ....    STRB     r1,[r12,r0]
        0x00001c1c:    b002        ..      ADD      sp,sp,#8
        0x00001c1e:    4608        .F      MOV      r0,r1
        0x00001c20:    bd70        p.      POP      {r4-r6,pc}
        0x00001c22:    2103        .!      MOVS     r1,#3
        0x00001c24:    f80c1000    ....    STRB     r1,[r12,r0]
        0x00001c28:    b002        ..      ADD      sp,sp,#8
        0x00001c2a:    4608        .F      MOV      r0,r1
        0x00001c2c:    bd70        p.      POP      {r4-r6,pc}
        0x00001c2e:    e9cd4500    ...E    STRD     r4,r5,[sp,#0]
        0x00001c32:    f000f807    ....    BL       am_hal_iom_spi_fullduplex_nq ; 0x1c44
        0x00001c36:    b002        ..      ADD      sp,sp,#8
        0x00001c38:    bd70        p.      POP      {r4-r6,pc}
    $d
        0x00001c3a:    0000        ..      DCW    0
        0x00001c3c:    1000006b    k...    DCD    268435563
        0x00001c40:    40020000    ...@    DCD    1073872896
    $t
    i.am_hal_iom_spi_fullduplex_nq
    am_hal_iom_spi_fullduplex_nq
        0x00001c44:    2806        .(      CMP      r0,#6
        0x00001c46:    bf24        $.      ITT      CS
        0x00001c48:    2002        .       MOVCS    r0,#2
        0x00001c4a:    4770        pG      BXCS     lr
        0x00001c4c:    e92d4fff    -..O    PUSH     {r0-r11,lr}
        0x00001c50:    b081        ..      SUB      sp,sp,#4
        0x00001c52:    4604        .F      MOV      r4,r0
        0x00001c54:    e9dd7b0e    ...{    LDRD     r7,r11,[sp,#0x38]
        0x00001c58:    4867        gH      LDR      r0,[pc,#412] ; [0x1df8] = 0x10000064
        0x00001c5a:    4699        .F      MOV      r9,r3
        0x00001c5c:    468a        .F      MOV      r10,r1
        0x00001c5e:    5d01        .]      LDRB     r1,[r0,r4]
        0x00001c60:    2900        .)      CMP      r1,#0
        0x00001c62:    d1fc        ..      BNE      0x1c5e ; am_hal_iom_spi_fullduplex_nq + 26
        0x00001c64:    4965        eI      LDR      r1,[pc,#404] ; [0x1dfc] = 0x1000006b
        0x00001c66:    2000        .       MOVS     r0,#0
        0x00001c68:    2f00        ./      CMP      r7,#0
        0x00001c6a:    5508        .U      STRB     r0,[r1,r4]
        0x00001c6c:    bf18        ..      IT       NE
        0x00001c6e:    f5b75f80    ..._    CMPNE    r7,#0x1000
        0x00001c72:    d305        ..      BCC      0x1c80 ; am_hal_iom_spi_fullduplex_nq + 60
        0x00001c74:    4961        aI      LDR      r1,[pc,#388] ; [0x1dfc] = 0x1000006b
        0x00001c76:    2003        .       MOVS     r0,#3
        0x00001c78:    5508        .U      STRB     r0,[r1,r4]
        0x00001c7a:    b005        ..      ADD      sp,sp,#0x14
        0x00001c7c:    e8bd8ff0    ....    POP      {r4-r11,pc}
        0x00001c80:    495f        _I      LDR      r1,[pc,#380] ; [0x1e00] = 0x40020000
        0x00001c82:    68c9        .h      LDR      r1,[r1,#0xc]
        0x00001c84:    b2c9        ..      UXTB     r1,r1
        0x00001c86:    2922        ")      CMP      r1,#0x22
        0x00001c88:    d005        ..      BEQ      0x1c96 ; am_hal_iom_spi_fullduplex_nq + 82
        0x00001c8a:    495c        \I      LDR      r1,[pc,#368] ; [0x1dfc] = 0x1000006b
        0x00001c8c:    2005        .       MOVS     r0,#5
        0x00001c8e:    5508        .U      STRB     r0,[r1,r4]
        0x00001c90:    b005        ..      ADD      sp,sp,#0x14
        0x00001c92:    e8bd8ff0    ....    POP      {r4-r11,pc}
        0x00001c96:    0321        !.      LSLS     r1,r4,#12
        0x00001c98:    f10145a0    ...E    ADD      r5,r1,#0x50000000
        0x00001c9c:    f5054580    ...E    ADD      r5,r5,#0x4000
        0x00001ca0:    f8d5111c    ....    LDR      r1,[r5,#0x11c]
        0x00001ca4:    f0410108    A...    ORR      r1,r1,#8
        0x00001ca8:    f8c5111c    ....    STR      r1,[r5,#0x11c]
        0x00001cac:    f8d5111c    ....    LDR      r1,[r5,#0x11c]
        0x00001cb0:    f8d51200    ....    LDR      r1,[r5,#0x200]
        0x00001cb4:    9100        ..      STR      r1,[sp,#0]
        0x00001cb6:    f8c50200    ....    STR      r0,[r5,#0x200]
        0x00001cba:    f24070ff    @..p    MOV      r0,#0x7ff
        0x00001cbe:    f8c50208    ....    STR      r0,[r5,#0x208]
        0x00001cc2:    f04f0800    O...    MOV      r8,#0
        0x00001cc6:    2f40        @/      CMP      r7,#0x40
        0x00001cc8:    bf8c        ..      ITE      HI
        0x00001cca:    2640        @&      MOVHI    r6,#0x40
        0x00001ccc:    463e        >F      MOVLS    r6,r7
        0x00001cce:    4632        2F      MOV      r2,r6
        0x00001cd0:    4620         F      MOV      r0,r4
        0x00001cd2:    9903        ..      LDR      r1,[sp,#0xc]
        0x00001cd4:    f7fffd2c    ..,.    BL       am_hal_iom_fifo_write ; 0x1730
        0x00001cd8:    2000        .       MOVS     r0,#0
        0x00001cda:    f4076170    ..pa    AND      r1,r7,#0xf00
        0x00001cde:    ea4030c1    @..0    ORR      r0,r0,r1,LSL #15
        0x00001ce2:    b2f9        ..      UXTB     r1,r7
        0x00001ce4:    4308        .C      ORRS     r0,r0,r1
        0x00001ce6:    f44f21e0    O..!    MOV      r1,#0x70000
        0x00001cea:    ea01410a    ...A    AND      r1,r1,r10,LSL #16
        0x00001cee:    4308        .C      ORRS     r0,r0,r1
        0x00001cf0:    4944        DI      LDR      r1,[pc,#272] ; [0x1e04] = 0x5c00ff00
        0x00001cf2:    ea0b0101    ....    AND      r1,r11,r1
        0x00001cf6:    4308        .C      ORRS     r0,r0,r1
        0x00001cf8:    f8c50110    ....    STR      r0,[r5,#0x110]
        0x00001cfc:    9803        ..      LDR      r0,[sp,#0xc]
        0x00001cfe:    f0260103    &...    BIC      r1,r6,#3
        0x00001d02:    eb010a00    ....    ADD      r10,r1,r0
        0x00001d06:    42be        .B      CMP      r6,r7
        0x00001d08:    d240        @.      BCS      0x1d8c ; am_hal_iom_spi_fullduplex_nq + 328
        0x00001d0a:    2c06        .,      CMP      r4,#6
        0x00001d0c:    bf2e        ..      ITEE     CS
        0x00001d0e:    2000        .       MOVCS    r0,#0
        0x00001d10:    f8d50100    ....    LDRCC    r0,[r5,#0x100]
        0x00001d14:    b2c0        ..      UXTBCC   r0,r0
        0x00001d16:    1a30        0.      SUBS     r0,r6,r0
        0x00001d18:    eba00008    ....    SUB      r0,r0,r8
        0x00001d1c:    f0200003     ...    BIC      r0,r0,#3
        0x00001d20:    2804        .(      CMP      r0,#4
        0x00001d22:    bf98        ..      IT       LS
        0x00001d24:    f04f0b00    O...    MOVLS    r11,#0
        0x00001d28:    d906        ..      BLS      0x1d38 ; am_hal_iom_spi_fullduplex_nq + 244
        0x00001d2a:    f1a00b04    ....    SUB      r11,r0,#4
        0x00001d2e:    465a        ZF      MOV      r2,r11
        0x00001d30:    4649        IF      MOV      r1,r9
        0x00001d32:    4620         F      MOV      r0,r4
        0x00001d34:    f7fffc90    ....    BL       am_hal_iom_fifo_read ; 0x1658
        0x00001d38:    f02b0003    +...    BIC      r0,r11,#3
        0x00001d3c:    44d8        .D      ADD      r8,r8,r11
        0x00001d3e:    4481        .D      ADD      r9,r9,r0
        0x00001d40:    eba70b06    ....    SUB      r11,r7,r6
        0x00001d44:    2c06        .,      CMP      r4,#6
        0x00001d46:    bf2e        ..      ITEE     CS
        0x00001d48:    2000        .       MOVCS    r0,#0
        0x00001d4a:    f8d50100    ....    LDRCC    r0,[r5,#0x100]
        0x00001d4e:    b2c0        ..      UXTBCC   r0,r0
        0x00001d50:    f1c00040    ..@.    RSB      r0,r0,#0x40
        0x00001d54:    eba60108    ....    SUB      r1,r6,r8
        0x00001d58:    2940        @)      CMP      r1,#0x40
        0x00001d5a:    d900        ..      BLS      0x1d5e ; am_hal_iom_spi_fullduplex_nq + 282
        0x00001d5c:    e7fe        ..      B        0x1d5c ; am_hal_iom_spi_fullduplex_nq + 280
        0x00001d5e:    f1c10140    ..@.    RSB      r1,r1,#0x40
        0x00001d62:    458b        .E      CMP      r11,r1
        0x00001d64:    bf98        ..      IT       LS
        0x00001d66:    4583        .E      CMPLS    r11,r0
        0x00001d68:    d905        ..      BLS      0x1d76 ; am_hal_iom_spi_fullduplex_nq + 306
        0x00001d6a:    4288        .B      CMP      r0,r1
        0x00001d6c:    bf94        ..      ITE      LS
        0x00001d6e:    f0200b03     ...    BICLS    r11,r0,#3
        0x00001d72:    f0210b03    !...    BICHI    r11,r1,#3
        0x00001d76:    465a        ZF      MOV      r2,r11
        0x00001d78:    4651        QF      MOV      r1,r10
        0x00001d7a:    4620         F      MOV      r0,r4
        0x00001d7c:    f7fffcd8    ....    BL       am_hal_iom_fifo_write ; 0x1730
        0x00001d80:    445e        ^D      ADD      r6,r6,r11
        0x00001d82:    f02b0003    +...    BIC      r0,r11,#3
        0x00001d86:    4482        .D      ADD      r10,r10,r0
        0x00001d88:    42be        .B      CMP      r6,r7
        0x00001d8a:    d3be        ..      BCC      0x1d0a ; am_hal_iom_spi_fullduplex_nq + 198
        0x00001d8c:    481e        .H      LDR      r0,[pc,#120] ; [0x1e08] = 0x50004204
        0x00001d8e:    2301        .#      MOVS     r3,#1
        0x00001d90:    eb003104    ...1    ADD      r1,r0,r4,LSL #12
        0x00001d94:    481d        .H      LDR      r0,[pc,#116] ; [0x1e0c] = 0x10000308
        0x00001d96:    461a        .F      MOV      r2,r3
        0x00001d98:    f8500024    P.$.    LDR      r0,[r0,r4,LSL #2]
        0x00001d9c:    f7fffa5c    ..\.    BL       am_hal_flash_delay_status_change ; 0x1258
        0x00001da0:    2801        .(      CMP      r0,#1
        0x00001da2:    d003        ..      BEQ      0x1dac ; am_hal_iom_spi_fullduplex_nq + 360
        0x00001da4:    4815        .H      LDR      r0,[pc,#84] ; [0x1dfc] = 0x1000006b
        0x00001da6:    2601        .&      MOVS     r6,#1
        0x00001da8:    5506        .U      STRB     r6,[r0,r4]
        0x00001daa:    e006        ..      B        0x1dba ; am_hal_iom_spi_fullduplex_nq + 374
        0x00001dac:    2100        .!      MOVS     r1,#0
        0x00001dae:    4620         F      MOV      r0,r4
        0x00001db0:    f001fbd6    ....    BL       internal_iom_get_int_err ; 0x3560
        0x00001db4:    4911        .I      LDR      r1,[pc,#68] ; [0x1dfc] = 0x1000006b
        0x00001db6:    4606        .F      MOV      r6,r0
        0x00001db8:    5508        .U      STRB     r0,[r1,r4]
        0x00001dba:    2c06        .,      CMP      r4,#6
        0x00001dbc:    d204        ..      BCS      0x1dc8 ; am_hal_iom_spi_fullduplex_nq + 388
        0x00001dbe:    f8d50100    ....    LDR      r0,[r5,#0x100]
        0x00001dc2:    f0100fff    ....    TST      r0,#0xff
        0x00001dc6:    d1f8        ..      BNE      0x1dba ; am_hal_iom_spi_fullduplex_nq + 374
        0x00001dc8:    eba70208    ....    SUB      r2,r7,r8
        0x00001dcc:    4649        IF      MOV      r1,r9
        0x00001dce:    4620         F      MOV      r0,r4
        0x00001dd0:    f7fffc42    ..B.    BL       am_hal_iom_fifo_read ; 0x1658
        0x00001dd4:    f24070ff    @..p    MOV      r0,#0x7ff
        0x00001dd8:    f8c50208    ....    STR      r0,[r5,#0x208]
        0x00001ddc:    9800        ..      LDR      r0,[sp,#0]
        0x00001dde:    f8c50200    ....    STR      r0,[r5,#0x200]
        0x00001de2:    f8d5011c    ....    LDR      r0,[r5,#0x11c]
        0x00001de6:    f0200008     ...    BIC      r0,r0,#8
        0x00001dea:    f8c5011c    ....    STR      r0,[r5,#0x11c]
        0x00001dee:    b005        ..      ADD      sp,sp,#0x14
        0x00001df0:    4630        0F      MOV      r0,r6
        0x00001df2:    e8bd8ff0    ....    POP      {r4-r11,pc}
    $d
        0x00001df6:    0000        ..      DCW    0
        0x00001df8:    10000064    d...    DCD    268435556
        0x00001dfc:    1000006b    k...    DCD    268435563
        0x00001e00:    40020000    ...@    DCD    1073872896
        0x00001e04:    5c00ff00    ...\    DCD    1543569152
        0x00001e08:    50004204    .B.P    DCD    1342194180
        0x00001e0c:    10000308    ....    DCD    268436232
    $t
    i.am_hal_iom_spi_read
    am_hal_iom_spi_read
        0x00001e10:    2806        .(      CMP      r0,#6
        0x00001e12:    bf24        $.      ITT      CS
        0x00001e14:    2002        .       MOVCS    r0,#2
        0x00001e16:    4770        pG      BXCS     lr
        0x00001e18:    e92d4ff0    -..O    PUSH     {r4-r11,lr}
        0x00001e1c:    4604        .F      MOV      r4,r0
        0x00001e1e:    ea4f3c04    O..<    LSL      r12,r4,#12
        0x00001e22:    b08b        ..      SUB      sp,sp,#0x2c
        0x00001e24:    f10c4ca0    ...L    ADD      r12,r12,#0x50000000
        0x00001e28:    f50c4c80    ...L    ADD      r12,r12,#0x4000
        0x00001e2c:    f24070ff    @..p    MOV      r0,#0x7ff
        0x00001e30:    9f14        ..      LDR      r7,[sp,#0x50]
        0x00001e32:    f8cc0208    ....    STR      r0,[r12,#0x208]
        0x00001e36:    4e30        0N      LDR      r6,[pc,#192] ; [0x1ef8] = 0x1000006b
        0x00001e38:    2000        .       MOVS     r0,#0
        0x00001e3a:    2b00        .+      CMP      r3,#0
        0x00001e3c:    5530        0U      STRB     r0,[r6,r4]
        0x00001e3e:    bf18        ..      IT       NE
        0x00001e40:    f5b35f80    ..._    CMPNE    r3,#0x1000
        0x00001e44:    bf21        !.      ITTTT    CS
        0x00001e46:    2003        .       MOVCS    r0,#3
        0x00001e48:    5530        0U      STRBCS   r0,[r6,r4]
        0x00001e4a:    b00b        ..      ADDCS    sp,sp,#0x2c
        0x00001e4c:    e8bd8ff0    ....    POPCS    {r4-r11,pc}
        0x00001e50:    eb040c44    ..D.    ADD      r12,r4,r4,LSL #1
        0x00001e54:    4829        )H      LDR      r0,[pc,#164] ; [0x1efc] = 0x10000320
        0x00001e56:    eb0008cc    ....    ADD      r8,r0,r12,LSL #3
        0x00001e5a:    f8d80014    ....    LDR      r0,[r8,#0x14]
        0x00001e5e:    2800        .(      CMP      r0,#0
        0x00001e60:    d043        C.      BEQ      0x1eea ; am_hal_iom_spi_read + 218
        0x00001e62:    468a        .F      MOV      r10,r1
        0x00001e64:    4691        .F      MOV      r9,r2
        0x00001e66:    461d        .F      MOV      r5,r3
        0x00001e68:    f04f0b00    O...    MOV      r11,#0
        0x00001e6c:    f7fef99a    ....    BL       am_hal_interrupt_master_disable ; 0x1a4
        0x00001e70:    9002        ..      STR      r0,[sp,#8]
        0x00001e72:    4823        #H      LDR      r0,[pc,#140] ; [0x1f00] = 0x10000064
        0x00001e74:    5d00        .]      LDRB     r0,[r0,r4]
        0x00001e76:    2800        .(      CMP      r0,#0
        0x00001e78:    bf04        ..      ITT      EQ
        0x00001e7a:    f8d80008    ....    LDREQ    r0,[r8,#8]
        0x00001e7e:    2800        .(      CMPEQ    r0,#0
        0x00001e80:    d014        ..      BEQ      0x1eac ; am_hal_iom_spi_read + 156
        0x00001e82:    f04f0001    O...    MOV      r0,#1
        0x00001e86:    f8cdb024    ..$.    STR      r11,[sp,#0x24]
        0x00001e8a:    e9cd0403    ....    STRD     r0,r4,[sp,#0xc]
        0x00001e8e:    e9cd5707    ...W    STRD     r5,r7,[sp,#0x1c]
        0x00001e92:    e9cda905    ....    STRD     r10,r9,[sp,#0x14]
        0x00001e96:    4640        @F      MOV      r0,r8
        0x00001e98:    f04f0201    O...    MOV      r2,#1
        0x00001e9c:    a903        ..      ADD      r1,sp,#0xc
        0x00001e9e:    f000ff5a    ..Z.    BL       am_hal_queue_item_add ; 0x2d56
        0x00001ea2:    2800        .(      CMP      r0,#0
        0x00001ea4:    bf08        ..      IT       EQ
        0x00001ea6:    2508        .%      MOVEQ    r5,#8
        0x00001ea8:    d00a        ..      BEQ      0x1ec0 ; am_hal_iom_spi_read + 176
        0x00001eaa:    e013        ..      B        0x1ed4 ; am_hal_iom_spi_read + 196
        0x00001eac:    e9cd7b00    ...{    STRD     r7,r11,[sp,#0]
        0x00001eb0:    462b        +F      MOV      r3,r5
        0x00001eb2:    464a        JF      MOV      r2,r9
        0x00001eb4:    4651        QF      MOV      r1,r10
        0x00001eb6:    4620         F      MOV      r0,r4
        0x00001eb8:    f000f826    ..&.    BL       am_hal_iom_spi_read_nb ; 0x1f08
        0x00001ebc:    0005        ..      MOVS     r5,r0
        0x00001ebe:    d009        ..      BEQ      0x1ed4 ; am_hal_iom_spi_read + 196
        0x00001ec0:    5535        5U      STRB     r5,[r6,r4]
        0x00001ec2:    9802        ..      LDR      r0,[sp,#8]
        0x00001ec4:    f7fef972    ..r.    BL       am_hal_interrupt_master_set ; 0x1ac
        0x00001ec8:    0028        (.      MOVS     r0,r5
        0x00001eca:    bf1c        ..      ITT      NE
        0x00001ecc:    b00b        ..      ADDNE    sp,sp,#0x2c
        0x00001ece:    e8bd8ff0    ....    POPNE    {r4-r11,pc}
        0x00001ed2:    e002        ..      B        0x1eda ; am_hal_iom_spi_read + 202
        0x00001ed4:    9802        ..      LDR      r0,[sp,#8]
        0x00001ed6:    f7fef969    ..i.    BL       am_hal_interrupt_master_set ; 0x1ac
        0x00001eda:    490a        .I      LDR      r1,[pc,#40] ; [0x1f04] = 0x10000060
        0x00001edc:    4620         F      MOV      r0,r4
        0x00001ede:    6809        .h      LDR      r1,[r1,#0]
        0x00001ee0:    4788        .G      BLX      r1
        0x00001ee2:    5d30        0]      LDRB     r0,[r6,r4]
        0x00001ee4:    b00b        ..      ADD      sp,sp,#0x2c
        0x00001ee6:    e8bd8ff0    ....    POP      {r4-r11,pc}
        0x00001eea:    4620         F      MOV      r0,r4
        0x00001eec:    9700        ..      STR      r7,[sp,#0]
        0x00001eee:    f000f89d    ....    BL       am_hal_iom_spi_read_nq ; 0x202c
        0x00001ef2:    b00b        ..      ADD      sp,sp,#0x2c
        0x00001ef4:    e8bd8ff0    ....    POP      {r4-r11,pc}
    $d
        0x00001ef8:    1000006b    k...    DCD    268435563
        0x00001efc:    10000320     ...    DCD    268436256
        0x00001f00:    10000064    d...    DCD    268435556
        0x00001f04:    10000060    `...    DCD    268435552
    $t
    i.am_hal_iom_spi_read_nb
    am_hal_iom_spi_read_nb
        0x00001f08:    2806        .(      CMP      r0,#6
        0x00001f0a:    bf24        $.      ITT      CS
        0x00001f0c:    2002        .       MOVCS    r0,#2
        0x00001f0e:    4770        pG      BXCS     lr
        0x00001f10:    e92d4fff    -..O    PUSH     {r0-r11,lr}
        0x00001f14:    b081        ..      SUB      sp,sp,#4
        0x00001f16:    f8df90f4    ....    LDR      r9,[pc,#244] ; [0x200c] = 0x10000064
        0x00001f1a:    9d0e        ..      LDR      r5,[sp,#0x38]
        0x00001f1c:    461e        .F      MOV      r6,r3
        0x00001f1e:    4604        .F      MOV      r4,r0
        0x00001f20:    f8190004    ....    LDRB     r0,[r9,r4]
        0x00001f24:    2800        .(      CMP      r0,#0
        0x00001f26:    d1fb        ..      BNE      0x1f20 ; am_hal_iom_spi_read_nb + 24
        0x00001f28:    f8df80e4    ....    LDR      r8,[pc,#228] ; [0x2010] = 0x1000006b
        0x00001f2c:    2e00        ..      CMP      r6,#0
        0x00001f2e:    f8080004    ....    STRB     r0,[r8,r4]
        0x00001f32:    9000        ..      STR      r0,[sp,#0]
        0x00001f34:    bf18        ..      IT       NE
        0x00001f36:    f5b65f80    ..._    CMPNE    r6,#0x1000
        0x00001f3a:    bf21        !.      ITTTT    CS
        0x00001f3c:    2003        .       MOVCS    r0,#3
        0x00001f3e:    f8080004    ....    STRBCS   r0,[r8,r4]
        0x00001f42:    b005        ..      ADDCS    sp,sp,#0x14
        0x00001f44:    e8bd8ff0    ....    POPCS    {r4-r11,pc}
        0x00001f48:    2101        .!      MOVS     r1,#1
        0x00001f4a:    f8091004    ....    STRB     r1,[r9,r4]
        0x00001f4e:    0323        #.      LSLS     r3,r4,#12
        0x00001f50:    f10347a0    ...G    ADD      r7,r3,#0x50000000
        0x00001f54:    f5074780    ...G    ADD      r7,r7,#0x4000
        0x00001f58:    f24072ff    @..r    MOV      r2,#0x7ff
        0x00001f5c:    f8c72208    ..."    STR      r2,[r7,#0x208]
        0x00001f60:    2c04        .,      CMP      r4,#4
        0x00001f62:    bf08        ..      IT       EQ
        0x00001f64:    f0154f80    ...O    TSTEQ    r5,#0x40000000
        0x00001f68:    d12b        +.      BNE      0x1fc2 ; am_hal_iom_spi_read_nb + 186
        0x00001f6a:    4a2a        *J      LDR      r2,[pc,#168] ; [0x2014] = 0x40020000
        0x00001f6c:    68d2        .h      LDR      r2,[r2,#0xc]
        0x00001f6e:    b2d2        ..      UXTB     r2,r2
        0x00001f70:    2a20         *      CMP      r2,#0x20
        0x00001f72:    d126        &.      BNE      0x1fc2 ; am_hal_iom_spi_read_nb + 186
        0x00001f74:    f8dfa0a0    ....    LDR      r10,[pc,#160] ; [0x2018] = 0x50008000
        0x00001f78:    f8dab200    ....    LDR      r11,[r10,#0x200]
        0x00001f7c:    f8ca0200    ....    STR      r0,[r10,#0x200]
        0x00001f80:    e9dd0102    ....    LDRD     r0,r1,[sp,#8]
        0x00001f84:    f0455380    E..S    ORR      r3,r5,#0x10000000
        0x00001f88:    2200        ."      MOVS     r2,#0
        0x00001f8a:    f000fac5    ....    BL       am_hal_iom_workaround_word_write ; 0x2518
        0x00001f8e:    4824        $H      LDR      r0,[pc,#144] ; [0x2020] = 0x10000308
        0x00001f90:    2301        .#      MOVS     r3,#1
        0x00001f92:    f0454580    E..E    ORR      r5,r5,#0x40000000
        0x00001f96:    4921        !I      LDR      r1,[pc,#132] ; [0x201c] = 0x50008204
        0x00001f98:    6900        .i      LDR      r0,[r0,#0x10]
        0x00001f9a:    461a        .F      MOV      r2,r3
        0x00001f9c:    f7fff95c    ..\.    BL       am_hal_flash_delay_status_change ; 0x1258
        0x00001fa0:    2801        .(      CMP      r0,#1
        0x00001fa2:    f04f0001    O...    MOV      r0,#1
        0x00001fa6:    bf1e        ..      ITTT     NE
        0x00001fa8:    f8880004    ....    STRBNE   r0,[r8,#4]
        0x00001fac:    b005        ..      ADDNE    sp,sp,#0x14
        0x00001fae:    e8bd8ff0    ....    POPNE    {r4-r11,pc}
        0x00001fb2:    f8890004    ....    STRB     r0,[r9,#4]
        0x00001fb6:    f24070ff    @..p    MOV      r0,#0x7ff
        0x00001fba:    f8ca0208    ....    STR      r0,[r10,#0x208]
        0x00001fbe:    f8cab200    ....    STR      r11,[r10,#0x200]
        0x00001fc2:    4818        .H      LDR      r0,[pc,#96] ; [0x2024] = 0x10000290
        0x00001fc4:    eb040184    ....    ADD      r1,r4,r4,LSL #2
        0x00001fc8:    2202        ."      MOVS     r2,#2
        0x00001fca:    f8402021    @.!     STR      r2,[r0,r1,LSL #2]
        0x00001fce:    eb000081    ....    ADD      r0,r0,r1,LSL #2
        0x00001fd2:    9a03        ..      LDR      r2,[sp,#0xc]
        0x00001fd4:    e9c02601    ...&    STRD     r2,r6,[r0,#4]
        0x00001fd8:    990f        ..      LDR      r1,[sp,#0x3c]
        0x00001fda:    f4066270    ..pb    AND      r2,r6,#0xf00
        0x00001fde:    e9c05103    ...Q    STRD     r5,r1,[r0,#0xc]
        0x00001fe2:    f04f4000    O..@    MOV      r0,#0x80000000
        0x00001fe6:    ea4030c2    @..0    ORR      r0,r0,r2,LSL #15
        0x00001fea:    b2f2        ..      UXTB     r2,r6
        0x00001fec:    4310        .C      ORRS     r0,r0,r2
        0x00001fee:    9902        ..      LDR      r1,[sp,#8]
        0x00001ff0:    f44f22e0    O.."    MOV      r2,#0x70000
        0x00001ff4:    ea024101    ...A    AND      r1,r2,r1,LSL #16
        0x00001ff8:    4308        .C      ORRS     r0,r0,r1
        0x00001ffa:    490b        .I      LDR      r1,[pc,#44] ; [0x2028] = 0x5c00ff00
        0x00001ffc:    4029        )@      ANDS     r1,r1,r5
        0x00001ffe:    4308        .C      ORRS     r0,r0,r1
        0x00002000:    f8c70110    ....    STR      r0,[r7,#0x110]
        0x00002004:    9800        ..      LDR      r0,[sp,#0]
        0x00002006:    b005        ..      ADD      sp,sp,#0x14
        0x00002008:    e8bd8ff0    ....    POP      {r4-r11,pc}
    $d
        0x0000200c:    10000064    d...    DCD    268435556
        0x00002010:    1000006b    k...    DCD    268435563
        0x00002014:    40020000    ...@    DCD    1073872896
        0x00002018:    50008000    ...P    DCD    1342210048
        0x0000201c:    50008204    ...P    DCD    1342210564
        0x00002020:    10000308    ....    DCD    268436232
        0x00002024:    10000290    ....    DCD    268436112
        0x00002028:    5c00ff00    ...\    DCD    1543569152
    $t
    i.am_hal_iom_spi_read_nq
    am_hal_iom_spi_read_nq
        0x0000202c:    e92d5fff    -.._    PUSH     {r0-r12,lr}
        0x00002030:    461d        .F      MOV      r5,r3
        0x00002032:    9e0e        ..      LDR      r6,[sp,#0x38]
        0x00002034:    4691        .F      MOV      r9,r2
        0x00002036:    4604        .F      MOV      r4,r0
        0x00002038:    f04f0a00    O...    MOV      r10,#0
        0x0000203c:    2806        .(      CMP      r0,#6
        0x0000203e:    bf29        ).      ITETT    CS
        0x00002040:    2002        .       MOVCS    r0,#2
        0x00002042:    4853        SH      LDRCC    r0,[pc,#332] ; [0x2190] = 0x10000064
        0x00002044:    b004        ..      ADDCS    sp,sp,#0x10
        0x00002046:    e8bd9ff0    ....    POPCS    {r4-r12,pc}
        0x0000204a:    5d01        .]      LDRB     r1,[r0,r4]
        0x0000204c:    2900        .)      CMP      r1,#0
        0x0000204e:    d1fc        ..      BNE      0x204a ; am_hal_iom_spi_read_nq + 30
        0x00002050:    f8df8140    ..@.    LDR      r8,[pc,#320] ; [0x2194] = 0x1000006b
        0x00002054:    2000        .       MOVS     r0,#0
        0x00002056:    2d00        .-      CMP      r5,#0
        0x00002058:    f8080004    ....    STRB     r0,[r8,r4]
        0x0000205c:    bf18        ..      IT       NE
        0x0000205e:    f5b55f80    ..._    CMPNE    r5,#0x1000
        0x00002062:    bf21        !.      ITTTT    CS
        0x00002064:    2003        .       MOVCS    r0,#3
        0x00002066:    f8080004    ....    STRBCS   r0,[r8,r4]
        0x0000206a:    b004        ..      ADDCS    sp,sp,#0x10
        0x0000206c:    e8bd9ff0    ....    POPCS    {r4-r12,pc}
        0x00002070:    0321        !.      LSLS     r1,r4,#12
        0x00002072:    f10147a0    ...G    ADD      r7,r1,#0x50000000
        0x00002076:    f5074780    ...G    ADD      r7,r7,#0x4000
        0x0000207a:    f8d7b200    ....    LDR      r11,[r7,#0x200]
        0x0000207e:    f8c70200    ....    STR      r0,[r7,#0x200]
        0x00002082:    f24070ff    @..p    MOV      r0,#0x7ff
        0x00002086:    f8c70208    ....    STR      r0,[r7,#0x208]
        0x0000208a:    2c04        .,      CMP      r4,#4
        0x0000208c:    bf08        ..      IT       EQ
        0x0000208e:    f0164f80    ...O    TSTEQ    r6,#0x40000000
        0x00002092:    d129        ).      BNE      0x20e8 ; am_hal_iom_spi_read_nq + 188
        0x00002094:    4840        @H      LDR      r0,[pc,#256] ; [0x2198] = 0x40020000
        0x00002096:    68c0        .h      LDR      r0,[r0,#0xc]
        0x00002098:    b2c0        ..      UXTB     r0,r0
        0x0000209a:    2820         (      CMP      r0,#0x20
        0x0000209c:    d124        $.      BNE      0x20e8 ; am_hal_iom_spi_read_nq + 188
        0x0000209e:    f0465380    F..S    ORR      r3,r6,#0x10000000
        0x000020a2:    2200        ."      MOVS     r2,#0
        0x000020a4:    4649        IF      MOV      r1,r9
        0x000020a6:    9801        ..      LDR      r0,[sp,#4]
        0x000020a8:    f000fa36    ..6.    BL       am_hal_iom_workaround_word_write ; 0x2518
        0x000020ac:    483c        <H      LDR      r0,[pc,#240] ; [0x21a0] = 0x10000308
        0x000020ae:    2301        .#      MOVS     r3,#1
        0x000020b0:    f0464680    F..F    ORR      r6,r6,#0x40000000
        0x000020b4:    4939        9I      LDR      r1,[pc,#228] ; [0x219c] = 0x50008204
        0x000020b6:    6900        .i      LDR      r0,[r0,#0x10]
        0x000020b8:    461a        .F      MOV      r2,r3
        0x000020ba:    f7fff8cd    ....    BL       am_hal_flash_delay_status_change ; 0x1258
        0x000020be:    4939        9I      LDR      r1,[pc,#228] ; [0x21a4] = 0x50008000
        0x000020c0:    2801        .(      CMP      r0,#1
        0x000020c2:    d00b        ..      BEQ      0x20dc ; am_hal_iom_spi_read_nq + 176
        0x000020c4:    2001        .       MOVS     r0,#1
        0x000020c6:    f8880004    ....    STRB     r0,[r8,#4]
        0x000020ca:    f24072ff    @..r    MOV      r2,#0x7ff
        0x000020ce:    f8c12208    ..."    STR      r2,[r1,#0x208]
        0x000020d2:    f8c1b200    ....    STR      r11,[r1,#0x200]
        0x000020d6:    b004        ..      ADD      sp,sp,#0x10
        0x000020d8:    e8bd9ff0    ....    POP      {r4-r12,pc}
        0x000020dc:    f8d10208    ....    LDR      r0,[r1,#0x208]
        0x000020e0:    f0400001    @...    ORR      r0,r0,#1
        0x000020e4:    f8c10208    ....    STR      r0,[r1,#0x208]
        0x000020e8:    f04f4000    O..@    MOV      r0,#0x80000000
        0x000020ec:    f4056270    ..pb    AND      r2,r5,#0xf00
        0x000020f0:    ea4030c2    @..0    ORR      r0,r0,r2,LSL #15
        0x000020f4:    b2ea        ..      UXTB     r2,r5
        0x000020f6:    4310        .C      ORRS     r0,r0,r2
        0x000020f8:    9901        ..      LDR      r1,[sp,#4]
        0x000020fa:    f44f22e0    O.."    MOV      r2,#0x70000
        0x000020fe:    ea024101    ...A    AND      r1,r2,r1,LSL #16
        0x00002102:    4308        .C      ORRS     r0,r0,r1
        0x00002104:    4928        (I      LDR      r1,[pc,#160] ; [0x21a8] = 0x5c00ff00
        0x00002106:    4031        1@      ANDS     r1,r1,r6
        0x00002108:    4308        .C      ORRS     r0,r0,r1
        0x0000210a:    f8c70110    ....    STR      r0,[r7,#0x110]
        0x0000210e:    2c06        .,      CMP      r4,#6
        0x00002110:    bf2e        ..      ITEE     CS
        0x00002112:    2600        .&      MOVCS    r6,#0
        0x00002114:    f8d70100    ....    LDRCC    r0,[r7,#0x100]
        0x00002118:    b2c6        ..      UXTBCC   r6,r0
        0x0000211a:    42ae        .B      CMP      r6,r5
        0x0000211c:    d306        ..      BCC      0x212c ; am_hal_iom_spi_read_nq + 256
        0x0000211e:    462a        *F      MOV      r2,r5
        0x00002120:    4649        IF      MOV      r1,r9
        0x00002122:    4620         F      MOV      r0,r4
        0x00002124:    f7fffa98    ....    BL       am_hal_iom_fifo_read ; 0x1658
        0x00002128:    2500        .%      MOVS     r5,#0
        0x0000212a:    e00b        ..      B        0x2144 ; am_hal_iom_spi_read_nq + 280
        0x0000212c:    2e04        ..      CMP      r6,#4
        0x0000212e:    d309        ..      BCC      0x2144 ; am_hal_iom_spi_read_nq + 280
        0x00002130:    f0260203    &...    BIC      r2,r6,#3
        0x00002134:    4649        IF      MOV      r1,r9
        0x00002136:    4620         F      MOV      r0,r4
        0x00002138:    f7fffa8e    ....    BL       am_hal_iom_fifo_read ; 0x1658
        0x0000213c:    f0260003    &...    BIC      r0,r6,#3
        0x00002140:    1a2d        -.      SUBS     r5,r5,r0
        0x00002142:    4481        .D      ADD      r9,r9,r0
        0x00002144:    f1ba0f01    ....    CMP      r10,#1
        0x00002148:    d005        ..      BEQ      0x2156 ; am_hal_iom_spi_read_nq + 298
        0x0000214a:    f8d70204    ....    LDR      r0,[r7,#0x204]
        0x0000214e:    2d00        .-      CMP      r5,#0
        0x00002150:    f0000a01    ....    AND      r10,r0,#1
        0x00002154:    d1db        ..      BNE      0x210e ; am_hal_iom_spi_read_nq + 226
        0x00002156:    4815        .H      LDR      r0,[pc,#84] ; [0x21ac] = 0x50004204
        0x00002158:    2301        .#      MOVS     r3,#1
        0x0000215a:    eb003104    ...1    ADD      r1,r0,r4,LSL #12
        0x0000215e:    4810        .H      LDR      r0,[pc,#64] ; [0x21a0] = 0x10000308
        0x00002160:    461a        .F      MOV      r2,r3
        0x00002162:    f8500024    P.$.    LDR      r0,[r0,r4,LSL #2]
        0x00002166:    f7fff877    ..w.    BL       am_hal_flash_delay_status_change ; 0x1258
        0x0000216a:    2801        .(      CMP      r0,#1
        0x0000216c:    bf18        ..      IT       NE
        0x0000216e:    2001        .       MOVNE    r0,#1
        0x00002170:    d103        ..      BNE      0x217a ; am_hal_iom_spi_read_nq + 334
        0x00002172:    2100        .!      MOVS     r1,#0
        0x00002174:    4620         F      MOV      r0,r4
        0x00002176:    f001f9f3    ....    BL       internal_iom_get_int_err ; 0x3560
        0x0000217a:    f8080004    ....    STRB     r0,[r8,r4]
        0x0000217e:    f24071ff    @..q    MOV      r1,#0x7ff
        0x00002182:    f8c71208    ....    STR      r1,[r7,#0x208]
        0x00002186:    f8c7b200    ....    STR      r11,[r7,#0x200]
        0x0000218a:    b004        ..      ADD      sp,sp,#0x10
        0x0000218c:    e8bd9ff0    ....    POP      {r4-r12,pc}
    $d
        0x00002190:    10000064    d...    DCD    268435556
        0x00002194:    1000006b    k...    DCD    268435563
        0x00002198:    40020000    ...@    DCD    1073872896
        0x0000219c:    50008204    ...P    DCD    1342210564
        0x000021a0:    10000308    ....    DCD    268436232
        0x000021a4:    50008000    ...P    DCD    1342210048
        0x000021a8:    5c00ff00    ...\    DCD    1543569152
        0x000021ac:    50004204    .B.P    DCD    1342194180
    $t
    i.am_hal_iom_spi_write
    am_hal_iom_spi_write
        0x000021b0:    2806        .(      CMP      r0,#6
        0x000021b2:    bf24        $.      ITT      CS
        0x000021b4:    2002        .       MOVCS    r0,#2
        0x000021b6:    4770        pG      BXCS     lr
        0x000021b8:    e92d4ff0    -..O    PUSH     {r4-r11,lr}
        0x000021bc:    b08b        ..      SUB      sp,sp,#0x2c
        0x000021be:    4604        .F      MOV      r4,r0
        0x000021c0:    f8df80c8    ....    LDR      r8,[pc,#200] ; [0x228c] = 0x1000006b
        0x000021c4:    2000        .       MOVS     r0,#0
        0x000021c6:    9d14        ..      LDR      r5,[sp,#0x50]
        0x000021c8:    f8080004    ....    STRB     r0,[r8,r4]
        0x000021cc:    2b00        .+      CMP      r3,#0
        0x000021ce:    bf01        ..      ITTTT    EQ
        0x000021d0:    2003        .       MOVEQ    r0,#3
        0x000021d2:    f8080004    ....    STRBEQ   r0,[r8,r4]
        0x000021d6:    b00b        ..      ADDEQ    sp,sp,#0x2c
        0x000021d8:    e8bd8ff0    ....    POPEQ    {r4-r11,pc}
        0x000021dc:    eb040644    ..D.    ADD      r6,r4,r4,LSL #1
        0x000021e0:    f8dfc0ac    ....    LDR      r12,[pc,#172] ; [0x2290] = 0x10000320
        0x000021e4:    eb0c06c6    ....    ADD      r6,r12,r6,LSL #3
        0x000021e8:    f8d6c014    ....    LDR      r12,[r6,#0x14]
        0x000021ec:    f1bc0f00    ....    CMP      r12,#0
        0x000021f0:    d044        D.      BEQ      0x227c ; am_hal_iom_spi_write + 204
        0x000021f2:    468a        .F      MOV      r10,r1
        0x000021f4:    4691        .F      MOV      r9,r2
        0x000021f6:    461f        .F      MOV      r7,r3
        0x000021f8:    f04f0b00    O...    MOV      r11,#0
        0x000021fc:    f7fdffd2    ....    BL       am_hal_interrupt_master_disable ; 0x1a4
        0x00002200:    9002        ..      STR      r0,[sp,#8]
        0x00002202:    4824        $H      LDR      r0,[pc,#144] ; [0x2294] = 0x10000064
        0x00002204:    5d00        .]      LDRB     r0,[r0,r4]
        0x00002206:    2800        .(      CMP      r0,#0
        0x00002208:    bf04        ..      ITT      EQ
        0x0000220a:    68b0        .h      LDREQ    r0,[r6,#8]
        0x0000220c:    2800        .(      CMPEQ    r0,#0
        0x0000220e:    d014        ..      BEQ      0x223a ; am_hal_iom_spi_write + 138
        0x00002210:    f04f0000    O...    MOV      r0,#0
        0x00002214:    f8cda014    ....    STR      r10,[sp,#0x14]
        0x00002218:    e9cd0403    ....    STRD     r0,r4,[sp,#0xc]
        0x0000221c:    e9cd5008    ...P    STRD     r5,r0,[sp,#0x20]
        0x00002220:    e9cd9706    ....    STRD     r9,r7,[sp,#0x18]
        0x00002224:    4630        0F      MOV      r0,r6
        0x00002226:    f04f0201    O...    MOV      r2,#1
        0x0000222a:    a903        ..      ADD      r1,sp,#0xc
        0x0000222c:    f000fd93    ....    BL       am_hal_queue_item_add ; 0x2d56
        0x00002230:    2800        .(      CMP      r0,#0
        0x00002232:    bf08        ..      IT       EQ
        0x00002234:    2508        .%      MOVEQ    r5,#8
        0x00002236:    d00a        ..      BEQ      0x224e ; am_hal_iom_spi_write + 158
        0x00002238:    e014        ..      B        0x2264 ; am_hal_iom_spi_write + 180
        0x0000223a:    e9cd5b00    ...[    STRD     r5,r11,[sp,#0]
        0x0000223e:    463b        ;F      MOV      r3,r7
        0x00002240:    464a        JF      MOV      r2,r9
        0x00002242:    4651        QF      MOV      r1,r10
        0x00002244:    4620         F      MOV      r0,r4
        0x00002246:    f000f829    ..).    BL       am_hal_iom_spi_write_nb ; 0x229c
        0x0000224a:    0005        ..      MOVS     r5,r0
        0x0000224c:    d00a        ..      BEQ      0x2264 ; am_hal_iom_spi_write + 180
        0x0000224e:    f8085004    ...P    STRB     r5,[r8,r4]
        0x00002252:    9802        ..      LDR      r0,[sp,#8]
        0x00002254:    f7fdffaa    ....    BL       am_hal_interrupt_master_set ; 0x1ac
        0x00002258:    0028        (.      MOVS     r0,r5
        0x0000225a:    bf1c        ..      ITT      NE
        0x0000225c:    b00b        ..      ADDNE    sp,sp,#0x2c
        0x0000225e:    e8bd8ff0    ....    POPNE    {r4-r11,pc}
        0x00002262:    e002        ..      B        0x226a ; am_hal_iom_spi_write + 186
        0x00002264:    9802        ..      LDR      r0,[sp,#8]
        0x00002266:    f7fdffa1    ....    BL       am_hal_interrupt_master_set ; 0x1ac
        0x0000226a:    490b        .I      LDR      r1,[pc,#44] ; [0x2298] = 0x10000060
        0x0000226c:    4620         F      MOV      r0,r4
        0x0000226e:    6809        .h      LDR      r1,[r1,#0]
        0x00002270:    4788        .G      BLX      r1
        0x00002272:    f8180004    ....    LDRB     r0,[r8,r4]
        0x00002276:    b00b        ..      ADD      sp,sp,#0x2c
        0x00002278:    e8bd8ff0    ....    POP      {r4-r11,pc}
        0x0000227c:    4620         F      MOV      r0,r4
        0x0000227e:    9500        ..      STR      r5,[sp,#0]
        0x00002280:    f000f89a    ....    BL       am_hal_iom_spi_write_nq ; 0x23b8
        0x00002284:    b00b        ..      ADD      sp,sp,#0x2c
        0x00002286:    e8bd8ff0    ....    POP      {r4-r11,pc}
    $d
        0x0000228a:    0000        ..      DCW    0
        0x0000228c:    1000006b    k...    DCD    268435563
        0x00002290:    10000320     ...    DCD    268436256
        0x00002294:    10000064    d...    DCD    268435556
        0x00002298:    10000060    `...    DCD    268435552
    $t
    i.am_hal_iom_spi_write_nb
    am_hal_iom_spi_write_nb
        0x0000229c:    2806        .(      CMP      r0,#6
        0x0000229e:    bf24        $.      ITT      CS
        0x000022a0:    2002        .       MOVCS    r0,#2
        0x000022a2:    4770        pG      BXCS     lr
        0x000022a4:    e92d4fff    -..O    PUSH     {r0-r11,lr}
        0x000022a8:    b081        ..      SUB      sp,sp,#4
        0x000022aa:    4605        .F      MOV      r5,r0
        0x000022ac:    e9dd7b0e    ...{    LDRD     r7,r11,[sp,#0x38]
        0x000022b0:    483c        <H      LDR      r0,[pc,#240] ; [0x23a4] = 0x10000064
        0x000022b2:    461c        .F      MOV      r4,r3
        0x000022b4:    4690        .F      MOV      r8,r2
        0x000022b6:    5d41        A]      LDRB     r1,[r0,r5]
        0x000022b8:    2900        .)      CMP      r1,#0
        0x000022ba:    d1fc        ..      BNE      0x22b6 ; am_hal_iom_spi_write_nb + 26
        0x000022bc:    493a        :I      LDR      r1,[pc,#232] ; [0x23a8] = 0x1000006b
        0x000022be:    2200        ."      MOVS     r2,#0
        0x000022c0:    2c00        .,      CMP      r4,#0
        0x000022c2:    554a        JU      STRB     r2,[r1,r5]
        0x000022c4:    9200        ..      STR      r2,[sp,#0]
        0x000022c6:    bf18        ..      IT       NE
        0x000022c8:    f5b45f80    ..._    CMPNE    r4,#0x1000
        0x000022cc:    bf21        !.      ITTTT    CS
        0x000022ce:    2003        .       MOVCS    r0,#3
        0x000022d0:    5548        HU      STRBCS   r0,[r1,r5]
        0x000022d2:    b005        ..      ADDCS    sp,sp,#0x14
        0x000022d4:    e8bd8ff0    ....    POPCS    {r4-r11,pc}
        0x000022d8:    0329        ).      LSLS     r1,r5,#12
        0x000022da:    f1014aa0    ...J    ADD      r10,r1,#0x50000000
        0x000022de:    f50a4a80    ...J    ADD      r10,r10,#0x4000
        0x000022e2:    f8da111c    ....    LDR      r1,[r10,#0x11c]
        0x000022e6:    f0110f08    ....    TST      r1,#8
        0x000022ea:    bf0c        ..      ITE      EQ
        0x000022ec:    2680        .&      MOVEQ    r6,#0x80
        0x000022ee:    2640        @&      MOVNE    r6,#0x40
        0x000022f0:    f04f0901    O...    MOV      r9,#1
        0x000022f4:    f8009005    ....    STRB     r9,[r0,r5]
        0x000022f8:    f24070ff    @..p    MOV      r0,#0x7ff
        0x000022fc:    f8ca0208    ....    STR      r0,[r10,#0x208]
        0x00002300:    2d04        .-      CMP      r5,#4
        0x00002302:    d104        ..      BNE      0x230e ; am_hal_iom_spi_write_nb + 114
        0x00002304:    4829        )H      LDR      r0,[pc,#164] ; [0x23ac] = 0x40020000
        0x00002306:    68c0        .h      LDR      r0,[r0,#0xc]
        0x00002308:    b2c0        ..      UXTB     r0,r0
        0x0000230a:    2820         (      CMP      r0,#0x20
        0x0000230c:    d02e        ..      BEQ      0x236c ; am_hal_iom_spi_write_nb + 208
        0x0000230e:    42b4        .B      CMP      r4,r6
        0x00002310:    bf98        ..      IT       LS
        0x00002312:    461e        .F      MOVLS    r6,r3
        0x00002314:    4632        2F      MOV      r2,r6
        0x00002316:    4641        AF      MOV      r1,r8
        0x00002318:    4628        (F      MOV      r0,r5
        0x0000231a:    f7fffa09    ....    BL       am_hal_iom_fifo_write ; 0x1730
        0x0000231e:    b308        ..      CBZ      r0,0x2364 ; am_hal_iom_spi_write_nb + 200
        0x00002320:    4823        #H      LDR      r0,[pc,#140] ; [0x23b0] = 0x10000290
        0x00002322:    eb050185    ....    ADD      r1,r5,r5,LSL #2
        0x00002326:    f4046270    ..pb    AND      r2,r4,#0xf00
        0x0000232a:    f8409021    @.!.    STR      r9,[r0,r1,LSL #2]
        0x0000232e:    eb000081    ....    ADD      r0,r0,r1,LSL #2
        0x00002332:    1ba1        ..      SUBS     r1,r4,r6
        0x00002334:    f8c0b010    ....    STR      r11,[r0,#0x10]
        0x00002338:    e9c01702    ....    STRD     r1,r7,[r0,#8]
        0x0000233c:    f0260103    &...    BIC      r1,r6,#3
        0x00002340:    4441        AD      ADD      r1,r1,r8
        0x00002342:    6041        A`      STR      r1,[r0,#4]
        0x00002344:    2000        .       MOVS     r0,#0
        0x00002346:    ea4030c2    @..0    ORR      r0,r0,r2,LSL #15
        0x0000234a:    b2e2        ..      UXTB     r2,r4
        0x0000234c:    4310        .C      ORRS     r0,r0,r2
        0x0000234e:    9902        ..      LDR      r1,[sp,#8]
        0x00002350:    f44f22e0    O.."    MOV      r2,#0x70000
        0x00002354:    ea024101    ...A    AND      r1,r2,r1,LSL #16
        0x00002358:    4308        .C      ORRS     r0,r0,r1
        0x0000235a:    4916        .I      LDR      r1,[pc,#88] ; [0x23b4] = 0x5c00ff00
        0x0000235c:    4039        9@      ANDS     r1,r1,r7
        0x0000235e:    4308        .C      ORRS     r0,r0,r1
        0x00002360:    f8ca0110    ....    STR      r0,[r10,#0x110]
        0x00002364:    9800        ..      LDR      r0,[sp,#0]
        0x00002366:    b005        ..      ADD      sp,sp,#0x14
        0x00002368:    e8bd8ff0    ....    POP      {r4-r11,pc}
        0x0000236c:    1f30        0.      SUBS     r0,r6,#4
        0x0000236e:    4284        .B      CMP      r4,r0
        0x00002370:    bf94        ..      ITE      LS
        0x00002372:    4619        .F      MOVLS    r1,r3
        0x00002374:    4601        .F      MOVHI    r1,r0
        0x00002376:    480e        .H      LDR      r0,[pc,#56] ; [0x23b0] = 0x10000290
        0x00002378:    4a0d        .J      LDR      r2,[pc,#52] ; [0x23b0] = 0x10000290
        0x0000237a:    f8c09050    ..P.    STR      r9,[r0,#0x50]
        0x0000237e:    f0210003    !...    BIC      r0,r1,#3
        0x00002382:    eb000308    ....    ADD      r3,r0,r8
        0x00002386:    f8c2b060    ..`.    STR      r11,[r2,#0x60]
        0x0000238a:    f1020050    ..P.    ADD      r0,r2,#0x50
        0x0000238e:    6553        Se      STR      r3,[r2,#0x54]
        0x00002390:    1a61        a.      SUBS     r1,r4,r1
        0x00002392:    e9c01702    ....    STRD     r1,r7,[r0,#8]
        0x00002396:    463b        ;F      MOV      r3,r7
        0x00002398:    4622        "F      MOV      r2,r4
        0x0000239a:    4641        AF      MOV      r1,r8
        0x0000239c:    9802        ..      LDR      r0,[sp,#8]
        0x0000239e:    f000f8bb    ....    BL       am_hal_iom_workaround_word_write ; 0x2518
        0x000023a2:    e7df        ..      B        0x2364 ; am_hal_iom_spi_write_nb + 200
    $d
        0x000023a4:    10000064    d...    DCD    268435556
        0x000023a8:    1000006b    k...    DCD    268435563
        0x000023ac:    40020000    ...@    DCD    1073872896
        0x000023b0:    10000290    ....    DCD    268436112
        0x000023b4:    5c00ff00    ...\    DCD    1543569152
    $t
    i.am_hal_iom_spi_write_nq
    am_hal_iom_spi_write_nq
        0x000023b8:    2806        .(      CMP      r0,#6
        0x000023ba:    bf24        $.      ITT      CS
        0x000023bc:    2002        .       MOVCS    r0,#2
        0x000023be:    4770        pG      BXCS     lr
        0x000023c0:    e92d5fff    -.._    PUSH     {r0-r12,lr}
        0x000023c4:    4604        .F      MOV      r4,r0
        0x000023c6:    484e        NH      LDR      r0,[pc,#312] ; [0x2500] = 0x10000064
        0x000023c8:    461d        .F      MOV      r5,r3
        0x000023ca:    5d01        .]      LDRB     r1,[r0,r4]
        0x000023cc:    2900        .)      CMP      r1,#0
        0x000023ce:    d1fc        ..      BNE      0x23ca ; am_hal_iom_spi_write_nq + 18
        0x000023d0:    f8df8130    ..0.    LDR      r8,[pc,#304] ; [0x2504] = 0x1000006b
        0x000023d4:    4689        .F      MOV      r9,r1
        0x000023d6:    2d00        .-      CMP      r5,#0
        0x000023d8:    f8089004    ....    STRB     r9,[r8,r4]
        0x000023dc:    bf18        ..      IT       NE
        0x000023de:    f5b55f80    ..._    CMPNE    r5,#0x1000
        0x000023e2:    bf21        !.      ITTTT    CS
        0x000023e4:    2003        .       MOVCS    r0,#3
        0x000023e6:    f8080004    ....    STRBCS   r0,[r8,r4]
        0x000023ea:    b004        ..      ADDCS    sp,sp,#0x10
        0x000023ec:    e8bd9ff0    ....    POPCS    {r4-r12,pc}
        0x000023f0:    0320         .      LSLS     r0,r4,#12
        0x000023f2:    f10046a0    ...F    ADD      r6,r0,#0x50000000
        0x000023f6:    f5064680    ...F    ADD      r6,r6,#0x4000
        0x000023fa:    f8d6011c    ....    LDR      r0,[r6,#0x11c]
        0x000023fe:    f0100f08    ....    TST      r0,#8
        0x00002402:    bf0c        ..      ITE      EQ
        0x00002404:    2780        .'      MOVEQ    r7,#0x80
        0x00002406:    2740        @'      MOVNE    r7,#0x40
        0x00002408:    f8d6a200    ....    LDR      r10,[r6,#0x200]
        0x0000240c:    f8c69200    ....    STR      r9,[r6,#0x200]
        0x00002410:    f2407bff    @..{    MOV      r11,#0x7ff
        0x00002414:    f8c6b208    ....    STR      r11,[r6,#0x208]
        0x00002418:    2c04        .,      CMP      r4,#4
        0x0000241a:    d104        ..      BNE      0x2426 ; am_hal_iom_spi_write_nq + 110
        0x0000241c:    483a        :H      LDR      r0,[pc,#232] ; [0x2508] = 0x40020000
        0x0000241e:    68c0        .h      LDR      r0,[r0,#0xc]
        0x00002420:    b2c0        ..      UXTB     r0,r0
        0x00002422:    2820         (      CMP      r0,#0x20
        0x00002424:    d020         .      BEQ      0x2468 ; am_hal_iom_spi_write_nq + 176
        0x00002426:    42bd        .B      CMP      r5,r7
        0x00002428:    bf98        ..      IT       LS
        0x0000242a:    461f        .F      MOVLS    r7,r3
        0x0000242c:    463a        :F      MOV      r2,r7
        0x0000242e:    4620         F      MOV      r0,r4
        0x00002430:    9902        ..      LDR      r1,[sp,#8]
        0x00002432:    f7fff97d    ..}.    BL       am_hal_iom_fifo_write ; 0x1730
        0x00002436:    2000        .       MOVS     r0,#0
        0x00002438:    f4056370    ..pc    AND      r3,r5,#0xf00
        0x0000243c:    ea4030c3    @..0    ORR      r0,r0,r3,LSL #15
        0x00002440:    b2eb        ..      UXTB     r3,r5
        0x00002442:    4318        .C      ORRS     r0,r0,r3
        0x00002444:    9a01        ..      LDR      r2,[sp,#4]
        0x00002446:    f44f23e0    O..#    MOV      r3,#0x70000
        0x0000244a:    ea034202    ...B    AND      r2,r3,r2,LSL #16
        0x0000244e:    4310        .C      ORRS     r0,r0,r2
        0x00002450:    4a2e        .J      LDR      r2,[pc,#184] ; [0x250c] = 0x5c00ff00
        0x00002452:    990e        ..      LDR      r1,[sp,#0x38]
        0x00002454:    4011        .@      ANDS     r1,r1,r2
        0x00002456:    4308        .C      ORRS     r0,r0,r1
        0x00002458:    f8c60110    ....    STR      r0,[r6,#0x110]
        0x0000245c:    9802        ..      LDR      r0,[sp,#8]
        0x0000245e:    1bed        ..      SUBS     r5,r5,r7
        0x00002460:    f0270103    '...    BIC      r1,r7,#3
        0x00002464:    180f        ..      ADDS     r7,r1,r0
        0x00002466:    e02a        *.      B        0x24be ; am_hal_iom_spi_write_nq + 262
        0x00002468:    e9dd0101    ....    LDRD     r0,r1,[sp,#4]
        0x0000246c:    462a        *F      MOV      r2,r5
        0x0000246e:    9b0e        ..      LDR      r3,[sp,#0x38]
        0x00002470:    f000f852    ..R.    BL       am_hal_iom_workaround_word_write ; 0x2518
        0x00002474:    1f38        8.      SUBS     r0,r7,#4
        0x00002476:    4285        .B      CMP      r5,r0
        0x00002478:    bf94        ..      ITE      LS
        0x0000247a:    462f        /F      MOVLS    r7,r5
        0x0000247c:    1f3f        ?.      SUBHI    r7,r7,#4
        0x0000247e:    e7ed        ..      B        0x245c ; am_hal_iom_spi_write_nq + 164
        0x00002480:    2c06        .,      CMP      r4,#6
        0x00002482:    bf28        (.      IT       CS
        0x00002484:    2000        .       MOVCS    r0,#0
        0x00002486:    d20b        ..      BCS      0x24a0 ; am_hal_iom_spi_write_nq + 232
        0x00002488:    f8d6011c    ....    LDR      r0,[r6,#0x11c]
        0x0000248c:    f0100f08    ....    TST      r0,#8
        0x00002490:    bf0c        ..      ITE      EQ
        0x00002492:    2080        .       MOVEQ    r0,#0x80
        0x00002494:    2040        @       MOVNE    r0,#0x40
        0x00002496:    f8d61100    ....    LDR      r1,[r6,#0x100]
        0x0000249a:    1a40        @.      SUBS     r0,r0,r1
        0x0000249c:    f00000fc    ....    AND      r0,r0,#0xfc
        0x000024a0:    4285        .B      CMP      r5,r0
        0x000024a2:    bf94        ..      ITE      LS
        0x000024a4:    46a9        .F      MOVLS    r9,r5
        0x000024a6:    f0200903     ...    BICHI    r9,r0,#3
        0x000024aa:    464a        JF      MOV      r2,r9
        0x000024ac:    4639        9F      MOV      r1,r7
        0x000024ae:    4620         F      MOV      r0,r4
        0x000024b0:    f7fff93e    ..>.    BL       am_hal_iom_fifo_write ; 0x1730
        0x000024b4:    f0290003    )...    BIC      r0,r9,#3
        0x000024b8:    eba50509    ....    SUB      r5,r5,r9
        0x000024bc:    4407        .D      ADD      r7,r7,r0
        0x000024be:    b125        %.      CBZ      r5,0x24ca ; am_hal_iom_spi_write_nq + 274
        0x000024c0:    f8d60204    ....    LDR      r0,[r6,#0x204]
        0x000024c4:    f0100f01    ....    TST      r0,#1
        0x000024c8:    d0da        ..      BEQ      0x2480 ; am_hal_iom_spi_write_nq + 200
        0x000024ca:    4811        .H      LDR      r0,[pc,#68] ; [0x2510] = 0x50004204
        0x000024cc:    2301        .#      MOVS     r3,#1
        0x000024ce:    eb003104    ...1    ADD      r1,r0,r4,LSL #12
        0x000024d2:    4810        .H      LDR      r0,[pc,#64] ; [0x2514] = 0x10000308
        0x000024d4:    461a        .F      MOV      r2,r3
        0x000024d6:    f8500024    P.$.    LDR      r0,[r0,r4,LSL #2]
        0x000024da:    f7fefebd    ....    BL       am_hal_flash_delay_status_change ; 0x1258
        0x000024de:    2801        .(      CMP      r0,#1
        0x000024e0:    bf18        ..      IT       NE
        0x000024e2:    2001        .       MOVNE    r0,#1
        0x000024e4:    d103        ..      BNE      0x24ee ; am_hal_iom_spi_write_nq + 310
        0x000024e6:    2100        .!      MOVS     r1,#0
        0x000024e8:    4620         F      MOV      r0,r4
        0x000024ea:    f001f839    ..9.    BL       internal_iom_get_int_err ; 0x3560
        0x000024ee:    f8080004    ....    STRB     r0,[r8,r4]
        0x000024f2:    f8c6b208    ....    STR      r11,[r6,#0x208]
        0x000024f6:    f8c6a200    ....    STR      r10,[r6,#0x200]
        0x000024fa:    b004        ..      ADD      sp,sp,#0x10
        0x000024fc:    e8bd9ff0    ....    POP      {r4-r12,pc}
    $d
        0x00002500:    10000064    d...    DCD    268435556
        0x00002504:    1000006b    k...    DCD    268435563
        0x00002508:    40020000    ...@    DCD    1073872896
        0x0000250c:    5c00ff00    ...\    DCD    1543569152
        0x00002510:    50004204    .B.P    DCD    1342194180
        0x00002514:    10000308    ....    DCD    268436232
    $t
    i.am_hal_iom_workaround_word_write
    am_hal_iom_workaround_word_write
        0x00002518:    e92d4fff    -..O    PUSH     {r0-r11,lr}
        0x0000251c:    b085        ..      SUB      sp,sp,#0x14
        0x0000251e:    4cf5        .L      LDR      r4,[pc,#980] ; [0x28f4] = 0x50008000
        0x00002520:    f04f0900    O...    MOV      r9,#0
        0x00002524:    f8cd9008    ....    STR      r9,[sp,#8]
        0x00002528:    f8d4011c    ....    LDR      r0,[r4,#0x11c]
        0x0000252c:    469b        .F      MOV      r11,r3
        0x0000252e:    f0100f08    ....    TST      r0,#8
        0x00002532:    bf0c        ..      ITE      EQ
        0x00002534:    f04f0a80    O...    MOVEQ    r10,#0x80
        0x00002538:    f04f0a40    O.@.    MOVNE    r10,#0x40
        0x0000253c:    f64071fb    @..q    MOV      r1,#0xffb
        0x00002540:    9807        ..      LDR      r0,[sp,#0x1c]
        0x00002542:    4288        .B      CMP      r0,r1
        0x00002544:    d905        ..      BLS      0x2552 ; am_hal_iom_workaround_word_write + 58
        0x00002546:    a2ec        ..      ADR      r2,{pc}+0x3b2 ; 0x28f8
        0x00002548:    f24041ba    @..A    MOV      r1,#0x4ba
        0x0000254c:    a0f0        ..      ADR      r0,{pc}+0x3c4 ; 0x2910
        0x0000254e:    f7fefe7d    ..}.    BL       am_hal_debug_error ; 0x124c
        0x00002552:    f8d4610c    ...a    LDR      r6,[r4,#0x10c]
        0x00002556:    4ff2        .O      LDR      r7,[pc,#968] ; [0x2920] = 0xf42400
        0x00002558:    f8d4110c    ....    LDR      r1,[r4,#0x10c]
        0x0000255c:    2001        .       MOVS     r0,#1
        0x0000255e:    f3c122c0    ..."    UBFX     r2,r1,#11,#1
        0x00002562:    f3c13c00    ...<    UBFX     r12,r1,#12,#1
        0x00002566:    0e09        ..      LSRS     r1,r1,#24
        0x00002568:    eb000342    ..B.    ADD      r3,r0,r2,LSL #1
        0x0000256c:    fb1cf101    ....    SMULBB   r1,r12,r1
        0x00002570:    4cec        .L      LDR      r4,[pc,#944] ; [0x2924] = 0x2dc6c00
        0x00002572:    1c4a        J.      ADDS     r2,r1,#1
        0x00002574:    1e41        A.      SUBS     r1,r0,#1
        0x00002576:    fa03f101    ....    LSL      r1,r3,r1
        0x0000257a:    4351        QC      MULS     r1,r2,r1
        0x0000257c:    fbb4f5f1    ....    UDIV     r5,r4,r1
        0x00002580:    fbb4fcf1    ....    UDIV     r12,r4,r1
        0x00002584:    fb014515    ...E    MLS      r5,r1,r5,r4
        0x00002588:    ebb50f51    ..Q.    CMP      r5,r1,LSR #1
        0x0000258c:    bf8c        ..      ITE      HI
        0x0000258e:    2101        .!      MOVHI    r1,#1
        0x00002590:    2100        .!      MOVLS    r1,#0
        0x00002592:    4461        aD      ADD      r1,r1,r12
        0x00002594:    42b9        .B      CMP      r1,r7
        0x00002596:    d800        ..      BHI      0x259a ; am_hal_iom_workaround_word_write + 130
        0x00002598:    b949        I.      CBNZ     r1,0x25ae ; am_hal_iom_workaround_word_write + 150
        0x0000259a:    1c40        @.      ADDS     r0,r0,#1
        0x0000259c:    2808        .(      CMP      r0,#8
        0x0000259e:    d3e9        ..      BCC      0x2574 ; am_hal_iom_workaround_word_write + 92
        0x000025a0:    a2e1        ..      ADR      r2,{pc}+0x388 ; 0x2928
        0x000025a2:    f44f618b    O..a    MOV      r1,#0x458
        0x000025a6:    a0ee        ..      ADR      r0,{pc}+0x3ba ; 0x2960
        0x000025a8:    f7fefe50    ..P.    BL       am_hal_debug_error ; 0x124c
        0x000025ac:    4638        8F      MOV      r0,r7
        0x000025ae:    4635        5F      MOV      r5,r6
        0x000025b0:    f360250a    `..%    BFI      r5,r0,#8,#3
        0x000025b4:    2701        .'      MOVS     r7,#1
        0x000025b6:    f3c62202    ..."    UBFX     r2,r6,#8,#3
        0x000025ba:    f3c623c0    ...#    UBFX     r3,r6,#11,#1
        0x000025be:    0e30        0.      LSRS     r0,r6,#24
        0x000025c0:    eb070343    ..C.    ADD      r3,r7,r3,LSL #1
        0x000025c4:    1e52        R.      SUBS     r2,r2,#1
        0x000025c6:    f3c63100    ...1    UBFX     r1,r6,#12,#1
        0x000025ca:    fa03f202    ....    LSL      r2,r3,r2
        0x000025ce:    fb11f000    ....    SMULBB   r0,r1,r0
        0x000025d2:    1c40        @.      ADDS     r0,r0,#1
        0x000025d4:    4350        PC      MULS     r0,r2,r0
        0x000025d6:    fbb4f2f0    ....    UDIV     r2,r4,r0
        0x000025da:    fbb4f1f0    ....    UDIV     r1,r4,r0
        0x000025de:    fb004212    ...B    MLS      r2,r0,r2,r4
        0x000025e2:    ebb20f50    ..P.    CMP      r2,r0,LSR #1
        0x000025e6:    bf8c        ..      ITE      HI
        0x000025e8:    2001        .       MOVHI    r0,#1
        0x000025ea:    2000        .       MOVLS    r0,#0
        0x000025ec:    4408        .D      ADD      r0,r0,r1
        0x000025ee:    49c1        .I      LDR      r1,[pc,#772] ; [0x28f4] = 0x50008000
        0x000025f0:    f8c1510c    ...Q    STR      r5,[r1,#0x10c]
        0x000025f4:    49de        .I      LDR      r1,[pc,#888] ; [0x2970] = 0x5b8d800
        0x000025f6:    eb000040    ..@.    ADD      r0,r0,r0,LSL #1
        0x000025fa:    fbb1f0f0    ....    UDIV     r0,r1,r0
        0x000025fe:    49dd        .I      LDR      r1,[pc,#884] ; [0x2974] = 0x800009d
        0x00002600:    4788        .G      BLX      r1
        0x00002602:    f3c52302    ...#    UBFX     r3,r5,#8,#3
        0x00002606:    f3c522c0    ..."    UBFX     r2,r5,#11,#1
        0x0000260a:    0e29        ).      LSRS     r1,r5,#24
        0x0000260c:    f04f0c01    O...    MOV      r12,#1
        0x00002610:    eb0c0242    ..B.    ADD      r2,r12,r2,LSL #1
        0x00002614:    1e5b        [.      SUBS     r3,r3,#1
        0x00002616:    f3c53000    ...0    UBFX     r0,r5,#12,#1
        0x0000261a:    409a        .@      LSLS     r2,r2,r3
        0x0000261c:    fb10f001    ....    SMULBB   r0,r0,r1
        0x00002620:    1c40        @.      ADDS     r0,r0,#1
        0x00002622:    4350        PC      MULS     r0,r2,r0
        0x00002624:    fbb4f2f0    ....    UDIV     r2,r4,r0
        0x00002628:    fbb4f1f0    ....    UDIV     r1,r4,r0
        0x0000262c:    fb004212    ...B    MLS      r2,r0,r2,r4
        0x00002630:    ebb20f50    ..P.    CMP      r2,r0,LSR #1
        0x00002634:    bf8c        ..      ITE      HI
        0x00002636:    2001        .       MOVHI    r0,#1
        0x00002638:    2000        .       MOVLS    r0,#0
        0x0000263a:    1847        G.      ADDS     r7,r0,r1
        0x0000263c:    d105        ..      BNE      0x264a ; am_hal_iom_workaround_word_write + 306
        0x0000263e:    a2ce        ..      ADR      r2,{pc}+0x33a ; 0x2978
        0x00002640:    f24041e5    @..A    MOV      r1,#0x4e5
        0x00002644:    a0b2        ..      ADR      r0,{pc}+0x2cc ; 0x2910
        0x00002646:    f7fefe01    ....    BL       am_hal_debug_error ; 0x124c
        0x0000264a:    48aa        .H      LDR      r0,[pc,#680] ; [0x28f4] = 0x50008000
        0x0000264c:    f8df8348    ..H.    LDR      r8,[pc,#840] ; [0x2998] = 0xf4240
        0x00002650:    f8d0010c    ....    LDR      r0,[r0,#0x10c]
        0x00002654:    2501        .%      MOVS     r5,#1
        0x00002656:    f3c022c0    ..."    UBFX     r2,r0,#11,#1
        0x0000265a:    f3c03100    ...1    UBFX     r1,r0,#12,#1
        0x0000265e:    0e00        ..      LSRS     r0,r0,#24
        0x00002660:    eb050c42    ..B.    ADD      r12,r5,r2,LSL #1
        0x00002664:    fb11f000    ....    SMULBB   r0,r1,r0
        0x00002668:    1c43        C.      ADDS     r3,r0,#1
        0x0000266a:    1e68        h.      SUBS     r0,r5,#1
        0x0000266c:    fa0cf000    ....    LSL      r0,r12,r0
        0x00002670:    4358        XC      MULS     r0,r3,r0
        0x00002672:    fbb4fef0    ....    UDIV     lr,r4,r0
        0x00002676:    fbb4f1f0    ....    UDIV     r1,r4,r0
        0x0000267a:    fb00421e    ...B    MLS      r2,r0,lr,r4
        0x0000267e:    ebb20f50    ..P.    CMP      r2,r0,LSR #1
        0x00002682:    bf8c        ..      ITE      HI
        0x00002684:    2001        .       MOVHI    r0,#1
        0x00002686:    2000        .       MOVLS    r0,#0
        0x00002688:    4408        .D      ADD      r0,r0,r1
        0x0000268a:    4540        @E      CMP      r0,r8
        0x0000268c:    d800        ..      BHI      0x2690 ; am_hal_iom_workaround_word_write + 376
        0x0000268e:    b948        H.      CBNZ     r0,0x26a4 ; am_hal_iom_workaround_word_write + 396
        0x00002690:    1c6d        m.      ADDS     r5,r5,#1
        0x00002692:    2d08        .-      CMP      r5,#8
        0x00002694:    d3e9        ..      BCC      0x266a ; am_hal_iom_workaround_word_write + 338
        0x00002696:    a2a4        ..      ADR      r2,{pc}+0x292 ; 0x2928
        0x00002698:    f44f618b    O..a    MOV      r1,#0x458
        0x0000269c:    a0b0        ..      ADR      r0,{pc}+0x2c4 ; 0x2960
        0x0000269e:    f7fefdd5    ....    BL       am_hal_debug_error ; 0x124c
        0x000026a2:    4645        EF      MOV      r5,r8
        0x000026a4:    4630        0F      MOV      r0,r6
        0x000026a6:    f365200a    e..     BFI      r0,r5,#8,#3
        0x000026aa:    9003        ..      STR      r0,[sp,#0xc]
        0x000026ac:    f01b4f80    ...O    TST      r11,#0x40000000
        0x000026b0:    eb070047    ..G.    ADD      r0,r7,r7,LSL #1
        0x000026b4:    d04f        O.      BEQ      0x2756 ; am_hal_iom_workaround_word_write + 574
        0x000026b6:    49b9        .I      LDR      r1,[pc,#740] ; [0x299c] = 0x4d3f6400
        0x000026b8:    fbb1f7f0    ....    UDIV     r7,r1,r0
        0x000026bc:    9806        ..      LDR      r0,[sp,#0x18]
        0x000026be:    7800        .x      LDRB     r0,[r0,#0]
        0x000026c0:    f0100f80    ....    TST      r0,#0x80
        0x000026c4:    bf03        ..      ITTTE    EQ
        0x000026c6:    f06f00ff    o...    MVNEQ    r0,#0xff
        0x000026ca:    9002        ..      STREQ    r0,[sp,#8]
        0x000026cc:    2500        .%      MOVEQ    r5,#0
        0x000026ce:    f8cd9008    ....    STRNE    r9,[sp,#8]
        0x000026d2:    bf18        ..      IT       NE
        0x000026d4:    2501        .%      MOVNE    r5,#1
        0x000026d6:    f04b4080    K..@    ORR      r0,r11,#0x40000000
        0x000026da:    9008        ..      STR      r0,[sp,#0x20]
        0x000026dc:    9807        ..      LDR      r0,[sp,#0x1c]
        0x000026de:    f1000804    ....    ADD      r8,r0,#4
        0x000026e2:    45d0        .E      CMP      r8,r10
        0x000026e4:    bf98        ..      IT       LS
        0x000026e6:    46c2        .F      MOVLS    r10,r8
        0x000026e8:    2204        ."      MOVS     r2,#4
        0x000026ea:    a902        ..      ADD      r1,sp,#8
        0x000026ec:    4610        .F      MOV      r0,r2
        0x000026ee:    f7fff81f    ....    BL       am_hal_iom_fifo_write ; 0x1730
        0x000026f2:    f1aa0204    ....    SUB      r2,r10,#4
        0x000026f6:    2004        .       MOVS     r0,#4
        0x000026f8:    9906        ..      LDR      r1,[sp,#0x18]
        0x000026fa:    f7fff819    ....    BL       am_hal_iom_fifo_write ; 0x1730
        0x000026fe:    49a8        .I      LDR      r1,[pc,#672] ; [0x29a0] = 0x38a9
        0x00002700:    9b05        ..      LDR      r3,[sp,#0x14]
        0x00002702:    2000        .       MOVS     r0,#0
        0x00002704:    f04f0aff    O...    MOV      r10,#0xff
        0x00002708:    eb000240    ..@.    ADD      r2,r0,r0,LSL #1
        0x0000270c:    f811c002    ....    LDRB     r12,[r1,r2]
        0x00002710:    459c        .E      CMP      r12,r3
        0x00002712:    d133        3.      BNE      0x277c ; am_hal_iom_workaround_word_write + 612
        0x00002714:    eb020c01    ....    ADD      r12,r2,r1
        0x00002718:    f89c2001    ...     LDRB     r2,[r12,#1]
        0x0000271c:    f00204fc    ....    AND      r4,r2,#0xfc
        0x00002720:    f1044480    ...D    ADD      r4,r4,#0x40000000
        0x00002724:    f5043480    ...4    ADD      r4,r4,#0x10000
        0x00002728:    6824        $h      LDR      r4,[r4,#0]
        0x0000272a:    0792        ..      LSLS     r2,r2,#30
        0x0000272c:    0ed2        ..      LSRS     r2,r2,#27
        0x0000272e:    fa0afb02    ....    LSL      r11,r10,r2
        0x00002732:    ea04040b    ....    AND      r4,r4,r11
        0x00002736:    fa24f202    $...    LSR      r2,r4,r2
        0x0000273a:    f89cc002    ....    LDRB     r12,[r12,#2]
        0x0000273e:    f3c202c2    ....    UBFX     r2,r2,#3,#3
        0x00002742:    4594        .E      CMP      r12,r2
        0x00002744:    d11a        ..      BNE      0x277c ; am_hal_iom_workaround_word_write + 612
        0x00002746:    eb000040    ..@.    ADD      r0,r0,r0,LSL #1
        0x0000274a:    4408        .D      ADD      r0,r0,r1
        0x0000274c:    7844        Dx      LDRB     r4,[r0,#1]
        0x0000274e:    4895        .H      LDR      r0,[pc,#596] ; [0x29a4] = 0xdeadbeef
        0x00002750:    4284        .B      CMP      r4,r0
        0x00002752:    d11d        ..      BNE      0x2790 ; am_hal_iom_workaround_word_write + 632
        0x00002754:    e016        ..      B        0x2784 ; am_hal_iom_workaround_word_write + 620
        0x00002756:    4994        .I      LDR      r1,[pc,#592] ; [0x29a8] = 0x365c0400
        0x00002758:    fbb1f7f0    ....    UDIV     r7,r1,r0
        0x0000275c:    f40b407f    ...@    AND      r0,r11,#0xff00
        0x00002760:    0400        ..      LSLS     r0,r0,#16
        0x00002762:    f0104f00    ...O    TST      r0,#0x80000000
        0x00002766:    9002        ..      STR      r0,[sp,#8]
        0x00002768:    bf11        ..      ITEEE    NE
        0x0000276a:    2501        .%      MOVNE    r5,#1
        0x0000276c:    f440407f    @..@    ORREQ    r0,r0,#0xff00
        0x00002770:    f440007f    @...    ORREQ    r0,r0,#0xff0000
        0x00002774:    9002        ..      STREQ    r0,[sp,#8]
        0x00002776:    bf08        ..      IT       EQ
        0x00002778:    2500        .%      MOVEQ    r5,#0
        0x0000277a:    e7ac        ..      B        0x26d6 ; am_hal_iom_workaround_word_write + 446
        0x0000277c:    1c40        @.      ADDS     r0,r0,#1
        0x0000277e:    280d        .(      CMP      r0,#0xd
        0x00002780:    d3c2        ..      BCC      0x2708 ; am_hal_iom_workaround_word_write + 496
        0x00002782:    4c88        .L      LDR      r4,[pc,#544] ; [0x29a4] = 0xdeadbeef
        0x00002784:    2200        ."      MOVS     r2,#0
        0x00002786:    f240512d    @.-Q    MOV      r1,#0x52d
        0x0000278a:    a061        a.      ADR      r0,{pc}+0x186 ; 0x2910
        0x0000278c:    f7fefd5e    ..^.    BL       am_hal_debug_error ; 0x124c
        0x00002790:    f0040bfc    ....    AND      r11,r4,#0xfc
        0x00002794:    f10b4b80    ...K    ADD      r11,r11,#0x40000000
        0x00002798:    f50b3b80    ...;    ADD      r11,r11,#0x10000
        0x0000279c:    f8db0000    ....    LDR      r0,[r11,#0]
        0x000027a0:    9000        ..      STR      r0,[sp,#0]
        0x000027a2:    f004011f    ....    AND      r1,r4,#0x1f
        0x000027a6:    2001        .       MOVS     r0,#1
        0x000027a8:    4088        .@      LSLS     r0,r0,r1
        0x000027aa:    2104        .!      MOVS     r1,#4
        0x000027ac:    ea0101d4    ....    AND      r1,r1,r4,LSR #3
        0x000027b0:    f1014180    ...A    ADD      r1,r1,#0x40000000
        0x000027b4:    f5013180    ...1    ADD      r1,r1,#0x10000
        0x000027b8:    f8c10090    ....    STR      r0,[r1,#0x90]
        0x000027bc:    2c32        2,      CMP      r4,#0x32
        0x000027be:    d231        1.      BCS      0x2824 ; am_hal_iom_workaround_word_write + 780
        0x000027c0:    f7fdfcf0    ....    BL       am_hal_interrupt_master_disable ; 0x1a4
        0x000027c4:    9001        ..      STR      r0,[sp,#4]
        0x000027c6:    4879        yH      LDR      r0,[pc,#484] ; [0x29ac] = 0x40010000
        0x000027c8:    2173        s!      MOVS     r1,#0x73
        0x000027ca:    6601        .f      STR      r1,[r0,#0x60]
        0x000027cc:    217c        |!      MOVS     r1,#0x7c
        0x000027ce:    ea010154    ..T.    AND      r1,r1,r4,LSR #1
        0x000027d2:    180a        ..      ADDS     r2,r1,r0
        0x000027d4:    6c13        .l      LDR      r3,[r2,#0x40]
        0x000027d6:    0761        a.      LSLS     r1,r4,#29
        0x000027d8:    0ec9        ..      LSRS     r1,r1,#27
        0x000027da:    f04f0c07    O...    MOV      r12,#7
        0x000027de:    fa0cfc01    ....    LSL      r12,r12,r1
        0x000027e2:    ea23030c    #...    BIC      r3,r3,r12
        0x000027e6:    f04f0c02    O...    MOV      r12,#2
        0x000027ea:    fa0cf101    ....    LSL      r1,r12,r1
        0x000027ee:    4319        .C      ORRS     r1,r1,r3
        0x000027f0:    6411        .d      STR      r1,[r2,#0x40]
        0x000027f2:    f8db3000    ...0    LDR      r3,[r11,#0]
        0x000027f6:    07a1        ..      LSLS     r1,r4,#30
        0x000027f8:    0ec9        ..      LSRS     r1,r1,#27
        0x000027fa:    fa0af201    ....    LSL      r2,r10,r1
        0x000027fe:    f04f0c18    O...    MOV      r12,#0x18
        0x00002802:    4393        .C      BICS     r3,r3,r2
        0x00002804:    fa0cf101    ....    LSL      r1,r12,r1
        0x00002808:    430b        .C      ORRS     r3,r3,r1
        0x0000280a:    f8cb3000    ...0    STR      r3,[r11,#0]
        0x0000280e:    f8db10e0    ....    LDR      r1,[r11,#0xe0]
        0x00002812:    ea210202    !...    BIC      r2,r1,r2
        0x00002816:    f8cb20e0    ...     STR      r2,[r11,#0xe0]
        0x0000281a:    f8c09060    ..`.    STR      r9,[r0,#0x60]
        0x0000281e:    9801        ..      LDR      r0,[sp,#4]
        0x00002820:    f7fdfcc4    ....    BL       am_hal_interrupt_master_set ; 0x1ac
        0x00002824:    f7fdfcbe    ....    BL       am_hal_interrupt_master_disable ; 0x1a4
        0x00002828:    4c60        `L      LDR      r4,[pc,#384] ; [0x29ac] = 0x40010000
        0x0000282a:    9001        ..      STR      r0,[sp,#4]
        0x0000282c:    2073        s       MOVS     r0,#0x73
        0x0000282e:    6620         f      STR      r0,[r4,#0x60]
        0x00002830:    6d60        `m      LDR      r0,[r4,#0x54]
        0x00002832:    f42020e0     ..     BIC      r0,r0,#0x70000
        0x00002836:    6560        `e      STR      r0,[r4,#0x54]
        0x00002838:    6ae0        .j      LDR      r0,[r4,#0x2c]
        0x0000283a:    f02000ff     ...    BIC      r0,r0,#0xff
        0x0000283e:    f040002a    @.*.    ORR      r0,r0,#0x2a
        0x00002842:    62e0        .b      STR      r0,[r4,#0x2c]
        0x00002844:    f8d4010c    ....    LDR      r0,[r4,#0x10c]
        0x00002848:    f02000ff     ...    BIC      r0,r0,#0xff
        0x0000284c:    f8c4010c    ....    STR      r0,[r4,#0x10c]
        0x00002850:    f8c49060    ..`.    STR      r9,[r4,#0x60]
        0x00002854:    9801        ..      LDR      r0,[sp,#4]
        0x00002856:    f7fdfca9    ....    BL       am_hal_interrupt_master_set ; 0x1ac
        0x0000285a:    2073        s       MOVS     r0,#0x73
        0x0000285c:    6620         f      STR      r0,[r4,#0x60]
        0x0000285e:    f4086270    ..pb    AND      r2,r8,#0xf00
        0x00002862:    ea4932c2    I..2    ORR      r2,r9,r2,LSL #15
        0x00002866:    f00803ff    ....    AND      r3,r8,#0xff
        0x0000286a:    431a        .C      ORRS     r2,r2,r3
        0x0000286c:    9905        ..      LDR      r1,[sp,#0x14]
        0x0000286e:    f44f23e0    O..#    MOV      r3,#0x70000
        0x00002872:    ea034101    ...A    AND      r1,r3,r1,LSL #16
        0x00002876:    4311        .C      ORRS     r1,r1,r2
        0x00002878:    4a4d        MJ      LDR      r2,[pc,#308] ; [0x29b0] = 0x5c00ff00
        0x0000287a:    9808        ..      LDR      r0,[sp,#0x20]
        0x0000287c:    f8cdb004    ....    STR      r11,[sp,#4]
        0x00002880:    4010        .@      ANDS     r0,r0,r2
        0x00002882:    ea400801    @...    ORR      r8,r0,r1
        0x00002886:    f8ddb00c    ....    LDR      r11,[sp,#0xc]
        0x0000288a:    f7fdfc8b    ....    BL       am_hal_interrupt_master_disable ; 0x1a4
        0x0000288e:    f8dfa064    ..d.    LDR      r10,[pc,#100] ; [0x28f4] = 0x50008000
        0x00002892:    9003        ..      STR      r0,[sp,#0xc]
        0x00002894:    f8ca8110    ....    STR      r8,[r10,#0x110]
        0x00002898:    4936        6I      LDR      r1,[pc,#216] ; [0x2974] = 0x800009d
        0x0000289a:    4638        8F      MOV      r0,r7
        0x0000289c:    4788        .G      BLX      r1
        0x0000289e:    f8cab10c    ....    STR      r11,[r10,#0x10c]
        0x000028a2:    e9dd0100    ....    LDRD     r0,r1,[sp,#0]
        0x000028a6:    462a        *F      MOV      r2,r5
        0x000028a8:    f7fdfc84    ....    BL       __asm___12_am_hal_iom_c_97762dd2__iom_workaround_loop ; 0x1b4
        0x000028ac:    f8ca610c    ...a    STR      r6,[r10,#0x10c]
        0x000028b0:    f7fdfc78    ..x.    BL       am_hal_interrupt_master_disable ; 0x1a4
        0x000028b4:    9000        ..      STR      r0,[sp,#0]
        0x000028b6:    2073        s       MOVS     r0,#0x73
        0x000028b8:    6620         f      STR      r0,[r4,#0x60]
        0x000028ba:    6d60        `m      LDR      r0,[r4,#0x54]
        0x000028bc:    f42020e0     ..     BIC      r0,r0,#0x70000
        0x000028c0:    6560        `e      STR      r0,[r4,#0x54]
        0x000028c2:    6ae0        .j      LDR      r0,[r4,#0x2c]
        0x000028c4:    f02000ff     ...    BIC      r0,r0,#0xff
        0x000028c8:    f0400028    @.(.    ORR      r0,r0,#0x28
        0x000028cc:    62e0        .b      STR      r0,[r4,#0x2c]
        0x000028ce:    f8d4010c    ....    LDR      r0,[r4,#0x10c]
        0x000028d2:    f02000ff     ...    BIC      r0,r0,#0xff
        0x000028d6:    f8c4010c    ....    STR      r0,[r4,#0x10c]
        0x000028da:    f8c49060    ..`.    STR      r9,[r4,#0x60]
        0x000028de:    9800        ..      LDR      r0,[sp,#0]
        0x000028e0:    f7fdfc64    ..d.    BL       am_hal_interrupt_master_set ; 0x1ac
        0x000028e4:    9803        ..      LDR      r0,[sp,#0xc]
        0x000028e6:    f7fdfc61    ..a.    BL       am_hal_interrupt_master_set ; 0x1ac
        0x000028ea:    f8c49060    ..`.    STR      r9,[r4,#0x60]
        0x000028ee:    b009        ..      ADD      sp,sp,#0x24
        0x000028f0:    e8bd8ff0    ....    POP      {r4-r11,pc}
    $d
        0x000028f4:    50008000    ...P    DCD    1342210048
        0x000028f8:    20495053    SPI     DCD    541675603
        0x000028fc:    6e617274    tran    DCD    1851880052
        0x00002900:    72656673    sfer    DCD    1919247987
        0x00002904:    6f6f7420     too    DCD    1869575200
        0x00002908:    67696220     big    DCD    1734959648
        0x0000290c:    0000002e    ....    DCD    46
        0x00002910:    612f2e2e    ../a    DCD    1630481966
        0x00002914:    61685f6d    m_ha    DCD    1634230125
        0x00002918:    6f695f6c    l_io    DCD    1869176684
        0x0000291c:    00632e6d    m.c.    DCD    6499949
        0x00002920:    00f42400    .$..    DCD    16000000
        0x00002924:    02dc6c00    .l..    DCD    48000000
        0x00002928:    6c756f43    Coul    DCD    1819635523
        0x0000292c:    69662064    d fi    DCD    1768300644
        0x00002930:    6120646e    nd a    DCD    1629512814
        0x00002934:    6c617620     val    DCD    1818326560
        0x00002938:    66206469    id f    DCD    1713398889
        0x0000293c:    75716572    requ    DCD    1970365810
        0x00002940:    79636e65    ency    DCD    2036559461
        0x00002944:    5320202e    .  S    DCD    1394614318
        0x00002948:    6c756f68    houl    DCD    1819635560
        0x0000294c:    656e2064    d ne    DCD    1701716068
        0x00002950:    20726576    ver     DCD    544367990
        0x00002954:    20746567    get     DCD    544499047
        0x00002958:    65726568    here    DCD    1701995880
        0x0000295c:    0000002e    ....    DCD    46
        0x00002960:    612f2e2e    ../a    DCD    1630481966
        0x00002964:    61685f6d    m_ha    DCD    1634230125
        0x00002968:    6f695f6c    l_io    DCD    1869176684
        0x0000296c:    00632e6d    m.c.    DCD    6499949
        0x00002970:    05b8d800    ....    DCD    96000000
        0x00002974:    0800009d    ....    DCD    134217885
        0x00002978:    61766e49    Inva    DCD    1635151433
        0x0000297c:    2064696c    lid     DCD    543451500
        0x00002980:    46206948    Hi F    DCD    1176529224
        0x00002984:    75716572    requ    DCD    1970365810
        0x00002988:    79636e65    ency    DCD    2036559461
        0x0000298c:    726f6620     for    DCD    1919903264
        0x00002990:    4d4f4920     IOM    DCD    1297041696
        0x00002994:    0000002e    ....    DCD    46
        0x00002998:    000f4240    @B..    DCD    1000000
        0x0000299c:    4d3f6400    .d?M    DCD    1296000000
        0x000029a0:    000038a9    .8..    DCD    14505
        0x000029a4:    deadbeef    ....    DCD    3735928559
        0x000029a8:    365c0400    ..\6    DCD    912000000
        0x000029ac:    40010000    ...@    DCD    1073807360
        0x000029b0:    5c00ff00    ...\    DCD    1543569152
    $t
    i.am_hal_mcuctrl_fault_status
    am_hal_mcuctrl_fault_status
        0x000029b4:    490c        .I      LDR      r1,[pc,#48] ; [0x29e8] = 0x40020000
        0x000029b6:    f8d121cc    ...!    LDR      r2,[r1,#0x1cc]
        0x000029ba:    f0020301    ....    AND      r3,r2,#1
        0x000029be:    7003        .p      STRB     r3,[r0,#0]
        0x000029c0:    f3c20340    ..@.    UBFX     r3,r2,#1,#1
        0x000029c4:    7203        .r      STRB     r3,[r0,#8]
        0x000029c6:    f3c20280    ....    UBFX     r2,r2,#2,#1
        0x000029ca:    7402        .t      STRB     r2,[r0,#0x10]
        0x000029cc:    f8d121c4    ...!    LDR      r2,[r1,#0x1c4]
        0x000029d0:    60c2        .`      STR      r2,[r0,#0xc]
        0x000029d2:    6842        Bh      LDR      r2,[r0,#4]
        0x000029d4:    f8d131c0    ...1    LDR      r3,[r1,#0x1c0]
        0x000029d8:    431a        .C      ORRS     r2,r2,r3
        0x000029da:    6042        B`      STR      r2,[r0,#4]
        0x000029dc:    6942        Bi      LDR      r2,[r0,#0x14]
        0x000029de:    f8d111c8    ....    LDR      r1,[r1,#0x1c8]
        0x000029e2:    4311        .C      ORRS     r1,r1,r2
        0x000029e4:    6141        Aa      STR      r1,[r0,#0x14]
        0x000029e6:    4770        pG      BX       lr
    $d
        0x000029e8:    40020000    ...@    DCD    1073872896
    $t
    i.am_hal_pwrctrl_bucks_disable
    am_hal_pwrctrl_bucks_disable
        0x000029ec:    4810        .H      LDR      r0,[pc,#64] ; [0x2a30] = 0x40021000
        0x000029ee:    6841        Ah      LDR      r1,[r0,#4]
        0x000029f0:    f0110f02    ....    TST      r1,#2
        0x000029f4:    bf02        ..      ITTT     EQ
        0x000029f6:    6841        Ah      LDREQ    r1,[r0,#4]
        0x000029f8:    f0110f01    ....    TSTEQ    r1,#1
        0x000029fc:    4770        pG      BXEQ     lr
        0x000029fe:    490d        .I      LDR      r1,[pc,#52] ; [0x2a34] = 0x40020000
        0x00002a00:    68c9        .h      LDR      r1,[r1,#0xc]
        0x00002a02:    f00101f0    ....    AND      r1,r1,#0xf0
        0x00002a06:    2920         )      CMP      r1,#0x20
        0x00002a08:    bf04        ..      ITT      EQ
        0x00002a0a:    6881        .h      LDREQ    r1,[r0,#8]
        0x00002a0c:    f5b17f00    ....    CMPEQ    r1,#0x200
        0x00002a10:    6801        .h      LDR      r1,[r0,#0]
        0x00002a12:    bf0f        ..      ITEEE    EQ
        0x00002a14:    f0010105    ....    ANDEQ    r1,r1,#5
        0x00002a18:    f0210102    !...    BICNE    r1,r1,#2
        0x00002a1c:    6001        .`      STRNE    r1,[r0,#0]
        0x00002a1e:    6801        .h      LDRNE    r1,[r0,#0]
        0x00002a20:    bf18        ..      IT       NE
        0x00002a22:    f0210101    !...    BICNE    r1,r1,#1
        0x00002a26:    6001        .`      STR      r1,[r0,#0]
        0x00002a28:    f04f000a    O...    MOV      r0,#0xa
        0x00002a2c:    f7febc10    ....    B        am_hal_flash_delay ; 0x1250
    $d
        0x00002a30:    40021000    ...@    DCD    1073876992
        0x00002a34:    40020000    ...@    DCD    1073872896
    $t
    i.am_hal_pwrctrl_bucks_enable
    am_hal_pwrctrl_bucks_enable
        0x00002a38:    480b        .H      LDR      r0,[pc,#44] ; [0x2a68] = 0x40021000
        0x00002a3a:    6841        Ah      LDR      r1,[r0,#4]
        0x00002a3c:    f0110f02    ....    TST      r1,#2
        0x00002a40:    bf1e        ..      ITTT     NE
        0x00002a42:    6841        Ah      LDRNE    r1,[r0,#4]
        0x00002a44:    f0110f01    ....    TSTNE    r1,#1
        0x00002a48:    4770        pG      BXNE     lr
        0x00002a4a:    6801        .h      LDR      r1,[r0,#0]
        0x00002a4c:    f0410102    A...    ORR      r1,r1,#2
        0x00002a50:    6001        .`      STR      r1,[r0,#0]
        0x00002a52:    6801        .h      LDR      r1,[r0,#0]
        0x00002a54:    f0410101    A...    ORR      r1,r1,#1
        0x00002a58:    6001        .`      STR      r1,[r0,#0]
        0x00002a5a:    2103        .!      MOVS     r1,#3
        0x00002a5c:    6842        Bh      LDR      r2,[r0,#4]
        0x00002a5e:    ea310202    1...    BICS     r2,r1,r2
        0x00002a62:    d1fb        ..      BNE      0x2a5c ; am_hal_pwrctrl_bucks_enable + 36
        0x00002a64:    4770        pG      BX       lr
    $d
        0x00002a66:    0000        ..      DCW    0
        0x00002a68:    40021000    ...@    DCD    1073876992
    $t
    i.am_hal_pwrctrl_low_power_init
    am_hal_pwrctrl_low_power_init
        0x00002a6c:    4804        .H      LDR      r0,[pc,#16] ; [0x2a80] = 0x40021000
        0x00002a6e:    6981        .i      LDR      r1,[r0,#0x18]
        0x00002a70:    f0410106    A...    ORR      r1,r1,#6
        0x00002a74:    6181        .a      STR      r1,[r0,#0x18]
        0x00002a76:    6801        .h      LDR      r1,[r0,#0]
        0x00002a78:    f0210104    !...    BIC      r1,r1,#4
        0x00002a7c:    6001        .`      STR      r1,[r0,#0]
        0x00002a7e:    4770        pG      BX       lr
    $d
        0x00002a80:    40021000    ...@    DCD    1073876992
    $t
    i.am_hal_pwrctrl_memory_enable
    am_hal_pwrctrl_memory_enable
        0x00002a84:    b410        ..      PUSH     {r4}
        0x00002a86:    f8dfc170    ..p.    LDR      r12,[pc,#368] ; [0x2bf8] = 0x40021000
        0x00002a8a:    f5b06f00    ...o    CMP      r0,#0x800
        0x00002a8e:    d051        Q.      BEQ      0x2b34 ; am_hal_pwrctrl_memory_enable + 176
        0x00002a90:    f5b05fc0    ..._    CMP      r0,#0x1800
        0x00002a94:    d054        T.      BEQ      0x2b40 ; am_hal_pwrctrl_memory_enable + 188
        0x00002a96:    2801        .(      CMP      r0,#1
        0x00002a98:    d057        W.      BEQ      0x2b4a ; am_hal_pwrctrl_memory_enable + 198
        0x00002a9a:    2803        .(      CMP      r0,#3
        0x00002a9c:    d05b        [.      BEQ      0x2b56 ; am_hal_pwrctrl_memory_enable + 210
        0x00002a9e:    2807        .(      CMP      r0,#7
        0x00002aa0:    d05f        _.      BEQ      0x2b62 ; am_hal_pwrctrl_memory_enable + 222
        0x00002aa2:    280f        .(      CMP      r0,#0xf
        0x00002aa4:    d063        c.      BEQ      0x2b6e ; am_hal_pwrctrl_memory_enable + 234
        0x00002aa6:    281f        .(      CMP      r0,#0x1f
        0x00002aa8:    d067        g.      BEQ      0x2b7a ; am_hal_pwrctrl_memory_enable + 246
        0x00002aaa:    283f        ?(      CMP      r0,#0x3f
        0x00002aac:    d06b        k.      BEQ      0x2b86 ; am_hal_pwrctrl_memory_enable + 258
        0x00002aae:    287f        .(      CMP      r0,#0x7f
        0x00002ab0:    d072        r.      BEQ      0x2b98 ; am_hal_pwrctrl_memory_enable + 276
        0x00002ab2:    28ff        .(      CMP      r0,#0xff
        0x00002ab4:    d076        v.      BEQ      0x2ba4 ; am_hal_pwrctrl_memory_enable + 288
        0x00002ab6:    f5a07180    ...q    SUB      r1,r0,#0x100
        0x00002aba:    39ff        .9      SUBS     r1,r1,#0xff
        0x00002abc:    d033        3.      BEQ      0x2b26 ; am_hal_pwrctrl_memory_enable + 162
        0x00002abe:    f5a07140    ..@q    SUB      r1,r0,#0x300
        0x00002ac2:    39ff        .9      SUBS     r1,r1,#0xff
        0x00002ac4:    d074        t.      BEQ      0x2bb0 ; am_hal_pwrctrl_memory_enable + 300
        0x00002ac6:    4a4d        MJ      LDR      r2,[pc,#308] ; [0x2bfc] = 0x7ff00
        0x00002ac8:    ebb02122    .."!    SUBS     r1,r0,r2,ASR #8
        0x00002acc:    bf08        ..      IT       EQ
        0x00002ace:    f24071ff    @..q    MOVEQ    r1,#0x7ff
        0x00002ad2:    d075        u.      BEQ      0x2bc0 ; am_hal_pwrctrl_memory_enable + 316
        0x00002ad4:    f1b04f20    .. O    CMP      r0,#0xa0000000
        0x00002ad8:    bf04        ..      ITT      EQ
        0x00002ada:    f04f4120    O. A    MOVEQ    r1,#0xa0000000
        0x00002ade:    0a8a        ..      LSREQ    r2,r1,#10
        0x00002ae0:    d06e        n.      BEQ      0x2bc0 ; am_hal_pwrctrl_memory_enable + 316
        0x00002ae2:    f06f4120    o. A    MVN      r1,#0xa0000000
        0x00002ae6:    4288        .B      CMP      r0,r1
        0x00002ae8:    d16c        l.      BNE      0x2bc4 ; am_hal_pwrctrl_memory_enable + 320
        0x00002aea:    2100        .!      MOVS     r1,#0
        0x00002aec:    43c3        .C      MVNS     r3,r0
        0x00002aee:    460a        .F      MOV      r2,r1
        0x00002af0:    ea5f2093    _..     LSRS.W   r0,r3,#10
        0x00002af4:    f8dc4010    ...@    LDR      r4,[r12,#0x10]
        0x00002af8:    ea240303    $...    BIC      r3,r4,r3
        0x00002afc:    f8cc3010    ...0    STR      r3,[r12,#0x10]
        0x00002b00:    b129        ).      CBZ      r1,0x2b0e ; am_hal_pwrctrl_memory_enable + 138
        0x00002b02:    bf00        ..      NOP      
        0x00002b04:    f8dc3010    ...0    LDR      r3,[r12,#0x10]
        0x00002b08:    4319        .C      ORRS     r1,r1,r3
        0x00002b0a:    f8cc1010    ....    STR      r1,[r12,#0x10]
        0x00002b0e:    2800        .(      CMP      r0,#0
        0x00002b10:    bf18        ..      IT       NE
        0x00002b12:    21c7        .!      MOVNE    r1,#0xc7
        0x00002b14:    d05c        \.      BEQ      0x2bd0 ; am_hal_pwrctrl_memory_enable + 332
        0x00002b16:    bf00        ..      NOP      
        0x00002b18:    f8dc3014    ...0    LDR      r3,[r12,#0x14]
        0x00002b1c:    4203        .B      TST      r3,r0
        0x00002b1e:    d055        U.      BEQ      0x2bcc ; am_hal_pwrctrl_memory_enable + 328
        0x00002b20:    1e49        I.      SUBS     r1,r1,#1
        0x00002b22:    d1f9        ..      BNE      0x2b18 ; am_hal_pwrctrl_memory_enable + 148
        0x00002b24:    e062        b.      B        0x2bec ; am_hal_pwrctrl_memory_enable + 360
        0x00002b26:    f24011ff    @...    MOV      r1,#0x1ff
        0x00002b2a:    f44f63c0    O..c    MOV      r3,#0x600
        0x00002b2e:    020a        ..      LSLS     r2,r1,#8
        0x00002b30:    0218        ..      LSLS     r0,r3,#8
        0x00002b32:    e7df        ..      B        0x2af4 ; am_hal_pwrctrl_memory_enable + 112
        0x00002b34:    f44f6100    O..a    MOV      r1,#0x800
        0x00002b38:    004b        K.      LSLS     r3,r1,#1
        0x00002b3a:    2220         "      MOVS     r2,#0x20
        0x00002b3c:    2040        @       MOVS     r0,#0x40
        0x00002b3e:    e7d9        ..      B        0x2af4 ; am_hal_pwrctrl_memory_enable + 112
        0x00002b40:    2260        `"      MOVS     r2,#0x60
        0x00002b42:    f44f51c0    O..Q    MOV      r1,#0x1800
        0x00002b46:    2000        .       MOVS     r0,#0
        0x00002b48:    e7dc        ..      B        0x2b04 ; am_hal_pwrctrl_memory_enable + 128
        0x00002b4a:    2101        .!      MOVS     r1,#1
        0x00002b4c:    f24073fe    @..s    MOV      r3,#0x7fe
        0x00002b50:    020a        ..      LSLS     r2,r1,#8
        0x00002b52:    0218        ..      LSLS     r0,r3,#8
        0x00002b54:    e7ce        ..      B        0x2af4 ; am_hal_pwrctrl_memory_enable + 112
        0x00002b56:    2103        .!      MOVS     r1,#3
        0x00002b58:    f24073fc    @..s    MOV      r3,#0x7fc
        0x00002b5c:    020a        ..      LSLS     r2,r1,#8
        0x00002b5e:    0218        ..      LSLS     r0,r3,#8
        0x00002b60:    e7c8        ..      B        0x2af4 ; am_hal_pwrctrl_memory_enable + 112
        0x00002b62:    2107        .!      MOVS     r1,#7
        0x00002b64:    f44f63ff    O..c    MOV      r3,#0x7f8
        0x00002b68:    020a        ..      LSLS     r2,r1,#8
        0x00002b6a:    0218        ..      LSLS     r0,r3,#8
        0x00002b6c:    e7c2        ..      B        0x2af4 ; am_hal_pwrctrl_memory_enable + 112
        0x00002b6e:    210f        .!      MOVS     r1,#0xf
        0x00002b70:    f44f63fe    O..c    MOV      r3,#0x7f0
        0x00002b74:    020a        ..      LSLS     r2,r1,#8
        0x00002b76:    0218        ..      LSLS     r0,r3,#8
        0x00002b78:    e7bc        ..      B        0x2af4 ; am_hal_pwrctrl_memory_enable + 112
        0x00002b7a:    211f        .!      MOVS     r1,#0x1f
        0x00002b7c:    f44f63fc    O..c    MOV      r3,#0x7e0
        0x00002b80:    020a        ..      LSLS     r2,r1,#8
        0x00002b82:    0218        ..      LSLS     r0,r3,#8
        0x00002b84:    e7b6        ..      B        0x2af4 ; am_hal_pwrctrl_memory_enable + 112
        0x00002b86:    213f        ?!      MOVS     r1,#0x3f
        0x00002b88:    f44f63f8    O..c    MOV      r3,#0x7c0
        0x00002b8c:    020a        ..      LSLS     r2,r1,#8
        0x00002b8e:    0218        ..      LSLS     r0,r3,#8
        0x00002b90:    e7b0        ..      B        0x2af4 ; am_hal_pwrctrl_memory_enable + 112
        0x00002b92:    e001        ..      B        0x2b98 ; am_hal_pwrctrl_memory_enable + 276
        0x00002b94:    e006        ..      B        0x2ba4 ; am_hal_pwrctrl_memory_enable + 288
        0x00002b96:    e00b        ..      B        0x2bb0 ; am_hal_pwrctrl_memory_enable + 300
        0x00002b98:    217f        .!      MOVS     r1,#0x7f
        0x00002b9a:    f44f63f0    O..c    MOV      r3,#0x780
        0x00002b9e:    020a        ..      LSLS     r2,r1,#8
        0x00002ba0:    0218        ..      LSLS     r0,r3,#8
        0x00002ba2:    e7a7        ..      B        0x2af4 ; am_hal_pwrctrl_memory_enable + 112
        0x00002ba4:    21ff        .!      MOVS     r1,#0xff
        0x00002ba6:    f44f63e0    O..c    MOV      r3,#0x700
        0x00002baa:    020a        ..      LSLS     r2,r1,#8
        0x00002bac:    0218        ..      LSLS     r0,r3,#8
        0x00002bae:    e7a1        ..      B        0x2af4 ; am_hal_pwrctrl_memory_enable + 112
        0x00002bb0:    f24031ff    @..1    MOV      r1,#0x3ff
        0x00002bb4:    1c4b        K.      ADDS     r3,r1,#1
        0x00002bb6:    020a        ..      LSLS     r2,r1,#8
        0x00002bb8:    0218        ..      LSLS     r0,r3,#8
        0x00002bba:    e79b        ..      B        0x2af4 ; am_hal_pwrctrl_memory_enable + 112
        0x00002bbc:    e000        ..      B        0x2bc0 ; am_hal_pwrctrl_memory_enable + 316
        0x00002bbe:    e001        ..      B        0x2bc4 ; am_hal_pwrctrl_memory_enable + 320
        0x00002bc0:    2000        .       MOVS     r0,#0
        0x00002bc2:    e79f        ..      B        0x2b04 ; am_hal_pwrctrl_memory_enable + 128
        0x00002bc4:    490e        .I      LDR      r1,[pc,#56] ; [0x2c00] = 0xa0001fff
        0x00002bc6:    4288        .B      CMP      r0,r1
        0x00002bc8:    d0fa        ..      BEQ      0x2bc0 ; am_hal_pwrctrl_memory_enable + 316
        0x00002bca:    e00f        ..      B        0x2bec ; am_hal_pwrctrl_memory_enable + 360
        0x00002bcc:    2900        .)      CMP      r1,#0
        0x00002bce:    dd0d        ..      BLE      0x2bec ; am_hal_pwrctrl_memory_enable + 360
        0x00002bd0:    2a00        .*      CMP      r2,#0
        0x00002bd2:    bf18        ..      IT       NE
        0x00002bd4:    20c7        .       MOVNE    r0,#0xc7
        0x00002bd6:    d00c        ..      BEQ      0x2bf2 ; am_hal_pwrctrl_memory_enable + 366
        0x00002bd8:    f8dc1014    ....    LDR      r1,[r12,#0x14]
        0x00002bdc:    ea320101    2...    BICS     r1,r2,r1
        0x00002be0:    d002        ..      BEQ      0x2be8 ; am_hal_pwrctrl_memory_enable + 356
        0x00002be2:    1e40        @.      SUBS     r0,r0,#1
        0x00002be4:    d1f8        ..      BNE      0x2bd8 ; am_hal_pwrctrl_memory_enable + 340
        0x00002be6:    e001        ..      B        0x2bec ; am_hal_pwrctrl_memory_enable + 360
        0x00002be8:    2800        .(      CMP      r0,#0
        0x00002bea:    dc02        ..      BGT      0x2bf2 ; am_hal_pwrctrl_memory_enable + 366
        0x00002bec:    bc10        ..      POP      {r4}
        0x00002bee:    2000        .       MOVS     r0,#0
        0x00002bf0:    4770        pG      BX       lr
        0x00002bf2:    bc10        ..      POP      {r4}
        0x00002bf4:    2001        .       MOVS     r0,#1
        0x00002bf6:    4770        pG      BX       lr
    $d
        0x00002bf8:    40021000    ...@    DCD    1073876992
        0x00002bfc:    0007ff00    ....    DCD    524032
        0x00002c00:    a0001fff    ....    DCD    2684362751
    $t
    i.am_hal_pwrctrl_periph_disable
    am_hal_pwrctrl_periph_disable
        0x00002c04:    b538        8.      PUSH     {r3-r5,lr}
        0x00002c06:    0004        ..      MOVS     r4,r0
        0x00002c08:    d002        ..      BEQ      0x2c10 ; am_hal_pwrctrl_periph_disable + 12
        0x00002c0a:    1e60        `.      SUBS     r0,r4,#1
        0x00002c0c:    4204        .B      TST      r4,r0
        0x00002c0e:    d004        ..      BEQ      0x2c1a ; am_hal_pwrctrl_periph_disable + 22
        0x00002c10:    a209        ..      ADR      r2,{pc}+0x28 ; 0x2c38
        0x00002c12:    218f        .!      MOVS     r1,#0x8f
        0x00002c14:    a015        ..      ADR      r0,{pc}+0x58 ; 0x2c6c
        0x00002c16:    f7fefb19    ....    BL       am_hal_debug_error ; 0x124c
        0x00002c1a:    f7fdfac3    ....    BL       am_hal_interrupt_master_disable ; 0x1a4
        0x00002c1e:    9000        ..      STR      r0,[sp,#0]
        0x00002c20:    4817        .H      LDR      r0,[pc,#92] ; [0x2c80] = 0x40021000
        0x00002c22:    6881        .h      LDR      r1,[r0,#8]
        0x00002c24:    43a1        .C      BICS     r1,r1,r4
        0x00002c26:    6081        .`      STR      r1,[r0,#8]
        0x00002c28:    9800        ..      LDR      r0,[sp,#0]
        0x00002c2a:    f7fdfabf    ....    BL       am_hal_interrupt_master_set ; 0x1ac
        0x00002c2e:    e8bd4038    ..8@    POP      {r3-r5,lr}
        0x00002c32:    200e        .       MOVS     r0,#0xe
        0x00002c34:    f7febb0c    ....    B        am_hal_flash_delay ; 0x1250
    $d
        0x00002c38:    6e6e6143    Cann    DCD    1852727619
        0x00002c3c:    6520746f    ot e    DCD    1696625775
        0x00002c40:    6c62616e    nabl    DCD    1818386798
        0x00002c44:    6f6d2065    e mo    DCD    1869422693
        0x00002c48:    74206572    re t    DCD    1948280178
        0x00002c4c:    206e6168    han     DCD    544104808
        0x00002c50:    20656e6f    one     DCD    543518319
        0x00002c54:    69726570    peri    DCD    1769104752
        0x00002c58:    72656870    pher    DCD    1919248496
        0x00002c5c:    61206c61    al a    DCD    1629514849
        0x00002c60:    20612074    t a     DCD    543236212
        0x00002c64:    656d6974    time    DCD    1701669236
        0x00002c68:    0000002e    ....    DCD    46
        0x00002c6c:    612f2e2e    ../a    DCD    1630481966
        0x00002c70:    61685f6d    m_ha    DCD    1634230125
        0x00002c74:    77705f6c    l_pw    DCD    2003853164
        0x00002c78:    72746372    rctr    DCD    1920230258
        0x00002c7c:    00632e6c    l.c.    DCD    6499948
        0x00002c80:    40021000    ...@    DCD    1073876992
    $t
    i.am_hal_pwrctrl_periph_enable
    am_hal_pwrctrl_periph_enable
        0x00002c84:    b538        8.      PUSH     {r3-r5,lr}
        0x00002c86:    0004        ..      MOVS     r4,r0
        0x00002c88:    d002        ..      BEQ      0x2c90 ; am_hal_pwrctrl_periph_enable + 12
        0x00002c8a:    1e60        `.      SUBS     r0,r4,#1
        0x00002c8c:    4204        .B      TST      r4,r0
        0x00002c8e:    d004        ..      BEQ      0x2c9a ; am_hal_pwrctrl_periph_enable + 22
        0x00002c90:    a218        ..      ADR      r2,{pc}+0x64 ; 0x2cf4
        0x00002c92:    215f        _!      MOVS     r1,#0x5f
        0x00002c94:    a024        $.      ADR      r0,{pc}+0x94 ; 0x2d28
        0x00002c96:    f7fefad9    ....    BL       am_hal_debug_error ; 0x124c
        0x00002c9a:    f7fdfa83    ....    BL       am_hal_interrupt_master_disable ; 0x1a4
        0x00002c9e:    4d27        'M      LDR      r5,[pc,#156] ; [0x2d3c] = 0x40021000
        0x00002ca0:    9000        ..      STR      r0,[sp,#0]
        0x00002ca2:    68a8        .h      LDR      r0,[r5,#8]
        0x00002ca4:    4320         C      ORRS     r0,r0,r4
        0x00002ca6:    60a8        .`      STR      r0,[r5,#8]
        0x00002ca8:    9800        ..      LDR      r0,[sp,#0]
        0x00002caa:    f7fdfa7f    ....    BL       am_hal_interrupt_master_set ; 0x1ac
        0x00002cae:    200e        .       MOVS     r0,#0xe
        0x00002cb0:    f7feface    ....    BL       am_hal_flash_delay ; 0x1250
        0x00002cb4:    f0140f0e    ....    TST      r4,#0xe
        0x00002cb8:    bf18        ..      IT       NE
        0x00002cba:    2004        .       MOVNE    r0,#4
        0x00002cbc:    d003        ..      BEQ      0x2cc6 ; am_hal_pwrctrl_periph_enable + 66
        0x00002cbe:    6969        ii      LDR      r1,[r5,#0x14]
        0x00002cc0:    4201        .B      TST      r1,r0
        0x00002cc2:    d0fc        ..      BEQ      0x2cbe ; am_hal_pwrctrl_periph_enable + 58
        0x00002cc4:    bd38        8.      POP      {r3-r5,pc}
        0x00002cc6:    f0140f70    ..p.    TST      r4,#0x70
        0x00002cca:    bf18        ..      IT       NE
        0x00002ccc:    2008        .       MOVNE    r0,#8
        0x00002cce:    d1f6        ..      BNE      0x2cbe ; am_hal_pwrctrl_periph_enable + 58
        0x00002cd0:    f2401081    @...    MOV      r0,#0x181
        0x00002cd4:    4204        .B      TST      r4,r0
        0x00002cd6:    bf18        ..      IT       NE
        0x00002cd8:    2002        .       MOVNE    r0,#2
        0x00002cda:    d1f0        ..      BNE      0x2cbe ; am_hal_pwrctrl_periph_enable + 58
        0x00002cdc:    f4147f00    ....    TST      r4,#0x200
        0x00002ce0:    bf18        ..      IT       NE
        0x00002ce2:    2080        .       MOVNE    r0,#0x80
        0x00002ce4:    d1eb        ..      BNE      0x2cbe ; am_hal_pwrctrl_periph_enable + 58
        0x00002ce6:    f4146f80    ...o    TST      r4,#0x400
        0x00002cea:    bf14        ..      ITE      NE
        0x00002cec:    2010        .       MOVNE    r0,#0x10
        0x00002cee:    f04f30ff    O..0    MOVEQ    r0,#0xffffffff
        0x00002cf2:    e7e4        ..      B        0x2cbe ; am_hal_pwrctrl_periph_enable + 58
    $d
        0x00002cf4:    6e6e6143    Cann    DCD    1852727619
        0x00002cf8:    6520746f    ot e    DCD    1696625775
        0x00002cfc:    6c62616e    nabl    DCD    1818386798
        0x00002d00:    6f6d2065    e mo    DCD    1869422693
        0x00002d04:    74206572    re t    DCD    1948280178
        0x00002d08:    206e6168    han     DCD    544104808
        0x00002d0c:    20656e6f    one     DCD    543518319
        0x00002d10:    69726570    peri    DCD    1769104752
        0x00002d14:    72656870    pher    DCD    1919248496
        0x00002d18:    61206c61    al a    DCD    1629514849
        0x00002d1c:    20612074    t a     DCD    543236212
        0x00002d20:    656d6974    time    DCD    1701669236
        0x00002d24:    0000002e    ....    DCD    46
        0x00002d28:    612f2e2e    ../a    DCD    1630481966
        0x00002d2c:    61685f6d    m_ha    DCD    1634230125
        0x00002d30:    77705f6c    l_pw    DCD    2003853164
        0x00002d34:    72746372    rctr    DCD    1920230258
        0x00002d38:    00632e6c    l.c.    DCD    6499948
        0x00002d3c:    40021000    ...@    DCD    1073876992
    $t
    i.am_hal_queue_init
    am_hal_queue_init
        0x00002d40:    f04f0c00    O...    MOV      r12,#0
        0x00002d44:    f8c0c000    ....    STR      r12,[r0,#0]
        0x00002d48:    f8c0c004    ....    STR      r12,[r0,#4]
        0x00002d4c:    e9c02104    ...!    STRD     r2,r1,[r0,#0x10]
        0x00002d50:    e9c0c302    ....    STRD     r12,r3,[r0,#8]
        0x00002d54:    4770        pG      BX       lr
    i.am_hal_queue_item_add
    am_hal_queue_item_add
        0x00002d56:    e92d41f0    -..A    PUSH     {r4-r8,lr}
        0x00002d5a:    4604        .F      MOV      r4,r0
        0x00002d5c:    6900        .i      LDR      r0,[r0,#0x10]
        0x00002d5e:    2600        .&      MOVS     r6,#0
        0x00002d60:    fb00f502    ....    MUL      r5,r0,r2
        0x00002d64:    460f        .F      MOV      r7,r1
        0x00002d66:    f7fdfa1d    ....    BL       am_hal_interrupt_master_disable ; 0x1a4
        0x00002d6a:    4603        .F      MOV      r3,r0
        0x00002d6c:    e9d41002    ....    LDRD     r1,r0,[r4,#8]
        0x00002d70:    1a40        @.      SUBS     r0,r0,r1
        0x00002d72:    42a8        .B      CMP      r0,r5
        0x00002d74:    d338        8.      BCC      0x2de8 ; am_hal_queue_item_add + 146
        0x00002d76:    b39d        ..      CBZ      r5,0x2de0 ; am_hal_queue_item_add + 138
        0x00002d78:    1e78        x.      SUBS     r0,r7,#1
        0x00002d7a:    f0150f01    ....    TST      r5,#1
        0x00002d7e:    d00e        ..      BEQ      0x2d9e ; am_hal_queue_item_add + 72
        0x00002d80:    f8d4c000    ....    LDR      r12,[r4,#0]
        0x00002d84:    6962        bi      LDR      r2,[r4,#0x14]
        0x00002d86:    f8101f01    ....    LDRB     r1,[r0,#1]!
        0x00002d8a:    f802100c    ....    STRB     r1,[r2,r12]
        0x00002d8e:    6821        !h      LDR      r1,[r4,#0]
        0x00002d90:    68e2        .h      LDR      r2,[r4,#0xc]
        0x00002d92:    1c49        I.      ADDS     r1,r1,#1
        0x00002d94:    fbb1fcf2    ....    UDIV     r12,r1,r2
        0x00002d98:    fb02111c    ....    MLS      r1,r2,r12,r1
        0x00002d9c:    6021        !`      STR      r1,[r4,#0]
        0x00002d9e:    0869        i.      LSRS     r1,r5,#1
        0x00002da0:    d01e        ..      BEQ      0x2de0 ; am_hal_queue_item_add + 138
        0x00002da2:    f8d4c014    ....    LDR      r12,[r4,#0x14]
        0x00002da6:    6826        &h      LDR      r6,[r4,#0]
        0x00002da8:    7842        Bx      LDRB     r2,[r0,#1]
        0x00002daa:    f80c2006    ...     STRB     r2,[r12,r6]
        0x00002dae:    6822        "h      LDR      r2,[r4,#0]
        0x00002db0:    f8d4c00c    ....    LDR      r12,[r4,#0xc]
        0x00002db4:    1c52        R.      ADDS     r2,r2,#1
        0x00002db6:    fbb2f6fc    ....    UDIV     r6,r2,r12
        0x00002dba:    fb0c2216    ..."    MLS      r2,r12,r6,r2
        0x00002dbe:    6022        "`      STR      r2,[r4,#0]
        0x00002dc0:    6966        fi      LDR      r6,[r4,#0x14]
        0x00002dc2:    f810cf02    ....    LDRB     r12,[r0,#2]!
        0x00002dc6:    f806c002    ....    STRB     r12,[r6,r2]
        0x00002dca:    6822        "h      LDR      r2,[r4,#0]
        0x00002dcc:    f8d4c00c    ....    LDR      r12,[r4,#0xc]
        0x00002dd0:    1c52        R.      ADDS     r2,r2,#1
        0x00002dd2:    fbb2f6fc    ....    UDIV     r6,r2,r12
        0x00002dd6:    fb0c2216    ..."    MLS      r2,r12,r6,r2
        0x00002dda:    6022        "`      STR      r2,[r4,#0]
        0x00002ddc:    1e49        I.      SUBS     r1,r1,#1
        0x00002dde:    d1e0        ..      BNE      0x2da2 ; am_hal_queue_item_add + 76
        0x00002de0:    68a0        .h      LDR      r0,[r4,#8]
        0x00002de2:    2601        .&      MOVS     r6,#1
        0x00002de4:    4428        (D      ADD      r0,r0,r5
        0x00002de6:    60a0        .`      STR      r0,[r4,#8]
        0x00002de8:    4618        .F      MOV      r0,r3
        0x00002dea:    f7fdf9df    ....    BL       am_hal_interrupt_master_set ; 0x1ac
        0x00002dee:    4630        0F      MOV      r0,r6
        0x00002df0:    e8bd81f0    ....    POP      {r4-r8,pc}
    i.am_hal_queue_item_get
    am_hal_queue_item_get
        0x00002df4:    e92d41f0    -..A    PUSH     {r4-r8,lr}
        0x00002df8:    4604        .F      MOV      r4,r0
        0x00002dfa:    6900        .i      LDR      r0,[r0,#0x10]
        0x00002dfc:    2600        .&      MOVS     r6,#0
        0x00002dfe:    fb00f502    ....    MUL      r5,r0,r2
        0x00002e02:    460f        .F      MOV      r7,r1
        0x00002e04:    f7fdf9ce    ....    BL       am_hal_interrupt_master_disable ; 0x1a4
        0x00002e08:    4603        .F      MOV      r3,r0
        0x00002e0a:    68a0        .h      LDR      r0,[r4,#8]
        0x00002e0c:    42a8        .B      CMP      r0,r5
        0x00002e0e:    d337        7.      BCC      0x2e80 ; am_hal_queue_item_get + 140
        0x00002e10:    b395        ..      CBZ      r5,0x2e78 ; am_hal_queue_item_get + 132
        0x00002e12:    1e78        x.      SUBS     r0,r7,#1
        0x00002e14:    f0150f01    ....    TST      r5,#1
        0x00002e18:    d00c        ..      BEQ      0x2e34 ; am_hal_queue_item_get + 64
        0x00002e1a:    6862        bh      LDR      r2,[r4,#4]
        0x00002e1c:    6961        ai      LDR      r1,[r4,#0x14]
        0x00002e1e:    5c89        .\      LDRB     r1,[r1,r2]
        0x00002e20:    f8001f01    ....    STRB     r1,[r0,#1]!
        0x00002e24:    6861        ah      LDR      r1,[r4,#4]
        0x00002e26:    68e2        .h      LDR      r2,[r4,#0xc]
        0x00002e28:    1c49        I.      ADDS     r1,r1,#1
        0x00002e2a:    fbb1fcf2    ....    UDIV     r12,r1,r2
        0x00002e2e:    fb02111c    ....    MLS      r1,r2,r12,r1
        0x00002e32:    6061        a`      STR      r1,[r4,#4]
        0x00002e34:    0869        i.      LSRS     r1,r5,#1
        0x00002e36:    d01f        ..      BEQ      0x2e78 ; am_hal_queue_item_get + 132
        0x00002e38:    f8d4c004    ....    LDR      r12,[r4,#4]
        0x00002e3c:    6962        bi      LDR      r2,[r4,#0x14]
        0x00002e3e:    f812200c    ...     LDRB     r2,[r2,r12]
        0x00002e42:    7042        Bp      STRB     r2,[r0,#1]
        0x00002e44:    6862        bh      LDR      r2,[r4,#4]
        0x00002e46:    f8d4c00c    ....    LDR      r12,[r4,#0xc]
        0x00002e4a:    1c52        R.      ADDS     r2,r2,#1
        0x00002e4c:    fbb2f6fc    ....    UDIV     r6,r2,r12
        0x00002e50:    fb0c2216    ..."    MLS      r2,r12,r6,r2
        0x00002e54:    6062        b`      STR      r2,[r4,#4]
        0x00002e56:    f8d4c014    ....    LDR      r12,[r4,#0x14]
        0x00002e5a:    f81c2002    ...     LDRB     r2,[r12,r2]
        0x00002e5e:    f8002f02    .../    STRB     r2,[r0,#2]!
        0x00002e62:    6862        bh      LDR      r2,[r4,#4]
        0x00002e64:    f8d4c00c    ....    LDR      r12,[r4,#0xc]
        0x00002e68:    1c52        R.      ADDS     r2,r2,#1
        0x00002e6a:    fbb2f6fc    ....    UDIV     r6,r2,r12
        0x00002e6e:    fb0c2216    ..."    MLS      r2,r12,r6,r2
        0x00002e72:    6062        b`      STR      r2,[r4,#4]
        0x00002e74:    1e49        I.      SUBS     r1,r1,#1
        0x00002e76:    d1df        ..      BNE      0x2e38 ; am_hal_queue_item_get + 68
        0x00002e78:    68a0        .h      LDR      r0,[r4,#8]
        0x00002e7a:    1b40        @.      SUBS     r0,r0,r5
        0x00002e7c:    2601        .&      MOVS     r6,#1
        0x00002e7e:    60a0        .`      STR      r0,[r4,#8]
        0x00002e80:    4618        .F      MOV      r0,r3
        0x00002e82:    f7fdf993    ....    BL       am_hal_interrupt_master_set ; 0x1ac
        0x00002e86:    4630        0F      MOV      r0,r6
        0x00002e88:    e8bd81f0    ....    POP      {r4-r8,pc}
    i.am_hal_rtc_osc_disable
    am_hal_rtc_osc_disable
        0x00002e8c:    f04f2040    O.@     MOV      r0,#0x40004000
        0x00002e90:    6d01        .m      LDR      r1,[r0,#0x50]
        0x00002e92:    f0410110    A...    ORR      r1,r1,#0x10
        0x00002e96:    6501        .e      STR      r1,[r0,#0x50]
        0x00002e98:    4770        pG      BX       lr
    i.am_hal_rtc_osc_select
    am_hal_rtc_osc_select
        0x00002e9a:    f04f2140    O.@!    MOV      r1,#0x40004000
        0x00002e9e:    2800        .(      CMP      r0,#0
        0x00002ea0:    68c8        .h      LDR      r0,[r1,#0xc]
        0x00002ea2:    bf14        ..      ITE      NE
        0x00002ea4:    f0400080    @...    ORRNE    r0,r0,#0x80
        0x00002ea8:    f0200080     ...    BICEQ    r0,r0,#0x80
        0x00002eac:    60c8        .`      STR      r0,[r1,#0xc]
        0x00002eae:    4770        pG      BX       lr
    i.am_hal_sysctrl_sleep
    am_hal_sysctrl_sleep
        0x00002eb0:    b5f8        ..      PUSH     {r3-r7,lr}
        0x00002eb2:    4604        .F      MOV      r4,r0
        0x00002eb4:    f7fdf976    ..v.    BL       am_hal_interrupt_master_disable ; 0x1a4
        0x00002eb8:    4934        4I      LDR      r1,[pc,#208] ; [0x2f8c] = 0xe000ed10
        0x00002eba:    4605        .F      MOV      r5,r0
        0x00002ebc:    b12c        ,.      CBZ      r4,0x2eca ; am_hal_sysctrl_sleep + 26
        0x00002ebe:    4834        4H      LDR      r0,[pc,#208] ; [0x2f90] = 0x40020000
        0x00002ec0:    f8d02250    ..P"    LDR      r2,[r0,#0x250]
        0x00002ec4:    f0120f01    ....    TST      r2,#1
        0x00002ec8:    d009        ..      BEQ      0x2ede ; am_hal_sysctrl_sleep + 46
        0x00002eca:    6808        .h      LDR      r0,[r1,#0]
        0x00002ecc:    f0200004     ...    BIC      r0,r0,#4
        0x00002ed0:    6008        .`      STR      r0,[r1,#0]
        0x00002ed2:    bf30        0.      WFI      
        0x00002ed4:    4628        (F      MOV      r0,r5
        0x00002ed6:    e8bd40f8    ...@    POP      {r3-r7,lr}
        0x00002eda:    f7fdb967    ..g.    B        am_hal_interrupt_master_set ; 0x1ac
        0x00002ede:    680a        .h      LDR      r2,[r1,#0]
        0x00002ee0:    f0420204    B...    ORR      r2,r2,#4
        0x00002ee4:    600a        .`      STR      r2,[r1,#0]
        0x00002ee6:    68c0        .h      LDR      r0,[r0,#0xc]
        0x00002ee8:    f00000f0    ....    AND      r0,r0,#0xf0
        0x00002eec:    2820         (      CMP      r0,#0x20
        0x00002eee:    bf14        ..      ITE      NE
        0x00002ef0:    2000        .       MOVNE    r0,#0
        0x00002ef2:    2002        .       MOVEQ    r0,#2
        0x00002ef4:    4c27        'L      LDR      r4,[pc,#156] ; [0x2f94] = 0x10000074
        0x00002ef6:    60e0        .`      STR      r0,[r4,#0xc]
        0x00002ef8:    6861        ah      LDR      r1,[r4,#4]
        0x00002efa:    1e49        I.      SUBS     r1,r1,#1
        0x00002efc:    2903        .)      CMP      r1,#3
        0x00002efe:    bf94        ..      ITE      LS
        0x00002f00:    2104        .!      MOVLS    r1,#4
        0x00002f02:    2100        .!      MOVHI    r1,#0
        0x00002f04:    4301        .C      ORRS     r1,r1,r0
        0x00002f06:    4824        $H      LDR      r0,[pc,#144] ; [0x2f98] = 0x40021000
        0x00002f08:    60e1        .`      STR      r1,[r4,#0xc]
        0x00002f0a:    6802        .h      LDR      r2,[r0,#0]
        0x00002f0c:    f0120203    ....    ANDS     r2,r2,#3
        0x00002f10:    bf18        ..      IT       NE
        0x00002f12:    2201        ."      MOVNE    r2,#1
        0x00002f14:    4311        .C      ORRS     r1,r1,r2
        0x00002f16:    60e1        .`      STR      r1,[r4,#0xc]
        0x00002f18:    6880        .h      LDR      r0,[r0,#8]
        0x00002f1a:    f24052ff    @..R    MOV      r2,#0x5ff
        0x00002f1e:    4210        .B      TST      r0,r2
        0x00002f20:    bf14        ..      ITE      NE
        0x00002f22:    2000        .       MOVNE    r0,#0
        0x00002f24:    2008        .       MOVEQ    r0,#8
        0x00002f26:    4308        .C      ORRS     r0,r0,r1
        0x00002f28:    2600        .&      MOVS     r6,#0
        0x00002f2a:    2101        .!      MOVS     r1,#1
        0x00002f2c:    60e0        .`      STR      r0,[r4,#0xc]
        0x00002f2e:    280f        .(      CMP      r0,#0xf
        0x00002f30:    bf1c        ..      ITT      NE
        0x00002f32:    bf30        0.      WFINE    
        0x00002f34:    7021        !p      STRBNE   r1,[r4,#0]
        0x00002f36:    d1cd        ..      BNE      0x2ed4 ; am_hal_sysctrl_sleep + 36
        0x00002f38:    6860        `h      LDR      r0,[r4,#4]
        0x00002f3a:    f04f31ff    O..1    MOV      r1,#0xffffffff
        0x00002f3e:    1e40        @.      SUBS     r0,r0,#1
        0x00002f40:    9000        ..      STR      r0,[sp,#0]
        0x00002f42:    f7fef8a1    ....    BL       am_hal_ctimer_clear ; 0x1088
        0x00002f46:    2300        .#      MOVS     r3,#0
        0x00002f48:    f04f1201    O...    MOV      r2,#0x10001
        0x00002f4c:    1e59        Y.      SUBS     r1,r3,#1
        0x00002f4e:    9800        ..      LDR      r0,[sp,#0]
        0x00002f50:    f7fef926    ..&.    BL       am_hal_ctimer_period_set ; 0x11a0
        0x00002f54:    f7fffd4a    ..J.    BL       am_hal_pwrctrl_bucks_disable ; 0x29ec
        0x00002f58:    bf30        0.      WFI      
        0x00002f5a:    2107        .!      MOVS     r1,#7
        0x00002f5c:    2231        1"      MOVS     r2,#0x31
        0x00002f5e:    4608        .F      MOV      r0,r1
        0x00002f60:    f000fbbe    ....    BL       setBuckZX ; 0x36e0
        0x00002f64:    201c        .       MOVS     r0,#0x1c
        0x00002f66:    f7fef973    ..s.    BL       am_hal_flash_delay ; 0x1250
        0x00002f6a:    f7fffd65    ..e.    BL       am_hal_pwrctrl_bucks_enable ; 0x2a38
        0x00002f6e:    6860        `h      LDR      r0,[r4,#4]
        0x00002f70:    1e40        @.      SUBS     r0,r0,#1
        0x00002f72:    9000        ..      STR      r0,[sp,#0]
        0x00002f74:    7026        &p      STRB     r6,[r4,#0]
        0x00002f76:    60a6        .`      STR      r6,[r4,#8]
        0x00002f78:    204c        L       MOVS     r0,#0x4c
        0x00002f7a:    f7fef969    ..i.    BL       am_hal_flash_delay ; 0x1250
        0x00002f7e:    f04f31ff    O..1    MOV      r1,#0xffffffff
        0x00002f82:    9800        ..      LDR      r0,[sp,#0]
        0x00002f84:    f7fef94a    ..J.    BL       am_hal_ctimer_start ; 0x121c
        0x00002f88:    e7a4        ..      B        0x2ed4 ; am_hal_sysctrl_sleep + 36
    $d
        0x00002f8a:    0000        ..      DCW    0
        0x00002f8c:    e000ed10    ....    DCD    3758157072
        0x00002f90:    40020000    ...@    DCD    1073872896
        0x00002f94:    10000074    t...    DCD    268435572
        0x00002f98:    40021000    ...@    DCD    1073876992
    $t
    i.am_hal_uart_char_receive_buffered
    am_hal_uart_char_receive_buffered
        0x00002f9c:    e92d41f0    -..A    PUSH     {r4-r8,lr}
        0x00002fa0:    460f        .F      MOV      r7,r1
        0x00002fa2:    490c        .I      LDR      r1,[pc,#48] ; [0x2fd4] = 0x10000458
        0x00002fa4:    eb000040    ..@.    ADD      r0,r0,r0,LSL #1
        0x00002fa8:    4615        .F      MOV      r5,r2
        0x00002faa:    2600        .&      MOVS     r6,#0
        0x00002fac:    eb0104c0    ....    ADD      r4,r1,r0,LSL #3
        0x00002fb0:    e007        ..      B        0x2fc2 ; am_hal_uart_char_receive_buffered + 38
        0x00002fb2:    4620         F      MOV      r0,r4
        0x00002fb4:    2201        ."      MOVS     r2,#1
        0x00002fb6:    4639        9F      MOV      r1,r7
        0x00002fb8:    f7ffff1c    ....    BL       am_hal_queue_item_get ; 0x2df4
        0x00002fbc:    1e6d        m.      SUBS     r5,r5,#1
        0x00002fbe:    1c76        v.      ADDS     r6,r6,#1
        0x00002fc0:    1c7f        ..      ADDS     r7,r7,#1
        0x00002fc2:    68a0        .h      LDR      r0,[r4,#8]
        0x00002fc4:    2800        .(      CMP      r0,#0
        0x00002fc6:    bf18        ..      IT       NE
        0x00002fc8:    2d00        .-      CMPNE    r5,#0
        0x00002fca:    d1f2        ..      BNE      0x2fb2 ; am_hal_uart_char_receive_buffered + 22
        0x00002fcc:    4630        0F      MOV      r0,r6
        0x00002fce:    e8bd81f0    ....    POP      {r4-r8,pc}
    $d
        0x00002fd2:    0000        ..      DCW    0
        0x00002fd4:    10000458    X...    DCD    268436568
    $t
    i.am_hal_uart_char_transmit_buffered
    am_hal_uart_char_transmit_buffered
        0x00002fd8:    b513        ..      PUSH     {r0,r1,r4,lr}
        0x00002fda:    490e        .I      LDR      r1,[pc,#56] ; [0x3014] = 0x10000428
        0x00002fdc:    eb000240    ..@.    ADD      r2,r0,r0,LSL #1
        0x00002fe0:    eb0101c2    ....    ADD      r1,r1,r2,LSL #3
        0x00002fe4:    688a        .h      LDR      r2,[r1,#8]
        0x00002fe6:    b96a        j.      CBNZ     r2,0x3004 ; am_hal_uart_char_transmit_buffered + 44
        0x00002fe8:    0300        ..      LSLS     r0,r0,#12
        0x00002fea:    f1004080    ...@    ADD      r0,r0,#0x40000000
        0x00002fee:    f50030e0    ...0    ADD      r0,r0,#0x1c000
        0x00002ff2:    6982        .i      LDR      r2,[r0,#0x18]
        0x00002ff4:    f0120f20    .. .    TST      r2,#0x20
        0x00002ff8:    bf01        ..      ITTTT    EQ
        0x00002ffa:    f89d1004    ....    LDRBEQ   r1,[sp,#4]
        0x00002ffe:    6001        .`      STREQ    r1,[r0,#0]
        0x00003000:    b002        ..      ADDEQ    sp,sp,#8
        0x00003002:    bd10        ..      POPEQ    {r4,pc}
        0x00003004:    4608        .F      MOV      r0,r1
        0x00003006:    2201        ."      MOVS     r2,#1
        0x00003008:    a901        ..      ADD      r1,sp,#4
        0x0000300a:    f7fffea4    ....    BL       am_hal_queue_item_add ; 0x2d56
        0x0000300e:    b002        ..      ADD      sp,sp,#8
        0x00003010:    bd10        ..      POP      {r4,pc}
    $d
        0x00003012:    0000        ..      DCW    0
        0x00003014:    10000428    (...    DCD    268436520
    $t
    i.am_hal_uart_clock_enable
    am_hal_uart_clock_enable
        0x00003018:    b510        ..      PUSH     {r4,lr}
        0x0000301a:    4604        .F      MOV      r4,r0
        0x0000301c:    2101        .!      MOVS     r1,#1
        0x0000301e:    f7fef811    ....    BL       am_hal_clkgen_uarten_set ; 0x1044
        0x00003022:    0320         .      LSLS     r0,r4,#12
        0x00003024:    f1004080    ...@    ADD      r0,r0,#0x40000000
        0x00003028:    f50030e0    ...0    ADD      r0,r0,#0x1c000
        0x0000302c:    6b01        .k      LDR      r1,[r0,#0x30]
        0x0000302e:    f0410108    A...    ORR      r1,r1,#8
        0x00003032:    6301        .c      STR      r1,[r0,#0x30]
        0x00003034:    6b01        .k      LDR      r1,[r0,#0x30]
        0x00003036:    f0410110    A...    ORR      r1,r1,#0x10
        0x0000303a:    6301        .c      STR      r1,[r0,#0x30]
        0x0000303c:    bd10        ..      POP      {r4,pc}
        0x0000303e:    0000        ..      MOVS     r0,r0
    i.am_hal_uart_config
    am_hal_uart_config
        0x00003040:    e92d41f0    -..A    PUSH     {r4-r8,lr}
        0x00003044:    460c        .F      MOV      r4,r1
        0x00003046:    4607        .F      MOV      r7,r0
        0x00003048:    f7fdffb4    ....    BL       am_hal_clkgen_sysclk_get ; 0xfb4
        0x0000304c:    6821        !h      LDR      r1,[r4,#0]
        0x0000304e:    0149        I.      LSLS     r1,r1,#5
        0x00003050:    fbb0f6f1    ....    UDIV     r6,r0,r1
        0x00003054:    0180        ..      LSLS     r0,r0,#6
        0x00003056:    fbb0f0f1    ....    UDIV     r0,r0,r1
        0x0000305a:    01b1        ..      LSLS     r1,r6,#6
        0x0000305c:    1a45        E.      SUBS     r5,r0,r1
        0x0000305e:    b926        &.      CBNZ     r6,0x306a ; am_hal_uart_config + 42
        0x00003060:    a210        ..      ADR      r2,{pc}+0x44 ; 0x30a4
        0x00003062:    2164        d!      MOVS     r1,#0x64
        0x00003064:    a01c        ..      ADR      r0,{pc}+0x74 ; 0x30d8
        0x00003066:    f7fef8f1    ....    BL       am_hal_debug_error ; 0x124c
        0x0000306a:    0338        8.      LSLS     r0,r7,#12
        0x0000306c:    f1004080    ...@    ADD      r0,r0,#0x40000000
        0x00003070:    f50030e0    ...0    ADD      r0,r0,#0x1c000
        0x00003074:    6246        Fb      STR      r6,[r0,#0x24]
        0x00003076:    6246        Fb      STR      r6,[r0,#0x24]
        0x00003078:    6285        .b      STR      r5,[r0,#0x28]
        0x0000307a:    7a22        "z      LDRB     r2,[r4,#8]
        0x0000307c:    6861        ah      LDR      r1,[r4,#4]
        0x0000307e:    2a00        .*      CMP      r2,#0
        0x00003080:    bf18        ..      IT       NE
        0x00003082:    2208        ."      MOVNE    r2,#8
        0x00003084:    4311        .C      ORRS     r1,r1,r2
        0x00003086:    68e2        .h      LDR      r2,[r4,#0xc]
        0x00003088:    4311        .C      ORRS     r1,r1,r2
        0x0000308a:    6ac2        .j      LDR      r2,[r0,#0x2c]
        0x0000308c:    4311        .C      ORRS     r1,r1,r2
        0x0000308e:    62c1        .b      STR      r1,[r0,#0x2c]
        0x00003090:    6b01        .k      LDR      r1,[r0,#0x30]
        0x00003092:    6922        "i      LDR      r2,[r4,#0x10]
        0x00003094:    4311        .C      ORRS     r1,r1,r2
        0x00003096:    6301        .c      STR      r1,[r0,#0x30]
        0x00003098:    6b01        .k      LDR      r1,[r0,#0x30]
        0x0000309a:    f0410110    A...    ORR      r1,r1,#0x10
        0x0000309e:    6301        .c      STR      r1,[r0,#0x30]
        0x000030a0:    e8bd81f0    ....    POP      {r4-r8,pc}
    $d
        0x000030a4:    65746e49    Inte    DCD    1702129225
        0x000030a8:    20726567    ger     DCD    544367975
        0x000030ac:    69766964    divi    DCD    1769367908
        0x000030b0:    20726f73    sor     DCD    544370547
        0x000030b4:    5453554d    MUST    DCD    1414747469
        0x000030b8:    20656220     be     DCD    543515168
        0x000030bc:    61657267    grea    DCD    1634038375
        0x000030c0:    20726574    ter     DCD    544367988
        0x000030c4:    6e616874    than    DCD    1851877492
        0x000030c8:    20726f20     or     DCD    544370464
        0x000030cc:    61757165    equa    DCD    1635086693
        0x000030d0:    6f74206c    l to    DCD    1869881452
        0x000030d4:    002e3120     1..    DCD    3027232
        0x000030d8:    612f2e2e    ../a    DCD    1630481966
        0x000030dc:    61685f6d    m_ha    DCD    1634230125
        0x000030e0:    61755f6c    l_ua    DCD    1635082092
        0x000030e4:    632e7472    rt.c    DCD    1663988850
        0x000030e8:    00000000    ....    DCD    0
    $t
    i.am_hal_uart_disable
    am_hal_uart_disable
        0x000030ec:    b538        8.      PUSH     {r3-r5,lr}
        0x000030ee:    4604        .F      MOV      r4,r0
        0x000030f0:    f7fdf858    ..X.    BL       am_hal_interrupt_master_disable ; 0x1a4
        0x000030f4:    9000        ..      STR      r0,[sp,#0]
        0x000030f6:    0320         .      LSLS     r0,r4,#12
        0x000030f8:    f1004080    ...@    ADD      r0,r0,#0x40000000
        0x000030fc:    f50030e0    ...0    ADD      r0,r0,#0x1c000
        0x00003100:    6b01        .k      LDR      r1,[r0,#0x30]
        0x00003102:    f0210101    !...    BIC      r1,r1,#1
        0x00003106:    f4217140    !.@q    BIC      r1,r1,#0x300
        0x0000310a:    6301        .c      STR      r1,[r0,#0x30]
        0x0000310c:    9800        ..      LDR      r0,[sp,#0]
        0x0000310e:    e8bd4038    ..8@    POP      {r3-r5,lr}
        0x00003112:    f7fdb84b    ..K.    B        am_hal_interrupt_master_set ; 0x1ac
    i.am_hal_uart_enable
    am_hal_uart_enable
        0x00003116:    b538        8.      PUSH     {r3-r5,lr}
        0x00003118:    4604        .F      MOV      r4,r0
        0x0000311a:    f7fdf843    ..C.    BL       am_hal_interrupt_master_disable ; 0x1a4
        0x0000311e:    9000        ..      STR      r0,[sp,#0]
        0x00003120:    0320         .      LSLS     r0,r4,#12
        0x00003122:    f1004080    ...@    ADD      r0,r0,#0x40000000
        0x00003126:    f50030e0    ...0    ADD      r0,r0,#0x1c000
        0x0000312a:    6b01        .k      LDR      r1,[r0,#0x30]
        0x0000312c:    f2403201    @..2    MOV      r2,#0x301
        0x00003130:    4311        .C      ORRS     r1,r1,r2
        0x00003132:    6301        .c      STR      r1,[r0,#0x30]
        0x00003134:    9800        ..      LDR      r0,[sp,#0]
        0x00003136:    e8bd4038    ..8@    POP      {r3-r5,lr}
        0x0000313a:    f7fdb837    ..7.    B        am_hal_interrupt_master_set ; 0x1ac
    i.am_hal_uart_fifo_config
    am_hal_uart_fifo_config
        0x0000313e:    0300        ..      LSLS     r0,r0,#12
        0x00003140:    f1004080    ...@    ADD      r0,r0,#0x40000000
        0x00003144:    f50030e0    ...0    ADD      r0,r0,#0x1c000
        0x00003148:    6ac2        .j      LDR      r2,[r0,#0x2c]
        0x0000314a:    f0420210    B...    ORR      r2,r2,#0x10
        0x0000314e:    62c2        .b      STR      r2,[r0,#0x2c]
        0x00003150:    6341        Ac      STR      r1,[r0,#0x34]
        0x00003152:    4770        pG      BX       lr
    i.am_hal_uart_init_buffered
    am_hal_uart_init_buffered
        0x00003154:    e92d41f0    -..A    PUSH     {r4-r8,lr}
        0x00003158:    eb000540    ..@.    ADD      r5,r0,r0,LSL #1
        0x0000315c:    0300        ..      LSLS     r0,r0,#12
        0x0000315e:    f1004480    ...D    ADD      r4,r0,#0x40000000
        0x00003162:    9f06        ..      LDR      r7,[sp,#0x18]
        0x00003164:    461e        .F      MOV      r6,r3
        0x00003166:    f50434e0    ...4    ADD      r4,r4,#0x1c000
        0x0000316a:    2900        .)      CMP      r1,#0
        0x0000316c:    bf18        ..      IT       NE
        0x0000316e:    2a00        .*      CMPNE    r2,#0
        0x00003170:    d00b        ..      BEQ      0x318a ; am_hal_uart_init_buffered + 54
        0x00003172:    6ba0        .k      LDR      r0,[r4,#0x38]
        0x00003174:    f0400040    @.@.    ORR      r0,r0,#0x40
        0x00003178:    63a0        .c      STR      r0,[r4,#0x38]
        0x0000317a:    480e        .H      LDR      r0,[pc,#56] ; [0x31b4] = 0x10000458
        0x0000317c:    4613        .F      MOV      r3,r2
        0x0000317e:    eb0000c5    ....    ADD      r0,r0,r5,LSL #3
        0x00003182:    f04f0201    O...    MOV      r2,#1
        0x00003186:    f7fffddb    ....    BL       am_hal_queue_init ; 0x2d40
        0x0000318a:    2e00        ..      CMP      r6,#0
        0x0000318c:    bf14        ..      ITE      NE
        0x0000318e:    2f00        ./      CMPNE    r7,#0
        0x00003190:    e8bd81f0    ....    POPEQ    {r4-r8,pc}
        0x00003194:    6ba0        .k      LDR      r0,[r4,#0x38]
        0x00003196:    f0400020    @. .    ORR      r0,r0,#0x20
        0x0000319a:    63a0        .c      STR      r0,[r4,#0x38]
        0x0000319c:    4806        .H      LDR      r0,[pc,#24] ; [0x31b8] = 0x10000428
        0x0000319e:    463b        ;F      MOV      r3,r7
        0x000031a0:    eb0000c5    ....    ADD      r0,r0,r5,LSL #3
        0x000031a4:    4631        1F      MOV      r1,r6
        0x000031a6:    e8bd41f0    ...A    POP      {r4-r8,lr}
        0x000031aa:    f04f0201    O...    MOV      r2,#1
        0x000031ae:    f7ffbdc7    ....    B.W      am_hal_queue_init ; 0x2d40
    $d
        0x000031b2:    0000        ..      DCW    0
        0x000031b4:    10000458    X...    DCD    268436568
        0x000031b8:    10000428    (...    DCD    268436520
    $t
    i.am_hal_uart_int_clear
    am_hal_uart_int_clear
        0x000031bc:    0300        ..      LSLS     r0,r0,#12
        0x000031be:    f1004080    ...@    ADD      r0,r0,#0x40000000
        0x000031c2:    f50030e0    ...0    ADD      r0,r0,#0x1c000
        0x000031c6:    6441        Ad      STR      r1,[r0,#0x44]
        0x000031c8:    4770        pG      BX       lr
    i.am_hal_uart_int_enable
    am_hal_uart_int_enable
        0x000031ca:    0300        ..      LSLS     r0,r0,#12
        0x000031cc:    f1004080    ...@    ADD      r0,r0,#0x40000000
        0x000031d0:    f50030e0    ...0    ADD      r0,r0,#0x1c000
        0x000031d4:    6b82        .k      LDR      r2,[r0,#0x38]
        0x000031d6:    4311        .C      ORRS     r1,r1,r2
        0x000031d8:    6381        .c      STR      r1,[r0,#0x38]
        0x000031da:    4770        pG      BX       lr
    i.am_hal_uart_int_status_get
    am_hal_uart_int_status_get
        0x000031dc:    0300        ..      LSLS     r0,r0,#12
        0x000031de:    f1004080    ...@    ADD      r0,r0,#0x40000000
        0x000031e2:    f50030e0    ...0    ADD      r0,r0,#0x1c000
        0x000031e6:    2900        .)      CMP      r1,#0
        0x000031e8:    bf14        ..      ITE      NE
        0x000031ea:    6c00        .l      LDRNE    r0,[r0,#0x40]
        0x000031ec:    6bc0        .k      LDREQ    r0,[r0,#0x3c]
        0x000031ee:    4770        pG      BX       lr
    i.am_hal_uart_pwrctrl_enable
    am_hal_uart_pwrctrl_enable
        0x000031f0:    b510        ..      PUSH     {r4,lr}
        0x000031f2:    4604        .F      MOV      r4,r0
        0x000031f4:    2802        .(      CMP      r0,#2
        0x000031f6:    d305        ..      BCC      0x3204 ; am_hal_uart_pwrctrl_enable + 20
        0x000031f8:    a205        ..      ADR      r2,{pc}+0x18 ; 0x3210
        0x000031fa:    f24011a7    @...    MOV      r1,#0x1a7
        0x000031fe:    a011        ..      ADR      r0,{pc}+0x46 ; 0x3244
        0x00003200:    f7fef824    ..$.    BL       am_hal_debug_error ; 0x124c
        0x00003204:    2080        .       MOVS     r0,#0x80
        0x00003206:    40a0        .@      LSLS     r0,r0,r4
        0x00003208:    e8bd4010    ...@    POP      {r4,lr}
        0x0000320c:    f7ffbd3a    ..:.    B.W      am_hal_pwrctrl_periph_enable ; 0x2c84
    $d
        0x00003210:    69797254    Tryi    DCD    1769566804
        0x00003214:    7420676e    ng t    DCD    1948280686
        0x00003218:    6964206f    o di    DCD    1768169583
        0x0000321c:    6c626173    sabl    DCD    1818386803
        0x00003220:    20612065    e a     DCD    543236197
        0x00003224:    54524155    UART    DCD    1414676821
        0x00003228:    646f6d20     mod    DCD    1685024032
        0x0000322c:    20656c75    ule     DCD    543517813
        0x00003230:    74616874    that    DCD    1952540788
        0x00003234:    656f6420     doe    DCD    1701798944
        0x00003238:    74276e73    sn't    DCD    1948741235
        0x0000323c:    69786520     exi    DCD    1769497888
        0x00003240:    00007473    st..    DCD    29811
        0x00003244:    612f2e2e    ../a    DCD    1630481966
        0x00003248:    61685f6d    m_ha    DCD    1634230125
        0x0000324c:    61755f6c    l_ua    DCD    1635082092
        0x00003250:    632e7472    rt.c    DCD    1663988850
        0x00003254:    00000000    ....    DCD    0
    $t
    i.am_hal_uart_service_buffered_timeout_save
    am_hal_uart_service_buffered_timeout_save
        0x00003258:    e92d43f8    -..C    PUSH     {r3-r9,lr}
        0x0000325c:    4606        .F      MOV      r6,r0
        0x0000325e:    2000        .       MOVS     r0,#0
        0x00003260:    460f        .F      MOV      r7,r1
        0x00003262:    f0110f50    ..P.    TST      r1,#0x50
        0x00003266:    ea4f3106    O..1    LSL      r1,r6,#12
        0x0000326a:    f88d0000    ....    STRB     r0,[sp,#0]
        0x0000326e:    4605        .F      MOV      r5,r0
        0x00003270:    f1014480    ...D    ADD      r4,r1,#0x40000000
        0x00003274:    eb060046    ..F.    ADD      r0,r6,r6,LSL #1
        0x00003278:    f50434e0    ...4    ADD      r4,r4,#0x1c000
        0x0000327c:    d034        4.      BEQ      0x32e8 ; am_hal_uart_service_buffered_timeout_save + 144
        0x0000327e:    6b61        ak      LDR      r1,[r4,#0x34]
        0x00003280:    f0010138    ..8.    AND      r1,r1,#0x38
        0x00003284:    2910        .)      CMP      r1,#0x10
        0x00003286:    bf08        ..      IT       EQ
        0x00003288:    2210        ."      MOVEQ    r2,#0x10
        0x0000328a:    d012        ..      BEQ      0x32b2 ; am_hal_uart_service_buffered_timeout_save + 90
        0x0000328c:    dc08        ..      BGT      0x32a0 ; am_hal_uart_service_buffered_timeout_save + 72
        0x0000328e:    2900        .)      CMP      r1,#0
        0x00003290:    bf08        ..      IT       EQ
        0x00003292:    2204        ."      MOVEQ    r2,#4
        0x00003294:    d00d        ..      BEQ      0x32b2 ; am_hal_uart_service_buffered_timeout_save + 90
        0x00003296:    2908        .)      CMP      r1,#8
        0x00003298:    bf08        ..      IT       EQ
        0x0000329a:    2208        ."      MOVEQ    r2,#8
        0x0000329c:    d009        ..      BEQ      0x32b2 ; am_hal_uart_service_buffered_timeout_save + 90
        0x0000329e:    e007        ..      B        0x32b0 ; am_hal_uart_service_buffered_timeout_save + 88
        0x000032a0:    2918        .)      CMP      r1,#0x18
        0x000032a2:    bf08        ..      IT       EQ
        0x000032a4:    2218        ."      MOVEQ    r2,#0x18
        0x000032a6:    d004        ..      BEQ      0x32b2 ; am_hal_uart_service_buffered_timeout_save + 90
        0x000032a8:    2920         )      CMP      r1,#0x20
        0x000032aa:    bf08        ..      IT       EQ
        0x000032ac:    221c        ."      MOVEQ    r2,#0x1c
        0x000032ae:    d000        ..      BEQ      0x32b2 ; am_hal_uart_service_buffered_timeout_save + 90
        0x000032b0:    2220         "      MOVS     r2,#0x20
        0x000032b2:    69a1        .i      LDR      r1,[r4,#0x18]
        0x000032b4:    f0110f10    ....    TST      r1,#0x10
        0x000032b8:    d116        ..      BNE      0x32e8 ; am_hal_uart_service_buffered_timeout_save + 144
        0x000032ba:    491a        .I      LDR      r1,[pc,#104] ; [0x3324] = 0x10000458
        0x000032bc:    f1a20901    ....    SUB      r9,r2,#1
        0x000032c0:    eb0108c0    ....    ADD      r8,r1,r0,LSL #3
        0x000032c4:    6822        "h      LDR      r2,[r4,#0]
        0x000032c6:    f4126f70    ..po    TST      r2,#0xf00
        0x000032ca:    d106        ..      BNE      0x32da ; am_hal_uart_service_buffered_timeout_save + 130
        0x000032cc:    f88d2000    ...     STRB     r2,[sp,#0]
        0x000032d0:    4640        @F      MOV      r0,r8
        0x000032d2:    2201        ."      MOVS     r2,#1
        0x000032d4:    4669        iF      MOV      r1,sp
        0x000032d6:    f7fffd3e    ..>.    BL       am_hal_queue_item_add ; 0x2d56
        0x000032da:    1c6d        m.      ADDS     r5,r5,#1
        0x000032dc:    454d        ME      CMP      r5,r9
        0x000032de:    d203        ..      BCS      0x32e8 ; am_hal_uart_service_buffered_timeout_save + 144
        0x000032e0:    69a0        .i      LDR      r0,[r4,#0x18]
        0x000032e2:    f0100f10    ....    TST      r0,#0x10
        0x000032e6:    d0ed        ..      BEQ      0x32c4 ; am_hal_uart_service_buffered_timeout_save + 108
        0x000032e8:    480f        .H      LDR      r0,[pc,#60] ; [0x3328] = 0x10000428
        0x000032ea:    eb060246    ..F.    ADD      r2,r6,r6,LSL #1
        0x000032ee:    f0170f20    .. .    TST      r7,#0x20
        0x000032f2:    eb0005c2    ....    ADD      r5,r0,r2,LSL #3
        0x000032f6:    bf08        ..      IT       EQ
        0x000032f8:    e8bd83f8    ....    POPEQ    {r3-r9,pc}
        0x000032fc:    e007        ..      B        0x330e ; am_hal_uart_service_buffered_timeout_save + 182
        0x000032fe:    4628        (F      MOV      r0,r5
        0x00003300:    2201        ."      MOVS     r2,#1
        0x00003302:    4669        iF      MOV      r1,sp
        0x00003304:    f7fffd76    ..v.    BL       am_hal_queue_item_get ; 0x2df4
        0x00003308:    f89d0000    ....    LDRB     r0,[sp,#0]
        0x0000330c:    6020         `      STR      r0,[r4,#0]
        0x0000330e:    68a8        .h      LDR      r0,[r5,#8]
        0x00003310:    2800        .(      CMP      r0,#0
        0x00003312:    bf08        ..      IT       EQ
        0x00003314:    e8bd83f8    ....    POPEQ    {r3-r9,pc}
        0x00003318:    69a0        .i      LDR      r0,[r4,#0x18]
        0x0000331a:    f0100f20    .. .    TST      r0,#0x20
        0x0000331e:    d0ee        ..      BEQ      0x32fe ; am_hal_uart_service_buffered_timeout_save + 166
        0x00003320:    e8bd83f8    ....    POP      {r3-r9,pc}
    $d
        0x00003324:    10000458    X...    DCD    268436568
        0x00003328:    10000428    (...    DCD    268436520
    $t
    i.am_hal_uart_string_transmit_polled
    am_hal_uart_string_transmit_polled
        0x0000332c:    780a        .x      LDRB     r2,[r1,#0]
        0x0000332e:    2a00        .*      CMP      r2,#0
        0x00003330:    bf08        ..      IT       EQ
        0x00003332:    4770        pG      BXEQ     lr
        0x00003334:    0300        ..      LSLS     r0,r0,#12
        0x00003336:    f1004080    ...@    ADD      r0,r0,#0x40000000
        0x0000333a:    f50030e0    ...0    ADD      r0,r0,#0x1c000
        0x0000333e:    6982        .i      LDR      r2,[r0,#0x18]
        0x00003340:    f0120f20    .. .    TST      r2,#0x20
        0x00003344:    d1fb        ..      BNE      0x333e ; am_hal_uart_string_transmit_polled + 18
        0x00003346:    f8112b01    ...+    LDRB     r2,[r1],#1
        0x0000334a:    6002        .`      STR      r2,[r0,#0]
        0x0000334c:    780a        .x      LDRB     r2,[r1,#0]
        0x0000334e:    2a00        .*      CMP      r2,#0
        0x00003350:    d1f5        ..      BNE      0x333e ; am_hal_uart_string_transmit_polled + 18
        0x00003352:    4770        pG      BX       lr
    i.am_hal_vcomp_disable
    am_hal_vcomp_disable
        0x00003354:    4901        .I      LDR      r1,[pc,#4] ; [0x335c] = 0x4000c000
        0x00003356:    2037        7       MOVS     r0,#0x37
        0x00003358:    6088        .`      STR      r0,[r1,#8]
        0x0000335a:    4770        pG      BX       lr
    $d
        0x0000335c:    4000c000    ...@    DCD    1073790976
    $t
    i.am_iomaster5_isr
    am_iomaster5_isr
        0x00003360:    b510        ..      PUSH     {r4,lr}
        0x00003362:    2100        .!      MOVS     r1,#0
        0x00003364:    2005        .       MOVS     r0,#5
        0x00003366:    f7fefb25    ..%.    BL       am_hal_iom_int_status_get ; 0x19b4
        0x0000336a:    4604        .F      MOV      r4,r0
        0x0000336c:    4621        !F      MOV      r1,r4
        0x0000336e:    2005        .       MOVS     r0,#5
        0x00003370:    f7fefa52    ..R.    BL       am_hal_iom_int_clear ; 0x1818
        0x00003374:    4621        !F      MOV      r1,r4
        0x00003376:    2005        .       MOVS     r0,#5
        0x00003378:    f7fefa68    ..h.    BL       am_hal_iom_int_service ; 0x184c
        0x0000337c:    bd10        ..      POP      {r4,pc}
        0x0000337e:    0000        ..      MOVS     r0,r0
    i.am_uart_isr
    am_uart_isr
        0x00003380:    b510        ..      PUSH     {r4,lr}
        0x00003382:    2101        .!      MOVS     r1,#1
        0x00003384:    2000        .       MOVS     r0,#0
        0x00003386:    f7ffff29    ..).    BL       am_hal_uart_int_status_get ; 0x31dc
        0x0000338a:    4604        .F      MOV      r4,r0
        0x0000338c:    4621        !F      MOV      r1,r4
        0x0000338e:    2000        .       MOVS     r0,#0
        0x00003390:    f7ffff14    ....    BL       am_hal_uart_int_clear ; 0x31bc
        0x00003394:    f0040070    ..p.    AND      r0,r4,#0x70
        0x00003398:    b118        ..      CBZ      r0,0x33a2 ; am_uart_isr + 34
        0x0000339a:    4621        !F      MOV      r1,r4
        0x0000339c:    2000        .       MOVS     r0,#0
        0x0000339e:    f7ffff5b    ..[.    BL       am_hal_uart_service_buffered_timeout_save ; 0x3258
        0x000033a2:    f0040040    ..@.    AND      r0,r4,#0x40
        0x000033a6:    b110        ..      CBZ      r0,0x33ae ; am_uart_isr + 46
        0x000033a8:    2001        .       MOVS     r0,#1
        0x000033aa:    4901        .I      LDR      r1,[pc,#4] ; [0x33b0] = 0x10000019
        0x000033ac:    7008        .p      STRB     r0,[r1,#0]
        0x000033ae:    bd10        ..      POP      {r4,pc}
    $d
        0x000033b0:    10000019    ....    DCD    268435481
    $t
    i.am_util_delay_ms
    am_util_delay_ms
        0x000033b4:    b570        p.      PUSH     {r4-r6,lr}
        0x000033b6:    4604        .F      MOV      r4,r0
        0x000033b8:    f7fdfdfc    ....    BL       am_hal_clkgen_sysclk_get ; 0xfb4
        0x000033bc:    4606        .F      MOV      r6,r0
        0x000033be:    f64030b8    @..0    MOV      r0,#0xbb8
        0x000033c2:    fbb6f0f0    ....    UDIV     r0,r6,r0
        0x000033c6:    fb00f504    ....    MUL      r5,r0,r4
        0x000033ca:    4628        (F      MOV      r0,r5
        0x000033cc:    f7fdff40    ..@.    BL       am_hal_flash_delay ; 0x1250
        0x000033d0:    bd70        p.      POP      {r4-r6,pc}
        0x000033d2:    0000        ..      MOVS     r0,r0
    i.am_util_faultisr_collect_data
    am_util_faultisr_collect_data
        0x000033d4:    b092        ..      SUB      sp,sp,#0x48
        0x000033d6:    4604        .F      MOV      r4,r0
        0x000033d8:    2118        .!      MOVS     r1,#0x18
        0x000033da:    4668        hF      MOV      r0,sp
        0x000033dc:    f7fcff4d    ..M.    BL       __aeabi_memclr4 ; 0x27a
        0x000033e0:    2500        .%      MOVS     r5,#0
        0x000033e2:    9510        ..      STR      r5,[sp,#0x40]
        0x000033e4:    4828        (H      LDR      r0,[pc,#160] ; [0x3488] = 0xe000ed28
        0x000033e6:    6800        .h      LDR      r0,[r0,#0]
        0x000033e8:    9010        ..      STR      r0,[sp,#0x40]
        0x000033ea:    9810        ..      LDR      r0,[sp,#0x40]
        0x000033ec:    b2c0        ..      UXTB     r0,r0
        0x000033ee:    f88d0044    ..D.    STRB     r0,[sp,#0x44]
        0x000033f2:    9810        ..      LDR      r0,[sp,#0x40]
        0x000033f4:    0a00        ..      LSRS     r0,r0,#8
        0x000033f6:    f88d0045    ..E.    STRB     r0,[sp,#0x45]
        0x000033fa:    9810        ..      LDR      r0,[sp,#0x40]
        0x000033fc:    f64f71ff    O..q    MOV      r1,#0xffff
        0x00003400:    ea014010    ...@    AND      r0,r1,r0,LSR #16
        0x00003404:    f8ad0046    ..F.    STRH     r0,[sp,#0x46]
        0x00003408:    481f        .H      LDR      r0,[pc,#124] ; [0x3488] = 0xe000ed28
        0x0000340a:    3010        .0      ADDS     r0,r0,#0x10
        0x0000340c:    6800        .h      LDR      r0,[r0,#0]
        0x0000340e:    900f        ..      STR      r0,[sp,#0x3c]
        0x00003410:    f89d0045    ..E.    LDRB     r0,[sp,#0x45]
        0x00003414:    f0000002    ....    AND      r0,r0,#2
        0x00003418:    b120         .      CBZ      r0,0x3424 ; am_util_faultisr_collect_data + 80
        0x0000341a:    4621        !F      MOV      r1,r4
        0x0000341c:    2006        .       MOVS     r0,#6
        0x0000341e:    f7fcfeb9    ....    BL       getStackedReg ; 0x194
        0x00003422:    e001        ..      B        0x3428 ; am_util_faultisr_collect_data + 84
        0x00003424:    f04f30ff    O..0    MOV      r0,#0xffffffff
        0x00003428:    900e        ..      STR      r0,[sp,#0x38]
        0x0000342a:    4621        !F      MOV      r1,r4
        0x0000342c:    2000        .       MOVS     r0,#0
        0x0000342e:    f7fcfeb1    ....    BL       getStackedReg ; 0x194
        0x00003432:    9006        ..      STR      r0,[sp,#0x18]
        0x00003434:    4621        !F      MOV      r1,r4
        0x00003436:    2001        .       MOVS     r0,#1
        0x00003438:    f7fcfeac    ....    BL       getStackedReg ; 0x194
        0x0000343c:    9007        ..      STR      r0,[sp,#0x1c]
        0x0000343e:    4621        !F      MOV      r1,r4
        0x00003440:    2002        .       MOVS     r0,#2
        0x00003442:    f7fcfea7    ....    BL       getStackedReg ; 0x194
        0x00003446:    9008        ..      STR      r0,[sp,#0x20]
        0x00003448:    4621        !F      MOV      r1,r4
        0x0000344a:    2003        .       MOVS     r0,#3
        0x0000344c:    f7fcfea2    ....    BL       getStackedReg ; 0x194
        0x00003450:    9009        ..      STR      r0,[sp,#0x24]
        0x00003452:    4621        !F      MOV      r1,r4
        0x00003454:    2004        .       MOVS     r0,#4
        0x00003456:    f7fcfe9d    ....    BL       getStackedReg ; 0x194
        0x0000345a:    900a        ..      STR      r0,[sp,#0x28]
        0x0000345c:    4621        !F      MOV      r1,r4
        0x0000345e:    2005        .       MOVS     r0,#5
        0x00003460:    f7fcfe98    ....    BL       getStackedReg ; 0x194
        0x00003464:    900b        ..      STR      r0,[sp,#0x2c]
        0x00003466:    4621        !F      MOV      r1,r4
        0x00003468:    2006        .       MOVS     r0,#6
        0x0000346a:    f7fcfe93    ....    BL       getStackedReg ; 0x194
        0x0000346e:    900c        ..      STR      r0,[sp,#0x30]
        0x00003470:    4621        !F      MOV      r1,r4
        0x00003472:    2007        .       MOVS     r0,#7
        0x00003474:    f7fcfe8e    ....    BL       getStackedReg ; 0x194
        0x00003478:    900d        ..      STR      r0,[sp,#0x34]
        0x0000347a:    4668        hF      MOV      r0,sp
        0x0000347c:    f7fffa9a    ....    BL       am_hal_mcuctrl_fault_status ; 0x29b4
        0x00003480:    bf00        ..      NOP      
        0x00003482:    bf00        ..      NOP      
        0x00003484:    e7fe        ..      B        0x3484 ; am_util_faultisr_collect_data + 176
    $d
        0x00003486:    0000        ..      DCW    0
        0x00003488:    e000ed28    (...    DCD    3758157096
    $t
    i.am_util_stdio_printf_init
    am_util_stdio_printf_init
        0x0000348c:    4901        .I      LDR      r1,[pc,#4] ; [0x3494] = 0x1000001c
        0x0000348e:    6008        .`      STR      r0,[r1,#0]
        0x00003490:    4770        pG      BX       lr
    $d
        0x00003492:    0000        ..      DCW    0
        0x00003494:    1000001c    ....    DCD    268435484
    $t
    i.em9304_init
    em9304_init
        0x00003498:    b508        ..      PUSH     {r3,lr}
        0x0000349a:    f7fcfe83    ....    BL       am_hal_interrupt_master_disable ; 0x1a4
        0x0000349e:    9000        ..      STR      r0,[sp,#0]
        0x000034a0:    2073        s       MOVS     r0,#0x73
        0x000034a2:    492b        +I      LDR      r1,[pc,#172] ; [0x3550] = 0x40010000
        0x000034a4:    6608        .f      STR      r0,[r1,#0x60]
        0x000034a6:    4608        .F      MOV      r0,r1
        0x000034a8:    6d40        @m      LDR      r0,[r0,#0x54]
        0x000034aa:    f42060e0     ..`    BIC      r0,r0,#0x700
        0x000034ae:    f4407000    @..p    ORR      r0,r0,#0x200
        0x000034b2:    6548        He      STR      r0,[r1,#0x54]
        0x000034b4:    4608        .F      MOV      r0,r1
        0x000034b6:    6a80        .j      LDR      r0,[r0,#0x28]
        0x000034b8:    f420007f     ...    BIC      r0,r0,#0xff0000
        0x000034bc:    f44010c0    @...    ORR      r0,r0,#0x180000
        0x000034c0:    6288        .b      STR      r0,[r1,#0x28]
        0x000034c2:    4824        $H      LDR      r0,[pc,#144] ; [0x3554] = 0x40010108
        0x000034c4:    6800        .h      LDR      r0,[r0,#0]
        0x000034c6:    f420007f     ...    BIC      r0,r0,#0xff0000
        0x000034ca:    f8c10108    ....    STR      r0,[r1,#0x108]
        0x000034ce:    2000        .       MOVS     r0,#0
        0x000034d0:    6608        .f      STR      r0,[r1,#0x60]
        0x000034d2:    9800        ..      LDR      r0,[sp,#0]
        0x000034d4:    f7fcfe6a    ..j.    BL       am_hal_interrupt_master_set ; 0x1ac
        0x000034d8:    f7fcfe64    ..d.    BL       am_hal_interrupt_master_disable ; 0x1a4
        0x000034dc:    9000        ..      STR      r0,[sp,#0]
        0x000034de:    2073        s       MOVS     r0,#0x73
        0x000034e0:    491b        .I      LDR      r1,[pc,#108] ; [0x3550] = 0x40010000
        0x000034e2:    6608        .f      STR      r0,[r1,#0x60]
        0x000034e4:    4608        .F      MOV      r0,r1
        0x000034e6:    6cc0        .l      LDR      r0,[r0,#0x4c]
        0x000034e8:    f02060e0     ..`    BIC      r0,r0,#0x7000000
        0x000034ec:    f0407000    @..p    ORR      r0,r0,#0x2000000
        0x000034f0:    64c8        .d      STR      r0,[r1,#0x4c]
        0x000034f2:    4608        .F      MOV      r0,r1
        0x000034f4:    69c0        .i      LDR      r0,[r0,#0x1c]
        0x000034f6:    f420007f     ...    BIC      r0,r0,#0xff0000
        0x000034fa:    f44010c0    @...    ORR      r0,r0,#0x180000
        0x000034fe:    61c8        .a      STR      r0,[r1,#0x1c]
        0x00003500:    4608        .F      MOV      r0,r1
        0x00003502:    f8d000fc    ....    LDR      r0,[r0,#0xfc]
        0x00003506:    f420007f     ...    BIC      r0,r0,#0xff0000
        0x0000350a:    4912        .I      LDR      r1,[pc,#72] ; [0x3554] = 0x40010108
        0x0000350c:    390c        .9      SUBS     r1,r1,#0xc
        0x0000350e:    6008        .`      STR      r0,[r1,#0]
        0x00003510:    2000        .       MOVS     r0,#0
        0x00003512:    490f        .I      LDR      r1,[pc,#60] ; [0x3550] = 0x40010000
        0x00003514:    6608        .f      STR      r0,[r1,#0x60]
        0x00003516:    9800        ..      LDR      r0,[sp,#0]
        0x00003518:    f7fcfe48    ..H.    BL       am_hal_interrupt_master_set ; 0x1ac
        0x0000351c:    f44f6080    O..`    MOV      r0,#0x400
        0x00003520:    490b        .I      LDR      r1,[pc,#44] ; [0x3550] = 0x40010000
        0x00003522:    f8c1009c    ....    STR      r0,[r1,#0x9c]
        0x00003526:    f7fdfb17    ....    BL       am_devices_em9304_config_pins ; 0xb58
        0x0000352a:    490b        .I      LDR      r1,[pc,#44] ; [0x3558] = 0x3888
        0x0000352c:    6848        Hh      LDR      r0,[r1,#4]
        0x0000352e:    490b        .I      LDR      r1,[pc,#44] ; [0x355c] = 0x387c
        0x00003530:    f7fdfc06    ....    BL       am_devices_em9304_spi_init ; 0xd40
        0x00003534:    f7fdfbe2    ....    BL       am_devices_em9304_enable_interrupt ; 0xcfc
        0x00003538:    2005        .       MOVS     r0,#5
        0x0000353a:    f7ffff3b    ..;.    BL       am_util_delay_ms ; 0x33b4
        0x0000353e:    f44f6080    O..`    MOV      r0,#0x400
        0x00003542:    4903        .I      LDR      r1,[pc,#12] ; [0x3550] = 0x40010000
        0x00003544:    f8c10094    ....    STR      r0,[r1,#0x94]
        0x00003548:    2014        .       MOVS     r0,#0x14
        0x0000354a:    f7ffff33    ..3.    BL       am_util_delay_ms ; 0x33b4
        0x0000354e:    bd08        ..      POP      {r3,pc}
    $d
        0x00003550:    40010000    ...@    DCD    1073807360
        0x00003554:    40010108    ...@    DCD    1073807624
        0x00003558:    00003888    .8..    DCD    14472
        0x0000355c:    0000387c    |8..    DCD    14460
    $t
    i.internal_iom_get_int_err
    internal_iom_get_int_err
        0x00003560:    4602        .F      MOV      r2,r0
        0x00003562:    2000        .       MOVS     r0,#0
        0x00003564:    2a06        .*      CMP      r2,#6
        0x00003566:    bf2f        /.      ITEEE    CS
        0x00003568:    2200        ."      MOVCS    r2,#0
        0x0000356a:    0312        ..      LSLCC    r2,r2,#12
        0x0000356c:    f5024280    ...B    ADDCC    r2,r2,#0x4000
        0x00003570:    f10242a0    ...B    ADDCC    r2,r2,#0x50000000
        0x00003574:    bf38        8.      IT       CC
        0x00003576:    f8d22204    ..."    LDRCC    r2,[r2,#0x204]
        0x0000357a:    4311        .C      ORRS     r1,r1,r2
        0x0000357c:    f0110fcc    ....    TST      r1,#0xcc
        0x00003580:    bf1c        ..      ITT      NE
        0x00003582:    2005        .       MOVNE    r0,#5
        0x00003584:    4770        pG      BXNE     lr
        0x00003586:    f4116fe0    ...o    TST      r1,#0x700
        0x0000358a:    bf1c        ..      ITT      NE
        0x0000358c:    2007        .       MOVNE    r0,#7
        0x0000358e:    4770        pG      BXNE     lr
        0x00003590:    f0110f10    ....    TST      r1,#0x10
        0x00003594:    bf18        ..      IT       NE
        0x00003596:    2006        .       MOVNE    r0,#6
        0x00003598:    4770        pG      BX       lr
        0x0000359a:    0000        ..      MOVS     r0,r0
    i.iom_write_complete
    iom_write_complete
        0x0000359c:    2001        .       MOVS     r0,#1
        0x0000359e:    4901        .I      LDR      r1,[pc,#4] ; [0x35a4] = 0x10000022
        0x000035a0:    7008        .p      STRB     r0,[r1,#0]
        0x000035a2:    4770        pG      BX       lr
    $d
        0x000035a4:    10000022    "...    DCD    268435490
    $t
    i.isRevB2
    isRevB2
        0x000035a8:    4804        .H      LDR      r0,[pc,#16] ; [0x35bc] = 0x40020000
        0x000035aa:    68c0        .h      LDR      r0,[r0,#0xc]
        0x000035ac:    b2c0        ..      UXTB     r0,r0
        0x000035ae:    2822        "(      CMP      r0,#0x22
        0x000035b0:    d101        ..      BNE      0x35b6 ; isRevB2 + 14
        0x000035b2:    2001        .       MOVS     r0,#1
        0x000035b4:    4770        pG      BX       lr
        0x000035b6:    2000        .       MOVS     r0,#0
        0x000035b8:    e7fc        ..      B        0x35b4 ; isRevB2 + 12
    $d
        0x000035ba:    0000        ..      DCW    0
        0x000035bc:    40020000    ...@    DCD    1073872896
    $t
    i.main
    main
        0x000035c0:    2000        .       MOVS     r0,#0
        0x000035c2:    f7fdfd09    ....    BL       am_hal_clkgen_sysclk_select ; 0xfd8
        0x000035c6:    483b        ;H      LDR      r0,[pc,#236] ; [0x36b4] = 0x3898
        0x000035c8:    f7fdfc82    ....    BL       am_hal_cachectrl_enable ; 0xed0
        0x000035cc:    f7fdf828    ..(.    BL       am_bsp_low_power_init ; 0x620
        0x000035d0:    2103        .!      MOVS     r1,#3
        0x000035d2:    4839        9H      LDR      r0,[pc,#228] ; [0x36b8] = 0x10000030
        0x000035d4:    f7fdf85a    ..Z.    BL       am_devices_button_array_init ; 0x68c
        0x000035d8:    f000f8c0    ....    BL       timer_init ; 0x375c
        0x000035dc:    f7ffff5c    ..\.    BL       em9304_init ; 0x3498
        0x000035e0:    2000        .       MOVS     r0,#0
        0x000035e2:    f000f8d9    ....    BL       uart_init ; 0x3798
        0x000035e6:    4835        5H      LDR      r0,[pc,#212] ; [0x36bc] = 0x643
        0x000035e8:    f7ffff50    ..P.    BL       am_util_stdio_printf_init ; 0x348c
        0x000035ec:    201c        .       MOVS     r0,#0x1c
        0x000035ee:    f7fdfe9d    ....    BL       am_hal_interrupt_enable ; 0x132c
        0x000035f2:    f7fcfdd3    ....    BL       am_hal_interrupt_master_enable ; 0x19c
        0x000035f6:    e05b        [.      B        0x36b0 ; main + 240
        0x000035f8:    4831        1H      LDR      r0,[pc,#196] ; [0x36c0] = 0x10000018
        0x000035fa:    7800        .x      LDRB     r0,[r0,#0]
        0x000035fc:    b1d8        ..      CBZ      r0,0x3636 ; main + 118
        0x000035fe:    2000        .       MOVS     r0,#0
        0x00003600:    492f        /I      LDR      r1,[pc,#188] ; [0x36c0] = 0x10000018
        0x00003602:    7008        .p      STRB     r0,[r1,#0]
        0x00003604:    492f        /I      LDR      r1,[pc,#188] ; [0x36c4] = 0x3888
        0x00003606:    6848        Hh      LDR      r0,[r1,#4]
        0x00003608:    f7fdfb80    ....    BL       am_devices_em9304_spi_awake ; 0xd0c
        0x0000360c:    2200        ."      MOVS     r2,#0
        0x0000360e:    492e        .I      LDR      r1,[pc,#184] ; [0x36c8] = 0x10000090
        0x00003610:    482c        ,H      LDR      r0,[pc,#176] ; [0x36c4] = 0x3888
        0x00003612:    f7fdf991    ....    BL       am_devices_em9304_block_read ; 0x938
        0x00003616:    4604        .F      MOV      r4,r0
        0x00003618:    492a        *I      LDR      r1,[pc,#168] ; [0x36c4] = 0x3888
        0x0000361a:    6848        Hh      LDR      r0,[r1,#4]
        0x0000361c:    f7fdfbc0    ....    BL       am_devices_em9304_spi_sleep ; 0xda0
        0x00003620:    2500        .%      MOVS     r5,#0
        0x00003622:    e006        ..      B        0x3632 ; main + 114
        0x00003624:    4829        )H      LDR      r0,[pc,#164] ; [0x36cc] = 0x10000014
        0x00003626:    6800        .h      LDR      r0,[r0,#0]
        0x00003628:    5d41        A]      LDRB     r1,[r0,r5]
        0x0000362a:    2000        .       MOVS     r0,#0
        0x0000362c:    f7fffcd4    ....    BL       am_hal_uart_char_transmit_buffered ; 0x2fd8
        0x00003630:    1c6d        m.      ADDS     r5,r5,#1
        0x00003632:    42a5        .B      CMP      r5,r4
        0x00003634:    d3f6        ..      BCC      0x3624 ; main + 100
        0x00003636:    4826        &H      LDR      r0,[pc,#152] ; [0x36d0] = 0x10000019
        0x00003638:    7800        .x      LDRB     r0,[r0,#0]
        0x0000363a:    b1d0        ..      CBZ      r0,0x3672 ; main + 178
        0x0000363c:    2000        .       MOVS     r0,#0
        0x0000363e:    4924        $I      LDR      r1,[pc,#144] ; [0x36d0] = 0x10000019
        0x00003640:    7008        .p      STRB     r0,[r1,#0]
        0x00003642:    2280        ."      MOVS     r2,#0x80
        0x00003644:    4923        #I      LDR      r1,[pc,#140] ; [0x36d4] = 0x10000110
        0x00003646:    f7fffca9    ....    BL       am_hal_uart_char_receive_buffered ; 0x2f9c
        0x0000364a:    4604        .F      MOV      r4,r0
        0x0000364c:    b18c        ..      CBZ      r4,0x3672 ; main + 178
        0x0000364e:    491d        .I      LDR      r1,[pc,#116] ; [0x36c4] = 0x3888
        0x00003650:    6848        Hh      LDR      r0,[r1,#4]
        0x00003652:    f7fdfb5b    ..[.    BL       am_devices_em9304_spi_awake ; 0xd0c
        0x00003656:    1e63        c.      SUBS     r3,r4,#1
        0x00003658:    481e        .H      LDR      r0,[pc,#120] ; [0x36d4] = 0x10000110
        0x0000365a:    7801        .x      LDRB     r1,[r0,#0]
        0x0000365c:    1c42        B.      ADDS     r2,r0,#1
        0x0000365e:    4819        .H      LDR      r0,[pc,#100] ; [0x36c4] = 0x3888
        0x00003660:    f7fdfa08    ....    BL       am_devices_em9304_block_write ; 0xa74
        0x00003664:    4917        .I      LDR      r1,[pc,#92] ; [0x36c4] = 0x3888
        0x00003666:    6848        Hh      LDR      r0,[r1,#4]
        0x00003668:    f7fdfb9a    ....    BL       am_devices_em9304_spi_sleep ; 0xda0
        0x0000366c:    2001        .       MOVS     r0,#1
        0x0000366e:    4914        .I      LDR      r1,[pc,#80] ; [0x36c0] = 0x10000018
        0x00003670:    7008        .p      STRB     r0,[r1,#0]
        0x00003672:    4811        .H      LDR      r0,[pc,#68] ; [0x36b8] = 0x10000030
        0x00003674:    f7fdf87a    ..z.    BL       am_devices_button_tick ; 0x76c
        0x00003678:    480f        .H      LDR      r0,[pc,#60] ; [0x36b8] = 0x10000030
        0x0000367a:    7b00        .{      LDRB     r0,[r0,#0xc]
        0x0000367c:    2801        .(      CMP      r0,#1
        0x0000367e:    d117        ..      BNE      0x36b0 ; main + 240
        0x00003680:    480d        .H      LDR      r0,[pc,#52] ; [0x36b8] = 0x10000030
        0x00003682:    7b40        @{      LDRB     r0,[r0,#0xd]
        0x00003684:    2801        .(      CMP      r0,#1
        0x00003686:    d113        ..      BNE      0x36b0 ; main + 240
        0x00003688:    4913        .I      LDR      r1,[pc,#76] ; [0x36d8] = 0x1000001a
        0x0000368a:    7008        .p      STRB     r0,[r1,#0]
        0x0000368c:    0280        ..      LSLS     r0,r0,#10
        0x0000368e:    4913        .I      LDR      r1,[pc,#76] ; [0x36dc] = 0x4001009c
        0x00003690:    6008        .`      STR      r0,[r1,#0]
        0x00003692:    2005        .       MOVS     r0,#5
        0x00003694:    f7fffe8e    ....    BL       am_util_delay_ms ; 0x33b4
        0x00003698:    f44f6080    O..`    MOV      r0,#0x400
        0x0000369c:    490f        .I      LDR      r1,[pc,#60] ; [0x36dc] = 0x4001009c
        0x0000369e:    399c        .9      SUBS     r1,r1,#0x9c
        0x000036a0:    f8c10094    ....    STR      r0,[r1,#0x94]
        0x000036a4:    2005        .       MOVS     r0,#5
        0x000036a6:    f7fffe85    ....    BL       am_util_delay_ms ; 0x33b4
        0x000036aa:    2000        .       MOVS     r0,#0
        0x000036ac:    490a        .I      LDR      r1,[pc,#40] ; [0x36d8] = 0x1000001a
        0x000036ae:    7008        .p      STRB     r0,[r1,#0]
        0x000036b0:    e7a2        ..      B        0x35f8 ; main + 56
    $d
        0x000036b2:    0000        ..      DCW    0
        0x000036b4:    00003898    .8..    DCD    14488
        0x000036b8:    10000030    0...    DCD    268435504
        0x000036bc:    00000643    C...    DCD    1603
        0x000036c0:    10000018    ....    DCD    268435480
        0x000036c4:    00003888    .8..    DCD    14472
        0x000036c8:    10000090    ....    DCD    268435600
        0x000036cc:    10000014    ....    DCD    268435476
        0x000036d0:    10000019    ....    DCD    268435481
        0x000036d4:    10000110    ....    DCD    268435728
        0x000036d8:    1000001a    ....    DCD    268435482
        0x000036dc:    4001009c    ...@    DCD    1073807516
    $t
    i.setBuckZX
    setBuckZX
        0x000036e0:    b5f8        ..      PUSH     {r3-r7,lr}
        0x000036e2:    4614        .F      MOV      r4,r2
        0x000036e4:    460e        .F      MOV      r6,r1
        0x000036e6:    4605        .F      MOV      r5,r0
        0x000036e8:    f7fcfd5c    ..\.    BL       am_hal_interrupt_master_disable ; 0x1a4
        0x000036ec:    4b19        .K      LDR      r3,[pc,#100] ; [0x3754] = 0x40020000
        0x000036ee:    9000        ..      STR      r0,[sp,#0]
        0x000036f0:    6e98        .n      LDR      r0,[r3,#0x68]
        0x000036f2:    6e99        .n      LDR      r1,[r3,#0x68]
        0x000036f4:    f3c00083    ....    UBFX     r0,r0,#2,#4
        0x000036f8:    4a17        .J      LDR      r2,[pc,#92] ; [0x3758] = 0x10000074
        0x000036fa:    f3c13143    ..C1    UBFX     r1,r1,#13,#4
        0x000036fe:    f0140f02    ....    TST      r4,#2
        0x00003702:    bf14        ..      ITE      NE
        0x00003704:    e9d25604    ...V    LDRDNE   r5,r6,[r2,#0x10]
        0x00003708:    f0140f01    ....    TSTEQ    r4,#1
        0x0000370c:    d011        ..      BEQ      0x3732 ; setBuckZX + 82
        0x0000370e:    f0140f10    ....    TST      r4,#0x10
        0x00003712:    d005        ..      BEQ      0x3720 ; setBuckZX + 64
        0x00003714:    f8d3c068    ..h.    LDR      r12,[r3,#0x68]
        0x00003718:    f3650c85    e...    BFI      r12,r5,#2,#4
        0x0000371c:    f8c3c068    ..h.    STR      r12,[r3,#0x68]
        0x00003720:    f0140f20    .. .    TST      r4,#0x20
        0x00003724:    d005        ..      BEQ      0x3732 ; setBuckZX + 82
        0x00003726:    f8d3c068    ..h.    LDR      r12,[r3,#0x68]
        0x0000372a:    f3663c50    f.P<    BFI      r12,r6,#13,#4
        0x0000372e:    f8c3c068    ..h.    STR      r12,[r3,#0x68]
        0x00003732:    f0140f04    ....    TST      r4,#4
        0x00003736:    d007        ..      BEQ      0x3748 ; setBuckZX + 104
        0x00003738:    f0140f10    ....    TST      r4,#0x10
        0x0000373c:    bf18        ..      IT       NE
        0x0000373e:    6110        .a      STRNE    r0,[r2,#0x10]
        0x00003740:    f0140f20    .. .    TST      r4,#0x20
        0x00003744:    bf18        ..      IT       NE
        0x00003746:    6151        Qa      STRNE    r1,[r2,#0x14]
        0x00003748:    9800        ..      LDR      r0,[sp,#0]
        0x0000374a:    e8bd40f8    ...@    POP      {r3-r7,lr}
        0x0000374e:    f7fcbd2d    ..-.    B        am_hal_interrupt_master_set ; 0x1ac
    $d
        0x00003752:    0000        ..      DCW    0
        0x00003754:    40020000    ...@    DCD    1073872896
        0x00003758:    10000074    t...    DCD    268435572
    $t
    i.timer_init
    timer_init
        0x0000375c:    b510        ..      PUSH     {r4,lr}
        0x0000375e:    f44f7211    O..r    MOV      r2,#0x244
        0x00003762:    f64f71ff    O..q    MOV      r1,#0xffff
        0x00003766:    2000        .       MOVS     r0,#0
        0x00003768:    f7fdfca2    ....    BL       am_hal_ctimer_config_single ; 0x10b0
        0x0000376c:    2001        .       MOVS     r0,#1
        0x0000376e:    f7fdfced    ....    BL       am_hal_ctimer_int_enable ; 0x114c
        0x00003772:    2319        .#      MOVS     r3,#0x19
        0x00003774:    2231        1"      MOVS     r2,#0x31
        0x00003776:    f64f71ff    O..q    MOV      r1,#0xffff
        0x0000377a:    2000        .       MOVS     r0,#0
        0x0000377c:    f7fdfd10    ....    BL       am_hal_ctimer_period_set ; 0x11a0
        0x00003780:    f64f71ff    O..q    MOV      r1,#0xffff
        0x00003784:    2000        .       MOVS     r0,#0
        0x00003786:    f7fdfd49    ..I.    BL       am_hal_ctimer_start ; 0x121c
        0x0000378a:    2001        .       MOVS     r0,#1
        0x0000378c:    f7fdfcde    ....    BL       am_hal_ctimer_int_enable ; 0x114c
        0x00003790:    201d        .       MOVS     r0,#0x1d
        0x00003792:    f7fdfdcb    ....    BL       am_hal_interrupt_enable ; 0x132c
        0x00003796:    bd10        ..      POP      {r4,pc}
    i.uart_init
    uart_init
        0x00003798:    b538        8.      PUSH     {r3-r5,lr}
        0x0000379a:    4604        .F      MOV      r4,r0
        0x0000379c:    f7fcfd02    ....    BL       am_hal_interrupt_master_disable ; 0x1a4
        0x000037a0:    9000        ..      STR      r0,[sp,#0]
        0x000037a2:    2073        s       MOVS     r0,#0x73
        0x000037a4:    492e        .I      LDR      r1,[pc,#184] ; [0x3860] = 0x40010000
        0x000037a6:    6608        .f      STR      r0,[r1,#0x60]
        0x000037a8:    4608        .F      MOV      r0,r1
        0x000037aa:    6c80        .l      LDR      r0,[r0,#0x48]
        0x000037ac:    f02060e0     ..`    BIC      r0,r0,#0x7000000
        0x000037b0:    6488        .d      STR      r0,[r1,#0x48]
        0x000037b2:    4608        .F      MOV      r0,r1
        0x000037b4:    6940        @i      LDR      r0,[r0,#0x14]
        0x000037b6:    f420007f     ...    BIC      r0,r0,#0xff0000
        0x000037ba:    6148        Ha      STR      r0,[r1,#0x14]
        0x000037bc:    4828        (H      LDR      r0,[pc,#160] ; [0x3860] = 0x40010000
        0x000037be:    30f4        .0      ADDS     r0,r0,#0xf4
        0x000037c0:    6800        .h      LDR      r0,[r0,#0]
        0x000037c2:    f420007f     ...    BIC      r0,r0,#0xff0000
        0x000037c6:    f8c100f4    ....    STR      r0,[r1,#0xf4]
        0x000037ca:    2000        .       MOVS     r0,#0
        0x000037cc:    6608        .f      STR      r0,[r1,#0x60]
        0x000037ce:    9800        ..      LDR      r0,[sp,#0]
        0x000037d0:    f7fcfcec    ....    BL       am_hal_interrupt_master_set ; 0x1ac
        0x000037d4:    f7fcfce6    ....    BL       am_hal_interrupt_master_disable ; 0x1a4
        0x000037d8:    9000        ..      STR      r0,[sp,#0]
        0x000037da:    2073        s       MOVS     r0,#0x73
        0x000037dc:    4920         I      LDR      r1,[pc,#128] ; [0x3860] = 0x40010000
        0x000037de:    6608        .f      STR      r0,[r1,#0x60]
        0x000037e0:    4608        .F      MOV      r0,r1
        0x000037e2:    6c80        .l      LDR      r0,[r0,#0x48]
        0x000037e4:    f02040e0     ..@    BIC      r0,r0,#0x70000000
        0x000037e8:    6488        .d      STR      r0,[r1,#0x48]
        0x000037ea:    4608        .F      MOV      r0,r1
        0x000037ec:    6940        @i      LDR      r0,[r0,#0x14]
        0x000037ee:    f020407f     ..@    BIC      r0,r0,#0xff000000
        0x000037f2:    f0407000    @..p    ORR      r0,r0,#0x2000000
        0x000037f6:    6148        Ha      STR      r0,[r1,#0x14]
        0x000037f8:    4608        .F      MOV      r0,r1
        0x000037fa:    f8d000f4    ....    LDR      r0,[r0,#0xf4]
        0x000037fe:    f020407f     ..@    BIC      r0,r0,#0xff000000
        0x00003802:    4917        .I      LDR      r1,[pc,#92] ; [0x3860] = 0x40010000
        0x00003804:    31f4        .1      ADDS     r1,r1,#0xf4
        0x00003806:    6008        .`      STR      r0,[r1,#0]
        0x00003808:    2000        .       MOVS     r0,#0
        0x0000380a:    4915        .I      LDR      r1,[pc,#84] ; [0x3860] = 0x40010000
        0x0000380c:    6608        .f      STR      r0,[r1,#0x60]
        0x0000380e:    9800        ..      LDR      r0,[sp,#0]
        0x00003810:    f7fcfccc    ....    BL       am_hal_interrupt_master_set ; 0x1ac
        0x00003814:    4620         F      MOV      r0,r4
        0x00003816:    f7fffceb    ....    BL       am_hal_uart_pwrctrl_enable ; 0x31f0
        0x0000381a:    4620         F      MOV      r0,r4
        0x0000381c:    f7fffbfc    ....    BL       am_hal_uart_clock_enable ; 0x3018
        0x00003820:    4620         F      MOV      r0,r4
        0x00003822:    f7fffc63    ..c.    BL       am_hal_uart_disable ; 0x30ec
        0x00003826:    490f        .I      LDR      r1,[pc,#60] ; [0x3864] = 0x10000000
        0x00003828:    4620         F      MOV      r0,r4
        0x0000382a:    f7fffc09    ....    BL       am_hal_uart_config ; 0x3040
        0x0000382e:    2112        .!      MOVS     r1,#0x12
        0x00003830:    4620         F      MOV      r0,r4
        0x00003832:    f7fffc84    ....    BL       am_hal_uart_fifo_config ; 0x313e
        0x00003836:    4620         F      MOV      r0,r4
        0x00003838:    f7fffc6d    ..m.    BL       am_hal_uart_enable ; 0x3116
        0x0000383c:    2151        Q!      MOVS     r1,#0x51
        0x0000383e:    4620         F      MOV      r0,r4
        0x00003840:    f7fffcc3    ....    BL       am_hal_uart_int_enable ; 0x31ca
        0x00003844:    2080        .       MOVS     r0,#0x80
        0x00003846:    4b08        .K      LDR      r3,[pc,#32] ; [0x3868] = 0x10000190
        0x00003848:    4602        .F      MOV      r2,r0
        0x0000384a:    4908        .I      LDR      r1,[pc,#32] ; [0x386c] = 0x10000210
        0x0000384c:    9000        ..      STR      r0,[sp,#0]
        0x0000384e:    4620         F      MOV      r0,r4
        0x00003850:    f7fffc80    ....    BL       am_hal_uart_init_buffered ; 0x3154
        0x00003854:    f104001e    ....    ADD      r0,r4,#0x1e
        0x00003858:    f7fdfd68    ..h.    BL       am_hal_interrupt_enable ; 0x132c
        0x0000385c:    bd38        8.      POP      {r3-r5,pc}
    $d
        0x0000385e:    0000        ..      DCW    0
        0x00003860:    40010000    ...@    DCD    1073807360
        0x00003864:    10000000    ....    DCD    268435456
        0x00003868:    10000190    ....    DCD    268435856
        0x0000386c:    10000210    ....    DCD    268435984
    $t
    x$fpl$fpinit
    $v0
    _fp_init
        0x00003870:    f04f7040    O.@p    MOV      r0,#0x3000000
        0x00003874:    eee10a10    ....    VMSR     FPSCR,r0
    __fplib_config_fpu_vfp
    __fplib_config_pureend_doubles
        0x00003878:    4770        pG      BX       lr
        0x0000387a:    0000        ..      MOVS     r0,r0
    $d.realdata
    .constdata
    g_sEm9304IOMConfigSPI
        0x0000387c:    00000001    ....    DCD    1
        0x00003880:    007a1200    ..z.    DCD    8000000
        0x00003884:    14140000    ....    DCD    336855040
    g_sEm9304
        0x00003888:    00000000    ....    DCD    0
        0x0000388c:    00000005    ....    DCD    5
        0x00003890:    0000002d    -...    DCD    45
        0x00003894:    0000001a    ....    DCD    26
    .constdata
    am_hal_cachectrl_defaults
        0x00003898:    50000001    ...P    DCD    1342177281
        0x0000389c:    00010300    ....    DCD    66304
        0x000038a0:    00010101    ....    DCD    65793
    .constdata
    i2c_bb_errmap
        0x000038a4:    01060600    ....    DCD    17171968
        0x000038a8:    01          .       DCB    1
    g_IOMPads
        0x000038a9:    001d06      ...     DCB    0,29,6
        0x000038ac:    01062200    ."..    DCD    17179136
        0x000038b0:    25010412    ...%    DCD    620823570
        0x000038b4:    06290205    ..).    DCD    103350789
        0x000038b8:    03041103    ....    DCD    50598147
        0x000038bc:    0a04042d    -...    DCD    168035373
        0x000038c0:    062e0406    ....    DCD    103678982
        0x000038c4:    05040905    ....    DCD    84150533
        0x000038c8:    2306062f    /..#    DCD    587597359
        0x000038cc:    06260704    ..&.    DCD    103155460
    g_I2CPads
        0x000038d0:    01000500    ....    DCD    16778496
        0x000038d4:    00020008    ....    DCD    131080
        0x000038d8:    042a0307    ..*.    DCD    69862151
        0x000038dc:    05042704    .'..    DCD    84158212
        0x000038e0:    1b020430    0...    DCD    453116976
        0x000038e4:    00000004    ....    DCD    4
    Region$$Table$$Base
        0x000038e8:    00003908    .9..    DCD    14600
        0x000038ec:    10000000    ....    DCD    268435456
        0x000038f0:    00000090    ....    DCD    144
        0x000038f4:    00000124    $...    DCD    292
        0x000038f8:    00003998    .9..    DCD    14744
        0x000038fc:    10000090    ....    DCD    268435600
        0x00003900:    00000ca0    ....    DCD    3232
        0x00003904:    00000140    @...    DCD    320
    Region$$Table$$Limit

** Section #2 'SRAM' (SHT_PROGBITS) [SHF_ALLOC + SHF_WRITE]
    Size   : 144 bytes (alignment 4)
    Address: 0x10000000

    0x10000000:   00 c2 01 00 60 00 00 00 00 00 00 00 00 00 00 00    ....`...........
    0x10000010:   00 00 00 00 90 00 00 10 00 00 00 00 00 00 00 00    ................
    0x10000020:   00 00 00 01 00 00 ca ea 80 00 00 00 00 00 00 00    ................
    0x10000030:   10 00 00 00 01 00 00 00 00 00 00 00 00 00 00 00    ................
    0x10000040:   12 00 00 00 01 00 00 00 00 00 00 00 00 00 00 00    ................
    0x10000050:   13 00 00 00 01 00 00 00 00 00 00 00 00 00 00 00    ................
    0x10000060:   99 1b 00 00 00 00 00 00 00 00 00 00 00 00 00 00    ................
    0x10000070:   00 00 00 00 00 00 00 00 00 00 00 00 00 00 00 00    ................
    0x10000080:   00 00 00 00 00 00 00 00 00 00 00 00 00 00 00 00    ................


** Section #3 'SRAM' (SHT_NOBITS) [SHF_ALLOC + SHF_WRITE]
    Size   : 3232 bytes (alignment 8)
    Address: 0x10000090


** Section #4 '.debug_abbrev' (SHT_PROGBITS)
    Size   : 1476 bytes


** Section #5 '.debug_frame' (SHT_PROGBITS)
    Size   : 4568 bytes


** Section #6 '.debug_info' (SHT_PROGBITS)
    Size   : 17608 bytes


** Section #7 '.debug_line' (SHT_PROGBITS)
    Size   : 6232 bytes


** Section #8 '.debug_loc' (SHT_PROGBITS)
    Size   : 1848 bytes


** Section #9 '.debug_macinfo' (SHT_PROGBITS)
    Size   : 9912 bytes


** Section #10 '.debug_pubnames' (SHT_PROGBITS)
    Size   : 1575 bytes


** Section #11 '.symtab' (SHT_SYMTAB)
    Size   : 11312 bytes (alignment 4)
    String table #12 '.strtab'
    Last local symbol no. 456

    Symbol table .symtab (706 symbols, 456 local)

      #  Symbol Name                Value      Bind  Sec  Type  Vis  Size
    ========================================================================

      1  $d                         0x00000000   Lc    1   --   De 
      2  $t                         0x000000c0   Lc    1   --   De 
      3  $d                         0x000000e4   Lc    1   --   De 
      4  $t                         0x000000e8   Lc    1   --   De 
      5  $d                         0x0000011c   Lc    1   --   De 
      6  $t                         0x00000124   Lc    1   --   De 
      7  $d                         0x000001d4   Lc    1   --   De 
      8  $t                         0x000001d8   Lc    1   --   De 
      9  $d                         0x000001e2   Lc    1   --   De 
     10  $t                         0x000001f0   Lc    1   --   De 
     11  $d                         0x00000394   Lc    1   --   De 
     12  $t                         0x00000398   Lc    1   --   De 
     13  $d                         0x000003a0   Lc    1   --   De 
     14  $t                         0x000003a4   Lc    1   --   De 
     15  $d                         0x0000061c   Lc    1   --   De 
     16  $t                         0x00000620   Lc    1   --   De 
     17  $d                         0x00000682   Lc    1   --   De 
     18  $t                         0x0000068c   Lc    1   --   De 
     19  $d                         0x00000768   Lc    1   --   De 
     20  $t                         0x0000076c   Lc    1   --   De 
     21  $d                         0x00000932   Lc    1   --   De 
     22  $t                         0x00000938   Lc    1   --   De 
     23  $d                         0x00000a64   Lc    1   --   De 
     24  $t                         0x00000a74   Lc    1   --   De 
     25  $d                         0x00000b4e   Lc    1   --   De 
     26  $t                         0x00000b58   Lc    1   --   De 
     27  $d                         0x00000c0e   Lc    1   --   De 
     28  $t                         0x00000c18   Lc    1   --   De 
     29  $d                         0x00000cf2   Lc    1   --   De 
     30  $t                         0x00000cfc   Lc    1   --   De 
     31  $d                         0x00000d3c   Lc    1   --   De 
     32  $t                         0x00000d40   Lc    1   --   De 
     33  $d                         0x00000d96   Lc    1   --   De 
     34  $t                         0x00000da0   Lc    1   --   De 
     35  $d                         0x00000dce   Lc    1   --   De 
     36  $t                         0x00000dd4   Lc    1   --   De 
     37  $d                         0x00000dee   Lc    1   --   De 
     38  $t                         0x00000dfc   Lc    1   --   De 
     39  $d                         0x00000e94   Lc    1   --   De 
     40  $t                         0x00000e9c   Lc    1   --   De 
     41  $d                         0x00000eca   Lc    1   --   De 
     42  $t                         0x00000ed0   Lc    1   --   De 
     43  $d                         0x00000f9c   Lc    1   --   De 
     44  $t                         0x00000fa0   Lc    1   --   De 
     45  $d                         0x00000fd0   Lc    1   --   De 
     46  $t                         0x00000fd8   Lc    1   --   De 
     47  $d                         0x00000ff8   Lc    1   --   De 
     48  $t                         0x00001044   Lc    1   --   De 
     49  $d                         0x000010ac   Lc    1   --   De 
     50  $t                         0x000010b0   Lc    1   --   De 
     51  $d                         0x00001132   Lc    1   --   De 
     52  $t                         0x00001140   Lc    1   --   De 
     53  $d                         0x00001148   Lc    1   --   De 
     54  $t                         0x0000114c   Lc    1   --   De 
     55  $d                         0x0000116c   Lc    1   --   De 
     56  $t                         0x00001170   Lc    1   --   De 
     57  $d                         0x0000119a   Lc    1   --   De 
     58  $t                         0x000011a0   Lc    1   --   De 
     59  $d                         0x00001212   Lc    1   --   De 
     60  $t                         0x0000121c   Lc    1   --   De 
     61  $d                         0x00001246   Lc    1   --   De 
     62  $t                         0x0000124c   Lc    1   --   De 
     63  $d                         0x00001254   Lc    1   --   De 
     64  $t                         0x00001258   Lc    1   --   De 
     65  $d                         0x00001288   Lc    1   --   De 
     66  $t                         0x0000128c   Lc    1   --   De 
     67  $d                         0x0000129e   Lc    1   --   De 
     68  $t                         0x000012a4   Lc    1   --   De 
     69  $d                         0x000012c4   Lc    1   --   De 
     70  $t                         0x000012c8   Lc    1   --   De 
     71  $d                         0x000012e0   Lc    1   --   De 
     72  $t                         0x000012e4   Lc    1   --   De 
     73  $d                         0x00001326   Lc    1   --   De 
     74  $t                         0x0000132c   Lc    1   --   De 
     75  $d                         0x00001372   Lc    1   --   De 
     76  $t                         0x00001378   Lc    1   --   De 
     77  $d                         0x000015e6   Lc    1   --   De 
     78  $t                         0x00001604   Lc    1   --   De 
     79  $d                         0x0000162a   Lc    1   --   De 
     80  $t                         0x00001630   Lc    1   --   De 
     81  $d                         0x00001654   Lc    1   --   De 
     82  $t                         0x00001658   Lc    1   --   De 
     83  $d                         0x000016e8   Lc    1   --   De 
     84  $t                         0x00001730   Lc    1   --   De 
     85  $d                         0x000017d4   Lc    1   --   De 
     86  $t                         0x00001818   Lc    1   --   De 
     87  $d                         0x000019ac   Lc    1   --   De 
     88  $t                         0x000019b4   Lc    1   --   De 
     89  $d                         0x000019ec   Lc    1   --   De 
     90  $t                         0x000019f0   Lc    1   --   De 
     91  $d                         0x00001a42   Lc    1   --   De 
     92  $t                         0x00001a8c   Lc    1   --   De 
     93  $d                         0x00001aea   Lc    1   --   De 
     94  $t                         0x00001b34   Lc    1   --   De 
     95  $d                         0x00001b54   Lc    1   --   De 
     96  $t                         0x00001b98   Lc    1   --   De 
     97  $d                         0x00001be6   Lc    1   --   De 
     98  $t                         0x00001bf0   Lc    1   --   De 
     99  $d                         0x00001c3a   Lc    1   --   De 
    100  $t                         0x00001c44   Lc    1   --   De 
    101  $d                         0x00001df6   Lc    1   --   De 
    102  $t                         0x00001e10   Lc    1   --   De 
    103  $d                         0x00001ef8   Lc    1   --   De 
    104  $t                         0x00001f08   Lc    1   --   De 
    105  $d                         0x0000200c   Lc    1   --   De 
    106  $t                         0x0000202c   Lc    1   --   De 
    107  $d                         0x00002190   Lc    1   --   De 
    108  $t                         0x000021b0   Lc    1   --   De 
    109  $d                         0x0000228a   Lc    1   --   De 
    110  $t                         0x0000229c   Lc    1   --   De 
    111  $d                         0x000023a4   Lc    1   --   De 
    112  $t                         0x000023b8   Lc    1   --   De 
    113  $d                         0x00002500   Lc    1   --   De 
    114  $t                         0x00002518   Lc    1   --   De 
    115  $d                         0x000028f4   Lc    1   --   De 
    116  $t                         0x000029b4   Lc    1   --   De 
    117  $d                         0x000029e8   Lc    1   --   De 
    118  $t                         0x000029ec   Lc    1   --   De 
    119  $d                         0x00002a30   Lc    1   --   De 
    120  $t                         0x00002a38   Lc    1   --   De 
    121  $d                         0x00002a66   Lc    1   --   De 
    122  $t                         0x00002a6c   Lc    1   --   De 
    123  $d                         0x00002a80   Lc    1   --   De 
    124  $t                         0x00002a84   Lc    1   --   De 
    125  $d                         0x00002bf8   Lc    1   --   De 
    126  $t                         0x00002c04   Lc    1   --   De 
    127  $d                         0x00002c38   Lc    1   --   De 
    128  $t                         0x00002c84   Lc    1   --   De 
    129  $d                         0x00002cf4   Lc    1   --   De 
    130  $t                         0x00002d40   Lc    1   --   De 
    131  $d                         0x00002f8a   Lc    1   --   De 
    132  $t                         0x00002f9c   Lc    1   --   De 
    133  $d                         0x00002fd2   Lc    1   --   De 
    134  $t                         0x00002fd8   Lc    1   --   De 
    135  $d                         0x00003012   Lc    1   --   De 
    136  $t                         0x00003018   Lc    1   --   De 
    137  $d                         0x000030a4   Lc    1   --   De 
    138  $t                         0x000030ec   Lc    1   --   De 
    139  $d                         0x000031b2   Lc    1   --   De 
    140  $t                         0x000031bc   Lc    1   --   De 
    141  $d                         0x00003210   Lc    1   --   De 
    142  $t                         0x00003258   Lc    1   --   De 
    143  $d                         0x00003324   Lc    1   --   De 
    144  $t                         0x0000332c   Lc    1   --   De 
    145  $d                         0x0000335c   Lc    1   --   De 
    146  $t                         0x00003360   Lc    1   --   De 
    147  $d                         0x000033b0   Lc    1   --   De 
    148  $t                         0x000033b4   Lc    1   --   De 
    149  $d                         0x00003486   Lc    1   --   De 
    150  $t                         0x0000348c   Lc    1   --   De 
    151  $d                         0x00003492   Lc    1   --   De 
    152  $t                         0x00003498   Lc    1   --   De 
    153  $d                         0x00003550   Lc    1   --   De 
    154  $t                         0x00003560   Lc    1   --   De 
    155  $d                         0x000035a4   Lc    1   --   De 
    156  $t                         0x000035a8   Lc    1   --   De 
    157  $d                         0x000035ba   Lc    1   --   De 
    158  $t                         0x000035c0   Lc    1   --   De 
    159  $d                         0x000036b2   Lc    1   --   De 
    160  $t                         0x000036e0   Lc    1   --   De 
    161  $d                         0x00003752   Lc    1   --   De 
    162  $t                         0x0000375c   Lc    1   --   De 
    163  $d                         0x0000385e   Lc    1   --   De 
    164  $t                         0x00003870   Lc    1   --   De 
    165  $d.realdata                0x0000387c   Lc    1   --   De 
    166  $d.realdata                0x10000000   Lc    2   --   De 
    167  ../src/em9304_test_bridge.c
                                    0x00000000   Lc  Abs  File  De 
    168  i.am_ctimer_isr            0x0000064c   Lc    1  Sect  De 
    169  i.am_gpio_isr              0x00000e9c   Lc    1  Sect  De 
    170  i.am_uart_isr              0x00003380   Lc    1  Sect  De 
    171  i.em9304_init              0x00003498   Lc    1  Sect  De 
    172  i.main                     0x000035c0   Lc    1  Sect  De 
    173  i.timer_init               0x0000375c   Lc    1  Sect  De 
    174  i.uart_init                0x00003798   Lc    1  Sect  De 
    175  .bss                       0x10000090   Lc    3  Sect  De   0x200
    176  .data                      0x10000000   Lc    2  Sect  De   0x1b
    177  ../../../../../utils/am_util_delay.c
                                    0x00000000   Lc  Abs  File  De 
    178  i.am_util_delay_ms         0x000033b4   Lc    1  Sect  De 
    179  ..\..\..\..\..\utils\am_util_faultisr.c
                                    0x00000000   Lc  Abs  File  De 
    180  .emb_text                  0x00000188   Lc    1  Sect  De   0x14
    181  $v0                        0x00000188   Lc    1   --   De 
    182  ../../../../../utils/am_util_faultisr.c
                                    0x00000000   Lc  Abs  File  De 
    183  i.am_util_faultisr_collect_data
                                    0x000033d4   Lc    1  Sect  De 
    184  ../../../../../utils/am_util_stdio.c
                                    0x00000000   Lc  Abs  File  De 
    185  i.am_util_stdio_printf_init
                                    0x0000348c   Lc    1  Sect  De 
    186  .data                      0x1000001c   Lc    2  Sect  De   0x5
    187  g_bTxtXlate                0x10000020   Lc    2  Data  De   0x1
    188  ../../../../../devices/am_devices_button.c
                                    0x00000000   Lc  Abs  File  De 
    189  i.am_devices_button_array_init
                                    0x0000068c   Lc    1  Sect  De 
    190  i.am_devices_button_init   0x000006a8   Lc    1  Sect  De 
    191  i.am_devices_button_tick   0x0000076c   Lc    1  Sect  De 
    192  ../../../../../devices/am_devices_em9304.c
                                    0x00000000   Lc  Abs  File  De 
    193  i.am_devices_em9304_block_read
                                    0x00000938   Lc    1  Sect  De 
    194  i.am_devices_em9304_block_write
                                    0x00000a74   Lc    1  Sect  De 
    195  i.am_devices_em9304_config_pins
                                    0x00000b58   Lc    1  Sect  De 
    196  i.am_devices_em9304_configure_spi_sleep
                                    0x00000c18   Lc    1  Sect  De 
    197  i.am_devices_em9304_enable_interrupt
                                    0x00000cfc   Lc    1  Sect  De 
    198  i.am_devices_em9304_spi_awake
                                    0x00000d0c   Lc    1  Sect  De 
    199  i.am_devices_em9304_spi_init
                                    0x00000d40   Lc    1  Sect  De 
    200  i.am_devices_em9304_spi_sleep
                                    0x00000da0   Lc    1  Sect  De 
    201  i.am_devices_em9304_tx_ends
                                    0x00000dd4   Lc    1  Sect  De 
    202  i.am_devices_em9304_tx_starts
                                    0x00000dfc   Lc    1  Sect  De 
    203  i.am_iomaster5_isr         0x00003360   Lc    1  Sect  De 
    204  i.iom_write_complete       0x0000359c   Lc    1  Sect  De 
    205  iom_write_complete         0x0000359d   Lc    1  Code  De   0x8
    206  i.isRevB2                  0x000035a8   Lc    1  Sect  De 
    207  isRevB2                    0x000035a9   Lc    1  Code  De   0x12
    208  .constdata                 0x0000387c   Lc    1  Sect  De   0x1c
    209  .data                      0x10000021   Lc    2  Sect  De   0x8
    210  spiTxInProgress            0x10000021   Lc    2  Data  De   0x1
    211  gIomDone                   0x10000022   Lc    2  Data  De   0x1
    212  ../keil/startup_keil.s     0x00000000   Lc  Abs  File  De 
    213  STACK                      0x10000530   Lc    3  Sect  De   0x800
    214  StackMem                   0x10000530   Lc    3  Data  De 
    215  HEAP                       0x10000530   Lc    3  Sect  De 
    216  HeapMem                    0x10000530   Lc    3  Data  De 
    217  RESET                      0x00000000   Lc    1  Sect  De   0xe8
    218  $v0                        0x000000c0   Lc    1   --   De 
    219  .text                      0x000001d8   Lc    1  Sect  De   0x18
    220  $v0                        0x000001d8   Lc    1   --   De 
    221  ../am_hal_global.c         0x00000000   Lc  Abs  File  De 
    222  .data                      0x1000002c   Lc    2  Sect  De   0x4
    223  ../am_bsp.c                0x00000000   Lc  Abs  File  De 
    224  i.am_bsp_iom_spi_pins_enable
                                    0x000003a8   Lc    1  Sect  De 
    225  i.am_bsp_low_power_init    0x00000620   Lc    1  Sect  De 
    226  i.am_bsp_uart_string_print 0x00000642   Lc    1  Sect  De 
    227  .data                      0x10000030   Lc    2  Sect  De   0x30
    228  ../am_hal_cachectrl.c      0x00000000   Lc  Abs  File  De 
    229  i.am_hal_cachectrl_enable  0x00000ed0   Lc    1  Sect  De 
    230  .constdata                 0x00003898   Lc    1  Sect  De   0xc
    231  ../am_hal_clkgen.c         0x00000000   Lc  Abs  File  De 
    232  i.am_hal_clkgen_osc_stop   0x00000fa0   Lc    1  Sect  De 
    233  i.am_hal_clkgen_sysclk_get 0x00000fb4   Lc    1  Sect  De 
    234  i.am_hal_clkgen_sysclk_select
                                    0x00000fd8   Lc    1  Sect  De 
    235  i.am_hal_clkgen_uarten_set 0x00001044   Lc    1  Sect  De 
    236  ..\am_hal_ctimer.c         0x00000000   Lc  Abs  File  De 
    237  ../am_hal_ctimer.c         0x00000000   Lc  Abs  File  De 
    238  i.am_hal_ctimer_clear      0x00001088   Lc    1  Sect  De 
    239  i.am_hal_ctimer_config_single
                                    0x000010b0   Lc    1  Sect  De 
    240  i.am_hal_ctimer_int_clear  0x00001140   Lc    1  Sect  De 
    241  i.am_hal_ctimer_int_enable 0x0000114c   Lc    1  Sect  De 
    242  i.am_hal_ctimer_int_status_get
                                    0x00001170   Lc    1  Sect  De 
    243  i.am_hal_ctimer_period_set 0x000011a0   Lc    1  Sect  De 
    244  i.am_hal_ctimer_start      0x0000121c   Lc    1  Sect  De 
    245  ../am_hal_flash.c          0x00000000   Lc  Abs  File  De 
    246  i.am_hal_flash_delay       0x00001250   Lc    1  Sect  De 
    247  i.am_hal_flash_delay_status_change
                                    0x00001258   Lc    1  Sect  De 
    248  ../am_hal_gpio.c           0x00000000   Lc  Abs  File  De 
    249  i.am_hal_gpio_input_read   0x0000128c   Lc    1  Sect  De 
    250  i.am_hal_gpio_int_clear    0x000012a4   Lc    1  Sect  De 
    251  i.am_hal_gpio_int_enable   0x000012c8   Lc    1  Sect  De 
    252  i.am_hal_gpio_int_status_get
                                    0x000012e4   Lc    1  Sect  De 
    253  ..\am_hal_interrupt.c      0x00000000   Lc  Abs  File  De 
    254  .emb_text                  0x0000019c   Lc    1  Sect  De   0x16
    255  $v0                        0x0000019c   Lc    1   --   De 
    256  ../am_hal_interrupt.c      0x00000000   Lc  Abs  File  De 
    257  i.am_hal_interrupt_enable  0x0000132c   Lc    1  Sect  De 
    258  ..\am_hal_iom.c            0x00000000   Lc  Abs  File  De 
    259  .emb_text                  0x000001b4   Lc    1  Sect  De   0x24
    260  $v0                        0x000001b4   Lc    1   --   De 
    261  ../am_hal_iom.c            0x00000000   Lc  Abs  File  De 
    262  i.am_hal_iom_config        0x00001378   Lc    1  Sect  De 
    263  i.am_hal_iom_disable       0x00001604   Lc    1  Sect  De 
    264  i.am_hal_iom_enable        0x00001630   Lc    1  Sect  De 
    265  i.am_hal_iom_fifo_read     0x00001658   Lc    1  Sect  De 
    266  i.am_hal_iom_fifo_write    0x00001730   Lc    1  Sect  De 
    267  i.am_hal_iom_int_clear     0x00001818   Lc    1  Sect  De 
    268  i.am_hal_iom_int_enable    0x0000182e   Lc    1  Sect  De 
    269  i.am_hal_iom_int_service   0x0000184c   Lc    1  Sect  De 
    270  i.am_hal_iom_int_status_get
                                    0x000019b4   Lc    1  Sect  De 
    271  i.am_hal_iom_poll_complete 0x000019dc   Lc    1  Sect  De 
    272  i.am_hal_iom_power_off_save
                                    0x000019f0   Lc    1  Sect  De 
    273  i.am_hal_iom_power_on_restore
                                    0x00001a8c   Lc    1  Sect  De 
    274  i.am_hal_iom_pwrctrl_enable
                                    0x00001b34   Lc    1  Sect  De 
    275  i.am_hal_iom_sleeping_queue_flush
                                    0x00001b98   Lc    1  Sect  De 
    276  i.am_hal_iom_spi_fullduplex
                                    0x00001bf0   Lc    1  Sect  De 
    277  i.am_hal_iom_spi_fullduplex_nq
                                    0x00001c44   Lc    1  Sect  De 
    278  i.am_hal_iom_spi_read      0x00001e10   Lc    1  Sect  De 
    279  i.am_hal_iom_spi_read_nb   0x00001f08   Lc    1  Sect  De 
    280  i.am_hal_iom_spi_read_nq   0x0000202c   Lc    1  Sect  De 
    281  i.am_hal_iom_spi_write     0x000021b0   Lc    1  Sect  De 
    282  i.am_hal_iom_spi_write_nb  0x0000229c   Lc    1  Sect  De 
    283  i.am_hal_iom_spi_write_nq  0x000023b8   Lc    1  Sect  De 
    284  i.am_hal_iom_workaround_word_write
                                    0x00002518   Lc    1  Sect  De 
    285  i.internal_iom_get_int_err 0x00003560   Lc    1  Sect  De 
    286  internal_iom_get_int_err   0x00003561   Lc    1  Code  De   0x3a
    287  .bss                       0x10000290   Lc    3  Sect  De   0x198
    288  .constdata                 0x000038a4   Lc    1  Sect  De   0x41
    289  .data                      0x10000060   Lc    2  Sect  De   0x12
    290  g_iom_error_status         0x1000006b   Lc    2  Data  De   0x7
    291  ../am_hal_mcuctrl.c        0x00000000   Lc  Abs  File  De 
    292  i.am_hal_mcuctrl_fault_status
                                    0x000029b4   Lc    1  Sect  De 
    293  ../am_hal_sysctrl.c        0x00000000   Lc  Abs  File  De 
    294  i.am_hal_sysctrl_sleep     0x00002eb0   Lc    1  Sect  De 
    295  i.setBuckZX                0x000036e0   Lc    1  Sect  De 
    296  setBuckZX                  0x000036e1   Lc    1  Code  De   0x72
    297  .data                      0x10000074   Lc    2  Sect  De   0x1c
    298  g_bBuckRestoreComplete     0x10000074   Lc    2  Data  De   0x1
    299  g_ui32BuckTimer            0x10000078   Lc    2  Data  De   0x4
    300  g_ui32BuckInputs           0x1000007c   Lc    2  Data  De   0x4
    301  g_buckZX_chk               0x10000080   Lc    2  Data  De   0x4
    302  g_ui32SaveCoreBuckZX       0x10000084   Lc    2  Data  De   0x4
    303  g_ui32SaveMemBuckZX        0x10000088   Lc    2  Data  De   0x4
    304  g_ui32CoreBuck             0x1000008c   Lc    2  Data  De   0x4
    305  ../am_hal_uart.c           0x00000000   Lc  Abs  File  De 
    306  i.am_hal_uart_char_receive_buffered
                                    0x00002f9c   Lc    1  Sect  De 
    307  i.am_hal_uart_char_transmit_buffered
                                    0x00002fd8   Lc    1  Sect  De 
    308  i.am_hal_uart_clock_enable 0x00003018   Lc    1  Sect  De 
    309  i.am_hal_uart_config       0x00003040   Lc    1  Sect  De 
    310  i.am_hal_uart_disable      0x000030ec   Lc    1  Sect  De 
    311  i.am_hal_uart_enable       0x00003116   Lc    1  Sect  De 
    312  i.am_hal_uart_fifo_config  0x0000313e   Lc    1  Sect  De 
    313  i.am_hal_uart_init_buffered
                                    0x00003154   Lc    1  Sect  De 
    314  i.am_hal_uart_int_clear    0x000031bc   Lc    1  Sect  De 
    315  i.am_hal_uart_int_enable   0x000031ca   Lc    1  Sect  De 
    316  i.am_hal_uart_int_status_get
                                    0x000031dc   Lc    1  Sect  De 
    317  i.am_hal_uart_pwrctrl_enable
                                    0x000031f0   Lc    1  Sect  De 
    318  i.am_hal_uart_service_buffered_timeout_save
                                    0x00003258   Lc    1  Sect  De 
    319  i.am_hal_uart_string_transmit_polled
                                    0x0000332c   Lc    1  Sect  De 
    320  .bss                       0x10000428   Lc    3  Sect  De   0xa8
    321  ../am_hal_debug.c          0x00000000   Lc  Abs  File  De 
    322  i.am_hal_debug_error       0x0000124c   Lc    1  Sect  De 
    323  ../am_hal_i2c_bit_bang.c   0x00000000   Lc  Abs  File  De 
    324  ../am_hal_itm.c            0x00000000   Lc  Abs  File  De 
    325  ../am_hal_pwrctrl.c        0x00000000   Lc  Abs  File  De 
    326  i.am_hal_pwrctrl_bucks_disable
                                    0x000029ec   Lc    1  Sect  De 
    327  i.am_hal_pwrctrl_bucks_enable
                                    0x00002a38   Lc    1  Sect  De 
    328  i.am_hal_pwrctrl_low_power_init
                                    0x00002a6c   Lc    1  Sect  De 
    329  i.am_hal_pwrctrl_memory_enable
                                    0x00002a84   Lc    1  Sect  De 
    330  i.am_hal_pwrctrl_periph_disable
                                    0x00002c04   Lc    1  Sect  De 
    331  i.am_hal_pwrctrl_periph_enable
                                    0x00002c84   Lc    1  Sect  De 
    332  ../am_hal_queue.c          0x00000000   Lc  Abs  File  De 
    333  i.am_hal_queue_init        0x00002d40   Lc    1  Sect  De 
    334  i.am_hal_queue_item_add    0x00002d56   Lc    1  Sect  De 
    335  i.am_hal_queue_item_get    0x00002df4   Lc    1  Sect  De 
    336  ../am_hal_rtc.c            0x00000000   Lc  Abs  File  De 
    337  i.am_hal_rtc_osc_disable   0x00002e8c   Lc    1  Sect  De 
    338  i.am_hal_rtc_osc_select    0x00002e9a   Lc    1  Sect  De 
    339  ../am_hal_tpiu.c           0x00000000   Lc  Abs  File  De 
    340  ../am_hal_vcomp.c          0x00000000   Lc  Abs  File  De 
    341  i.am_hal_vcomp_disable     0x00003354   Lc    1  Sect  De 
    342  dc.s                       0x00000000   Lc  Abs  File  De 
    343  ../clib/longlong.s         0x00000000   Lc  Abs  File  De 
    344  ../clib/memcpset.s         0x00000000   Lc  Abs  File  De 
    345  .text                      0x000001f0   Lc    1  Sect  De   0x8a
    346  ../clib/memcpset.s         0x00000000   Lc  Abs  File  De 
    347  .text                      0x0000027a   Lc    1  Sect  De   0x4e
    348  ../clib/heapaux.c          0x00000000   Lc  Abs  File  De 
    349  .text                      0x000002c8   Lc    1  Sect  De 
    350  ../clib/angel/startup.s    0x00000000   Lc  Abs  File  De 
    351  !!!main                    0x000000e8   Lc    1  Sect  De   0x8
    352  ../fplib/d2f.s             0x00000000   Lc  Abs  File  De 
    353  ../clib/angel/kernel.s     0x00000000   Lc  Abs  File  De 
    354  .ARM.Collect$$rtentry$$00000000
                                    0x00000168   Lc    1  Sect  De 
    355  ../clib/memcpset.s         0x00000000   Lc  Abs  File  De 
    356  .text                      0x000002ce   Lc    1  Sect  De   0x64
    357  ../fplib/dnaninf.s         0x00000000   Lc  Abs  File  De 
    358  ../fplib/fretinf.s         0x00000000   Lc  Abs  File  De 
    359  ../fplib/usenofp.s         0x00000000   Lc  Abs  File  De 
    360  ../clib/angel/kernel.s     0x00000000   Lc  Abs  File  De 
    361  .ARM.Collect$$rtentry$$00000002
                                    0x00000168   Lc    1  Sect  De 
    362  .ARM.Collect$$rtentry$$00000009
                                    0x0000016e   Lc    1  Sect  De 
    363  .ARM.Collect$$rtentry$$0000000A
                                    0x0000016e   Lc    1  Sect  De   0x4
    364  .ARM.Collect$$rtentry$$0000000C
                                    0x00000172   Lc    1  Sect  De 
    365  .ARM.Collect$$rtentry$$0000000D
                                    0x00000172   Lc    1  Sect  De   0x8
    366  ../clib/angel/kernel.s     0x00000000   Lc  Abs  File  De 
    367  .ARM.Collect$$rtentry$$00000004
                                    0x00000168   Lc    1  Sect  De   0x6
    368  ../clib/angel/sys.s        0x00000000   Lc  Abs  File  De 
    369  .text                      0x00000332   Lc    1  Sect  De   0x4a
    370  ../clib/stdlib.c           0x00000000   Lc  Abs  File  De 
    371  .text                      0x0000037c   Lc    1  Sect  De 
    372  ../clib/angel/boardlib.s   0x00000000   Lc  Abs  File  De 
    373  ../clib/angel/boardlib.s   0x00000000   Lc  Abs  File  De 
    374  ../clib/angel/boardlib.s   0x00000000   Lc  Abs  File  De 
    375  ../clib/libinit.s          0x00000000   Lc  Abs  File  De 
    376  .ARM.Collect$$libinit$$00000000
                                    0x0000015c   Lc    1  Sect  De   0x2
    377  ../clib/angel/sys.s        0x00000000   Lc  Abs  File  De 
    378  .text                      0x00000390   Lc    1  Sect  De   0x8
    379  .bss                       0x100004d0   Lc    3  Sect  De   0x60
    380  ../clib/angel/kernel.s     0x00000000   Lc  Abs  File  De 
    381  .ARM.Collect$$rtexit$$00000000
                                    0x0000017a   Lc    1  Sect  De   0x2
    382  ../clib/libinit.s          0x00000000   Lc  Abs  File  De 
    383  .ARM.Collect$$libinit$$00000001
                                    0x0000015e   Lc    1  Sect  De   0x4
    384  .ARM.Collect$$libinit$$00000004
                                    0x00000162   Lc    1  Sect  De 
    385  .ARM.Collect$$libinit$$0000000A
                                    0x00000162   Lc    1  Sect  De 
    386  .ARM.Collect$$libinit$$0000000C
                                    0x00000162   Lc    1  Sect  De 
    387  .ARM.Collect$$libinit$$0000000E
                                    0x00000162   Lc    1  Sect  De 
    388  .ARM.Collect$$libinit$$00000011
                                    0x00000162   Lc    1  Sect  De 
    389  .ARM.Collect$$libinit$$00000013
                                    0x00000162   Lc    1  Sect  De 
    390  .ARM.Collect$$libinit$$00000015
                                    0x00000162   Lc    1  Sect  De 
    391  .ARM.Collect$$libinit$$00000017
                                    0x00000162   Lc    1  Sect  De 
    392  .ARM.Collect$$libinit$$00000019
                                    0x00000162   Lc    1  Sect  De 
    393  .ARM.Collect$$libinit$$0000001B
                                    0x00000162   Lc    1  Sect  De 
    394  .ARM.Collect$$libinit$$0000001D
                                    0x00000162   Lc    1  Sect  De 
    395  .ARM.Collect$$libinit$$0000001F
                                    0x00000162   Lc    1  Sect  De 
    396  .ARM.Collect$$libinit$$00000021
                                    0x00000162   Lc    1  Sect  De 
    397  .ARM.Collect$$libinit$$00000023
                                    0x00000162   Lc    1  Sect  De 
    398  .ARM.Collect$$libinit$$00000025
                                    0x00000162   Lc    1  Sect  De 
    399  .ARM.Collect$$libinit$$0000002C
                                    0x00000162   Lc    1  Sect  De 
    400  .ARM.Collect$$libinit$$0000002E
                                    0x00000162   Lc    1  Sect  De 
    401  .ARM.Collect$$libinit$$00000030
                                    0x00000162   Lc    1  Sect  De 
    402  .ARM.Collect$$libinit$$00000032
                                    0x00000162   Lc    1  Sect  De 
    403  .ARM.Collect$$libinit$$00000033
                                    0x00000162   Lc    1  Sect  De   0x2
    404  ../clib/angel/kernel.s     0x00000000   Lc  Abs  File  De 
    405  .ARM.Collect$$rtexit$$00000002
                                    0x0000017c   Lc    1  Sect  De 
    406  .ARM.Collect$$rtexit$$00000003
                                    0x0000017c   Lc    1  Sect  De   0x4
    407  .ARM.Collect$$rtexit$$00000004
                                    0x00000180   Lc    1  Sect  De   0x6
    408  ../clib/armsys.c           0x00000000   Lc  Abs  File  De 
    409  ../clib/armsys.c           0x00000000   Lc  Abs  File  De 
    410  ../fplib/fpinit.s          0x00000000   Lc  Abs  File  De 
    411  x$fpl$fpinit               0x00003870   Lc    1  Sect  De   0xa
    412  $v0                        0x00003870   Lc    1   --   De 
    413  ../clib/angel/sysapp.c     0x00000000   Lc  Abs  File  De 
    414  .text                      0x00000398   Lc    1  Sect  De 
    415  ../clib/angel/boardlib.s   0x00000000   Lc  Abs  File  De 
    416  ../clib/armsys.c           0x00000000   Lc  Abs  File  De 
    417  ../clib/armsys.c           0x00000000   Lc  Abs  File  De 
    418  ../clib/libinit.s          0x00000000   Lc  Abs  File  De 
    419  .ARM.Collect$$libshutdown$$00000000
                                    0x00000164   Lc    1  Sect  De   0x2
    420  ../clib/angel/sysapp.c     0x00000000   Lc  Abs  File  De 
    421  ../clib/angel/sys.s        0x00000000   Lc  Abs  File  De 
    422  .text                      0x000003a4   Lc    1  Sect  De   0x2
    423  ../clib/angel/sys.s        0x00000000   Lc  Abs  File  De 
    424  .text                      0x000003a6   Lc    1  Sect  De 
    425  ../clib/heapalloc.c        0x00000000   Lc  Abs  File  De 
    426  ../clib/signal.c           0x00000000   Lc  Abs  File  De 
    427  ../clib/signal.c           0x00000000   Lc  Abs  File  De 
    428  ../clib/libinit.s          0x00000000   Lc  Abs  File  De 
    429  .ARM.Collect$$libshutdown$$00000002
                                    0x00000166   Lc    1  Sect  De 
    430  .ARM.Collect$$libshutdown$$00000004
                                    0x00000166   Lc    1  Sect  De 
    431  .ARM.Collect$$libshutdown$$00000007
                                    0x00000166   Lc    1  Sect  De 
    432  .ARM.Collect$$libshutdown$$0000000A
                                    0x00000166   Lc    1  Sect  De 
    433  .ARM.Collect$$libshutdown$$0000000C
                                    0x00000166   Lc    1  Sect  De 
    434  .ARM.Collect$$libshutdown$$0000000F
                                    0x00000166   Lc    1  Sect  De 
    435  .ARM.Collect$$libshutdown$$00000010
                                    0x00000166   Lc    1  Sect  De   0x2
    436  ../clib/angel/rt.s         0x00000000   Lc  Abs  File  De 
    437  ../clib/signal.c           0x00000000   Lc  Abs  File  De 
    438  ../clib/signal.c           0x00000000   Lc  Abs  File  De 
    439  ../clib/signal.c           0x00000000   Lc  Abs  File  De 
    440  ../clib/signal.c           0x00000000   Lc  Abs  File  De 
    441  ../clib/angel/sysapp.c     0x00000000   Lc  Abs  File  De 
    442  ../clib/signal.s           0x00000000   Lc  Abs  File  De 
    443  ../clib/signal.c           0x00000000   Lc  Abs  File  De 
    444  ../clib/signal.c           0x00000000   Lc  Abs  File  De 
    445  ../clib/signal.c           0x00000000   Lc  Abs  File  De 
    446  ../clib/signal.c           0x00000000   Lc  Abs  File  De 
    447  ../clib/signal.c           0x00000000   Lc  Abs  File  De 
    448  ../clib/signal.c           0x00000000   Lc  Abs  File  De 
    449  ../clib/signal.c           0x00000000   Lc  Abs  File  De 
    450  ../clib/signal.c           0x00000000   Lc  Abs  File  De 
    451  ../clib/angel/scatter.s    0x00000000   Lc  Abs  File  De 
    452  !!!scatter                 0x000000f0   Lc    1  Sect  De   0x34
    453  ../clib/angel/handlers.s   0x00000000   Lc  Abs  File  De 
    454  !!handler_copy             0x00000124   Lc    1  Sect  De   0x1a
    455  ../clib/angel/handlers.s   0x00000000   Lc  Abs  File  De 
    456  !!handler_zi               0x00000140   Lc    1  Sect  De   0x1c
    457  BuildAttributes$$THM_ISAv4$E$P$D$K$B$S$7EM$VFPi3$EXTD16$VFPS$VFMA$PE$A:L22UL41UL21$X:L11$S22US41US21$IEEE1$IW$USESV6$~STKCKD$USESV7$~SHL$OTIME$ROPI$EBA8$UX$STANDARDLIB$REQ8$EABIv2
                                    0x00000000   Gb  Abs   --   Hi 
    458  __ARM_use_no_argv          0x00000000   Gb  Abs   --   Hi 
    459  __Vectors                  0x00000000   Gb    1  Data  Hi 
    460  Reset_Handler              0x000000c1   Wk    1  Code  Hi   0x1c
    461  am_nmi_isr                 0x000000dd   Wk    1  Code  Hi   0x2
    462  am_memmanage_isr           0x000000e1   Wk    1  Code  Hi   0x2
    463  am_adc_isr                 0x000000e3   Wk    1  Code  Hi 
    464  am_brownout_isr            0x000000e3   Wk    1  Code  Hi 
    465  am_clkgen_isr              0x000000e3   Wk    1  Code  Hi 
    466  am_debugmon_isr            0x000000e3   Wk    1  Code  Hi 
    467  am_flash_isr               0x000000e3   Wk    1  Code  Hi 
    468  am_iomaster0_isr           0x000000e3   Wk    1  Code  Hi 
    469  am_iomaster1_isr           0x000000e3   Wk    1  Code  Hi 
    470  am_iomaster2_isr           0x000000e3   Wk    1  Code  Hi 
    471  am_iomaster3_isr           0x000000e3   Wk    1  Code  Hi 
    472  am_iomaster4_isr           0x000000e3   Wk    1  Code  Hi 
    473  am_ioslave_acc_isr         0x000000e3   Wk    1  Code  Hi 
    474  am_ioslave_ios_isr         0x000000e3   Wk    1  Code  Hi 
    475  am_pdm_isr                 0x000000e3   Wk    1  Code  Hi 
    476  am_pendsv_isr              0x000000e3   Wk    1  Code  Hi 
    477  am_software0_isr           0x000000e3   Wk    1  Code  Hi 
    478  am_software1_isr           0x000000e3   Wk    1  Code  Hi 
    479  am_software2_isr           0x000000e3   Wk    1  Code  Hi 
    480  am_software3_isr           0x000000e3   Wk    1  Code  Hi 
    481  am_stimer_cmpr0_isr        0x000000e3   Wk    1  Code  Hi 
    482  am_stimer_cmpr1_isr        0x000000e3   Wk    1  Code  Hi 
    483  am_stimer_cmpr2_isr        0x000000e3   Wk    1  Code  Hi 
    484  am_stimer_cmpr3_isr        0x000000e3   Wk    1  Code  Hi 
    485  am_stimer_cmpr4_isr        0x000000e3   Wk    1  Code  Hi 
    486  am_stimer_cmpr5_isr        0x000000e3   Wk    1  Code  Hi 
    487  am_stimer_cmpr6_isr        0x000000e3   Wk    1  Code  Hi 
    488  am_stimer_cmpr7_isr        0x000000e3   Wk    1  Code  Hi 
    489  am_stimer_isr              0x000000e3   Wk    1  Code  Hi 
    490  am_svcall_isr              0x000000e3   Wk    1  Code  Hi 
    491  am_systick_isr             0x000000e3   Wk    1  Code  Hi 
    492  am_uart0_isr               0x000000e3   Wk    1  Code  Hi 
    493  am_uart1_isr               0x000000e3   Wk    1  Code  Hi 
    494  am_vcomp_isr               0x000000e3   Wk    1  Code  Hi 
    495  am_watchdog_isr            0x000000e3   Wk    1  Code  Hi 
    496  __main                     0x000000e9   Gb    1  Code  Hi   0x8
    497  __scatterload              0x000000f1   Gb    1  Code  Hi 
    498  __scatterload_rt2          0x000000f1   Gb    1  Code  Hi   0x2c
    499  __scatterload_rt2_thumb_only
                                    0x000000f1   Gb    1  Code  Hi 
    500  __scatterload_null         0x000000ff   Gb    1  Code  Hi 
    501  __scatterload_copy         0x00000125   Gb    1  Code  Hi   0x1a
    502  __scatterload_zeroinit     0x00000141   Gb    1  Code  Hi   0x1c
    503  __rt_lib_init              0x0000015d   Gb    1  Code  De 
    504  __rt_lib_init_fp_1         0x0000015f   Gb    1  Code  Hi 
    505  __rt_lib_init_alloca_1     0x00000163   Gb    1  Code  Hi 
    506  __rt_lib_init_argv_1       0x00000163   Gb    1  Code  Hi 
    507  __rt_lib_init_atexit_1     0x00000163   Gb    1  Code  Hi 
    508  __rt_lib_init_clock_1      0x00000163   Gb    1  Code  Hi 
    509  __rt_lib_init_cpp_1        0x00000163   Gb    1  Code  Hi 
    510  __rt_lib_init_exceptions_1 0x00000163   Gb    1  Code  Hi 
    511  __rt_lib_init_fp_trap_1    0x00000163   Gb    1  Code  Hi 
    512  __rt_lib_init_getenv_1     0x00000163   Gb    1  Code  Hi 
    513  __rt_lib_init_heap_1       0x00000163   Gb    1  Code  Hi 
    514  __rt_lib_init_lc_collate_1 0x00000163   Gb    1  Code  Hi 
    515  __rt_lib_init_lc_ctype_1   0x00000163   Gb    1  Code  Hi 
    516  __rt_lib_init_lc_monetary_1
                                    0x00000163   Gb    1  Code  Hi 
    517  __rt_lib_init_lc_numeric_1 0x00000163   Gb    1  Code  Hi 
    518  __rt_lib_init_lc_time_1    0x00000163   Gb    1  Code  Hi 
    519  __rt_lib_init_preinit_1    0x00000163   Gb    1  Code  Hi 
    520  __rt_lib_init_rand_1       0x00000163   Gb    1  Code  Hi 
    521  __rt_lib_init_return       0x00000163   Gb    1  Code  Hi 
    522  __rt_lib_init_signal_1     0x00000163   Gb    1  Code  Hi 
    523  __rt_lib_init_stdio_1      0x00000163   Gb    1  Code  Hi 
    524  __rt_lib_init_user_alloc_1 0x00000163   Gb    1  Code  Hi 
    525  __rt_lib_shutdown          0x00000165   Gb    1  Code  De 
    526  __rt_lib_shutdown_cpp_1    0x00000167   Gb    1  Code  Hi 
    527  __rt_lib_shutdown_fp_trap_1
                                    0x00000167   Gb    1  Code  Hi 
    528  __rt_lib_shutdown_heap_1   0x00000167   Gb    1  Code  Hi 
    529  __rt_lib_shutdown_return   0x00000167   Gb    1  Code  Hi 
    530  __rt_lib_shutdown_signal_1 0x00000167   Gb    1  Code  Hi 
    531  __rt_lib_shutdown_stdio_1  0x00000167   Gb    1  Code  Hi 
    532  __rt_lib_shutdown_user_alloc_1
                                    0x00000167   Gb    1  Code  Hi 
    533  __rt_entry                 0x00000169   Gb    1  Code  Hi 
    534  __rt_entry_presh_1         0x00000169   Gb    1  Code  Hi 
    535  __rt_entry_sh              0x00000169   Gb    1  Code  Hi 
    536  __rt_entry_li              0x0000016f   Gb    1  Code  Hi 
    537  __rt_entry_postsh_1        0x0000016f   Gb    1  Code  Hi 
    538  __rt_entry_main            0x00000173   Gb    1  Code  Hi 
    539  __rt_entry_postli_1        0x00000173   Gb    1  Code  Hi 
    540  __rt_exit                  0x0000017b   Gb    1  Code  De 
    541  __rt_exit_ls               0x0000017d   Gb    1  Code  Hi 
    542  __rt_exit_prels_1          0x0000017d   Gb    1  Code  Hi 
    543  __rt_exit_exit             0x00000181   Gb    1  Code  Hi 
    544  am_fault_isr               0x00000189   Gb    1  Code  Hi   0xc
    545  getStackedReg              0x00000195   Gb    1  Code  Hi   0x8
    546  am_hal_interrupt_master_enable
                                    0x0000019d   Gb    1  Code  Hi   0x8
    547  am_hal_interrupt_master_disable
                                    0x000001a5   Gb    1  Code  Hi   0x8
    548  am_hal_interrupt_master_set
                                    0x000001ad   Gb    1  Code  Hi   0x6
    549  __asm___12_am_hal_iom_c_97762dd2__iom_workaround_loop
                                    0x000001b5   Gb    1  Code  Hi   0x20
    550  __user_initial_stackheap   0x000001d9   Gb    1  Code  Hi   0xa
    551  __aeabi_memcpy             0x000001f1   Gb    1  Code  Hi 
    552  __rt_memcpy                0x000001f1   Gb    1  Code  De   0x8a
    553  _memcpy_lastbytes          0x00000257   Gb    1  Code  De 
    554  __aeabi_memclr4            0x0000027b   Gb    1  Code  Hi 
    555  __aeabi_memclr8            0x0000027b   Gb    1  Code  De 
    556  __rt_memclr_w              0x0000027b   Gb    1  Code  De   0x4e
    557  _memset_w                  0x0000027f   Gb    1  Code  De 
    558  __use_two_region_memory    0x000002c9   Gb    1  Code  Hi   0x2
    559  __rt_heap_escrow$2region   0x000002cb   Gb    1  Code  De   0x2
    560  __rt_heap_expand$2region   0x000002cd   Gb    1  Code  De   0x2
    561  __aeabi_memcpy4            0x000002cf   Gb    1  Code  De 
    562  __aeabi_memcpy8            0x000002cf   Gb    1  Code  De 
    563  __rt_memcpy_w              0x000002cf   Gb    1  Code  De   0x64
    564  _memcpy_lastbytes_aligned  0x00000317   Gb    1  Code  De 
    565  __user_setup_stackheap     0x00000333   Gb    1  Code  De   0x4a
    566  exit                       0x0000037d   Gb    1  Code  De   0x12
    567  __user_libspace            0x00000391   Wk    1  Code  De   0x8
    568  __user_perproc_libspace    0x00000391   Wk    1  Code  De 
    569  __user_perthread_libspace  0x00000391   Wk    1  Code  De 
    570  _sys_exit                  0x00000399   Gb    1  Code  De   0x8
    571  __I$use$semihosting        0x000003a5   Gb    1  Code  Hi 
    572  __use_no_semihosting_swi   0x000003a5   Gb    1  Code  Hi   0x2
    573  __semihosting_library_function
                                    0x000003a7   Gb    1  Code  Hi 
    574  am_bsp_iom_spi_pins_enable 0x000003a9   Gb    1  Code  Hi   0x274
    575  am_bsp_low_power_init      0x00000621   Gb    1  Code  Hi   0x22
    576  am_bsp_uart_string_print   0x00000643   Gb    1  Code  Hi   0x8
    577  am_ctimer_isr              0x0000064d   Gb    1  Code  Hi   0x36
    578  am_devices_button_array_init
                                    0x0000068d   Gb    1  Code  Hi   0x1a
    579  am_devices_button_init     0x000006a9   Gb    1  Code  Hi   0xc0
    580  am_devices_button_tick     0x0000076d   Gb    1  Code  Hi   0x1c6
    581  am_devices_em9304_block_read
                                    0x00000939   Gb    1  Code  Hi   0x12c
    582  am_devices_em9304_block_write
                                    0x00000a75   Gb    1  Code  Hi   0xda
    583  am_devices_em9304_config_pins
                                    0x00000b59   Gb    1  Code  Hi   0xb6
    584  am_devices_em9304_configure_spi_sleep
                                    0x00000c19   Gb    1  Code  Hi   0xda
    585  am_devices_em9304_enable_interrupt
                                    0x00000cfd   Gb    1  Code  Hi   0xe
    586  am_devices_em9304_spi_awake
                                    0x00000d0d   Gb    1  Code  Hi   0x30
    587  am_devices_em9304_spi_init 0x00000d41   Gb    1  Code  Hi   0x56
    588  am_devices_em9304_spi_sleep
                                    0x00000da1   Gb    1  Code  Hi   0x2e
    589  am_devices_em9304_tx_ends  0x00000dd5   Gb    1  Code  Hi   0x1a
    590  am_devices_em9304_tx_starts
                                    0x00000dfd   Gb    1  Code  Hi   0x98
    591  am_gpio_isr                0x00000e9d   Gb    1  Code  Hi   0x2e
    592  am_hal_cachectrl_enable    0x00000ed1   Gb    1  Code  Hi   0xcc
    593  am_hal_clkgen_osc_stop     0x00000fa1   Gb    1  Code  Hi   0x14
    594  am_hal_clkgen_sysclk_get   0x00000fb5   Gb    1  Code  Hi   0x1c
    595  am_hal_clkgen_sysclk_select
                                    0x00000fd9   Gb    1  Code  Hi   0x20
    596  am_hal_clkgen_uarten_set   0x00001045   Gb    1  Code  Hi   0x42
    597  am_hal_ctimer_clear        0x00001089   Gb    1  Code  Hi   0x24
    598  am_hal_ctimer_config_single
                                    0x000010b1   Gb    1  Code  Hi   0x82
    599  am_hal_ctimer_int_clear    0x00001141   Gb    1  Code  Hi   0x8
    600  am_hal_ctimer_int_enable   0x0000114d   Gb    1  Code  Hi   0x20
    601  am_hal_ctimer_int_status_get
                                    0x00001171   Gb    1  Code  Hi   0x2a
    602  am_hal_ctimer_period_set   0x000011a1   Gb    1  Code  Hi   0x72
    603  am_hal_ctimer_start        0x0000121d   Gb    1  Code  Hi   0x2a
    604  am_hal_debug_error         0x0000124d   Wk    1  Code  Hi   0x2
    605  am_hal_flash_delay         0x00001251   Gb    1  Code  Hi   0x4
    606  am_hal_flash_delay_status_change
                                    0x00001259   Gb    1  Code  Hi   0x30
    607  am_hal_gpio_input_read     0x0000128d   Gb    1  Code  Hi   0x12
    608  am_hal_gpio_int_clear      0x000012a5   Gb    1  Code  Hi   0x20
    609  am_hal_gpio_int_enable     0x000012c9   Gb    1  Code  Hi   0x18
    610  am_hal_gpio_int_status_get 0x000012e5   Gb    1  Code  Hi   0x42
    611  am_hal_interrupt_enable    0x0000132d   Gb    1  Code  Hi   0x46
    612  am_hal_iom_config          0x00001379   Gb    1  Code  Hi   0x26e
    613  am_hal_iom_disable         0x00001605   Gb    1  Code  Hi   0x26
    614  am_hal_iom_enable          0x00001631   Gb    1  Code  Hi   0x24
    615  am_hal_iom_fifo_read       0x00001659   Gb    1  Code  Hi   0x90
    616  am_hal_iom_fifo_write      0x00001731   Gb    1  Code  Hi   0xa4
    617  am_hal_iom_int_clear       0x00001819   Gb    1  Code  Hi   0x16
    618  am_hal_iom_int_enable      0x0000182f   Gb    1  Code  Hi   0x1c
    619  am_hal_iom_int_service     0x0000184d   Gb    1  Code  Hi   0x160
    620  am_hal_iom_int_status_get  0x000019b5   Gb    1  Code  Hi   0x28
    621  am_hal_iom_poll_complete   0x000019dd   Gb    1  Code  Hi   0x10
    622  am_hal_iom_power_off_save  0x000019f1   Gb    1  Code  Hi   0x52
    623  am_hal_iom_power_on_restore
                                    0x00001a8d   Gb    1  Code  Hi   0x5e
    624  am_hal_iom_pwrctrl_enable  0x00001b35   Gb    1  Code  Hi   0x20
    625  am_hal_iom_sleeping_queue_flush
                                    0x00001b99   Gb    1  Code  Hi   0x4e
    626  am_hal_iom_spi_fullduplex  0x00001bf1   Gb    1  Code  Hi   0x4a
    627  am_hal_iom_spi_fullduplex_nq
                                    0x00001c45   Gb    1  Code  Hi   0x1b2
    628  am_hal_iom_spi_read        0x00001e11   Gb    1  Code  Hi   0xe8
    629  am_hal_iom_spi_read_nb     0x00001f09   Gb    1  Code  Hi   0x104
    630  am_hal_iom_spi_read_nq     0x0000202d   Gb    1  Code  Hi   0x164
    631  am_hal_iom_spi_write       0x000021b1   Gb    1  Code  Hi   0xda
    632  am_hal_iom_spi_write_nb    0x0000229d   Gb    1  Code  Hi   0x108
    633  am_hal_iom_spi_write_nq    0x000023b9   Gb    1  Code  Hi   0x148
    634  am_hal_iom_workaround_word_write
                                    0x00002519   Gb    1  Code  Hi   0x3dc
    635  am_hal_mcuctrl_fault_status
                                    0x000029b5   Gb    1  Code  Hi   0x34
    636  am_hal_pwrctrl_bucks_disable
                                    0x000029ed   Gb    1  Code  Hi   0x44
    637  am_hal_pwrctrl_bucks_enable
                                    0x00002a39   Gb    1  Code  Hi   0x2e
    638  am_hal_pwrctrl_low_power_init
                                    0x00002a6d   Gb    1  Code  Hi   0x14
    639  am_hal_pwrctrl_memory_enable
                                    0x00002a85   Gb    1  Code  Hi   0x174
    640  am_hal_pwrctrl_periph_disable
                                    0x00002c05   Gb    1  Code  Hi   0x34
    641  am_hal_pwrctrl_periph_enable
                                    0x00002c85   Gb    1  Code  Hi   0x70
    642  am_hal_queue_init          0x00002d41   Gb    1  Code  Hi   0x16
    643  am_hal_queue_item_add      0x00002d57   Gb    1  Code  Hi   0x9e
    644  am_hal_queue_item_get      0x00002df5   Gb    1  Code  Hi   0x98
    645  am_hal_rtc_osc_disable     0x00002e8d   Gb    1  Code  Hi   0xe
    646  am_hal_rtc_osc_select      0x00002e9b   Gb    1  Code  Hi   0x16
    647  am_hal_sysctrl_sleep       0x00002eb1   Gb    1  Code  Hi   0xda
    648  am_hal_uart_char_receive_buffered
                                    0x00002f9d   Gb    1  Code  Hi   0x36
    649  am_hal_uart_char_transmit_buffered
                                    0x00002fd9   Gb    1  Code  Hi   0x3a
    650  am_hal_uart_clock_enable   0x00003019   Gb    1  Code  Hi   0x26
    651  am_hal_uart_config         0x00003041   Gb    1  Code  Hi   0x64
    652  am_hal_uart_disable        0x000030ed   Gb    1  Code  Hi   0x2a
    653  am_hal_uart_enable         0x00003117   Gb    1  Code  Hi   0x28
    654  am_hal_uart_fifo_config    0x0000313f   Gb    1  Code  Hi   0x16
    655  am_hal_uart_init_buffered  0x00003155   Gb    1  Code  Hi   0x5e
    656  am_hal_uart_int_clear      0x000031bd   Gb    1  Code  Hi   0xe
    657  am_hal_uart_int_enable     0x000031cb   Gb    1  Code  Hi   0x12
    658  am_hal_uart_int_status_get 0x000031dd   Gb    1  Code  Hi   0x14
    659  am_hal_uart_pwrctrl_enable 0x000031f1   Gb    1  Code  Hi   0x20
    660  am_hal_uart_service_buffered_timeout_save
                                    0x00003259   Gb    1  Code  Hi   0xcc
    661  am_hal_uart_string_transmit_polled
                                    0x0000332d   Gb    1  Code  Hi   0x28
    662  am_hal_vcomp_disable       0x00003355   Gb    1  Code  Hi   0x8
    663  am_iomaster5_isr           0x00003361   Gb    1  Code  Hi   0x1e
    664  am_uart_isr                0x00003381   Gb    1  Code  Hi   0x30
    665  am_util_delay_ms           0x000033b5   Gb    1  Code  Hi   0x1e
    666  am_util_faultisr_collect_data
                                    0x000033d5   Gb    1  Code  Hi   0xb2
    667  am_util_stdio_printf_init  0x0000348d   Gb    1  Code  Hi   0x6
    668  em9304_init                0x00003499   Gb    1  Code  Hi   0xb8
    669  main                       0x000035c1   Gb    1  Code  Hi   0xf2
    670  timer_init                 0x0000375d   Gb    1  Code  Hi   0x3c
    671  uart_init                  0x00003799   Gb    1  Code  Hi   0xc6
    672  _fp_init                   0x00003871   Gb    1  Code  De   0xa
    673  __fplib_config_fpu_vfp     0x00003879   Gb    1  Code  De 
    674  __fplib_config_pureend_doubles
                                    0x00003879   Gb    1  Code  De 
    675  g_sEm9304IOMConfigSPI      0x0000387c   Gb    1  Data  Hi   0xc
    676  g_sEm9304                  0x00003888   Gb    1  Data  Hi   0x10
    677  am_hal_cachectrl_defaults  0x00003898   Gb    1  Data  Hi   0xc
    678  i2c_bb_errmap              0x000038a4   Gb    1  Data  Hi   0x5
    679  g_IOMPads                  0x000038a9   Gb    1  Data  Hi   0x27
    680  g_I2CPads                  0x000038d0   Gb    1  Data  Hi   0x15
    681  Region$$Table$$Base        0x000038e8   Gb    1   --   Hi 
    682  Region$$Table$$Limit       0x00003908   Gb    1   --   Hi 
    683  g_sUartConfig              0x10000000   Gb    2  Data  Hi   0x14
    684  g_pui8TxArray              0x10000014   Gb    2  Data  Hi   0x4
    685  g_bEM9304HCIReady          0x10000018   Gb    2  Data  Hi   0x1
    686  g_bRxTimeoutFlag           0x10000019   Gb    2  Data  Hi   0x1
    687  g_bPTMToggleFlag           0x1000001a   Gb    2  Data  Hi   0x1
    688  g_pfnCharPrint             0x1000001c   Gb    2  Data  Hi   0x4
    689  g_BLEMacAddress            0x10000023   Gb    2  Data  Hi   0x6
    690  g_ui32HALflags             0x1000002c   Gb    2  Data  Hi   0x4
    691  am_bsp_psButtons           0x10000030   Gb    2  Data  Hi   0x30
    692  am_hal_iom_queue_flush     0x10000060   Gb    2  Data  Hi   0x4
    693  g_bIomBusy                 0x10000064   Gb    2  Data  Hi   0x7
    694  g_pui32TxArray             0x10000090   Gb    3  Data  Hi   0x80
    695  g_pui8RxArray              0x10000110   Gb    3  Data  Hi   0x80
    696  g_pui8UARTTXBuffer         0x10000190   Gb    3  Data  Hi   0x80
    697  g_pui8UARTRXBuffer         0x10000210   Gb    3  Data  Hi   0x80
    698  g_psIOMBuffers             0x10000290   Gb    3  Data  Hi   0x78
    699  ui32StatusTimeout          0x10000308   Gb    3  Data  Hi   0x18
    700  g_psIOMQueue               0x10000320   Gb    3  Data  Hi   0x90
    701  am_hal_iom_pwrsave         0x100003b0   Gb    3  Data  Hi   0x78
    702  g_psTxQueue                0x10000428   Gb    3  Data  Hi   0x30
    703  g_psRxQueue                0x10000458   Gb    3  Data  Hi   0x30
    704  am_hal_uart_pwrsave        0x10000488   Gb    3  Data  Hi   0x48
    705  __libspace_start           0x100004d0   Gb    3  Data  De   0x60
    706  __temporary_stack_top$libspace
                                    0x10000530   Gb    3  Data  De 


** Section #12 '.strtab' (SHT_STRTAB)
    Size   : 10948 bytes

            #  Offset String
        ====================================

            1      1: $d
            2      4: $t
            3      7: $d.realdata
            4     19: ../src/em9304_test_bridge.c
            5     47: i.am_ctimer_isr
            6     63: i.am_gpio_isr
            7     77: i.am_uart_isr
            8     91: i.em9304_init
            9    105: i.main
           10    112: i.timer_init
           11    125: i.uart_init
           12    137: .bss
           13    142: .data
           14    148: ../../../../../utils/am_util_delay.c
           15    185: i.am_util_delay_ms
           16    204: ..\..\..\..\..\utils\am_util_faultisr.c
           17    244: .emb_text
           18    254: $v0
           19    258: ../../../../../utils/am_util_faultisr.c
           20    298: i.am_util_faultisr_collect_data
           21    330: ../../../../../utils/am_util_stdio.c
           22    367: i.am_util_stdio_printf_init
           23    395: g_bTxtXlate
           24    407: ../../../../../devices/am_devices_button.c
           25    450: i.am_devices_button_array_init
           26    481: i.am_devices_button_init
           27    506: i.am_devices_button_tick
           28    531: ../../../../../devices/am_devices_em9304.c
           29    574: i.am_devices_em9304_block_read
           30    605: i.am_devices_em9304_block_write
           31    637: i.am_devices_em9304_config_pins
           32    669: i.am_devices_em9304_configure_spi_sleep
           33    709: i.am_devices_em9304_enable_interrupt
           34    746: i.am_devices_em9304_spi_awake
           35    776: i.am_devices_em9304_spi_init
           36    805: i.am_devices_em9304_spi_sleep
           37    835: i.am_devices_em9304_tx_ends
           38    863: i.am_devices_em9304_tx_starts
           39    893: i.am_iomaster5_isr
           40    912: i.iom_write_complete
           41    933: iom_write_complete
           42    952: i.isRevB2
           43    962: isRevB2
           44    970: .constdata
           45    981: spiTxInProgress
           46    997: gIomDone
           47   1006: ../keil/startup_keil.s
           48   1029: STACK
           49   1035: StackMem
           50   1044: HEAP
           51   1049: HeapMem
           52   1057: RESET
           53   1063: .text
           54   1069: ../am_hal_global.c
           55   1088: ../am_bsp.c
           56   1100: i.am_bsp_iom_spi_pins_enable
           57   1129: i.am_bsp_low_power_init
           58   1153: i.am_bsp_uart_string_print
           59   1180: ../am_hal_cachectrl.c
           60   1202: i.am_hal_cachectrl_enable
           61   1228: ../am_hal_clkgen.c
           62   1247: i.am_hal_clkgen_osc_stop
           63   1272: i.am_hal_clkgen_sysclk_get
           64   1299: i.am_hal_clkgen_sysclk_select
           65   1329: i.am_hal_clkgen_uarten_set
           66   1356: ..\am_hal_ctimer.c
           67   1375: ../am_hal_ctimer.c
           68   1394: i.am_hal_ctimer_clear
           69   1416: i.am_hal_ctimer_config_single
           70   1446: i.am_hal_ctimer_int_clear
           71   1472: i.am_hal_ctimer_int_enable
           72   1499: i.am_hal_ctimer_int_status_get
           73   1530: i.am_hal_ctimer_period_set
           74   1557: i.am_hal_ctimer_start
           75   1579: ../am_hal_flash.c
           76   1597: i.am_hal_flash_delay
           77   1618: i.am_hal_flash_delay_status_change
           78   1653: ../am_hal_gpio.c
           79   1670: i.am_hal_gpio_input_read
           80   1695: i.am_hal_gpio_int_clear
           81   1719: i.am_hal_gpio_int_enable
           82   1744: i.am_hal_gpio_int_status_get
           83   1773: ..\am_hal_interrupt.c
           84   1795: ../am_hal_interrupt.c
           85   1817: i.am_hal_interrupt_enable
           86   1843: ..\am_hal_iom.c
           87   1859: ../am_hal_iom.c
           88   1875: i.am_hal_iom_config
           89   1895: i.am_hal_iom_disable
           90   1916: i.am_hal_iom_enable
           91   1936: i.am_hal_iom_fifo_read
           92   1959: i.am_hal_iom_fifo_write
           93   1983: i.am_hal_iom_int_clear
           94   2006: i.am_hal_iom_int_enable
           95   2030: i.am_hal_iom_int_service
           96   2055: i.am_hal_iom_int_status_get
           97   2083: i.am_hal_iom_poll_complete
           98   2110: i.am_hal_iom_power_off_save
           99   2138: i.am_hal_iom_power_on_restore
          100   2168: i.am_hal_iom_pwrctrl_enable
          101   2196: i.am_hal_iom_sleeping_queue_flush
          102   2230: i.am_hal_iom_spi_fullduplex
          103   2258: i.am_hal_iom_spi_fullduplex_nq
          104   2289: i.am_hal_iom_spi_read
          105   2311: i.am_hal_iom_spi_read_nb
          106   2336: i.am_hal_iom_spi_read_nq
          107   2361: i.am_hal_iom_spi_write
          108   2384: i.am_hal_iom_spi_write_nb
          109   2410: i.am_hal_iom_spi_write_nq
          110   2436: i.am_hal_iom_workaround_word_write
          111   2471: i.internal_iom_get_int_err
          112   2498: internal_iom_get_int_err
          113   2523: g_iom_error_status
          114   2542: ../am_hal_mcuctrl.c
          115   2562: i.am_hal_mcuctrl_fault_status
          116   2592: ../am_hal_sysctrl.c
          117   2612: i.am_hal_sysctrl_sleep
          118   2635: i.setBuckZX
          119   2647: setBuckZX
          120   2657: g_bBuckRestoreComplete
          121   2680: g_ui32BuckTimer
          122   2696: g_ui32BuckInputs
          123   2713: g_buckZX_chk
          124   2726: g_ui32SaveCoreBuckZX
          125   2747: g_ui32SaveMemBuckZX
          126   2767: g_ui32CoreBuck
          127   2782: ../am_hal_uart.c
          128   2799: i.am_hal_uart_char_receive_buffered
          129   2835: i.am_hal_uart_char_transmit_buffered
          130   2872: i.am_hal_uart_clock_enable
          131   2899: i.am_hal_uart_config
          132   2920: i.am_hal_uart_disable
          133   2942: i.am_hal_uart_enable
          134   2963: i.am_hal_uart_fifo_config
          135   2989: i.am_hal_uart_init_buffered
          136   3017: i.am_hal_uart_int_clear
          137   3041: i.am_hal_uart_int_enable
          138   3066: i.am_hal_uart_int_status_get
          139   3095: i.am_hal_uart_pwrctrl_enable
          140   3124: i.am_hal_uart_service_buffered_timeout_save
          141   3168: i.am_hal_uart_string_transmit_polled
          142   3205: ../am_hal_debug.c
          143   3223: i.am_hal_debug_error
          144   3244: ../am_hal_i2c_bit_bang.c
          145   3269: ../am_hal_itm.c
          146   3285: ../am_hal_pwrctrl.c
          147   3305: i.am_hal_pwrctrl_bucks_disable
          148   3336: i.am_hal_pwrctrl_bucks_enable
          149   3366: i.am_hal_pwrctrl_low_power_init
          150   3398: i.am_hal_pwrctrl_memory_enable
          151   3429: i.am_hal_pwrctrl_periph_disable
          152   3461: i.am_hal_pwrctrl_periph_enable
          153   3492: ../am_hal_queue.c
          154   3510: i.am_hal_queue_init
          155   3530: i.am_hal_queue_item_add
          156   3554: i.am_hal_queue_item_get
          157   3578: ../am_hal_rtc.c
          158   3594: i.am_hal_rtc_osc_disable
          159   3619: i.am_hal_rtc_osc_select
          160   3643: ../am_hal_tpiu.c
          161   3660: ../am_hal_vcomp.c
          162   3678: i.am_hal_vcomp_disable
          163   3701: dc.s
          164   3706: ../clib/longlong.s
          165   3725: ../clib/memcpset.s
          166   3744: ../clib/heapaux.c
          167   3762: ../clib/angel/startup.s
          168   3786: !!!main
          169   3794: ../fplib/d2f.s
          170   3809: ../clib/angel/kernel.s
          171   3832: .ARM.Collect$$rtentry$$00000000
          172   3864: ../fplib/dnaninf.s
          173   3883: ../fplib/fretinf.s
          174   3902: ../fplib/usenofp.s
          175   3921: .ARM.Collect$$rtentry$$00000002
          176   3953: .ARM.Collect$$rtentry$$00000009
          177   3985: .ARM.Collect$$rtentry$$0000000A
          178   4017: .ARM.Collect$$rtentry$$0000000C
          179   4049: .ARM.Collect$$rtentry$$0000000D
          180   4081: .ARM.Collect$$rtentry$$00000004
          181   4113: ../clib/angel/sys.s
          182   4133: ../clib/stdlib.c
          183   4150: ../clib/angel/boardlib.s
          184   4175: ../clib/libinit.s
          185   4193: .ARM.Collect$$libinit$$00000000
          186   4225: .ARM.Collect$$rtexit$$00000000
          187   4256: .ARM.Collect$$libinit$$00000001
          188   4288: .ARM.Collect$$libinit$$00000004
          189   4320: .ARM.Collect$$libinit$$0000000A
          190   4352: .ARM.Collect$$libinit$$0000000C
          191   4384: .ARM.Collect$$libinit$$0000000E
          192   4416: .ARM.Collect$$libinit$$00000011
          193   4448: .ARM.Collect$$libinit$$00000013
          194   4480: .ARM.Collect$$libinit$$00000015
          195   4512: .ARM.Collect$$libinit$$00000017
          196   4544: .ARM.Collect$$libinit$$00000019
          197   4576: .ARM.Collect$$libinit$$0000001B
          198   4608: .ARM.Collect$$libinit$$0000001D
          199   4640: .ARM.Collect$$libinit$$0000001F
          200   4672: .ARM.Collect$$libinit$$00000021
          201   4704: .ARM.Collect$$libinit$$00000023
          202   4736: .ARM.Collect$$libinit$$00000025
          203   4768: .ARM.Collect$$libinit$$0000002C
          204   4800: .ARM.Collect$$libinit$$0000002E
          205   4832: .ARM.Collect$$libinit$$00000030
          206   4864: .ARM.Collect$$libinit$$00000032
          207   4896: .ARM.Collect$$libinit$$00000033
          208   4928: .ARM.Collect$$rtexit$$00000002
          209   4959: .ARM.Collect$$rtexit$$00000003
          210   4990: .ARM.Collect$$rtexit$$00000004
          211   5021: ../clib/armsys.c
          212   5038: ../fplib/fpinit.s
          213   5056: x$fpl$fpinit
          214   5069: ../clib/angel/sysapp.c
          215   5092: .ARM.Collect$$libshutdown$$00000000
          216   5128: ../clib/heapalloc.c
          217   5148: ../clib/signal.c
          218   5165: .ARM.Collect$$libshutdown$$00000002
          219   5201: .ARM.Collect$$libshutdown$$00000004
          220   5237: .ARM.Collect$$libshutdown$$00000007
          221   5273: .ARM.Collect$$libshutdown$$0000000A
          222   5309: .ARM.Collect$$libshutdown$$0000000C
          223   5345: .ARM.Collect$$libshutdown$$0000000F
          224   5381: .ARM.Collect$$libshutdown$$00000010
          225   5417: ../clib/angel/rt.s
          226   5436: ../clib/signal.s
          227   5453: ../clib/angel/scatter.s
          228   5477: !!!scatter
          229   5488: ../clib/angel/handlers.s
          230   5513: !!handler_copy
          231   5528: !!handler_zi
          232   5541: BuildAttributes$$THM_ISAv4$E$P$D$K$B$S$7EM$VFPi3$EXTD16$VFPS$VFMA$PE$A:L22UL41UL21$X:L11$S22US41US21$IEEE1$IW$USESV6$~STKCKD$USESV7$~SHL$OTIME$ROPI$EBA8$UX$STANDARDLIB$REQ8$EABIv2
          233   5721: __ARM_use_no_argv
          234   5739: __Vectors
          235   5749: Reset_Handler
          236   5763: am_nmi_isr
          237   5774: am_memmanage_isr
          238   5791: am_adc_isr
          239   5802: am_brownout_isr
          240   5818: am_clkgen_isr
          241   5832: am_debugmon_isr
          242   5848: am_flash_isr
          243   5861: am_iomaster0_isr
          244   5878: am_iomaster1_isr
          245   5895: am_iomaster2_isr
          246   5912: am_iomaster3_isr
          247   5929: am_iomaster4_isr
          248   5946: am_ioslave_acc_isr
          249   5965: am_ioslave_ios_isr
          250   5984: am_pdm_isr
          251   5995: am_pendsv_isr
          252   6009: am_software0_isr
          253   6026: am_software1_isr
          254   6043: am_software2_isr
          255   6060: am_software3_isr
          256   6077: am_stimer_cmpr0_isr
          257   6097: am_stimer_cmpr1_isr
          258   6117: am_stimer_cmpr2_isr
          259   6137: am_stimer_cmpr3_isr
          260   6157: am_stimer_cmpr4_isr
          261   6177: am_stimer_cmpr5_isr
          262   6197: am_stimer_cmpr6_isr
          263   6217: am_stimer_cmpr7_isr
          264   6237: am_stimer_isr
          265   6251: am_svcall_isr
          266   6265: am_systick_isr
          267   6280: am_uart0_isr
          268   6293: am_uart1_isr
          269   6306: am_vcomp_isr
          270   6319: am_watchdog_isr
          271   6335: __main
          272   6342: __scatterload
          273   6356: __scatterload_rt2
          274   6374: __scatterload_rt2_thumb_only
          275   6403: __scatterload_null
          276   6422: __scatterload_copy
          277   6441: __scatterload_zeroinit
          278   6464: __rt_lib_init
          279   6478: __rt_lib_init_fp_1
          280   6497: __rt_lib_init_alloca_1
          281   6520: __rt_lib_init_argv_1
          282   6541: __rt_lib_init_atexit_1
          283   6564: __rt_lib_init_clock_1
          284   6586: __rt_lib_init_cpp_1
          285   6606: __rt_lib_init_exceptions_1
          286   6633: __rt_lib_init_fp_trap_1
          287   6657: __rt_lib_init_getenv_1
          288   6680: __rt_lib_init_heap_1
          289   6701: __rt_lib_init_lc_collate_1
          290   6728: __rt_lib_init_lc_ctype_1
          291   6753: __rt_lib_init_lc_monetary_1
          292   6781: __rt_lib_init_lc_numeric_1
          293   6808: __rt_lib_init_lc_time_1
          294   6832: __rt_lib_init_preinit_1
          295   6856: __rt_lib_init_rand_1
          296   6877: __rt_lib_init_return
          297   6898: __rt_lib_init_signal_1
          298   6921: __rt_lib_init_stdio_1
          299   6943: __rt_lib_init_user_alloc_1
          300   6970: __rt_lib_shutdown
          301   6988: __rt_lib_shutdown_cpp_1
          302   7012: __rt_lib_shutdown_fp_trap_1
          303   7040: __rt_lib_shutdown_heap_1
          304   7065: __rt_lib_shutdown_return
          305   7090: __rt_lib_shutdown_signal_1
          306   7117: __rt_lib_shutdown_stdio_1
          307   7143: __rt_lib_shutdown_user_alloc_1
          308   7174: __rt_entry
          309   7185: __rt_entry_presh_1
          310   7204: __rt_entry_sh
          311   7218: __rt_entry_li
          312   7232: __rt_entry_postsh_1
          313   7252: __rt_entry_main
          314   7268: __rt_entry_postli_1
          315   7288: __rt_exit
          316   7298: __rt_exit_ls
          317   7311: __rt_exit_prels_1
          318   7329: __rt_exit_exit
          319   7344: am_fault_isr
          320   7357: getStackedReg
          321   7371: am_hal_interrupt_master_enable
          322   7402: am_hal_interrupt_master_disable
          323   7434: am_hal_interrupt_master_set
          324   7462: __asm___12_am_hal_iom_c_97762dd2__iom_workaround_loop
          325   7516: __user_initial_stackheap
          326   7541: __aeabi_memcpy
          327   7556: __rt_memcpy
          328   7568: _memcpy_lastbytes
          329   7586: __aeabi_memclr4
          330   7602: __aeabi_memclr8
          331   7618: __rt_memclr_w
          332   7632: _memset_w
          333   7642: __use_two_region_memory
          334   7666: __rt_heap_escrow$2region
          335   7691: __rt_heap_expand$2region
          336   7716: __aeabi_memcpy4
          337   7732: __aeabi_memcpy8
          338   7748: __rt_memcpy_w
          339   7762: _memcpy_lastbytes_aligned
          340   7788: __user_setup_stackheap
          341   7811: exit
          342   7816: __user_libspace
          343   7832: __user_perproc_libspace
          344   7856: __user_perthread_libspace
          345   7882: _sys_exit
          346   7892: __I$use$semihosting
          347   7912: __use_no_semihosting_swi
          348   7937: __semihosting_library_function
          349   7968: am_bsp_iom_spi_pins_enable
          350   7995: am_bsp_low_power_init
          351   8017: am_bsp_uart_string_print
          352   8042: am_ctimer_isr
          353   8056: am_devices_button_array_init
          354   8085: am_devices_button_init
          355   8108: am_devices_button_tick
          356   8131: am_devices_em9304_block_read
          357   8160: am_devices_em9304_block_write
          358   8190: am_devices_em9304_config_pins
          359   8220: am_devices_em9304_configure_spi_sleep
          360   8258: am_devices_em9304_enable_interrupt
          361   8293: am_devices_em9304_spi_awake
          362   8321: am_devices_em9304_spi_init
          363   8348: am_devices_em9304_spi_sleep
          364   8376: am_devices_em9304_tx_ends
          365   8402: am_devices_em9304_tx_starts
          366   8430: am_gpio_isr
          367   8442: am_hal_cachectrl_enable
          368   8466: am_hal_clkgen_osc_stop
          369   8489: am_hal_clkgen_sysclk_get
          370   8514: am_hal_clkgen_sysclk_select
          371   8542: am_hal_clkgen_uarten_set
          372   8567: am_hal_ctimer_clear
          373   8587: am_hal_ctimer_config_single
          374   8615: am_hal_ctimer_int_clear
          375   8639: am_hal_ctimer_int_enable
          376   8664: am_hal_ctimer_int_status_get
          377   8693: am_hal_ctimer_period_set
          378   8718: am_hal_ctimer_start
          379   8738: am_hal_debug_error
          380   8757: am_hal_flash_delay
          381   8776: am_hal_flash_delay_status_change
          382   8809: am_hal_gpio_input_read
          383   8832: am_hal_gpio_int_clear
          384   8854: am_hal_gpio_int_enable
          385   8877: am_hal_gpio_int_status_get
          386   8904: am_hal_interrupt_enable
          387   8928: am_hal_iom_config
          388   8946: am_hal_iom_disable
          389   8965: am_hal_iom_enable
          390   8983: am_hal_iom_fifo_read
          391   9004: am_hal_iom_fifo_write
          392   9026: am_hal_iom_int_clear
          393   9047: am_hal_iom_int_enable
          394   9069: am_hal_iom_int_service
          395   9092: am_hal_iom_int_status_get
          396   9118: am_hal_iom_poll_complete
          397   9143: am_hal_iom_power_off_save
          398   9169: am_hal_iom_power_on_restore
          399   9197: am_hal_iom_pwrctrl_enable
          400   9223: am_hal_iom_sleeping_queue_flush
          401   9255: am_hal_iom_spi_fullduplex
          402   9281: am_hal_iom_spi_fullduplex_nq
          403   9310: am_hal_iom_spi_read
          404   9330: am_hal_iom_spi_read_nb
          405   9353: am_hal_iom_spi_read_nq
          406   9376: am_hal_iom_spi_write
          407   9397: am_hal_iom_spi_write_nb
          408   9421: am_hal_iom_spi_write_nq
          409   9445: am_hal_iom_workaround_word_write
          410   9478: am_hal_mcuctrl_fault_status
          411   9506: am_hal_pwrctrl_bucks_disable
          412   9535: am_hal_pwrctrl_bucks_enable
          413   9563: am_hal_pwrctrl_low_power_init
          414   9593: am_hal_pwrctrl_memory_enable
          415   9622: am_hal_pwrctrl_periph_disable
          416   9652: am_hal_pwrctrl_periph_enable
          417   9681: am_hal_queue_init
          418   9699: am_hal_queue_item_add
          419   9721: am_hal_queue_item_get
          420   9743: am_hal_rtc_osc_disable
          421   9766: am_hal_rtc_osc_select
          422   9788: am_hal_sysctrl_sleep
          423   9809: am_hal_uart_char_receive_buffered
          424   9843: am_hal_uart_char_transmit_buffered
          425   9878: am_hal_uart_clock_enable
          426   9903: am_hal_uart_config
          427   9922: am_hal_uart_disable
          428   9942: am_hal_uart_enable
          429   9961: am_hal_uart_fifo_config
          430   9985: am_hal_uart_init_buffered
          431  10011: am_hal_uart_int_clear
          432  10033: am_hal_uart_int_enable
          433  10056: am_hal_uart_int_status_get
          434  10083: am_hal_uart_pwrctrl_enable
          435  10110: am_hal_uart_service_buffered_timeout_save
          436  10152: am_hal_uart_string_transmit_polled
          437  10187: am_hal_vcomp_disable
          438  10208: am_iomaster5_isr
          439  10225: am_uart_isr
          440  10237: am_util_delay_ms
          441  10254: am_util_faultisr_collect_data
          442  10284: am_util_stdio_printf_init
          443  10310: em9304_init
          444  10322: main
          445  10327: timer_init
          446  10338: uart_init
          447  10348: _fp_init
          448  10357: __fplib_config_fpu_vfp
          449  10380: __fplib_config_pureend_doubles
          450  10411: g_sEm9304IOMConfigSPI
          451  10433: g_sEm9304
          452  10443: am_hal_cachectrl_defaults
          453  10469: i2c_bb_errmap
          454  10483: g_IOMPads
          455  10493: g_I2CPads
          456  10503: Region$$Table$$Base
          457  10523: Region$$Table$$Limit
          458  10544: g_sUartConfig
          459  10558: g_pui8TxArray
          460  10572: g_bEM9304HCIReady
          461  10590: g_bRxTimeoutFlag
          462  10607: g_bPTMToggleFlag
          463  10624: g_pfnCharPrint
          464  10639: g_BLEMacAddress
          465  10655: g_ui32HALflags
          466  10670: am_bsp_psButtons
          467  10687: am_hal_iom_queue_flush
          468  10710: g_bIomBusy
          469  10721: g_pui32TxArray
          470  10736: g_pui8RxArray
          471  10750: g_pui8UARTTXBuffer
          472  10769: g_pui8UARTRXBuffer
          473  10788: g_psIOMBuffers
          474  10803: ui32StatusTimeout
          475  10821: g_psIOMQueue
          476  10834: am_hal_iom_pwrsave
          477  10853: g_psTxQueue
          478  10865: g_psRxQueue
          479  10877: am_hal_uart_pwrsave
          480  10897: __libspace_start
          481  10914: __temporary_stack_top$libspace
          482  10945: 
          483  10946: 
          484  10947: 


** Section #13 '.note' (SHT_NOTE)
    Size   : 28 bytes (alignment 4)


** Section #14 '.comment' (SHT_PROGBITS)
    Size   : 18248 bytes


** Section #15 '.shstrtab' (SHT_STRTAB)
    Size   : 148 bytes

            #  Offset String
        ====================================

            1      1: FLASH
            2      7: SRAM
            3     12: .debug_abbrev
            4     26: .debug_frame
            5     39: .debug_info
            6     51: .debug_line
            7     63: .debug_loc
            8     74: .debug_macinfo
            9     89: .debug_pubnames
           10    105: .symtab
           11    113: .strtab
           12    121: .note
           13    127: .comment
           14    136: .shstrtab
           15    146: 
           16    147: 


