
========================================================================

** ELF Header Information

    File Name: bin\i2c_loopback.axf

    Machine class: ELFCLASS32 (32-bit)
    Data encoding: ELFDATA2LSB (Little endian)
    Header version: EV_CURRENT (Current version)
    Operating System ABI: none
    ABI Version: 0
    File Type: ET_EXEC (Executable) (2)
    Machine: EM_ARM (ARM)

    Image Entry point: 0x000000e9
    Flags: EF_ARM_HASENTRY + EF_ARM_ABI_FLOAT_HARD (0x05000402)

    ARM ELF revision: 5 (ABI version 2)

    Conforms to Hard float procedure-call standard

    Built with
    Component: ARM Compiler 5.06 update 5 (build 528) Tool: armasm [4d35e1]
    Component: ARM Compiler 5.06 update 5 (build 528) Tool: armlink [4d35e2]

    Header size: 52 bytes (0x34)
    Program header entry size: 32 bytes (0x20)
    Section header entry size: 40 bytes (0x28)

    Program header entries: 1
    Section header entries: 16

    Program header offset: 83572 (0x00014674)
    Section header offset: 83604 (0x00014694)

    Section header string table index: 15

========================================================================

** Program header #0 (PT_LOAD) [PF_X + PF_W + PF_R + PF_ARM_ENTRY]
    Size : 19544 bytes (13732 bytes in file)
    Virtual address: 0x00000000 (Alignment 8)


========================================================================

** Section #1 'FLASH' (SHT_PROGBITS) [SHF_ALLOC + SHF_EXECINSTR]
    Size   : 13552 bytes (alignment 4)
    Address: 0x00000000

    $d
    RESET
    __Vectors
        0x00000000:    10001768    h...    DCD    268441448
        0x00000004:    000000c1    ....    DCD    193
        0x00000008:    000000dd    ....    DCD    221
        0x0000000c:    000000df    ....    DCD    223
        0x00000010:    000000df    ....    DCD    223
        0x00000014:    000000df    ....    DCD    223
        0x00000018:    000000df    ....    DCD    223
        0x0000001c:    00000000    ....    DCD    0
        0x00000020:    00000000    ....    DCD    0
        0x00000024:    00000000    ....    DCD    0
        0x00000028:    00000000    ....    DCD    0
        0x0000002c:    000000e3    ....    DCD    227
        0x00000030:    000000e3    ....    DCD    227
        0x00000034:    00000000    ....    DCD    0
        0x00000038:    000000e3    ....    DCD    227
        0x0000003c:    000000e3    ....    DCD    227
        0x00000040:    000000e3    ....    DCD    227
        0x00000044:    000000e3    ....    DCD    227
        0x00000048:    000000e3    ....    DCD    227
        0x0000004c:    000000e3    ....    DCD    227
        0x00000050:    000000e3    ....    DCD    227
        0x00000054:    000000e3    ....    DCD    227
        0x00000058:    00002589    .%..    DCD    9609
        0x0000005c:    000000e3    ....    DCD    227
        0x00000060:    000000e3    ....    DCD    227
        0x00000064:    000000e3    ....    DCD    227
        0x00000068:    000000e3    ....    DCD    227
        0x0000006c:    000000e3    ....    DCD    227
        0x00000070:    000000e3    ....    DCD    227
        0x00000074:    000000e3    ....    DCD    227
        0x00000078:    000000e3    ....    DCD    227
        0x0000007c:    000000e3    ....    DCD    227
        0x00000080:    000000e3    ....    DCD    227
        0x00000084:    000000e3    ....    DCD    227
        0x00000088:    000000e3    ....    DCD    227
        0x0000008c:    000000e3    ....    DCD    227
        0x00000090:    000000e3    ....    DCD    227
        0x00000094:    000000e3    ....    DCD    227
        0x00000098:    000000e3    ....    DCD    227
        0x0000009c:    000000e3    ....    DCD    227
        0x000000a0:    000000e3    ....    DCD    227
        0x000000a4:    000000e3    ....    DCD    227
        0x000000a8:    000000e3    ....    DCD    227
        0x000000ac:    000000e3    ....    DCD    227
        0x000000b0:    000000e3    ....    DCD    227
        0x000000b4:    000000e3    ....    DCD    227
        0x000000b8:    000000e3    ....    DCD    227
        0x000000bc:    000000e3    ....    DCD    227
    $t
    $v0
    Reset_Handler
        0x000000c0:    f64e5088    N..P    MOV      r0,#0xed88
        0x000000c4:    f2ce0000    ....    MOVT     r0,#0xe000
        0x000000c8:    6801        .h      LDR      r1,[r0,#0]
        0x000000ca:    f4410170    A.p.    ORR      r1,r1,#0xf00000
        0x000000ce:    6001        .`      STR      r1,[r0,#0]
        0x000000d0:    f3bf8f4f    ..O.    DSB      
        0x000000d4:    f3bf8f6f    ..o.    ISB      
        0x000000d8:    4802        .H      LDR      r0,[pc,#8] ; [0xe4] = 0xe9
        0x000000da:    4700        .G      BX       r0
    am_nmi_isr
        0x000000dc:    e7fe        ..      B        am_nmi_isr ; 0xdc
    am_fault_isr
        0x000000de:    e7fe        ..      B        am_fault_isr ; 0xde
    am_memmanage_isr
        0x000000e0:    e7fe        ..      B        am_memmanage_isr ; 0xe0
    am_adc_isr
    am_brownout_isr
    am_clkgen_isr
    am_ctimer_isr
    am_debugmon_isr
    am_flash_isr
    am_gpio_isr
    am_iomaster1_isr
    am_iomaster2_isr
    am_iomaster3_isr
    am_iomaster4_isr
    am_iomaster5_isr
    am_ioslave_acc_isr
    am_ioslave_ios_isr
    am_pdm_isr
    am_pendsv_isr
    am_software0_isr
    am_software1_isr
    am_software2_isr
    am_software3_isr
    am_stimer_cmpr0_isr
    am_stimer_cmpr1_isr
    am_stimer_cmpr2_isr
    am_stimer_cmpr3_isr
    am_stimer_cmpr4_isr
    am_stimer_cmpr5_isr
    am_stimer_cmpr6_isr
    am_stimer_cmpr7_isr
    am_stimer_isr
    am_svcall_isr
    am_systick_isr
    am_uart0_isr
    am_uart1_isr
    am_uart_isr
    am_vcomp_isr
    am_watchdog_isr
        0x000000e2:    e7fe        ..      B        am_adc_isr ; 0xe2
    $d
        0x000000e4:    000000e9    ....    DCD    233
    $t
    !!!main
    __main
        0x000000e8:    f000f802    ....    BL       __scatterload ; 0xf0
        0x000000ec:    f000f83c    ..<.    BL       __rt_entry ; 0x168
    !!!scatter
    __scatterload
    __scatterload_rt2
    __scatterload_rt2_thumb_only
        0x000000f0:    a00a        ..      ADR      r0,{pc}+0x2c ; 0x11c
        0x000000f2:    e8900c00    ....    LDM      r0,{r10,r11}
        0x000000f6:    4482        .D      ADD      r10,r10,r0
        0x000000f8:    4483        .D      ADD      r11,r11,r0
        0x000000fa:    f1aa0701    ....    SUB      r7,r10,#1
    __scatterload_null
        0x000000fe:    45da        .E      CMP      r10,r11
        0x00000100:    d101        ..      BNE      0x106 ; __scatterload_null + 8
        0x00000102:    f000f831    ..1.    BL       __rt_entry ; 0x168
        0x00000106:    f2af0e09    ....    ADR      lr,{pc}-7 ; 0xff
        0x0000010a:    e8ba000f    ....    LDM      r10!,{r0-r3}
        0x0000010e:    f0130f01    ....    TST      r3,#1
        0x00000112:    bf18        ..      IT       NE
        0x00000114:    1afb        ..      SUBNE    r3,r7,r3
        0x00000116:    f0430301    C...    ORR      r3,r3,#1
        0x0000011a:    4718        .G      BX       r3
    $d
        0x0000011c:    000033b4    .3..    DCD    13236
        0x00000120:    000033d4    .3..    DCD    13268
    $t
    !!handler_copy
    __scatterload_copy
        0x00000124:    3a10        .:      SUBS     r2,r2,#0x10
        0x00000126:    bf24        $.      ITT      CS
        0x00000128:    c878        x.      LDMCS    r0!,{r3-r6}
        0x0000012a:    c178        x.      STMCS    r1!,{r3-r6}
        0x0000012c:    d8fa        ..      BHI      __scatterload_copy ; 0x124
        0x0000012e:    0752        R.      LSLS     r2,r2,#29
        0x00000130:    bf24        $.      ITT      CS
        0x00000132:    c830        0.      LDMCS    r0!,{r4,r5}
        0x00000134:    c130        0.      STMCS    r1!,{r4,r5}
        0x00000136:    bf44        D.      ITT      MI
        0x00000138:    6804        .h      LDRMI    r4,[r0,#0]
        0x0000013a:    600c        .`      STRMI    r4,[r1,#0]
        0x0000013c:    4770        pG      BX       lr
        0x0000013e:    0000        ..      MOVS     r0,r0
    !!handler_zi
    __scatterload_zeroinit
        0x00000140:    2300        .#      MOVS     r3,#0
        0x00000142:    2400        .$      MOVS     r4,#0
        0x00000144:    2500        .%      MOVS     r5,#0
        0x00000146:    2600        .&      MOVS     r6,#0
        0x00000148:    3a10        .:      SUBS     r2,r2,#0x10
        0x0000014a:    bf28        (.      IT       CS
        0x0000014c:    c178        x.      STMCS    r1!,{r3-r6}
        0x0000014e:    d8fb        ..      BHI      0x148 ; __scatterload_zeroinit + 8
        0x00000150:    0752        R.      LSLS     r2,r2,#29
        0x00000152:    bf28        (.      IT       CS
        0x00000154:    c130        0.      STMCS    r1!,{r4,r5}
        0x00000156:    bf48        H.      IT       MI
        0x00000158:    600b        .`      STRMI    r3,[r1,#0]
        0x0000015a:    4770        pG      BX       lr
    .ARM.Collect$$libinit$$00000000
    __rt_lib_init
        0x0000015c:    b51f        ..      PUSH     {r0-r4,lr}
    .ARM.Collect$$libinit$$00000001
    __rt_lib_init_fp_1
        0x0000015e:    f003f986    ....    BL       _fp_init ; 0x346e
    .ARM.Collect$$libinit$$00000004
    .ARM.Collect$$libinit$$0000000A
    .ARM.Collect$$libinit$$0000000C
    .ARM.Collect$$libinit$$0000000E
    .ARM.Collect$$libinit$$00000011
    .ARM.Collect$$libinit$$00000013
    .ARM.Collect$$libinit$$00000015
    .ARM.Collect$$libinit$$00000017
    .ARM.Collect$$libinit$$00000019
    .ARM.Collect$$libinit$$0000001B
    .ARM.Collect$$libinit$$0000001D
    .ARM.Collect$$libinit$$0000001F
    .ARM.Collect$$libinit$$00000021
    .ARM.Collect$$libinit$$00000023
    .ARM.Collect$$libinit$$00000025
    .ARM.Collect$$libinit$$0000002C
    .ARM.Collect$$libinit$$0000002E
    .ARM.Collect$$libinit$$00000030
    .ARM.Collect$$libinit$$00000032
    .ARM.Collect$$libinit$$00000033
    __rt_lib_init_alloca_1
    __rt_lib_init_argv_1
    __rt_lib_init_atexit_1
    __rt_lib_init_clock_1
    __rt_lib_init_cpp_1
    __rt_lib_init_exceptions_1
    __rt_lib_init_fp_trap_1
    __rt_lib_init_getenv_1
    __rt_lib_init_heap_1
    __rt_lib_init_lc_collate_1
    __rt_lib_init_lc_ctype_1
    __rt_lib_init_lc_monetary_1
    __rt_lib_init_lc_numeric_1
    __rt_lib_init_lc_time_1
    __rt_lib_init_preinit_1
    __rt_lib_init_rand_1
    __rt_lib_init_return
    __rt_lib_init_signal_1
    __rt_lib_init_stdio_1
    __rt_lib_init_user_alloc_1
        0x00000162:    bd1f        ..      POP      {r0-r4,pc}
    .ARM.Collect$$libshutdown$$00000000
    __rt_lib_shutdown
        0x00000164:    b510        ..      PUSH     {r4,lr}
    .ARM.Collect$$libshutdown$$00000002
    .ARM.Collect$$libshutdown$$00000004
    .ARM.Collect$$libshutdown$$00000007
    .ARM.Collect$$libshutdown$$0000000A
    .ARM.Collect$$libshutdown$$0000000C
    .ARM.Collect$$libshutdown$$0000000F
    .ARM.Collect$$libshutdown$$00000010
    __rt_lib_shutdown_cpp_1
    __rt_lib_shutdown_fp_trap_1
    __rt_lib_shutdown_heap_1
    __rt_lib_shutdown_return
    __rt_lib_shutdown_signal_1
    __rt_lib_shutdown_stdio_1
    __rt_lib_shutdown_user_alloc_1
        0x00000166:    bd10        ..      POP      {r4,pc}
    .ARM.Collect$$rtentry$$00000000
    .ARM.Collect$$rtentry$$00000002
    .ARM.Collect$$rtentry$$00000004
    __rt_entry
    __rt_entry_presh_1
    __rt_entry_sh
        0x00000168:    f000f83b    ..;.    BL       __user_setup_stackheap ; 0x1e2
        0x0000016c:    4611        .F      MOV      r1,r2
    .ARM.Collect$$rtentry$$00000009
    .ARM.Collect$$rtentry$$0000000A
    __rt_entry_li
    __rt_entry_postsh_1
        0x0000016e:    f7fffff5    ....    BL       __rt_lib_init ; 0x15c
    .ARM.Collect$$rtentry$$0000000C
    .ARM.Collect$$rtentry$$0000000D
    __rt_entry_main
    __rt_entry_postli_1
        0x00000172:    f002ff0d    ....    BL       main ; 0x2f90
        0x00000176:    f000f859    ..Y.    BL       exit ; 0x22c
    .ARM.Collect$$rtexit$$00000000
    __rt_exit
        0x0000017a:    b403        ..      PUSH     {r0,r1}
    .ARM.Collect$$rtexit$$00000002
    .ARM.Collect$$rtexit$$00000003
    __rt_exit_ls
    __rt_exit_prels_1
        0x0000017c:    f7fffff2    ....    BL       __rt_lib_shutdown ; 0x164
    .ARM.Collect$$rtexit$$00000004
    __rt_exit_exit
        0x00000180:    bc03        ..      POP      {r0,r1}
        0x00000182:    f000f861    ..a.    BL       _sys_exit ; 0x248
        0x00000186:    0000        ..      MOVS     r0,r0
    .emb_text
    $v0
    am_hal_interrupt_master_enable
        0x00000188:    f3ef8010    ....    MRS      r0,PRIMASK
        0x0000018c:    b662        b.      CPSIE    i
        0x0000018e:    4770        pG      BX       lr
    am_hal_interrupt_master_disable
        0x00000190:    f3ef8010    ....    MRS      r0,PRIMASK
        0x00000194:    b672        r.      CPSID    i
        0x00000196:    4770        pG      BX       lr
    am_hal_interrupt_master_set
        0x00000198:    f3808810    ....    MSR      PRIMASK,r0
        0x0000019c:    4770        pG      BX       lr
        0x0000019e:    0000        ..      MOVS     r0,r0
    .emb_text
    $v0
    __asm___12_am_hal_iom_c_97762dd2__iom_workaround_loop
        0x000001a0:    b132        2.      CBZ      r2,0x1b0 ; __asm___12_am_hal_iom_c_97762dd2__iom_workaround_loop + 16
        0x000001a2:    4a07        .J      LDR      r2,[pc,#28] ; [0x1c0] = 0x40010084
        0x000001a4:    6813        .h      LDR      r3,[r2,#0]
        0x000001a6:    f4135380    ...S    ANDS     r3,r3,#0x1000
        0x000001aa:    d0fb        ..      BEQ      0x1a4 ; __asm___12_am_hal_iom_c_97762dd2__iom_workaround_loop + 4
        0x000001ac:    6008        .`      STR      r0,[r1,#0]
        0x000001ae:    4770        pG      BX       lr
        0x000001b0:    4a03        .J      LDR      r2,[pc,#12] ; [0x1c0] = 0x40010084
        0x000001b2:    6813        .h      LDR      r3,[r2,#0]
        0x000001b4:    f4135380    ...S    ANDS     r3,r3,#0x1000
        0x000001b8:    d1fb        ..      BNE      0x1b2 ; __asm___12_am_hal_iom_c_97762dd2__iom_workaround_loop + 18
        0x000001ba:    6008        .`      STR      r0,[r1,#0]
        0x000001bc:    4770        pG      BX       lr
        0x000001be:    bf00        ..      NOP      
    $d
        0x000001c0:    40010084    ...@    DCD    1073807492
    $t
    .text
    $v0
    __user_initial_stackheap
        0x000001c4:    4802        .H      LDR      r0,[pc,#8] ; [0x1d0] = 0x10000768
        0x000001c6:    4903        .I      LDR      r1,[pc,#12] ; [0x1d4] = 0x10001768
        0x000001c8:    4a01        .J      LDR      r2,[pc,#4] ; [0x1d0] = 0x10000768
        0x000001ca:    4b03        .K      LDR      r3,[pc,#12] ; [0x1d8] = 0x10000768
        0x000001cc:    4770        pG      BX       lr
    $d
        0x000001ce:    0000        ..      DCW    0
        0x000001d0:    10000768    h...    DCD    268437352
        0x000001d4:    10001768    h...    DCD    268441448
        0x000001d8:    10000768    h...    DCD    268437352
    $t
    .text
    __use_two_region_memory
        0x000001dc:    4770        pG      BX       lr
    __rt_heap_escrow$2region
        0x000001de:    4770        pG      BX       lr
    __rt_heap_expand$2region
        0x000001e0:    4770        pG      BX       lr
    .text
    __user_setup_stackheap
        0x000001e2:    4675        uF      MOV      r5,lr
        0x000001e4:    f000f82c    ..,.    BL       __user_libspace ; 0x240
        0x000001e8:    46ae        .F      MOV      lr,r5
        0x000001ea:    0005        ..      MOVS     r5,r0
        0x000001ec:    4669        iF      MOV      r1,sp
        0x000001ee:    4653        SF      MOV      r3,r10
        0x000001f0:    f0200007     ...    BIC      r0,r0,#7
        0x000001f4:    4685        .F      MOV      sp,r0
        0x000001f6:    b018        ..      ADD      sp,sp,#0x60
        0x000001f8:    b520         .      PUSH     {r5,lr}
        0x000001fa:    f7ffffe3    ....    BL       __user_initial_stackheap ; 0x1c4
        0x000001fe:    e8bd4020    .. @    POP      {r5,lr}
        0x00000202:    f04f0600    O...    MOV      r6,#0
        0x00000206:    f04f0700    O...    MOV      r7,#0
        0x0000020a:    f04f0800    O...    MOV      r8,#0
        0x0000020e:    f04f0b00    O...    MOV      r11,#0
        0x00000212:    f0210107    !...    BIC      r1,r1,#7
        0x00000216:    46ac        .F      MOV      r12,r5
        0x00000218:    e8ac09c0    ....    STM      r12!,{r6-r8,r11}
        0x0000021c:    e8ac09c0    ....    STM      r12!,{r6-r8,r11}
        0x00000220:    e8ac09c0    ....    STM      r12!,{r6-r8,r11}
        0x00000224:    e8ac09c0    ....    STM      r12!,{r6-r8,r11}
        0x00000228:    468d        .F      MOV      sp,r1
        0x0000022a:    4770        pG      BX       lr
    .text
    exit
        0x0000022c:    b510        ..      PUSH     {r4,lr}
        0x0000022e:    4604        .F      MOV      r4,r0
        0x00000230:    f3af8000    ....    NOP.W    
        0x00000234:    4620         F      MOV      r0,r4
        0x00000236:    e8bd4010    ...@    POP      {r4,lr}
        0x0000023a:    f7ffbf9e    ....    B.W      __rt_exit ; 0x17a
        0x0000023e:    0000        ..      MOVS     r0,r0
    .text
    __user_libspace
    __user_perproc_libspace
    __user_perthread_libspace
        0x00000240:    4800        .H      LDR      r0,[pc,#0] ; [0x244] = 0x10000708
        0x00000242:    4770        pG      BX       lr
    $d
        0x00000244:    10000708    ....    DCD    268437256
    $t
    .text
    _sys_exit
        0x00000248:    4901        .I      LDR      r1,[pc,#4] ; [0x250] = 0x20026
        0x0000024a:    2018        .       MOVS     r0,#0x18
        0x0000024c:    beab        ..      BKPT     #0xab
        0x0000024e:    e7fe        ..      B        0x24e ; _sys_exit + 6
    $d
        0x00000250:    00020026    &...    DCD    131110
    $t
    .text
    __I$use$semihosting
    __use_no_semihosting_swi
        0x00000254:    4770        pG      BX       lr
    .text
    __semihosting_library_function
        0x00000256:    0000        ..      MOVS     r0,r0
    i.am_bsp_debug_printf_enable
    am_bsp_debug_printf_enable
        0x00000258:    4816        .H      LDR      r0,[pc,#88] ; [0x2b4] = 0x1000003c
        0x0000025a:    6800        .h      LDR      r0,[r0,#0]
        0x0000025c:    f0100f01    ....    TST      r0,#1
        0x00000260:    bf18        ..      IT       NE
        0x00000262:    4770        pG      BXNE     lr
        0x00000264:    b500        ..      PUSH     {lr}
        0x00000266:    b087        ..      SUB      sp,sp,#0x1c
        0x00000268:    4914        .I      LDR      r1,[pc,#80] ; [0x2bc] = 0xe0000e80
        0x0000026a:    4813        .H      LDR      r0,[pc,#76] ; [0x2b8] = 0x150511
        0x0000026c:    6008        .`      STR      r0,[r1,#0]
        0x0000026e:    4814        .H      LDR      r0,[pc,#80] ; [0x2c0] = 0xf4240
        0x00000270:    9000        ..      STR      r0,[sp,#0]
        0x00000272:    4668        hF      MOV      r0,sp
        0x00000274:    f002f93e    ..>.    BL       am_hal_tpiu_enable ; 0x24f4
        0x00000278:    f7ffff8a    ....    BL       am_hal_interrupt_master_disable ; 0x190
        0x0000027c:    9005        ..      STR      r0,[sp,#0x14]
        0x0000027e:    4811        .H      LDR      r0,[pc,#68] ; [0x2c4] = 0x40010000
        0x00000280:    2173        s!      MOVS     r1,#0x73
        0x00000282:    6601        .f      STR      r1,[r0,#0x60]
        0x00000284:    6d41        Am      LDR      r1,[r0,#0x54]
        0x00000286:    f0210170    !.p.    BIC      r1,r1,#0x70
        0x0000028a:    6541        Ae      STR      r1,[r0,#0x54]
        0x0000028c:    6a81        .j      LDR      r1,[r0,#0x28]
        0x0000028e:    f421417f    !..A    BIC      r1,r1,#0xff00
        0x00000292:    f4415180    A..Q    ORR      r1,r1,#0x1000
        0x00000296:    6281        .b      STR      r1,[r0,#0x28]
        0x00000298:    f8d01108    ....    LDR      r1,[r0,#0x108]
        0x0000029c:    f421417f    !..A    BIC      r1,r1,#0xff00
        0x000002a0:    f8c01108    ....    STR      r1,[r0,#0x108]
        0x000002a4:    2100        .!      MOVS     r1,#0
        0x000002a6:    6601        .f      STR      r1,[r0,#0x60]
        0x000002a8:    9805        ..      LDR      r0,[sp,#0x14]
        0x000002aa:    f7ffff75    ..u.    BL       am_hal_interrupt_master_set ; 0x198
        0x000002ae:    b007        ..      ADD      sp,sp,#0x1c
        0x000002b0:    bd00        ..      POP      {pc}
    $d
        0x000002b2:    0000        ..      DCW    0
        0x000002b4:    1000003c    <...    DCD    268435516
        0x000002b8:    00150511    ....    DCD    1377553
        0x000002bc:    e0000e80    ....    DCD    3758100096
        0x000002c0:    000f4240    @B..    DCD    1000000
        0x000002c4:    40010000    ...@    DCD    1073807360
    $t
    i.am_bsp_iom_enable
    am_bsp_iom_enable
        0x000002c8:    b5f8        ..      PUSH     {r3-r7,lr}
        0x000002ca:    4604        .F      MOV      r4,r0
        0x000002cc:    f000fc86    ....    BL       am_hal_iom_enable ; 0xbdc
        0x000002d0:    4d33        3M      LDR      r5,[pc,#204] ; [0x3a0] = 0x10000040
        0x000002d2:    4934        4I      LDR      r1,[pc,#208] ; [0x3a4] = 0xdeadbeef
        0x000002d4:    f8550034    U.4.    LDR      r0,[r5,r4,LSL #3]
        0x000002d8:    4288        .B      CMP      r0,r1
        0x000002da:    bf08        ..      IT       EQ
        0x000002dc:    bdf8        ..      POPEQ    {r3-r7,pc}
        0x000002de:    0321        !.      LSLS     r1,r4,#12
        0x000002e0:    f10141a0    ...A    ADD      r1,r1,#0x50000000
        0x000002e4:    f5014180    ...A    ADD      r1,r1,#0x4000
        0x000002e8:    f8d1111c    ....    LDR      r1,[r1,#0x11c]
        0x000002ec:    f0110f01    ....    TST      r1,#1
        0x000002f0:    bf08        ..      IT       EQ
        0x000002f2:    bdf8        ..      POPEQ    {r3-r7,pc}
        0x000002f4:    2832        2(      CMP      r0,#0x32
        0x000002f6:    bf28        (.      IT       CS
        0x000002f8:    bdf8        ..      POPCS    {r3-r7,pc}
        0x000002fa:    f7ffff49    ..I.    BL       am_hal_interrupt_master_disable ; 0x190
        0x000002fe:    4a2a        *J      LDR      r2,[pc,#168] ; [0x3a8] = 0x40010000
        0x00000300:    9000        ..      STR      r0,[sp,#0]
        0x00000302:    2073        s       MOVS     r0,#0x73
        0x00000304:    6610        .f      STR      r0,[r2,#0x60]
        0x00000306:    eb0500c4    ....    ADD      r0,r5,r4,LSL #3
        0x0000030a:    f8553034    U.40    LDR      r3,[r5,r4,LSL #3]
        0x0000030e:    8881        ..      LDRH     r1,[r0,#4]
        0x00000310:    f3c12c02    ...,    UBFX     r12,r1,#8,#3
        0x00000314:    0759        Y.      LSLS     r1,r3,#29
        0x00000316:    0ec9        ..      LSRS     r1,r1,#27
        0x00000318:    fa0cf601    ....    LSL      r6,r12,r1
        0x0000031c:    f04f0c7c    O.|.    MOV      r12,#0x7c
        0x00000320:    ea0c0353    ..S.    AND      r3,r12,r3,LSR #1
        0x00000324:    4413        .D      ADD      r3,r3,r2
        0x00000326:    f8d3c040    ..@.    LDR      r12,[r3,#0x40]
        0x0000032a:    2707        .'      MOVS     r7,#7
        0x0000032c:    fa07f101    ....    LSL      r1,r7,r1
        0x00000330:    ea2c0101    ,...    BIC      r1,r12,r1
        0x00000334:    4331        1C      ORRS     r1,r1,r6
        0x00000336:    6419        .d      STR      r1,[r3,#0x40]
        0x00000338:    f8151034    ..4.    LDRB     r1,[r5,r4,LSL #3]
        0x0000033c:    7903        .y      LDRB     r3,[r0,#4]
        0x0000033e:    ea4f7c81    O..|    LSL      r12,r1,#30
        0x00000342:    f00101fc    ....    AND      r1,r1,#0xfc
        0x00000346:    4411        .D      ADD      r1,r1,r2
        0x00000348:    ea4f6cdc    O..l    LSR      r12,r12,#27
        0x0000034c:    680f        .h      LDR      r7,[r1,#0]
        0x0000034e:    fa03f60c    ....    LSL      r6,r3,r12
        0x00000352:    23ff        .#      MOVS     r3,#0xff
        0x00000354:    fa03fc0c    ....    LSL      r12,r3,r12
        0x00000358:    ea270c0c    '...    BIC      r12,r7,r12
        0x0000035c:    ea460c0c    F...    ORR      r12,r6,r12
        0x00000360:    f8c1c000    ....    STR      r12,[r1,#0]
        0x00000364:    6840        @h      LDR      r0,[r0,#4]
        0x00000366:    f8151034    ..4.    LDRB     r1,[r5,r4,LSL #3]
        0x0000036a:    f3c04c07    ...L    UBFX     r12,r0,#16,#8
        0x0000036e:    0788        ..      LSLS     r0,r1,#30
        0x00000370:    f00101fc    ....    AND      r1,r1,#0xfc
        0x00000374:    4411        .D      ADD      r1,r1,r2
        0x00000376:    0ec0        ..      LSRS     r0,r0,#27
        0x00000378:    f8d140e0    ...@    LDR      r4,[r1,#0xe0]
        0x0000037c:    fa0cfc00    ....    LSL      r12,r12,r0
        0x00000380:    fa03f000    ....    LSL      r0,r3,r0
        0x00000384:    ea240000    $...    BIC      r0,r4,r0
        0x00000388:    ea4c0000    L...    ORR      r0,r12,r0
        0x0000038c:    f8c100e0    ....    STR      r0,[r1,#0xe0]
        0x00000390:    2000        .       MOVS     r0,#0
        0x00000392:    6610        .f      STR      r0,[r2,#0x60]
        0x00000394:    9800        ..      LDR      r0,[sp,#0]
        0x00000396:    e8bd40f8    ...@    POP      {r3-r7,lr}
        0x0000039a:    f7ffbefd    ....    B.W      am_hal_interrupt_master_set ; 0x198
    $d
        0x0000039e:    0000        ..      DCW    0
        0x000003a0:    10000040    @...    DCD    268435520
        0x000003a4:    deadbeef    ....    DCD    3735928559
        0x000003a8:    40010000    ...@    DCD    1073807360
    $t
    i.am_bsp_itm_string_print
    am_bsp_itm_string_print
        0x000003ac:    f001bdd2    ....    B.W      am_hal_itm_print ; 0x1f54
    i.am_bsp_low_power_init
    am_bsp_low_power_init
        0x000003b0:    b510        ..      PUSH     {r4,lr}
        0x000003b2:    f001fe27    ..'.    BL       am_hal_pwrctrl_bucks_init ; 0x2004
        0x000003b6:    f001fe45    ..E.    BL       am_hal_pwrctrl_low_power_init ; 0x2044
        0x000003ba:    f002f8df    ....    BL       am_hal_vcomp_disable ; 0x257c
        0x000003be:    2001        .       MOVS     r0,#1
        0x000003c0:    f002f817    ....    BL       am_hal_rtc_osc_select ; 0x23f2
        0x000003c4:    2001        .       MOVS     r0,#1
        0x000003c6:    f000f86d    ..m.    BL       am_hal_clkgen_osc_stop ; 0x4a4
        0x000003ca:    e8bd4010    ...@    POP      {r4,lr}
        0x000003ce:    f002b809    ....    B.W      am_hal_rtc_osc_disable ; 0x23e4
        0x000003d2:    0000        ..      MOVS     r0,r0
    i.am_hal_cachectrl_enable
    am_hal_cachectrl_enable
        0x000003d4:    b570        p.      PUSH     {r4-r6,lr}
        0x000003d6:    4604        .F      MOV      r4,r0
        0x000003d8:    78c0        .x      LDRB     r0,[r0,#3]
        0x000003da:    7861        ax      LDRB     r1,[r4,#1]
        0x000003dc:    2202        ."      MOVS     r2,#2
        0x000003de:    ea020141    ..A.    AND      r1,r2,r1,LSL #1
        0x000003e2:    4301        .C      ORRS     r1,r1,r0
        0x000003e4:    78a0        .x      LDRB     r0,[r4,#2]
        0x000003e6:    2204        ."      MOVS     r2,#4
        0x000003e8:    ea020280    ....    AND      r2,r2,r0,LSL #2
        0x000003ec:    f3c00040    ..@.    UBFX     r0,r0,#1,#1
        0x000003f0:    ea4200c0    B...    ORR      r0,r2,r0,LSL #3
        0x000003f4:    4308        .C      ORRS     r0,r0,r1
        0x000003f6:    7921        !y      LDRB     r1,[r4,#4]
        0x000003f8:    2280        ."      MOVS     r2,#0x80
        0x000003fa:    ea0211c1    ....    AND      r1,r2,r1,LSL #7
        0x000003fe:    4308        .C      ORRS     r0,r0,r1
        0x00000400:    79a1        .y      LDRB     r1,[r4,#6]
        0x00000402:    00d2        ..      LSLS     r2,r2,#3
        0x00000404:    ea022181    ...!    AND      r1,r2,r1,LSL #10
        0x00000408:    4308        .C      ORRS     r0,r0,r1
        0x0000040a:    79e1        .y      LDRB     r1,[r4,#7]
        0x0000040c:    0052        R.      LSLS     r2,r2,#1
        0x0000040e:    ea0221c1    ...!    AND      r1,r2,r1,LSL #11
        0x00000412:    4308        .C      ORRS     r0,r0,r1
        0x00000414:    7a21        !z      LDRB     r1,[r4,#8]
        0x00000416:    f44f4270    O.pB    MOV      r2,#0xf000
        0x0000041a:    ea023101    ...1    AND      r1,r2,r1,LSL #12
        0x0000041e:    4308        .C      ORRS     r0,r0,r1
        0x00000420:    7a61        az      LDRB     r1,[r4,#9]
        0x00000422:    0112        ..      LSLS     r2,r2,#4
        0x00000424:    ea024101    ...A    AND      r1,r2,r1,LSL #16
        0x00000428:    4308        .C      ORRS     r0,r0,r1
        0x0000042a:    7aa1        .z      LDRB     r1,[r4,#0xa]
        0x0000042c:    f44f1280    O...    MOV      r2,#0x100000
        0x00000430:    ea025101    ...Q    AND      r1,r2,r1,LSL #20
        0x00000434:    4308        .C      ORRS     r0,r0,r1
        0x00000436:    7ae1        .z      LDRB     r1,[r4,#0xb]
        0x00000438:    0112        ..      LSLS     r2,r2,#4
        0x0000043a:    ea026101    ...a    AND      r1,r2,r1,LSL #24
        0x0000043e:    4308        .C      ORRS     r0,r0,r1
        0x00000440:    f0400501    @...    ORR      r5,r0,#1
        0x00000444:    f04f4020    O. @    MOV      r0,#0xa0000000
        0x00000448:    f001fe08    ....    BL       am_hal_pwrctrl_memory_enable ; 0x205c
        0x0000044c:    4814        .H      LDR      r0,[pc,#80] ; [0x4a0] = 0x40018000
        0x0000044e:    6005        .`      STR      r5,[r0,#0]
        0x00000450:    2100        .!      MOVS     r1,#0
        0x00000452:    6882        .h      LDR      r2,[r0,#8]
        0x00000454:    f0120f04    ....    TST      r2,#4
        0x00000458:    bf04        ..      ITT      EQ
        0x0000045a:    6882        .h      LDREQ    r2,[r0,#8]
        0x0000045c:    f0120f04    ....    TSTEQ    r2,#4
        0x00000460:    d102        ..      BNE      0x468 ; am_hal_cachectrl_enable + 148
        0x00000462:    1c89        ..      ADDS     r1,r1,#2
        0x00000464:    2932        2)      CMP      r1,#0x32
        0x00000466:    d3f4        ..      BCC      0x452 ; am_hal_cachectrl_enable + 126
        0x00000468:    6881        .h      LDR      r1,[r0,#8]
        0x0000046a:    f0410101    A...    ORR      r1,r1,#1
        0x0000046e:    6081        .`      STR      r1,[r0,#8]
        0x00000470:    2100        .!      MOVS     r1,#0
        0x00000472:    6882        .h      LDR      r2,[r0,#8]
        0x00000474:    f0120f04    ....    TST      r2,#4
        0x00000478:    bf04        ..      ITT      EQ
        0x0000047a:    6882        .h      LDREQ    r2,[r0,#8]
        0x0000047c:    f0120f04    ....    TSTEQ    r2,#4
        0x00000480:    d102        ..      BNE      0x488 ; am_hal_cachectrl_enable + 180
        0x00000482:    1c89        ..      ADDS     r1,r1,#2
        0x00000484:    2932        2)      CMP      r1,#0x32
        0x00000486:    d3f4        ..      BCC      0x472 ; am_hal_cachectrl_enable + 158
        0x00000488:    7961        ay      LDRB     r1,[r4,#5]
        0x0000048a:    f44f7280    O..r    MOV      r2,#0x100
        0x0000048e:    ea022201    ..."    AND      r2,r2,r1,LSL #8
        0x00000492:    f3c10140    ..@.    UBFX     r1,r1,#1,#1
        0x00000496:    ea422141    B.A!    ORR      r1,r2,r1,LSL #9
        0x0000049a:    4329        )C      ORRS     r1,r1,r5
        0x0000049c:    6001        .`      STR      r1,[r0,#0]
        0x0000049e:    bd70        p.      POP      {r4-r6,pc}
    $d
        0x000004a0:    40018000    ...@    DCD    1073840128
    $t
    i.am_hal_clkgen_osc_stop
    am_hal_clkgen_osc_stop
        0x000004a4:    f0100f03    ....    TST      r0,#3
        0x000004a8:    bf08        ..      IT       EQ
        0x000004aa:    4770        pG      BXEQ     lr
        0x000004ac:    f04f2140    O.@!    MOV      r1,#0x40004000
        0x000004b0:    68ca        .h      LDR      r2,[r1,#0xc]
        0x000004b2:    4310        .C      ORRS     r0,r0,r2
        0x000004b4:    60c8        .`      STR      r0,[r1,#0xc]
        0x000004b6:    4770        pG      BX       lr
    i.am_hal_clkgen_sysclk_get
    am_hal_clkgen_sysclk_get
        0x000004b8:    f04f2040    O.@     MOV      r0,#0x40004000
        0x000004bc:    6980        .i      LDR      r0,[r0,#0x18]
        0x000004be:    f0100001    ....    ANDS     r0,r0,#1
        0x000004c2:    bf04        ..      ITT      EQ
        0x000004c4:    4803        .H      LDREQ    r0,[pc,#12] ; [0x4d4] = 0x2dc6c00
        0x000004c6:    4770        pG      BXEQ     lr
        0x000004c8:    2800        .(      CMP      r0,#0
        0x000004ca:    bf0c        ..      ITE      EQ
        0x000004cc:    f04f30ff    O..0    MOVEQ    r0,#0xffffffff
        0x000004d0:    4801        .H      LDRNE    r0,[pc,#4] ; [0x4d8] = 0x16e3600
        0x000004d2:    4770        pG      BX       lr
    $d
        0x000004d4:    02dc6c00    .l..    DCD    48000000
        0x000004d8:    016e3600    .6n.    DCD    24000000
    $t
    i.am_hal_clkgen_sysclk_select
    am_hal_clkgen_sysclk_select
        0x000004dc:    b510        ..      PUSH     {r4,lr}
        0x000004de:    0004        ..      MOVS     r4,r0
        0x000004e0:    d004        ..      BEQ      0x4ec ; am_hal_clkgen_sysclk_select + 16
        0x000004e2:    a206        ..      ADR      r2,{pc}+0x1a ; 0x4fc
        0x000004e4:    2152        R!      MOVS     r1,#0x52
        0x000004e6:    a013        ..      ADR      r0,{pc}+0x4e ; 0x534
        0x000004e8:    f000f898    ....    BL       am_hal_debug_error ; 0x61c
        0x000004ec:    f04f2040    O.@     MOV      r0,#0x40004000
        0x000004f0:    2147        G!      MOVS     r1,#0x47
        0x000004f2:    6141        Aa      STR      r1,[r0,#0x14]
        0x000004f4:    6184        .a      STR      r4,[r0,#0x18]
        0x000004f6:    2100        .!      MOVS     r1,#0
        0x000004f8:    6141        Aa      STR      r1,[r0,#0x14]
        0x000004fa:    bd10        ..      POP      {r4,pc}
    $d
        0x000004fc:    685f6d61    am_h    DCD    1751084385
        0x00000500:    635f6c61    al_c    DCD    1667198049
        0x00000504:    65676b6c    lkge    DCD    1701276524
        0x00000508:    79735f6e    n_sy    DCD    2037604206
        0x0000050c:    6b6c6373    sclk    DCD    1802265459
        0x00000510:    6c65735f    _sel    DCD    1818587999
        0x00000514:    28746365    ect(    DCD    678716261
        0x00000518:    69203a29    ): i    DCD    1763719721
        0x0000051c:    6c61766e    nval    DCD    1818326638
        0x00000520:    63206469    id c    DCD    1663067241
        0x00000524:    6b636f6c    lock    DCD    1801678700
        0x00000528:    74657320     set    DCD    1952805664
        0x0000052c:    676e6974    ting    DCD    1735289204
        0x00000530:    0000002e    ....    DCD    46
        0x00000534:    612f2e2e    ../a    DCD    1630481966
        0x00000538:    61685f6d    m_ha    DCD    1634230125
        0x0000053c:    6c635f6c    l_cl    DCD    1818451820
        0x00000540:    6e65676b    kgen    DCD    1852139371
        0x00000544:    0000632e    .c..    DCD    25390
    $t
    i.am_hal_ctimer_clear
    am_hal_ctimer_clear
        0x00000548:    b538        8.      PUSH     {r3-r5,lr}
        0x0000054a:    460d        .F      MOV      r5,r1
        0x0000054c:    4907        .I      LDR      r1,[pc,#28] ; [0x56c] = 0x4000800c
        0x0000054e:    eb011400    ....    ADD      r4,r1,r0,LSL #4
        0x00000552:    f7fffe1d    ....    BL       am_hal_interrupt_master_disable ; 0x190
        0x00000556:    9000        ..      STR      r0,[sp,#0]
        0x00000558:    6820         h      LDR      r0,[r4,#0]
        0x0000055a:    f0052108    ...!    AND      r1,r5,#0x8000800
        0x0000055e:    4308        .C      ORRS     r0,r0,r1
        0x00000560:    6020         `      STR      r0,[r4,#0]
        0x00000562:    9800        ..      LDR      r0,[sp,#0]
        0x00000564:    e8bd4038    ..8@    POP      {r3-r5,lr}
        0x00000568:    f7ffbe16    ....    B.W      am_hal_interrupt_master_set ; 0x198
    $d
        0x0000056c:    4000800c    ...@    DCD    1073774604
    $t
    i.am_hal_ctimer_period_set
    am_hal_ctimer_period_set
        0x00000570:    e92d43f8    -..C    PUSH     {r3-r9,lr}
        0x00000574:    460e        .F      MOV      r6,r1
        0x00000576:    491b        .I      LDR      r1,[pc,#108] ; [0x5e4] = 0x4000800c
        0x00000578:    461d        .F      MOV      r5,r3
        0x0000057a:    eb011900    ....    ADD      r9,r1,r0,LSL #4
        0x0000057e:    491a        .I      LDR      r1,[pc,#104] ; [0x5e8] = 0x40008004
        0x00000580:    4614        .F      MOV      r4,r2
        0x00000582:    eb011700    ....    ADD      r7,r1,r0,LSL #4
        0x00000586:    1d09        ..      ADDS     r1,r1,#4
        0x00000588:    eb011800    ....    ADD      r8,r1,r0,LSL #4
        0x0000058c:    f7fffe00    ....    BL       am_hal_interrupt_master_disable ; 0x190
        0x00000590:    9000        ..      STR      r0,[sp,#0]
        0x00000592:    f8d90000    ....    LDR      r0,[r9,#0]
        0x00000596:    f5163f80    ...?    CMN      r6,#0x10000
        0x0000059a:    bf08        ..      IT       EQ
        0x0000059c:    0c00        ..      LSREQ    r0,r0,#16
        0x0000059e:    f40070e0    ...p    AND      r0,r0,#0x1c0
        0x000005a2:    2880        .(      CMP      r0,#0x80
        0x000005a4:    bf17        ..      ITETT    NE
        0x000005a6:    28c0        .(      CMPNE    r0,#0xc0
        0x000005a8:    1b65        e.      SUBEQ    r5,r4,r5
        0x000005aa:    4625        %F      MOVNE    r5,r4
        0x000005ac:    2400        .$      MOVNE    r4,#0
        0x000005ae:    f5a6407f    ...@    SUB      r0,r6,#0xff00
        0x000005b2:    38ff        .8      SUBS     r0,r0,#0xff
        0x000005b4:    bf04        ..      ITT      EQ
        0x000005b6:    eac54004    ...@    PKHBTEQ  r0,r5,r4,LSL #16
        0x000005ba:    6038        8`      STREQ    r0,[r7,#0]
        0x000005bc:    d00c        ..      BEQ      0x5d8 ; am_hal_ctimer_period_set + 104
        0x000005be:    f5163f80    ...?    CMN      r6,#0x10000
        0x000005c2:    eac54004    ...@    PKHBT    r0,r5,r4,LSL #16
        0x000005c6:    d005        ..      BEQ      0x5d4 ; am_hal_ctimer_period_set + 100
        0x000005c8:    6038        8`      STR      r0,[r7,#0]
        0x000005ca:    0c28        (.      LSRS     r0,r5,#16
        0x000005cc:    f36f040f    o...    BFC      r4,#0,#16
        0x000005d0:    eac00004    ....    PKHBT    r0,r0,r4
        0x000005d4:    f8c80000    ....    STR      r0,[r8,#0]
        0x000005d8:    9800        ..      LDR      r0,[sp,#0]
        0x000005da:    e8bd43f8    ...C    POP      {r3-r9,lr}
        0x000005de:    f7ffbddb    ....    B.W      am_hal_interrupt_master_set ; 0x198
    $d
        0x000005e2:    0000        ..      DCW    0
        0x000005e4:    4000800c    ...@    DCD    1073774604
        0x000005e8:    40008004    ...@    DCD    1073774596
    $t
    i.am_hal_ctimer_start
    am_hal_ctimer_start
        0x000005ec:    b538        8.      PUSH     {r3-r5,lr}
        0x000005ee:    460c        .F      MOV      r4,r1
        0x000005f0:    4909        .I      LDR      r1,[pc,#36] ; [0x618] = 0x4000800c
        0x000005f2:    eb011500    ....    ADD      r5,r1,r0,LSL #4
        0x000005f6:    f7fffdcb    ....    BL       am_hal_interrupt_master_disable ; 0x190
        0x000005fa:    9000        ..      STR      r0,[sp,#0]
        0x000005fc:    6828        (h      LDR      r0,[r5,#0]
        0x000005fe:    f0042108    ...!    AND      r1,r4,#0x8000800
        0x00000602:    4388        .C      BICS     r0,r0,r1
        0x00000604:    f0041101    ....    AND      r1,r4,#0x10001
        0x00000608:    4308        .C      ORRS     r0,r0,r1
        0x0000060a:    6028        (`      STR      r0,[r5,#0]
        0x0000060c:    9800        ..      LDR      r0,[sp,#0]
        0x0000060e:    e8bd4038    ..8@    POP      {r3-r5,lr}
        0x00000612:    f7ffbdc1    ....    B.W      am_hal_interrupt_master_set ; 0x198
    $d
        0x00000616:    0000        ..      DCW    0
        0x00000618:    4000800c    ...@    DCD    1073774604
    $t
    i.am_hal_debug_error
    am_hal_debug_error
        0x0000061c:    e7fe        ..      B        am_hal_debug_error ; 0x61c
        0x0000061e:    0000        ..      MOVS     r0,r0
    i.am_hal_flash_delay
    am_hal_flash_delay
        0x00000620:    4900        .I      LDR      r1,[pc,#0] ; [0x624] = 0x800009d
        0x00000622:    4708        .G      BX       r1
    $d
        0x00000624:    0800009d    ....    DCD    134217885
    $t
    i.am_hal_flash_delay_status_change
    am_hal_flash_delay_status_change
        0x00000628:    e92d41f0    -..A    PUSH     {r4-r8,lr}
        0x0000062c:    461d        .F      MOV      r5,r3
        0x0000062e:    4616        .F      MOV      r6,r2
        0x00000630:    460f        .F      MOV      r7,r1
        0x00000632:    1e44        D.      SUBS     r4,r0,#1
        0x00000634:    bf28        (.      IT       CS
        0x00000636:    f8df8020    .. .    LDRCS    r8,[pc,#32] ; [0x658] = 0x800009d
        0x0000063a:    d30a        ..      BCC      0x652 ; am_hal_flash_delay_status_change + 42
        0x0000063c:    6838        8h      LDR      r0,[r7,#0]
        0x0000063e:    4030        0@      ANDS     r0,r0,r6
        0x00000640:    42a8        .B      CMP      r0,r5
        0x00000642:    d102        ..      BNE      0x64a ; am_hal_flash_delay_status_change + 34
        0x00000644:    2001        .       MOVS     r0,#1
        0x00000646:    e8bd81f0    ....    POP      {r4-r8,pc}
        0x0000064a:    200c        .       MOVS     r0,#0xc
        0x0000064c:    47c0        .G      BLX      r8
        0x0000064e:    1e64        d.      SUBS     r4,r4,#1
        0x00000650:    d2f4        ..      BCS      0x63c ; am_hal_flash_delay_status_change + 20
        0x00000652:    2000        .       MOVS     r0,#0
        0x00000654:    e8bd81f0    ....    POP      {r4-r8,pc}
    $d
        0x00000658:    0800009d    ....    DCD    134217885
    $t
    i.am_hal_i2c_bit_bang_receive
    am_hal_i2c_bit_bang_receive
        0x0000065c:    e92d5ff0    -.._    PUSH     {r4-r12,lr}
        0x00000660:    4698        .F      MOV      r8,r3
        0x00000662:    4617        .F      MOV      r7,r2
        0x00000664:    460d        .F      MOV      r5,r1
        0x00000666:    4681        .F      MOV      r9,r0
        0x00000668:    9e0a        ..      LDR      r6,[sp,#0x28]
        0x0000066a:    f002faf7    ....    BL       i2c_pull_and_wait_scl_hi ; 0x2c5c
        0x0000066e:    2800        .(      CMP      r0,#0
        0x00000670:    d166        f.      BNE      0x740 ; am_hal_i2c_bit_bang_receive + 228
        0x00000672:    4c70        pL      LDR      r4,[pc,#448] ; [0x834] = 0x100006dc
        0x00000674:    6a21        !j      LDR      r1,[r4,#0x20]
        0x00000676:    6aa0        .j      LDR      r0,[r4,#0x28]
        0x00000678:    6008        .`      STR      r0,[r1,#0]
        0x0000067a:    2005        .       MOVS     r0,#5
        0x0000067c:    f7ffffd0    ....    BL       am_hal_flash_delay ; 0x620
        0x00000680:    4648        HF      MOV      r0,r9
        0x00000682:    f002fb09    ....    BL       i2c_send_byte ; 0x2c98
        0x00000686:    b120         .      CBZ      r0,0x692 ; am_hal_i2c_bit_bang_receive + 54
        0x00000688:    2802        .(      CMP      r0,#2
        0x0000068a:    bf08        ..      IT       EQ
        0x0000068c:    2001        .       MOVEQ    r0,#1
        0x0000068e:    e8bd9ff0    ....    POP      {r4-r12,pc}
        0x00000692:    b136        6.      CBZ      r6,0x6a2 ; am_hal_i2c_bit_bang_receive + 70
        0x00000694:    4640        @F      MOV      r0,r8
        0x00000696:    f002faff    ....    BL       i2c_send_byte ; 0x2c98
        0x0000069a:    2800        .(      CMP      r0,#0
        0x0000069c:    bf18        ..      IT       NE
        0x0000069e:    e8bd9ff0    ....    POPNE    {r4-r12,pc}
        0x000006a2:    f04f0a00    O...    MOV      r10,#0
        0x000006a6:    1e68        h.      SUBS     r0,r5,#1
        0x000006a8:    f04f0880    O...    MOV      r8,#0x80
        0x000006ac:    bf18        ..      IT       NE
        0x000006ae:    4683        .F      MOVNE    r11,r0
        0x000006b0:    d05b        [.      BEQ      0x76a ; am_hal_i2c_bit_bang_receive + 270
        0x000006b2:    bf00        ..      NOP      
        0x000006b4:    f04f0900    O...    MOV      r9,#0
        0x000006b8:    464d        MF      MOV      r5,r9
        0x000006ba:    6921        !i      LDR      r1,[r4,#0x10]
        0x000006bc:    69a0        .i      LDR      r0,[r4,#0x18]
        0x000006be:    6008        .`      STR      r0,[r1,#0]
        0x000006c0:    69e1        .i      LDR      r1,[r4,#0x1c]
        0x000006c2:    6aa0        .j      LDR      r0,[r4,#0x28]
        0x000006c4:    6008        .`      STR      r0,[r1,#0]
        0x000006c6:    2007        .       MOVS     r0,#7
        0x000006c8:    f7ffffaa    ....    BL       am_hal_flash_delay ; 0x620
        0x000006cc:    68e1        .h      LDR      r1,[r4,#0xc]
        0x000006ce:    69a0        .i      LDR      r0,[r4,#0x18]
        0x000006d0:    6008        .`      STR      r0,[r1,#0]
        0x000006d2:    6961        ai      LDR      r1,[r4,#0x14]
        0x000006d4:    6809        .h      LDR      r1,[r1,#0]
        0x000006d6:    4201        .B      TST      r1,r0
        0x000006d8:    bf08        ..      IT       EQ
        0x000006da:    f44f76c8    O..v    MOVEQ    r6,#0x190
        0x000006de:    d10a        ..      BNE      0x6f6 ; am_hal_i2c_bit_bang_receive + 154
        0x000006e0:    e001        ..      B        0x6e6 ; am_hal_i2c_bit_bang_receive + 138
        0x000006e2:    1e76        v.      SUBS     r6,r6,#1
        0x000006e4:    d02c        ,.      BEQ      0x740 ; am_hal_i2c_bit_bang_receive + 228
        0x000006e6:    2004        .       MOVS     r0,#4
        0x000006e8:    f7ffff9a    ....    BL       am_hal_flash_delay ; 0x620
        0x000006ec:    6960        `i      LDR      r0,[r4,#0x14]
        0x000006ee:    6800        .h      LDR      r0,[r0,#0]
        0x000006f0:    69a1        .i      LDR      r1,[r4,#0x18]
        0x000006f2:    4208        .B      TST      r0,r1
        0x000006f4:    d0f5        ..      BEQ      0x6e2 ; am_hal_i2c_bit_bang_receive + 134
        0x000006f6:    6a60        `j      LDR      r0,[r4,#0x24]
        0x000006f8:    6800        .h      LDR      r0,[r0,#0]
        0x000006fa:    6aa1        .j      LDR      r1,[r4,#0x28]
        0x000006fc:    4208        .B      TST      r0,r1
        0x000006fe:    bf1c        ..      ITT      NE
        0x00000700:    fa28f005    (...    LSRNE    r0,r8,r5
        0x00000704:    ea400909    @...    ORRNE    r9,r0,r9
        0x00000708:    2005        .       MOVS     r0,#5
        0x0000070a:    f7ffff89    ....    BL       am_hal_flash_delay ; 0x620
        0x0000070e:    1c6d        m.      ADDS     r5,r5,#1
        0x00000710:    2d08        .-      CMP      r5,#8
        0x00000712:    dbd2        ..      BLT      0x6ba ; am_hal_i2c_bit_bang_receive + 94
        0x00000714:    f8879000    ....    STRB     r9,[r7,#0]
        0x00000718:    6921        !i      LDR      r1,[r4,#0x10]
        0x0000071a:    69a0        .i      LDR      r0,[r4,#0x18]
        0x0000071c:    6008        .`      STR      r0,[r1,#0]
        0x0000071e:    6a21        !j      LDR      r1,[r4,#0x20]
        0x00000720:    6aa0        .j      LDR      r0,[r4,#0x28]
        0x00000722:    6008        .`      STR      r0,[r1,#0]
        0x00000724:    2007        .       MOVS     r0,#7
        0x00000726:    f7ffff7b    ..{.    BL       am_hal_flash_delay ; 0x620
        0x0000072a:    68e1        .h      LDR      r1,[r4,#0xc]
        0x0000072c:    69a0        .i      LDR      r0,[r4,#0x18]
        0x0000072e:    6008        .`      STR      r0,[r1,#0]
        0x00000730:    6961        ai      LDR      r1,[r4,#0x14]
        0x00000732:    6809        .h      LDR      r1,[r1,#0]
        0x00000734:    4201        .B      TST      r1,r0
        0x00000736:    bf08        ..      IT       EQ
        0x00000738:    f44f75c8    O..u    MOVEQ    r5,#0x190
        0x0000073c:    d10d        ..      BNE      0x75a ; am_hal_i2c_bit_bang_receive + 254
        0x0000073e:    e004        ..      B        0x74a ; am_hal_i2c_bit_bang_receive + 238
        0x00000740:    2003        .       MOVS     r0,#3
        0x00000742:    e8bd9ff0    ....    POP      {r4-r12,pc}
        0x00000746:    1e6d        m.      SUBS     r5,r5,#1
        0x00000748:    d0fa        ..      BEQ      0x740 ; am_hal_i2c_bit_bang_receive + 228
        0x0000074a:    2004        .       MOVS     r0,#4
        0x0000074c:    f7ffff68    ..h.    BL       am_hal_flash_delay ; 0x620
        0x00000750:    6960        `i      LDR      r0,[r4,#0x14]
        0x00000752:    6800        .h      LDR      r0,[r0,#0]
        0x00000754:    69a1        .i      LDR      r1,[r4,#0x18]
        0x00000756:    4208        .B      TST      r0,r1
        0x00000758:    d0f5        ..      BEQ      0x746 ; am_hal_i2c_bit_bang_receive + 234
        0x0000075a:    2005        .       MOVS     r0,#5
        0x0000075c:    f7ffff60    ..`.    BL       am_hal_flash_delay ; 0x620
        0x00000760:    1c7f        ..      ADDS     r7,r7,#1
        0x00000762:    f10a0a01    ....    ADD      r10,r10,#1
        0x00000766:    45da        .E      CMP      r10,r11
        0x00000768:    d3a4        ..      BCC      0x6b4 ; am_hal_i2c_bit_bang_receive + 88
        0x0000076a:    46ba        .F      MOV      r10,r7
        0x0000076c:    2700        .'      MOVS     r7,#0
        0x0000076e:    463d        =F      MOV      r5,r7
        0x00000770:    f04f0903    O...    MOV      r9,#3
        0x00000774:    6921        !i      LDR      r1,[r4,#0x10]
        0x00000776:    69a0        .i      LDR      r0,[r4,#0x18]
        0x00000778:    6008        .`      STR      r0,[r1,#0]
        0x0000077a:    69e1        .i      LDR      r1,[r4,#0x1c]
        0x0000077c:    6aa0        .j      LDR      r0,[r4,#0x28]
        0x0000077e:    6008        .`      STR      r0,[r1,#0]
        0x00000780:    2007        .       MOVS     r0,#7
        0x00000782:    f7ffff4d    ..M.    BL       am_hal_flash_delay ; 0x620
        0x00000786:    68e1        .h      LDR      r1,[r4,#0xc]
        0x00000788:    69a0        .i      LDR      r0,[r4,#0x18]
        0x0000078a:    6008        .`      STR      r0,[r1,#0]
        0x0000078c:    6961        ai      LDR      r1,[r4,#0x14]
        0x0000078e:    6809        .h      LDR      r1,[r1,#0]
        0x00000790:    4201        .B      TST      r1,r0
        0x00000792:    bf08        ..      IT       EQ
        0x00000794:    f44f76c8    O..v    MOVEQ    r6,#0x190
        0x00000798:    d10a        ..      BNE      0x7b0 ; am_hal_i2c_bit_bang_receive + 340
        0x0000079a:    e001        ..      B        0x7a0 ; am_hal_i2c_bit_bang_receive + 324
        0x0000079c:    1e76        v.      SUBS     r6,r6,#1
        0x0000079e:    d023        #.      BEQ      0x7e8 ; am_hal_i2c_bit_bang_receive + 396
        0x000007a0:    2004        .       MOVS     r0,#4
        0x000007a2:    f7ffff3d    ..=.    BL       am_hal_flash_delay ; 0x620
        0x000007a6:    6960        `i      LDR      r0,[r4,#0x14]
        0x000007a8:    6801        .h      LDR      r1,[r0,#0]
        0x000007aa:    69a0        .i      LDR      r0,[r4,#0x18]
        0x000007ac:    4201        .B      TST      r1,r0
        0x000007ae:    d0f5        ..      BEQ      0x79c ; am_hal_i2c_bit_bang_receive + 320
        0x000007b0:    6a60        `j      LDR      r0,[r4,#0x24]
        0x000007b2:    6800        .h      LDR      r0,[r0,#0]
        0x000007b4:    6aa1        .j      LDR      r1,[r4,#0x28]
        0x000007b6:    4208        .B      TST      r0,r1
        0x000007b8:    bf1c        ..      ITT      NE
        0x000007ba:    fa28f005    (...    LSRNE    r0,r8,r5
        0x000007be:    4307        .C      ORRNE    r7,r7,r0
        0x000007c0:    2005        .       MOVS     r0,#5
        0x000007c2:    f7ffff2d    ..-.    BL       am_hal_flash_delay ; 0x620
        0x000007c6:    1c6d        m.      ADDS     r5,r5,#1
        0x000007c8:    2d08        .-      CMP      r5,#8
        0x000007ca:    dbd3        ..      BLT      0x774 ; am_hal_i2c_bit_bang_receive + 280
        0x000007cc:    f88a7000    ...p    STRB     r7,[r10,#0]
        0x000007d0:    6921        !i      LDR      r1,[r4,#0x10]
        0x000007d2:    69a0        .i      LDR      r0,[r4,#0x18]
        0x000007d4:    6008        .`      STR      r0,[r1,#0]
        0x000007d6:    69e1        .i      LDR      r1,[r4,#0x1c]
        0x000007d8:    6aa0        .j      LDR      r0,[r4,#0x28]
        0x000007da:    6008        .`      STR      r0,[r1,#0]
        0x000007dc:    2007        .       MOVS     r0,#7
        0x000007de:    f7ffff1f    ....    BL       am_hal_flash_delay ; 0x620
        0x000007e2:    f002fa3b    ..;.    BL       i2c_pull_and_wait_scl_hi ; 0x2c5c
        0x000007e6:    b110        ..      CBZ      r0,0x7ee ; am_hal_i2c_bit_bang_receive + 402
        0x000007e8:    4648        HF      MOV      r0,r9
        0x000007ea:    e8bd9ff0    ....    POP      {r4-r12,pc}
        0x000007ee:    2005        .       MOVS     r0,#5
        0x000007f0:    f7ffff16    ....    BL       am_hal_flash_delay ; 0x620
        0x000007f4:    6921        !i      LDR      r1,[r4,#0x10]
        0x000007f6:    69a0        .i      LDR      r0,[r4,#0x18]
        0x000007f8:    6008        .`      STR      r0,[r1,#0]
        0x000007fa:    2004        .       MOVS     r0,#4
        0x000007fc:    f7ffff10    ....    BL       am_hal_flash_delay ; 0x620
        0x00000800:    980b        ..      LDR      r0,[sp,#0x2c]
        0x00000802:    2800        .(      CMP      r0,#0
        0x00000804:    6aa0        .j      LDR      r0,[r4,#0x28]
        0x00000806:    bf14        ..      ITE      NE
        0x00000808:    69e1        .i      LDRNE    r1,[r4,#0x1c]
        0x0000080a:    6a21        !j      LDREQ    r1,[r4,#0x20]
        0x0000080c:    6008        .`      STR      r0,[r1,#0]
        0x0000080e:    2004        .       MOVS     r0,#4
        0x00000810:    f7ffff06    ....    BL       am_hal_flash_delay ; 0x620
        0x00000814:    f002fa22    ..".    BL       i2c_pull_and_wait_scl_hi ; 0x2c5c
        0x00000818:    2800        .(      CMP      r0,#0
        0x0000081a:    d191        ..      BNE      0x740 ; am_hal_i2c_bit_bang_receive + 228
        0x0000081c:    2005        .       MOVS     r0,#5
        0x0000081e:    f7fffeff    ....    BL       am_hal_flash_delay ; 0x620
        0x00000822:    980b        ..      LDR      r0,[sp,#0x2c]
        0x00000824:    b910        ..      CBNZ     r0,0x82c ; am_hal_i2c_bit_bang_receive + 464
        0x00000826:    69e1        .i      LDR      r1,[r4,#0x1c]
        0x00000828:    6aa0        .j      LDR      r0,[r4,#0x28]
        0x0000082a:    6008        .`      STR      r0,[r1,#0]
        0x0000082c:    2000        .       MOVS     r0,#0
        0x0000082e:    e8bd9ff0    ....    POP      {r4-r12,pc}
    $d
        0x00000832:    0000        ..      DCW    0
        0x00000834:    100006dc    ....    DCD    268437212
    $t
    i.am_hal_i2c_bit_bang_send
    am_hal_i2c_bit_bang_send
        0x00000838:    e92d5ff0    -.._    PUSH     {r4-r12,lr}
        0x0000083c:    4699        .F      MOV      r9,r3
        0x0000083e:    e9dd4a0a    ...J    LDRD     r4,r10,[sp,#0x28]
        0x00000842:    4615        .F      MOV      r5,r2
        0x00000844:    460e        .F      MOV      r6,r1
        0x00000846:    4683        .F      MOV      r11,r0
        0x00000848:    f04f0800    O...    MOV      r8,#0
        0x0000084c:    f002fa06    ....    BL       i2c_pull_and_wait_scl_hi ; 0x2c5c
        0x00000850:    2800        .(      CMP      r0,#0
        0x00000852:    d141        A.      BNE      0x8d8 ; am_hal_i2c_bit_bang_send + 160
        0x00000854:    4f2a        *O      LDR      r7,[pc,#168] ; [0x900] = 0x100006dc
        0x00000856:    6a39        9j      LDR      r1,[r7,#0x20]
        0x00000858:    6ab8        .j      LDR      r0,[r7,#0x28]
        0x0000085a:    6008        .`      STR      r0,[r1,#0]
        0x0000085c:    2005        .       MOVS     r0,#5
        0x0000085e:    f7fffedf    ....    BL       am_hal_flash_delay ; 0x620
        0x00000862:    4658        XF      MOV      r0,r11
        0x00000864:    f002fa18    ....    BL       i2c_send_byte ; 0x2c98
        0x00000868:    b120         .      CBZ      r0,0x874 ; am_hal_i2c_bit_bang_send + 60
        0x0000086a:    2802        .(      CMP      r0,#2
        0x0000086c:    bf08        ..      IT       EQ
        0x0000086e:    2001        .       MOVEQ    r0,#1
        0x00000870:    e8bd9ff0    ....    POP      {r4-r12,pc}
        0x00000874:    b134        4.      CBZ      r4,0x884 ; am_hal_i2c_bit_bang_send + 76
        0x00000876:    4648        HF      MOV      r0,r9
        0x00000878:    f002fa0e    ....    BL       i2c_send_byte ; 0x2c98
        0x0000087c:    2800        .(      CMP      r0,#0
        0x0000087e:    bf18        ..      IT       NE
        0x00000880:    e8bd9ff0    ....    POPNE    {r4-r12,pc}
        0x00000884:    2400        .$      MOVS     r4,#0
        0x00000886:    2e00        ..      CMP      r6,#0
        0x00000888:    bf88        ..      IT       HI
        0x0000088a:    f1a60901    ....    SUBHI    r9,r6,#1
        0x0000088e:    d910        ..      BLS      0x8b2 ; am_hal_i2c_bit_bang_send + 122
        0x00000890:    f8150b01    ....    LDRB     r0,[r5],#1
        0x00000894:    f002fa00    ....    BL       i2c_send_byte ; 0x2c98
        0x00000898:    b140        @.      CBZ      r0,0x8ac ; am_hal_i2c_bit_bang_send + 116
        0x0000089a:    2802        .(      CMP      r0,#2
        0x0000089c:    bf18        ..      IT       NE
        0x0000089e:    e8bd9ff0    ....    POPNE    {r4-r12,pc}
        0x000008a2:    454c        LE      CMP      r4,r9
        0x000008a4:    d002        ..      BEQ      0x8ac ; am_hal_i2c_bit_bang_send + 116
        0x000008a6:    f04f0801    O...    MOV      r8,#1
        0x000008aa:    e002        ..      B        0x8b2 ; am_hal_i2c_bit_bang_send + 122
        0x000008ac:    1c64        d.      ADDS     r4,r4,#1
        0x000008ae:    42b4        .B      CMP      r4,r6
        0x000008b0:    d3ee        ..      BCC      0x890 ; am_hal_i2c_bit_bang_send + 88
        0x000008b2:    6939        9i      LDR      r1,[r7,#0x10]
        0x000008b4:    69b8        .i      LDR      r0,[r7,#0x18]
        0x000008b6:    6008        .`      STR      r0,[r1,#0]
        0x000008b8:    2004        .       MOVS     r0,#4
        0x000008ba:    f7fffeb1    ....    BL       am_hal_flash_delay ; 0x620
        0x000008be:    6ab8        .j      LDR      r0,[r7,#0x28]
        0x000008c0:    f1ba0f00    ....    CMP      r10,#0
        0x000008c4:    bf0c        ..      ITE      EQ
        0x000008c6:    6a39        9j      LDREQ    r1,[r7,#0x20]
        0x000008c8:    69f9        .i      LDRNE    r1,[r7,#0x1c]
        0x000008ca:    6008        .`      STR      r0,[r1,#0]
        0x000008cc:    2004        .       MOVS     r0,#4
        0x000008ce:    f7fffea7    ....    BL       am_hal_flash_delay ; 0x620
        0x000008d2:    f002f9c3    ....    BL       i2c_pull_and_wait_scl_hi ; 0x2c5c
        0x000008d6:    b110        ..      CBZ      r0,0x8de ; am_hal_i2c_bit_bang_send + 166
        0x000008d8:    2003        .       MOVS     r0,#3
        0x000008da:    e8bd9ff0    ....    POP      {r4-r12,pc}
        0x000008de:    f1ba0f00    ....    CMP      r10,#0
        0x000008e2:    d102        ..      BNE      0x8ea ; am_hal_i2c_bit_bang_send + 178
        0x000008e4:    69f9        .i      LDR      r1,[r7,#0x1c]
        0x000008e6:    6ab8        .j      LDR      r0,[r7,#0x28]
        0x000008e8:    6008        .`      STR      r0,[r1,#0]
        0x000008ea:    2005        .       MOVS     r0,#5
        0x000008ec:    f7fffe98    ....    BL       am_hal_flash_delay ; 0x620
        0x000008f0:    f1b80f00    ....    CMP      r8,#0
        0x000008f4:    bf14        ..      ITE      NE
        0x000008f6:    2002        .       MOVNE    r0,#2
        0x000008f8:    2000        .       MOVEQ    r0,#0
        0x000008fa:    e8bd9ff0    ....    POP      {r4-r12,pc}
    $d
        0x000008fe:    0000        ..      DCW    0
        0x00000900:    100006dc    ....    DCD    268437212
    $t
    i.am_hal_interrupt_enable
    am_hal_interrupt_enable
        0x00000904:    280f        .(      CMP      r0,#0xf
        0x00000906:    d90a        ..      BLS      0x91e ; am_hal_interrupt_enable + 26
        0x00000908:    3810        .8      SUBS     r0,r0,#0x10
        0x0000090a:    f000001f    ....    AND      r0,r0,#0x1f
        0x0000090e:    2101        .!      MOVS     r1,#1
        0x00000910:    fa01f000    ....    LSL      r0,r1,r0
        0x00000914:    f04f21e0    O..!    MOV      r1,#0xe000e000
        0x00000918:    f8c10100    ....    STR      r0,[r1,#0x100]
        0x0000091c:    4770        pG      BX       lr
        0x0000091e:    490b        .I      LDR      r1,[pc,#44] ; [0x94c] = 0xe000ed24
        0x00000920:    2804        .(      CMP      r0,#4
        0x00000922:    d00d        ..      BEQ      0x940 ; am_hal_interrupt_enable + 60
        0x00000924:    2805        .(      CMP      r0,#5
        0x00000926:    bf04        ..      ITT      EQ
        0x00000928:    6808        .h      LDREQ    r0,[r1,#0]
        0x0000092a:    f4403000    @..0    ORREQ    r0,r0,#0x20000
        0x0000092e:    d005        ..      BEQ      0x93c ; am_hal_interrupt_enable + 56
        0x00000930:    2806        .(      CMP      r0,#6
        0x00000932:    bf06        ..      ITTE     EQ
        0x00000934:    6808        .h      LDREQ    r0,[r1,#0]
        0x00000936:    f4402080    @..     ORREQ    r0,r0,#0x40000
        0x0000093a:    4770        pG      BXNE     lr
        0x0000093c:    6008        .`      STR      r0,[r1,#0]
        0x0000093e:    4770        pG      BX       lr
        0x00000940:    6808        .h      LDR      r0,[r1,#0]
        0x00000942:    f4403080    @..0    ORR      r0,r0,#0x10000
        0x00000946:    6008        .`      STR      r0,[r1,#0]
        0x00000948:    4770        pG      BX       lr
    $d
        0x0000094a:    0000        ..      DCW    0
        0x0000094c:    e000ed24    $...    DCD    3758157092
    $t
    i.am_hal_iom_config
    am_hal_iom_config
        0x00000950:    e92d5ff0    -.._    PUSH     {r4-r12,lr}
        0x00000954:    460c        .F      MOV      r4,r1
        0x00000956:    6809        .h      LDR      r1,[r1,#0]
        0x00000958:    4605        .F      MOV      r5,r0
        0x0000095a:    2806        .(      CMP      r0,#6
        0x0000095c:    bf28        (.      IT       CS
        0x0000095e:    e8bd9ff0    ....    POPCS    {r4-r12,pc}
        0x00000962:    7a20         z      LDRB     r0,[r4,#8]
        0x00000964:    2800        .(      CMP      r0,#0
        0x00000966:    bf18        ..      IT       NE
        0x00000968:    f0410104    A...    ORRNE    r1,r1,#4
        0x0000096c:    7a60        `z      LDRB     r0,[r4,#9]
        0x0000096e:    2800        .(      CMP      r0,#0
        0x00000970:    bf18        ..      IT       NE
        0x00000972:    f0410102    A...    ORRNE    r1,r1,#2
        0x00000976:    4a92        .J      LDR      r2,[pc,#584] ; [0xbc0] = 0xf42400
        0x00000978:    6860        `h      LDR      r0,[r4,#4]
        0x0000097a:    4290        .B      CMP      r0,r2
        0x0000097c:    bf28        (.      IT       CS
        0x0000097e:    f0410120    A. .    ORRCS    r1,r1,#0x20
        0x00000982:    0328        (.      LSLS     r0,r5,#12
        0x00000984:    f10046a0    ...F    ADD      r6,r0,#0x50000000
        0x00000988:    f5064680    ...F    ADD      r6,r6,#0x4000
        0x0000098c:    f8c6111c    ....    STR      r1,[r6,#0x11c]
        0x00000990:    7aa1        .z      LDRB     r1,[r4,#0xa]
        0x00000992:    2904        .)      CMP      r1,#4
        0x00000994:    bf38        8.      IT       CC
        0x00000996:    2104        .!      MOVCC    r1,#4
        0x00000998:    d302        ..      BCC      0x9a0 ; am_hal_iom_config + 80
        0x0000099a:    297c        |)      CMP      r1,#0x7c
        0x0000099c:    bf88        ..      IT       HI
        0x0000099e:    217c        |!      MOVHI    r1,#0x7c
        0x000009a0:    f44f40fe    O..@    MOV      r0,#0x7f00
        0x000009a4:    ea002001    ...     AND      r0,r0,r1,LSL #8
        0x000009a8:    7ae1        .z      LDRB     r1,[r4,#0xb]
        0x000009aa:    2904        .)      CMP      r1,#4
        0x000009ac:    bf38        8.      IT       CC
        0x000009ae:    2104        .!      MOVCC    r1,#4
        0x000009b0:    d302        ..      BCC      0x9b8 ; am_hal_iom_config + 104
        0x000009b2:    297c        |)      CMP      r1,#0x7c
        0x000009b4:    bf88        ..      IT       HI
        0x000009b6:    217c        |!      MOVHI    r1,#0x7c
        0x000009b8:    f001017f    ....    AND      r1,r1,#0x7f
        0x000009bc:    4308        .C      ORRS     r0,r0,r1
        0x000009be:    f8c60108    ....    STR      r0,[r6,#0x108]
        0x000009c2:    f04f0901    O...    MOV      r9,#1
        0x000009c6:    2d00        .-      CMP      r5,#0
        0x000009c8:    bf18        ..      IT       NE
        0x000009ca:    2d04        .-      CMPNE    r5,#4
        0x000009cc:    d007        ..      BEQ      0x9de ; am_hal_iom_config + 142
        0x000009ce:    487d        }H      LDR      r0,[pc,#500] ; [0xbc4] = 0x40020000
        0x000009d0:    68c0        .h      LDR      r0,[r0,#0xc]
        0x000009d2:    b2c0        ..      UXTB     r0,r0
        0x000009d4:    2822        "(      CMP      r0,#0x22
        0x000009d6:    bf04        ..      ITT      EQ
        0x000009d8:    6820         h      LDREQ    r0,[r4,#0]
        0x000009da:    2800        .(      CMPEQ    r0,#0
        0x000009dc:    d07d        }.      BEQ      0xada ; am_hal_iom_config + 394
        0x000009de:    6863        ch      LDR      r3,[r4,#4]
        0x000009e0:    f894b008    ....    LDRB     r11,[r4,#8]
        0x000009e4:    2b00        .+      CMP      r3,#0
        0x000009e6:    f00080db    ....    BEQ.W    0xba0 ; am_hal_iom_config + 592
        0x000009ea:    4877        wH      LDR      r0,[pc,#476] ; [0xbc8] = 0x2dc6c00
        0x000009ec:    fbb0f1f3    ....    UDIV     r1,r0,r3
        0x000009f0:    fbb0f2f3    ....    UDIV     r2,r0,r3
        0x000009f4:    fb030012    ....    MLS      r0,r3,r2,r0
        0x000009f8:    2800        .(      CMP      r0,#0
        0x000009fa:    bf18        ..      IT       NE
        0x000009fc:    2001        .       MOVNE    r0,#1
        0x000009fe:    eb010c00    ....    ADD      r12,r1,r0
        0x00000a02:    f1cc0000    ....    RSB      r0,r12,#0
        0x00000a06:    ea0c0000    ....    AND      r0,r12,r0
        0x00000a0a:    fab0f080    ....    CLZ      r0,r0
        0x00000a0e:    f1c0021f    ....    RSB      r2,r0,#0x1f
        0x00000a12:    2a06        .*      CMP      r2,#6
        0x00000a14:    dc7e        ~.      BGT      0xb14 ; am_hal_iom_config + 452
        0x00000a16:    bf00        ..      NOP      
        0x00000a18:    f5b36f37    ..7o    CMP      r3,#0xb70
        0x00000a1c:    d909        ..      BLS      0xa32 ; am_hal_iom_config + 226
        0x00000a1e:    f5a30174    ..t.    SUB      r1,r3,#0xf40000
        0x00000a22:    486a        jH      LDR      r0,[pc,#424] ; [0xbcc] = 0x7a11ff
        0x00000a24:    f5a15110    ...Q    SUB      r1,r1,#0x2400
        0x00000a28:    4281        .B      CMP      r1,r0
        0x00000a2a:    bf88        ..      IT       HI
        0x00000a2c:    f04f0a00    O...    MOVHI    r10,#0
        0x00000a30:    d801        ..      BHI      0xa36 ; am_hal_iom_config + 230
        0x00000a32:    f04f0a01    O...    MOV      r10,#1
        0x00000a36:    eb09084a    ..J.    ADD      r8,r9,r10,LSL #1
        0x00000a3a:    fa08f002    ....    LSL      r0,r8,r2
        0x00000a3e:    fbbcf1f0    ....    UDIV     r1,r12,r0
        0x00000a42:    fbbcf7f0    ....    UDIV     r7,r12,r0
        0x00000a46:    fb00c017    ....    MLS      r0,r0,r7,r12
        0x00000a4a:    2800        .(      CMP      r0,#0
        0x00000a4c:    bf18        ..      IT       NE
        0x00000a4e:    2001        .       MOVNE    r0,#1
        0x00000a50:    4401        .D      ADD      r1,r1,r0
        0x00000a52:    fab1f081    ....    CLZ      r0,r1
        0x00000a56:    f1c0071f    ....    RSB      r7,r0,#0x1f
        0x00000a5a:    2f07        ./      CMP      r7,#7
        0x00000a5c:    bf84        ..      ITT      HI
        0x00000a5e:    18b8        ..      ADDHI    r0,r7,r2
        0x00000a60:    1fc2        ..      SUBHI    r2,r0,#7
        0x00000a62:    1c50        P.      ADDS     r0,r2,#1
        0x00000a64:    2807        .(      CMP      r0,#7
        0x00000a66:    d87d        }.      BHI      0xb64 ; am_hal_iom_config + 532
        0x00000a68:    2f07        ./      CMP      r7,#7
        0x00000a6a:    d90c        ..      BLS      0xa86 ; am_hal_iom_config + 310
        0x00000a6c:    1ffa        ..      SUBS     r2,r7,#7
        0x00000a6e:    fa21f702    !...    LSR      r7,r1,r2
        0x00000a72:    fa09f202    ....    LSL      r2,r9,r2
        0x00000a76:    fbb1fef2    ....    UDIV     lr,r1,r2
        0x00000a7a:    fb02111e    ....    MLS      r1,r2,lr,r1
        0x00000a7e:    2900        .)      CMP      r1,#0
        0x00000a80:    bf18        ..      IT       NE
        0x00000a82:    2101        .!      MOVNE    r1,#1
        0x00000a84:    4439        9D      ADD      r1,r1,r7
        0x00000a86:    4a52        RJ      LDR      r2,[pc,#328] ; [0xbd0] = 0xb71b00
        0x00000a88:    4293        .B      CMP      r3,r2
        0x00000a8a:    d207        ..      BCS      0xa9c ; am_hal_iom_config + 332
        0x00000a8c:    1e42        B.      SUBS     r2,r0,#1
        0x00000a8e:    fa09f202    ....    LSL      r2,r9,r2
        0x00000a92:    4562        bE      CMP      r2,r12
        0x00000a94:    bf18        ..      IT       NE
        0x00000a96:    f04f0c01    O...    MOVNE    r12,#1
        0x00000a9a:    d101        ..      BNE      0xaa0 ; am_hal_iom_config + 336
        0x00000a9c:    f04f0c00    O...    MOV      r12,#0
        0x00000aa0:    f1bb0f01    ....    CMP      r11,#1
        0x00000aa4:    bf0c        ..      ITE      EQ
        0x00000aa6:    1e8a        ..      SUBEQ    r2,r1,#2
        0x00000aa8:    1e4a        J.      SUBNE    r2,r1,#1
        0x00000aaa:    0852        R.      LSRS     r2,r2,#1
        0x00000aac:    f44f63e0    O..c    MOV      r3,#0x700
        0x00000ab0:    ea032700    ...'    AND      r7,r3,r0,LSL #8
        0x00000ab4:    f44f6300    O..c    MOV      r3,#0x800
        0x00000ab8:    ea0323ca    ...#    AND      r3,r3,r10,LSL #11
        0x00000abc:    f44f5980    O..Y    MOV      r9,#0x1000
        0x00000ac0:    433b        ;C      ORRS     r3,r3,r7
        0x00000ac2:    ea09390c    ...9    AND      r9,r9,r12,LSL #12
        0x00000ac6:    ea430309    C...    ORR      r3,r3,r9
        0x00000aca:    f44f097f    O...    MOV      r9,#0xff0000
        0x00000ace:    ea094202    ...B    AND      r2,r9,r2,LSL #16
        0x00000ad2:    431a        .C      ORRS     r2,r2,r3
        0x00000ad4:    f04f437f    O..C    MOV      r3,#0xff000000
        0x00000ad8:    e000        ..      B        0xadc ; am_hal_iom_config + 396
        0x00000ada:    e026        &.      B        0xb2a ; am_hal_iom_config + 474
        0x00000adc:    eb036301    ...c    ADD      r3,r3,r1,LSL #24
        0x00000ae0:    f1a10901    ....    SUB      r9,r1,#1
        0x00000ae4:    431a        .C      ORRS     r2,r2,r3
        0x00000ae6:    1e41        A.      SUBS     r1,r0,#1
        0x00000ae8:    fb0cfc09    ....    MUL      r12,r12,r9
        0x00000aec:    4b36        6K      LDR      r3,[pc,#216] ; [0xbc8] = 0x2dc6c00
        0x00000aee:    fa08f001    ....    LSL      r0,r8,r1
        0x00000af2:    f10c0c01    ....    ADD      r12,r12,#1
        0x00000af6:    fb00f00c    ....    MUL      r0,r0,r12
        0x00000afa:    fbb3f8f0    ....    UDIV     r8,r3,r0
        0x00000afe:    fbb3fcf0    ....    UDIV     r12,r3,r0
        0x00000b02:    fb003818    ...8    MLS      r8,r0,r8,r3
        0x00000b06:    ebb80f50    ..P.    CMP      r8,r0,LSR #1
        0x00000b0a:    bf8c        ..      ITE      HI
        0x00000b0c:    2001        .       MOVHI    r0,#1
        0x00000b0e:    2000        .       MOVLS    r0,#0
        0x00000b10:    4460        `D      ADD      r0,r0,r12
        0x00000b12:    e000        ..      B        0xb16 ; am_hal_iom_config + 454
        0x00000b14:    e051        Q.      B        0xbba ; am_hal_iom_config + 618
        0x00000b16:    f8dfc0bc    ....    LDR      r12,[pc,#188] ; [0xbd4] = 0x3d090
        0x00000b1a:    fbb0f8fc    ....    UDIV     r8,r0,r12
        0x00000b1e:    fb0c0818    ....    MLS      r8,r12,r8,r0
        0x00000b22:    f1b80f00    ....    CMP      r8,#0
        0x00000b26:    d137        7.      BNE      0xb98 ; am_hal_iom_config + 584
        0x00000b28:    e026        &.      B        0xb78 ; am_hal_iom_config + 552
        0x00000b2a:    f8d6011c    ....    LDR      r0,[r6,#0x11c]
        0x00000b2e:    f0400004    @...    ORR      r0,r0,#4
        0x00000b32:    f8c6011c    ....    STR      r0,[r6,#0x11c]
        0x00000b36:    6860        `h      LDR      r0,[r4,#4]
        0x00000b38:    f5a02140    ..@!    SUB      r1,r0,#0xc0000
        0x00000b3c:    f5b15154    ..TQ    SUBS     r1,r1,#0x3500
        0x00000b40:    bf08        ..      IT       EQ
        0x00000b42:    2002        .       MOVEQ    r0,#2
        0x00000b44:    d00d        ..      BEQ      0xb62 ; am_hal_iom_config + 530
        0x00000b46:    f5a021c0    ...!    SUB      r1,r0,#0x60000
        0x00000b4a:    f5b151d4    ...Q    SUBS     r1,r1,#0x1a80
        0x00000b4e:    bf08        ..      IT       EQ
        0x00000b50:    2003        .       MOVEQ    r0,#3
        0x00000b52:    d006        ..      BEQ      0xb62 ; am_hal_iom_config + 530
        0x00000b54:    f5a03140    ..@1    SUB      r1,r0,#0x30000
        0x00000b58:    f5b16154    ..Ta    SUBS     r1,r1,#0xd40
        0x00000b5c:    bf0c        ..      ITE      EQ
        0x00000b5e:    2004        .       MOVEQ    r0,#4
        0x00000b60:    2005        .       MOVNE    r0,#5
        0x00000b62:    e000        ..      B        0xb66 ; am_hal_iom_config + 534
        0x00000b64:    e01c        ..      B        0xba0 ; am_hal_iom_config + 592
        0x00000b66:    f44f61e0    O..a    MOV      r1,#0x700
        0x00000b6a:    ea012000    ...     AND      r0,r1,r0,LSL #8
        0x00000b6e:    f4402261    @.a"    ORR      r2,r0,#0xe1000
        0x00000b72:    f04252e8    B..R    ORR      r2,r2,#0x1d000000
        0x00000b76:    e00f        ..      B        0xb98 ; am_hal_iom_config + 584
        0x00000b78:    fbb0f0fc    ....    UDIV     r0,r0,r12
        0x00000b7c:    b160        `.      CBZ      r0,0xb98 ; am_hal_iom_config + 584
        0x00000b7e:    f1a00c01    ....    SUB      r12,r0,#1
        0x00000b82:    ea100f0c    ....    TST      r0,r12
        0x00000b86:    d107        ..      BNE      0xb98 ; am_hal_iom_config + 584
        0x00000b88:    2003        .       MOVS     r0,#3
        0x00000b8a:    4088        .@      LSLS     r0,r0,r1
        0x00000b8c:    fbb3f1f0    ....    UDIV     r1,r3,r0
        0x00000b90:    fbb3f1f0    ....    UDIV     r1,r3,r0
        0x00000b94:    f4476200    G..b    ORR      r2,r7,#0x800
        0x00000b98:    2a00        .*      CMP      r2,#0
        0x00000b9a:    bf18        ..      IT       NE
        0x00000b9c:    f8c6210c    ...!    STRNE    r2,[r6,#0x10c]
        0x00000ba0:    f7fffc8a    ....    BL       am_hal_clkgen_sysclk_get ; 0x4b8
        0x00000ba4:    6861        ah      LDR      r1,[r4,#4]
        0x00000ba6:    fbb0f0f1    ....    UDIV     r0,r0,r1
        0x00000baa:    490b        .I      LDR      r1,[pc,#44] ; [0xbd8] = 0x100005bc
        0x00000bac:    eb0000c0    ....    ADD      r0,r0,r0,LSL #3
        0x00000bb0:    0200        ..      LSLS     r0,r0,#8
        0x00000bb2:    f8410025    A.%.    STR      r0,[r1,r5,LSL #2]
        0x00000bb6:    e8bd9ff0    ....    POP      {r4-r12,pc}
        0x00000bba:    2206        ."      MOVS     r2,#6
        0x00000bbc:    e72c        ,.      B        0xa18 ; am_hal_iom_config + 200
    $d
        0x00000bbe:    0000        ..      DCW    0
        0x00000bc0:    00f42400    .$..    DCD    16000000
        0x00000bc4:    40020000    ...@    DCD    1073872896
        0x00000bc8:    02dc6c00    .l..    DCD    48000000
        0x00000bcc:    007a11ff    ..z.    DCD    7999999
        0x00000bd0:    00b71b00    ....    DCD    12000000
        0x00000bd4:    0003d090    ....    DCD    250000
        0x00000bd8:    100005bc    ....    DCD    268436924
    $t
    i.am_hal_iom_enable
    am_hal_iom_enable
        0x00000bdc:    2806        .(      CMP      r0,#6
        0x00000bde:    bf28        (.      IT       CS
        0x00000be0:    4770        pG      BXCS     lr
        0x00000be2:    0301        ..      LSLS     r1,r0,#12
        0x00000be4:    f10141a0    ...A    ADD      r1,r1,#0x50000000
        0x00000be8:    f5014180    ...A    ADD      r1,r1,#0x4000
        0x00000bec:    f8d1211c    ...!    LDR      r2,[r1,#0x11c]
        0x00000bf0:    f0424200    B..B    ORR      r2,r2,#0x80000000
        0x00000bf4:    f8c1211c    ...!    STR      r2,[r1,#0x11c]
        0x00000bf8:    4a01        .J      LDR      r2,[pc,#4] ; [0xc00] = 0x10000074
        0x00000bfa:    2100        .!      MOVS     r1,#0
        0x00000bfc:    5411        .T      STRB     r1,[r2,r0]
        0x00000bfe:    4770        pG      BX       lr
    $d
        0x00000c00:    10000074    t...    DCD    268435572
    $t
    i.am_hal_iom_fifo_read
    am_hal_iom_fifo_read
        0x00000c04:    2806        .(      CMP      r0,#6
        0x00000c06:    bf24        $.      ITT      CS
        0x00000c08:    2000        .       MOVCS    r0,#0
        0x00000c0a:    4770        pG      BXCS     lr
        0x00000c0c:    b5f8        ..      PUSH     {r3-r7,lr}
        0x00000c0e:    0300        ..      LSLS     r0,r0,#12
        0x00000c10:    f10045a0    ...E    ADD      r5,r0,#0x50000000
        0x00000c14:    f5054580    ...E    ADD      r5,r5,#0x4000
        0x00000c18:    4614        .F      MOV      r4,r2
        0x00000c1a:    f8d5011c    ....    LDR      r0,[r5,#0x11c]
        0x00000c1e:    460e        .F      MOV      r6,r1
        0x00000c20:    f0100f08    ....    TST      r0,#8
        0x00000c24:    d10a        ..      BNE      0xc3c ; am_hal_iom_fifo_read + 56
        0x00000c26:    f8d50100    ....    LDR      r0,[r5,#0x100]
        0x00000c2a:    b2c0        ..      UXTB     r0,r0
        0x00000c2c:    42a0        .B      CMP      r0,r4
        0x00000c2e:    d205        ..      BCS      0xc3c ; am_hal_iom_fifo_read + 56
        0x00000c30:    a218        ..      ADR      r2,{pc}+0x64 ; 0xc94
        0x00000c32:    f640717f    @..q    MOV      r1,#0xf7f
        0x00000c36:    a025        %.      ADR      r0,{pc}+0x96 ; 0xccc
        0x00000c38:    f7fffcf0    ....    BL       am_hal_debug_error ; 0x61c
        0x00000c3c:    08a2        ..      LSRS     r2,r4,#2
        0x00000c3e:    4250        PB      RSBS     r0,r2,#0
        0x00000c40:    eb040080    ....    ADD      r0,r4,r0,LSL #2
        0x00000c44:    2a00        .*      CMP      r2,#0
        0x00000c46:    f04f0300    O...    MOV      r3,#0
        0x00000c4a:    d906        ..      BLS      0xc5a ; am_hal_iom_fifo_read + 86
        0x00000c4c:    6829        )h      LDR      r1,[r5,#0]
        0x00000c4e:    f8461023    F.#.    STR      r1,[r6,r3,LSL #2]
        0x00000c52:    f1030301    ....    ADD      r3,r3,#1
        0x00000c56:    429a        .B      CMP      r2,r3
        0x00000c58:    d8f8        ..      BHI      0xc4c ; am_hal_iom_fifo_read + 72
        0x00000c5a:    b1c8        ..      CBZ      r0,0xc90 ; am_hal_iom_fifo_read + 140
        0x00000c5c:    6829        )h      LDR      r1,[r5,#0]
        0x00000c5e:    9100        ..      STR      r1,[sp,#0]
        0x00000c60:    eb060183    ....    ADD      r1,r6,r3,LSL #2
        0x00000c64:    1e4b        K.      SUBS     r3,r1,#1
        0x00000c66:    f10d31ff    ...1    ADD      r1,sp,#0xffffffff
        0x00000c6a:    f0100f01    ....    TST      r0,#1
        0x00000c6e:    d003        ..      BEQ      0xc78 ; am_hal_iom_fifo_read + 116
        0x00000c70:    f8112f01    .../    LDRB     r2,[r1,#1]!
        0x00000c74:    f8032f01    .../    STRB     r2,[r3,#1]!
        0x00000c78:    ea5f0c50    _.P.    LSRS     r12,r0,#1
        0x00000c7c:    d008        ..      BEQ      0xc90 ; am_hal_iom_fifo_read + 140
        0x00000c7e:    7848        Hx      LDRB     r0,[r1,#1]
        0x00000c80:    7058        Xp      STRB     r0,[r3,#1]
        0x00000c82:    f8110f02    ....    LDRB     r0,[r1,#2]!
        0x00000c86:    f8030f02    ....    STRB     r0,[r3,#2]!
        0x00000c8a:    f1bc0c01    ....    SUBS     r12,r12,#1
        0x00000c8e:    d1f6        ..      BNE      0xc7e ; am_hal_iom_fifo_read + 122
        0x00000c90:    4620         F      MOV      r0,r4
        0x00000c92:    bdf8        ..      POP      {r3-r7,pc}
    $d
        0x00000c94:    20656854    The     DCD    543516756
        0x00000c98:    6f666966    fifo    DCD    1868982630
        0x00000c9c:    656f6420     doe    DCD    1701798944
        0x00000ca0:    74276e73    sn't    DCD    1948741235
        0x00000ca4:    6e6f6320     con    DCD    1852793632
        0x00000ca8:    6e696174    tain    DCD    1852399988
        0x00000cac:    65687420     the    DCD    1701344288
        0x00000cb0:    71657220     req    DCD    1902473760
        0x00000cb4:    74736575    uest    DCD    1953719669
        0x00000cb8:    6e206465    ed n    DCD    1847616613
        0x00000cbc:    65626d75    umbe    DCD    1700949365
        0x00000cc0:    666f2072    r of    DCD    1718558834
        0x00000cc4:    74796220     byt    DCD    1954112032
        0x00000cc8:    002e7365    es..    DCD    3044197
        0x00000ccc:    612f2e2e    ../a    DCD    1630481966
        0x00000cd0:    61685f6d    m_ha    DCD    1634230125
        0x00000cd4:    6f695f6c    l_io    DCD    1869176684
        0x00000cd8:    00632e6d    m.c.    DCD    6499949
    $t
    i.am_hal_iom_fifo_write
    am_hal_iom_fifo_write
        0x00000cdc:    b570        p.      PUSH     {r4-r6,lr}
        0x00000cde:    4614        .F      MOV      r4,r2
        0x00000ce0:    460e        .F      MOV      r6,r1
        0x00000ce2:    2806        .(      CMP      r0,#6
        0x00000ce4:    bf24        $.      ITT      CS
        0x00000ce6:    2000        .       MOVCS    r0,#0
        0x00000ce8:    bd70        p.      POPCS    {r4-r6,pc}
        0x00000cea:    0300        ..      LSLS     r0,r0,#12
        0x00000cec:    f10045a0    ...E    ADD      r5,r0,#0x50000000
        0x00000cf0:    f5054580    ...E    ADD      r5,r5,#0x4000
        0x00000cf4:    f8d5011c    ....    LDR      r0,[r5,#0x11c]
        0x00000cf8:    f0100f08    ....    TST      r0,#8
        0x00000cfc:    bf0c        ..      ITE      EQ
        0x00000cfe:    2080        .       MOVEQ    r0,#0x80
        0x00000d00:    2040        @       MOVNE    r0,#0x40
        0x00000d02:    f8d51100    ....    LDR      r1,[r5,#0x100]
        0x00000d06:    1a40        @.      SUBS     r0,r0,r1
        0x00000d08:    f00000fc    ....    AND      r0,r0,#0xfc
        0x00000d0c:    42a0        .B      CMP      r0,r4
        0x00000d0e:    d205        ..      BCS      0xd1c ; am_hal_iom_fifo_write + 64
        0x00000d10:    a21b        ..      ADR      r2,{pc}+0x70 ; 0xd80
        0x00000d12:    f6407144    @.Dq    MOV      r1,#0xf44
        0x00000d16:    a027        '.      ADR      r0,{pc}+0x9e ; 0xdb4
        0x00000d18:    f7fffc80    ....    BL       am_hal_debug_error ; 0x61c
        0x00000d1c:    2300        .#      MOVS     r3,#0
        0x00000d1e:    1ce1        ..      ADDS     r1,r4,#3
        0x00000d20:    2903        .)      CMP      r1,#3
        0x00000d22:    d922        ".      BLS      0xd6a ; am_hal_iom_fifo_write + 142
        0x00000d24:    f1b44f00    ...O    CMP      r4,#0x80000000
        0x00000d28:    d21f        ..      BCS      0xd6a ; am_hal_iom_fifo_write + 142
        0x00000d2a:    17ca        ..      ASRS     r2,r1,#31
        0x00000d2c:    eb017292    ...r    ADD      r2,r1,r2,LSR #30
        0x00000d30:    2903        .)      CMP      r1,#3
        0x00000d32:    bfd8        ..      IT       LE
        0x00000d34:    2000        .       MOVLE    r0,#0
        0x00000d36:    dd05        ..      BLE      0xd44 ; am_hal_iom_fifo_write + 104
        0x00000d38:    f3c20080    ....    UBFX     r0,r2,#2,#1
        0x00000d3c:    b110        ..      CBZ      r0,0xd44 ; am_hal_iom_fifo_write + 104
        0x00000d3e:    6831        1h      LDR      r1,[r6,#0]
        0x00000d40:    6029        )`      STR      r1,[r5,#0]
        0x00000d42:    2301        .#      MOVS     r3,#1
        0x00000d44:    2101        .!      MOVS     r1,#1
        0x00000d46:    eb0102a2    ....    ADD      r2,r1,r2,ASR #2
        0x00000d4a:    1c40        @.      ADDS     r0,r0,#1
        0x00000d4c:    e009        ..      B        0xd62 ; am_hal_iom_fifo_write + 134
        0x00000d4e:    bf00        ..      NOP      
        0x00000d50:    f8561023    V.#.    LDR      r1,[r6,r3,LSL #2]
        0x00000d54:    6029        )`      STR      r1,[r5,#0]
        0x00000d56:    1c59        Y.      ADDS     r1,r3,#1
        0x00000d58:    f8563021    V.!0    LDR      r3,[r6,r1,LSL #2]
        0x00000d5c:    602b        +`      STR      r3,[r5,#0]
        0x00000d5e:    1c4b        K.      ADDS     r3,r1,#1
        0x00000d60:    1c80        ..      ADDS     r0,r0,#2
        0x00000d62:    4282        .B      CMP      r2,r0
        0x00000d64:    dcf4        ..      BGT      0xd50 ; am_hal_iom_fifo_write + 116
        0x00000d66:    4620         F      MOV      r0,r4
        0x00000d68:    bd70        p.      POP      {r4-r6,pc}
        0x00000d6a:    2c00        .,      CMP      r4,#0
        0x00000d6c:    d9fb        ..      BLS      0xd66 ; am_hal_iom_fifo_write + 138
        0x00000d6e:    bf00        ..      NOP      
        0x00000d70:    f8560023    V.#.    LDR      r0,[r6,r3,LSL #2]
        0x00000d74:    6028        (`      STR      r0,[r5,#0]
        0x00000d76:    1c5b        [.      ADDS     r3,r3,#1
        0x00000d78:    ebb40f83    ....    CMP      r4,r3,LSL #2
        0x00000d7c:    d8f8        ..      BHI      0xd70 ; am_hal_iom_fifo_write + 148
        0x00000d7e:    e7f2        ..      B        0xd66 ; am_hal_iom_fifo_write + 138
    $d
        0x00000d80:    20656854    The     DCD    543516756
        0x00000d84:    6f666966    fifo    DCD    1868982630
        0x00000d88:    756f6320     cou    DCD    1970234144
        0x00000d8c:    276e646c    ldn'    DCD    661546092
        0x00000d90:    69662074    t fi    DCD    1768300660
        0x00000d94:    68742074    t th    DCD    1752440948
        0x00000d98:    65722065    e re    DCD    1701978213
        0x00000d9c:    73657571    ques    DCD    1936029041
        0x00000da0:    20646574    ted     DCD    543450484
        0x00000da4:    626d756e    numb    DCD    1651340654
        0x00000da8:    6f207265    er o    DCD    1864397413
        0x00000dac:    79622066    f by    DCD    2036473958
        0x00000db0:    00736574    tes.    DCD    7562612
        0x00000db4:    612f2e2e    ../a    DCD    1630481966
        0x00000db8:    61685f6d    m_ha    DCD    1634230125
        0x00000dbc:    6f695f6c    l_io    DCD    1869176684
        0x00000dc0:    00632e6d    m.c.    DCD    6499949
    $t
    i.am_hal_iom_i2c_cmd_run
    am_hal_iom_i2c_cmd_run
        0x00000dc4:    e92d4ff8    -..O    PUSH     {r3-r11,lr}
        0x00000dc8:    460f        .F      MOV      r7,r1
        0x00000dca:    990a        ..      LDR      r1,[sp,#0x28]
        0x00000dcc:    2f06        ./      CMP      r7,#6
        0x00000dce:    bf24        $.      ITT      CS
        0x00000dd0:    2002        .       MOVCS    r0,#2
        0x00000dd2:    e8bd8ff8    ....    POPCS    {r3-r11,pc}
        0x00000dd6:    2b00        .+      CMP      r3,#0
        0x00000dd8:    bf04        ..      ITT      EQ
        0x00000dda:    2003        .       MOVEQ    r0,#3
        0x00000ddc:    e8bd8ff8    ....    POPEQ    {r3-r11,pc}
        0x00000de0:    b2db        ..      UXTB     r3,r3
        0x00000de2:    4318        .C      ORRS     r0,r0,r3
        0x00000de4:    f06f437c    o.|C    MVN      r3,#0xfc000000
        0x00000de8:    ea034202    ...B    AND      r2,r3,r2,LSL #16
        0x00000dec:    4310        .C      ORRS     r0,r0,r2
        0x00000dee:    4a46        FJ      LDR      r2,[pc,#280] ; [0xf08] = 0x5c00ff00
        0x00000df0:    f8dfc118    ....    LDR      r12,[pc,#280] ; [0xf0c] = 0xdeadbeef
        0x00000df4:    4011        .@      ANDS     r1,r1,r2
        0x00000df6:    ea410a00    A...    ORR      r10,r1,r0
        0x00000dfa:    2000        .       MOVS     r0,#0
        0x00000dfc:    4944        DI      LDR      r1,[pc,#272] ; [0xf10] = 0x34ba
        0x00000dfe:    f04f0b04    O...    MOV      r11,#4
        0x00000e02:    25ff        .%      MOVS     r5,#0xff
        0x00000e04:    eb000240    ..@.    ADD      r2,r0,r0,LSL #1
        0x00000e08:    5c8c        .\      LDRB     r4,[r1,r2]
        0x00000e0a:    42bc        .B      CMP      r4,r7
        0x00000e0c:    d11b        ..      BNE      0xe46 ; am_hal_iom_i2c_cmd_run + 130
        0x00000e0e:    1853        S.      ADDS     r3,r2,r1
        0x00000e10:    785a        Zx      LDRB     r2,[r3,#1]
        0x00000e12:    f00204fc    ....    AND      r4,r2,#0xfc
        0x00000e16:    f1044480    ...D    ADD      r4,r4,#0x40000000
        0x00000e1a:    f5043480    ...4    ADD      r4,r4,#0x10000
        0x00000e1e:    6824        $h      LDR      r4,[r4,#0]
        0x00000e20:    0792        ..      LSLS     r2,r2,#30
        0x00000e22:    0ed2        ..      LSRS     r2,r2,#27
        0x00000e24:    fa05f602    ....    LSL      r6,r5,r2
        0x00000e28:    4034        4@      ANDS     r4,r4,r6
        0x00000e2a:    fa24f202    $...    LSR      r2,r4,r2
        0x00000e2e:    789b        .x      LDRB     r3,[r3,#2]
        0x00000e30:    f3c202c2    ....    UBFX     r2,r2,#3,#3
        0x00000e34:    4293        .B      CMP      r3,r2
        0x00000e36:    d106        ..      BNE      0xe46 ; am_hal_iom_i2c_cmd_run + 130
        0x00000e38:    eb000040    ..@.    ADD      r0,r0,r0,LSL #1
        0x00000e3c:    4408        .D      ADD      r0,r0,r1
        0x00000e3e:    7844        Dx      LDRB     r4,[r0,#1]
        0x00000e40:    4564        dE      CMP      r4,r12
        0x00000e42:    d106        ..      BNE      0xe52 ; am_hal_iom_i2c_cmd_run + 142
        0x00000e44:    e002        ..      B        0xe4c ; am_hal_iom_i2c_cmd_run + 136
        0x00000e46:    1c40        @.      ADDS     r0,r0,#1
        0x00000e48:    2807        .(      CMP      r0,#7
        0x00000e4a:    d3db        ..      BCC      0xe04 ; am_hal_iom_i2c_cmd_run + 64
        0x00000e4c:    4658        XF      MOV      r0,r11
        0x00000e4e:    e8bd8ff8    ....    POP      {r3-r11,pc}
        0x00000e52:    f00406fc    ....    AND      r6,r4,#0xfc
        0x00000e56:    f1064680    ...F    ADD      r6,r6,#0x40000000
        0x00000e5a:    f5063680    ...6    ADD      r6,r6,#0x10000
        0x00000e5e:    f8d69000    ....    LDR      r9,[r6,#0]
        0x00000e62:    f8df80b0    ....    LDR      r8,[pc,#176] ; [0xf14] = 0x40010000
        0x00000e66:    2c32        2,      CMP      r4,#0x32
        0x00000e68:    d227        '.      BCS      0xeba ; am_hal_iom_i2c_cmd_run + 246
        0x00000e6a:    f7fff991    ....    BL       am_hal_interrupt_master_disable ; 0x190
        0x00000e6e:    9000        ..      STR      r0,[sp,#0]
        0x00000e70:    2073        s       MOVS     r0,#0x73
        0x00000e72:    f8c80060    ..`.    STR      r0,[r8,#0x60]
        0x00000e76:    207c        |       MOVS     r0,#0x7c
        0x00000e78:    ea000054    ..T.    AND      r0,r0,r4,LSR #1
        0x00000e7c:    4440        @D      ADD      r0,r0,r8
        0x00000e7e:    6c01        .l      LDR      r1,[r0,#0x40]
        0x00000e80:    0762        b.      LSLS     r2,r4,#29
        0x00000e82:    0ed2        ..      LSRS     r2,r2,#27
        0x00000e84:    2307        .#      MOVS     r3,#7
        0x00000e86:    fa03f202    ....    LSL      r2,r3,r2
        0x00000e8a:    4391        .C      BICS     r1,r1,r2
        0x00000e8c:    6401        .d      STR      r1,[r0,#0x40]
        0x00000e8e:    6832        2h      LDR      r2,[r6,#0]
        0x00000e90:    07a0        ..      LSLS     r0,r4,#30
        0x00000e92:    0ec0        ..      LSRS     r0,r0,#27
        0x00000e94:    fa05f100    ....    LSL      r1,r5,r0
        0x00000e98:    231a        .#      MOVS     r3,#0x1a
        0x00000e9a:    438a        .C      BICS     r2,r2,r1
        0x00000e9c:    fa03f000    ....    LSL      r0,r3,r0
        0x00000ea0:    4302        .C      ORRS     r2,r2,r0
        0x00000ea2:    6032        2`      STR      r2,[r6,#0]
        0x00000ea4:    f8d600e0    ....    LDR      r0,[r6,#0xe0]
        0x00000ea8:    4388        .C      BICS     r0,r0,r1
        0x00000eaa:    f8c600e0    ....    STR      r0,[r6,#0xe0]
        0x00000eae:    2000        .       MOVS     r0,#0
        0x00000eb0:    f8c80060    ..`.    STR      r0,[r8,#0x60]
        0x00000eb4:    9800        ..      LDR      r0,[sp,#0]
        0x00000eb6:    f7fff96f    ..o.    BL       am_hal_interrupt_master_set ; 0x198
        0x00000eba:    f004001f    ....    AND      r0,r4,#0x1f
        0x00000ebe:    2501        .%      MOVS     r5,#1
        0x00000ec0:    fa05f200    ....    LSL      r2,r5,r0
        0x00000ec4:    4914        .I      LDR      r1,[pc,#80] ; [0xf18] = 0x40010080
        0x00000ec6:    4b15        .K      LDR      r3,[pc,#84] ; [0xf1c] = 0x100005bc
        0x00000ec8:    ea0b00d4    ....    AND      r0,r11,r4,LSR #3
        0x00000ecc:    4401        .D      ADD      r1,r1,r0
        0x00000ece:    f8530027    S.'.    LDR      r0,[r3,r7,LSL #2]
        0x00000ed2:    4613        .F      MOV      r3,r2
        0x00000ed4:    f7fffba8    ....    BL       am_hal_flash_delay_status_change ; 0x628
        0x00000ed8:    2173        s!      MOVS     r1,#0x73
        0x00000eda:    f8c81060    ..`.    STR      r1,[r8,#0x60]
        0x00000ede:    f8c69000    ....    STR      r9,[r6,#0]
        0x00000ee2:    2100        .!      MOVS     r1,#0
        0x00000ee4:    f8c81060    ..`.    STR      r1,[r8,#0x60]
        0x00000ee8:    2801        .(      CMP      r0,#1
        0x00000eea:    bf1c        ..      ITT      NE
        0x00000eec:    4628        (F      MOVNE    r0,r5
        0x00000eee:    e8bd8ff8    ....    POPNE    {r3-r11,pc}
        0x00000ef2:    4608        .F      MOV      r0,r1
        0x00000ef4:    0339        9.      LSLS     r1,r7,#12
        0x00000ef6:    f10141a0    ...A    ADD      r1,r1,#0x50000000
        0x00000efa:    f5014180    ...A    ADD      r1,r1,#0x4000
        0x00000efe:    f8c1a110    ....    STR      r10,[r1,#0x110]
        0x00000f02:    e8bd8ff8    ....    POP      {r3-r11,pc}
    $d
        0x00000f06:    0000        ..      DCW    0
        0x00000f08:    5c00ff00    ...\    DCD    1543569152
        0x00000f0c:    deadbeef    ....    DCD    3735928559
        0x00000f10:    000034ba    .4..    DCD    13498
        0x00000f14:    40010000    ...@    DCD    1073807360
        0x00000f18:    40010080    ...@    DCD    1073807488
        0x00000f1c:    100005bc    ....    DCD    268436924
    $t
    i.am_hal_iom_i2c_read_nb
    am_hal_iom_i2c_read_nb
        0x00000f20:    e92d43f0    -..C    PUSH     {r4-r9,lr}
        0x00000f24:    b083        ..      SUB      sp,sp,#0xc
        0x00000f26:    4689        .F      MOV      r9,r1
        0x00000f28:    4604        .F      MOV      r4,r0
        0x00000f2a:    e9dd170a    ....    LDRD     r1,r7,[sp,#0x28]
        0x00000f2e:    4835        5H      LDR      r0,[pc,#212] ; [0x1004] = 0x10000074
        0x00000f30:    461e        .F      MOV      r6,r3
        0x00000f32:    4690        .F      MOV      r8,r2
        0x00000f34:    2c06        .,      CMP      r4,#6
        0x00000f36:    bf89        ..      ITETT    HI
        0x00000f38:    2002        .       MOVHI    r0,#2
        0x00000f3a:    4622        "F      MOVLS    r2,r4
        0x00000f3c:    b003        ..      ADDHI    sp,sp,#0xc
        0x00000f3e:    e8bd83f0    ....    POPHI    {r4-r9,pc}
        0x00000f42:    d204        ..      BCS      0xf4e ; am_hal_iom_i2c_read_nb + 46
        0x00000f44:    f810c002    ....    LDRB     r12,[r0,r2]
        0x00000f48:    f1bc0f00    ....    CMP      r12,#0
        0x00000f4c:    d1fa        ..      BNE      0xf44 ; am_hal_iom_i2c_read_nb + 36
        0x00000f4e:    4d2e        .M      LDR      r5,[pc,#184] ; [0x1008] = 0x1000007b
        0x00000f50:    2200        ."      MOVS     r2,#0
        0x00000f52:    552a        *U      STRB     r2,[r5,r4]
        0x00000f54:    b12e        ..      CBZ      r6,0xf62 ; am_hal_iom_i2c_read_nb + 66
        0x00000f56:    2301        .#      MOVS     r3,#1
        0x00000f58:    2c06        .,      CMP      r4,#6
        0x00000f5a:    d007        ..      BEQ      0xf6c ; am_hal_iom_i2c_read_nb + 76
        0x00000f5c:    f5b67f80    ....    CMP      r6,#0x100
        0x00000f60:    d32c        ,.      BCC      0xfbc ; am_hal_iom_i2c_read_nb + 156
        0x00000f62:    2003        .       MOVS     r0,#3
        0x00000f64:    5528        (U      STRB     r0,[r5,r4]
        0x00000f66:    b003        ..      ADD      sp,sp,#0xc
        0x00000f68:    e8bd83f0    ....    POP      {r4-r9,pc}
        0x00000f6c:    f04f0c01    O...    MOV      r12,#1
        0x00000f70:    71aa        .q      STRB     r2,[r5,#6]
        0x00000f72:    f0114f80    ...O    TST      r1,#0x40000000
        0x00000f76:    f3c17000    ...p    UBFX     r0,r1,#28,#1
        0x00000f7a:    ea4c0c49    L.I.    ORR      r12,r12,r9,LSL #1
        0x00000f7e:    d009        ..      BEQ      0xf94 ; am_hal_iom_i2c_read_nb + 116
        0x00000f80:    e9cd2000    ...     STRD     r2,r0,[sp,#0]
        0x00000f84:    f00c00ff    ....    AND      r0,r12,#0xff
        0x00000f88:    2300        .#      MOVS     r3,#0
        0x00000f8a:    4642        BF      MOV      r2,r8
        0x00000f8c:    4631        1F      MOV      r1,r6
        0x00000f8e:    f7fffb65    ..e.    BL       am_hal_i2c_bit_bang_receive ; 0x65c
        0x00000f92:    e009        ..      B        0xfa8 ; am_hal_iom_i2c_read_nb + 136
        0x00000f94:    e9cd3000    ...0    STRD     r3,r0,[sp,#0]
        0x00000f98:    f3c12307    ...#    UBFX     r3,r1,#8,#8
        0x00000f9c:    f00c00ff    ....    AND      r0,r12,#0xff
        0x00000fa0:    4642        BF      MOV      r2,r8
        0x00000fa2:    4631        1F      MOV      r1,r6
        0x00000fa4:    f7fffb5a    ..Z.    BL       am_hal_i2c_bit_bang_receive ; 0x65c
        0x00000fa8:    4918        .I      LDR      r1,[pc,#96] ; [0x100c] = 0x348e
        0x00000faa:    2f00        ./      CMP      r7,#0
        0x00000fac:    5c0c        .\      LDRB     r4,[r1,r0]
        0x00000fae:    71ac        .q      STRB     r4,[r5,#6]
        0x00000fb0:    bf18        ..      IT       NE
        0x00000fb2:    47b8        .G      BLXNE    r7
        0x00000fb4:    4620         F      MOV      r0,r4
        0x00000fb6:    b003        ..      ADD      sp,sp,#0xc
        0x00000fb8:    e8bd83f0    ....    POP      {r4-r9,pc}
        0x00000fbc:    5503        .U      STRB     r3,[r0,r4]
        0x00000fbe:    0322        ".      LSLS     r2,r4,#12
        0x00000fc0:    f10242a0    ...B    ADD      r2,r2,#0x50000000
        0x00000fc4:    f5024280    ...B    ADD      r2,r2,#0x4000
        0x00000fc8:    f24070ff    @..p    MOV      r0,#0x7ff
        0x00000fcc:    f8c20208    ....    STR      r0,[r2,#0x208]
        0x00000fd0:    480f        .H      LDR      r0,[pc,#60] ; [0x1010] = 0x10000544
        0x00000fd2:    eb040284    ....    ADD      r2,r4,r4,LSL #2
        0x00000fd6:    2302        .#      MOVS     r3,#2
        0x00000fd8:    f8403022    @."0    STR      r3,[r0,r2,LSL #2]
        0x00000fdc:    eb000082    ....    ADD      r0,r0,r2,LSL #2
        0x00000fe0:    4633        3F      MOV      r3,r6
        0x00000fe2:    6107        .a      STR      r7,[r0,#0x10]
        0x00000fe4:    e9c08601    ....    STRD     r8,r6,[r0,#4]
        0x00000fe8:    9100        ..      STR      r1,[sp,#0]
        0x00000fea:    464a        JF      MOV      r2,r9
        0x00000fec:    4621        !F      MOV      r1,r4
        0x00000fee:    f04f4000    O..@    MOV      r0,#0x80000000
        0x00000ff2:    f7fffee7    ....    BL       am_hal_iom_i2c_cmd_run ; 0xdc4
        0x00000ff6:    2800        .(      CMP      r0,#0
        0x00000ff8:    bf18        ..      IT       NE
        0x00000ffa:    5528        (U      STRBNE   r0,[r5,r4]
        0x00000ffc:    b003        ..      ADD      sp,sp,#0xc
        0x00000ffe:    e8bd83f0    ....    POP      {r4-r9,pc}
    $d
        0x00001002:    0000        ..      DCW    0
        0x00001004:    10000074    t...    DCD    268435572
        0x00001008:    1000007b    {...    DCD    268435579
        0x0000100c:    0000348e    .4..    DCD    13454
        0x00001010:    10000544    D...    DCD    268436804
    $t
    i.am_hal_iom_i2c_write
    am_hal_iom_i2c_write
        0x00001014:    e92d4ff0    -..O    PUSH     {r4-r11,lr}
        0x00001018:    b08b        ..      SUB      sp,sp,#0x2c
        0x0000101a:    461f        .F      MOV      r7,r3
        0x0000101c:    9d14        ..      LDR      r5,[sp,#0x50]
        0x0000101e:    4689        .F      MOV      r9,r1
        0x00001020:    4604        .F      MOV      r4,r0
        0x00001022:    2806        .(      CMP      r0,#6
        0x00001024:    bf38        8.      IT       CC
        0x00001026:    4845        EH      LDRCC    r0,[pc,#276] ; [0x113c] = 0x10000074
        0x00001028:    d83e        >.      BHI      0x10a8 ; am_hal_iom_i2c_write + 148
        0x0000102a:    d202        ..      BCS      0x1032 ; am_hal_iom_i2c_write + 30
        0x0000102c:    5d01        .]      LDRB     r1,[r0,r4]
        0x0000102e:    2900        .)      CMP      r1,#0
        0x00001030:    d1fc        ..      BNE      0x102c ; am_hal_iom_i2c_write + 24
        0x00001032:    4e43        CN      LDR      r6,[pc,#268] ; [0x1140] = 0x1000007b
        0x00001034:    f04f0300    O...    MOV      r3,#0
        0x00001038:    5533        3U      STRB     r3,[r6,r4]
        0x0000103a:    b127        '.      CBZ      r7,0x1046 ; am_hal_iom_i2c_write + 50
        0x0000103c:    2c06        .,      CMP      r4,#6
        0x0000103e:    d007        ..      BEQ      0x1050 ; am_hal_iom_i2c_write + 60
        0x00001040:    f5b77f80    ....    CMP      r7,#0x100
        0x00001044:    d322        ".      BCC      0x108c ; am_hal_iom_i2c_write + 120
        0x00001046:    2003        .       MOVS     r0,#3
        0x00001048:    5530        0U      STRB     r0,[r6,r4]
        0x0000104a:    b00b        ..      ADD      sp,sp,#0x2c
        0x0000104c:    e8bd8ff0    ....    POP      {r4-r11,pc}
        0x00001050:    f0154f80    ...O    TST      r5,#0x40000000
        0x00001054:    f3c57000    ...p    UBFX     r0,r5,#28,#1
        0x00001058:    ea4f0149    O.I.    LSL      r1,r9,#1
        0x0000105c:    d007        ..      BEQ      0x106e ; am_hal_iom_i2c_write + 90
        0x0000105e:    e9cd3000    ...0    STRD     r3,r0,[sp,#0]
        0x00001062:    b2c8        ..      UXTB     r0,r1
        0x00001064:    2300        .#      MOVS     r3,#0
        0x00001066:    4639        9F      MOV      r1,r7
        0x00001068:    f7fffbe6    ....    BL       am_hal_i2c_bit_bang_send ; 0x838
        0x0000106c:    e008        ..      B        0x1080 ; am_hal_iom_i2c_write + 108
        0x0000106e:    2301        .#      MOVS     r3,#1
        0x00001070:    e9cd3000    ...0    STRD     r3,r0,[sp,#0]
        0x00001074:    b2c8        ..      UXTB     r0,r1
        0x00001076:    f3c52307    ...#    UBFX     r3,r5,#8,#8
        0x0000107a:    4639        9F      MOV      r1,r7
        0x0000107c:    f7fffbdc    ....    BL       am_hal_i2c_bit_bang_send ; 0x838
        0x00001080:    4930        0I      LDR      r1,[pc,#192] ; [0x1144] = 0x348e
        0x00001082:    5c08        .\      LDRB     r0,[r1,r0]
        0x00001084:    71b0        .q      STRB     r0,[r6,#6]
        0x00001086:    b00b        ..      ADD      sp,sp,#0x2c
        0x00001088:    e8bd8ff0    ....    POP      {r4-r11,pc}
        0x0000108c:    482e        .H      LDR      r0,[pc,#184] ; [0x1148] = 0x100005d4
        0x0000108e:    eb040144    ..D.    ADD      r1,r4,r4,LSL #1
        0x00001092:    eb0008c1    ....    ADD      r8,r0,r1,LSL #3
        0x00001096:    f8d80014    ....    LDR      r0,[r8,#0x14]
        0x0000109a:    2800        .(      CMP      r0,#0
        0x0000109c:    d045        E.      BEQ      0x112a ; am_hal_iom_i2c_write + 278
        0x0000109e:    4692        .F      MOV      r10,r2
        0x000010a0:    f04f0b00    O...    MOV      r11,#0
        0x000010a4:    2c06        .,      CMP      r4,#6
        0x000010a6:    d303        ..      BCC      0x10b0 ; am_hal_iom_i2c_write + 156
        0x000010a8:    b00b        ..      ADD      sp,sp,#0x2c
        0x000010aa:    2002        .       MOVS     r0,#2
        0x000010ac:    e8bd8ff0    ....    POP      {r4-r11,pc}
        0x000010b0:    f7fff86e    ..n.    BL       am_hal_interrupt_master_disable ; 0x190
        0x000010b4:    9002        ..      STR      r0,[sp,#8]
        0x000010b6:    4821        !H      LDR      r0,[pc,#132] ; [0x113c] = 0x10000074
        0x000010b8:    5d00        .]      LDRB     r0,[r0,r4]
        0x000010ba:    2800        .(      CMP      r0,#0
        0x000010bc:    bf04        ..      ITT      EQ
        0x000010be:    f8d80008    ....    LDREQ    r0,[r8,#8]
        0x000010c2:    2800        .(      CMPEQ    r0,#0
        0x000010c4:    d012        ..      BEQ      0x10ec ; am_hal_iom_i2c_write + 216
        0x000010c6:    a903        ..      ADD      r1,sp,#0xc
        0x000010c8:    f04f0002    O...    MOV      r0,#2
        0x000010cc:    f8cdb024    ..$.    STR      r11,[sp,#0x24]
        0x000010d0:    e8810611    ....    STM      r1,{r0,r4,r9,r10}
        0x000010d4:    e9cd7507    ...u    STRD     r7,r5,[sp,#0x1c]
        0x000010d8:    4640        @F      MOV      r0,r8
        0x000010da:    f04f0201    O...    MOV      r2,#1
        0x000010de:    f001f8e6    ....    BL       am_hal_queue_item_add ; 0x22ae
        0x000010e2:    2800        .(      CMP      r0,#0
        0x000010e4:    bf08        ..      IT       EQ
        0x000010e6:    2508        .%      MOVEQ    r5,#8
        0x000010e8:    d00a        ..      BEQ      0x1100 ; am_hal_iom_i2c_write + 236
        0x000010ea:    e013        ..      B        0x1114 ; am_hal_iom_i2c_write + 256
        0x000010ec:    e9cd5b00    ...[    STRD     r5,r11,[sp,#0]
        0x000010f0:    463b        ;F      MOV      r3,r7
        0x000010f2:    4652        RF      MOV      r2,r10
        0x000010f4:    4649        IF      MOV      r1,r9
        0x000010f6:    4620         F      MOV      r0,r4
        0x000010f8:    f000f82a    ..*.    BL       am_hal_iom_i2c_write_nb ; 0x1150
        0x000010fc:    0005        ..      MOVS     r5,r0
        0x000010fe:    d009        ..      BEQ      0x1114 ; am_hal_iom_i2c_write + 256
        0x00001100:    5535        5U      STRB     r5,[r6,r4]
        0x00001102:    9802        ..      LDR      r0,[sp,#8]
        0x00001104:    f7fff848    ..H.    BL       am_hal_interrupt_master_set ; 0x198
        0x00001108:    0028        (.      MOVS     r0,r5
        0x0000110a:    bf1c        ..      ITT      NE
        0x0000110c:    b00b        ..      ADDNE    sp,sp,#0x2c
        0x0000110e:    e8bd8ff0    ....    POPNE    {r4-r11,pc}
        0x00001112:    e002        ..      B        0x111a ; am_hal_iom_i2c_write + 262
        0x00001114:    9802        ..      LDR      r0,[sp,#8]
        0x00001116:    f7fff83f    ..?.    BL       am_hal_interrupt_master_set ; 0x198
        0x0000111a:    490c        .I      LDR      r1,[pc,#48] ; [0x114c] = 0x10000070
        0x0000111c:    4620         F      MOV      r0,r4
        0x0000111e:    6809        .h      LDR      r1,[r1,#0]
        0x00001120:    4788        .G      BLX      r1
        0x00001122:    5d30        0]      LDRB     r0,[r6,r4]
        0x00001124:    b00b        ..      ADD      sp,sp,#0x2c
        0x00001126:    e8bd8ff0    ....    POP      {r4-r11,pc}
        0x0000112a:    463b        ;F      MOV      r3,r7
        0x0000112c:    4649        IF      MOV      r1,r9
        0x0000112e:    4620         F      MOV      r0,r4
        0x00001130:    9500        ..      STR      r5,[sp,#0]
        0x00001132:    f000f89f    ....    BL       am_hal_iom_i2c_write_nq ; 0x1274
        0x00001136:    b00b        ..      ADD      sp,sp,#0x2c
        0x00001138:    e8bd8ff0    ....    POP      {r4-r11,pc}
    $d
        0x0000113c:    10000074    t...    DCD    268435572
        0x00001140:    1000007b    {...    DCD    268435579
        0x00001144:    0000348e    .4..    DCD    13454
        0x00001148:    100005d4    ....    DCD    268436948
        0x0000114c:    10000070    p...    DCD    268435568
    $t
    i.am_hal_iom_i2c_write_nb
    am_hal_iom_i2c_write_nb
        0x00001150:    e92d4fff    -..O    PUSH     {r0-r11,lr}
        0x00001154:    b083        ..      SUB      sp,sp,#0xc
        0x00001156:    4604        .F      MOV      r4,r0
        0x00001158:    e9dd9b10    ....    LDRD     r9,r11,[sp,#0x40]
        0x0000115c:    4841        AH      LDR      r0,[pc,#260] ; [0x1264] = 0x10000074
        0x0000115e:    461e        .F      MOV      r6,r3
        0x00001160:    2c06        .,      CMP      r4,#6
        0x00001162:    bf82        ..      ITTT     HI
        0x00001164:    2002        .       MOVHI    r0,#2
        0x00001166:    b007        ..      ADDHI    sp,sp,#0x1c
        0x00001168:    e8bd8ff0    ....    POPHI    {r4-r11,pc}
        0x0000116c:    d202        ..      BCS      0x1174 ; am_hal_iom_i2c_write_nb + 36
        0x0000116e:    5d01        .]      LDRB     r1,[r0,r4]
        0x00001170:    2900        .)      CMP      r1,#0
        0x00001172:    d1fc        ..      BNE      0x116e ; am_hal_iom_i2c_write_nb + 30
        0x00001174:    f8df80f0    ....    LDR      r8,[pc,#240] ; [0x1268] = 0x1000007b
        0x00001178:    f04f0500    O...    MOV      r5,#0
        0x0000117c:    f8085004    ...P    STRB     r5,[r8,r4]
        0x00001180:    b136        6.      CBZ      r6,0x1190 ; am_hal_iom_i2c_write_nb + 64
        0x00001182:    f04f0a01    O...    MOV      r10,#1
        0x00001186:    2c06        .,      CMP      r4,#6
        0x00001188:    d008        ..      BEQ      0x119c ; am_hal_iom_i2c_write_nb + 76
        0x0000118a:    f5b67f80    ....    CMP      r6,#0x100
        0x0000118e:    d32d        -.      BCC      0x11ec ; am_hal_iom_i2c_write_nb + 156
        0x00001190:    2003        .       MOVS     r0,#3
        0x00001192:    f8080004    ....    STRB     r0,[r8,r4]
        0x00001196:    b007        ..      ADD      sp,sp,#0x1c
        0x00001198:    e8bd8ff0    ....    POP      {r4-r11,pc}
        0x0000119c:    f8885006    ...P    STRB     r5,[r8,#6]
        0x000011a0:    9904        ..      LDR      r1,[sp,#0x10]
        0x000011a2:    f0194f80    ...O    TST      r9,#0x40000000
        0x000011a6:    f3c97000    ...p    UBFX     r0,r9,#28,#1
        0x000011aa:    ea4f0141    O.A.    LSL      r1,r1,#1
        0x000011ae:    d008        ..      BEQ      0x11c2 ; am_hal_iom_i2c_write_nb + 114
        0x000011b0:    e9cd5000    ...P    STRD     r5,r0,[sp,#0]
        0x000011b4:    b2c8        ..      UXTB     r0,r1
        0x000011b6:    2300        .#      MOVS     r3,#0
        0x000011b8:    4631        1F      MOV      r1,r6
        0x000011ba:    9a05        ..      LDR      r2,[sp,#0x14]
        0x000011bc:    f7fffb3c    ..<.    BL       am_hal_i2c_bit_bang_send ; 0x838
        0x000011c0:    e008        ..      B        0x11d4 ; am_hal_iom_i2c_write_nb + 132
        0x000011c2:    e9cda000    ....    STRD     r10,r0,[sp,#0]
        0x000011c6:    b2c8        ..      UXTB     r0,r1
        0x000011c8:    f3c92307    ...#    UBFX     r3,r9,#8,#8
        0x000011cc:    4631        1F      MOV      r1,r6
        0x000011ce:    9a05        ..      LDR      r2,[sp,#0x14]
        0x000011d0:    f7fffb32    ..2.    BL       am_hal_i2c_bit_bang_send ; 0x838
        0x000011d4:    4925        %I      LDR      r1,[pc,#148] ; [0x126c] = 0x348e
        0x000011d6:    f1bb0f00    ....    CMP      r11,#0
        0x000011da:    5c0c        .\      LDRB     r4,[r1,r0]
        0x000011dc:    f8884006    ...@    STRB     r4,[r8,#6]
        0x000011e0:    bf18        ..      IT       NE
        0x000011e2:    47d8        .G      BLXNE    r11
        0x000011e4:    4620         F      MOV      r0,r4
        0x000011e6:    b007        ..      ADD      sp,sp,#0x1c
        0x000011e8:    e8bd8ff0    ....    POP      {r4-r11,pc}
        0x000011ec:    0321        !.      LSLS     r1,r4,#12
        0x000011ee:    f10141a0    ...A    ADD      r1,r1,#0x50000000
        0x000011f2:    f5014180    ...A    ADD      r1,r1,#0x4000
        0x000011f6:    f8d1211c    ...!    LDR      r2,[r1,#0x11c]
        0x000011fa:    f0120f08    ....    TST      r2,#8
        0x000011fe:    bf0c        ..      ITE      EQ
        0x00001200:    2780        .'      MOVEQ    r7,#0x80
        0x00001202:    2740        @'      MOVNE    r7,#0x40
        0x00001204:    42be        .B      CMP      r6,r7
        0x00001206:    bf98        ..      IT       LS
        0x00001208:    461f        .F      MOVLS    r7,r3
        0x0000120a:    f800a004    ....    STRB     r10,[r0,r4]
        0x0000120e:    f24070ff    @..p    MOV      r0,#0x7ff
        0x00001212:    f8c10208    ....    STR      r0,[r1,#0x208]
        0x00001216:    463a        :F      MOV      r2,r7
        0x00001218:    4620         F      MOV      r0,r4
        0x0000121a:    9905        ..      LDR      r1,[sp,#0x14]
        0x0000121c:    f7fffd5e    ..^.    BL       am_hal_iom_fifo_write ; 0xcdc
        0x00001220:    b1d8        ..      CBZ      r0,0x125a ; am_hal_iom_i2c_write_nb + 266
        0x00001222:    4813        .H      LDR      r0,[pc,#76] ; [0x1270] = 0x10000544
        0x00001224:    eb040284    ....    ADD      r2,r4,r4,LSL #2
        0x00001228:    4633        3F      MOV      r3,r6
        0x0000122a:    f840a022    @.".    STR      r10,[r0,r2,LSL #2]
        0x0000122e:    eb000082    ....    ADD      r0,r0,r2,LSL #2
        0x00001232:    9905        ..      LDR      r1,[sp,#0x14]
        0x00001234:    1bf2        ..      SUBS     r2,r6,r7
        0x00001236:    f8c0b010    ....    STR      r11,[r0,#0x10]
        0x0000123a:    6082        .`      STR      r2,[r0,#8]
        0x0000123c:    f0270203    '...    BIC      r2,r7,#3
        0x00001240:    4411        .D      ADD      r1,r1,r2
        0x00001242:    6041        A`      STR      r1,[r0,#4]
        0x00001244:    f8cd9000    ....    STR      r9,[sp,#0]
        0x00001248:    4621        !F      MOV      r1,r4
        0x0000124a:    2000        .       MOVS     r0,#0
        0x0000124c:    9a04        ..      LDR      r2,[sp,#0x10]
        0x0000124e:    f7fffdb9    ....    BL       am_hal_iom_i2c_cmd_run ; 0xdc4
        0x00001252:    0005        ..      MOVS     r5,r0
        0x00001254:    bf18        ..      IT       NE
        0x00001256:    f8085004    ...P    STRBNE   r5,[r8,r4]
        0x0000125a:    4628        (F      MOV      r0,r5
        0x0000125c:    b007        ..      ADD      sp,sp,#0x1c
        0x0000125e:    e8bd8ff0    ....    POP      {r4-r11,pc}
    $d
        0x00001262:    0000        ..      DCW    0
        0x00001264:    10000074    t...    DCD    268435572
        0x00001268:    1000007b    {...    DCD    268435579
        0x0000126c:    0000348e    .4..    DCD    13454
        0x00001270:    10000544    D...    DCD    268436804
    $t
    i.am_hal_iom_i2c_write_nq
    am_hal_iom_i2c_write_nq
        0x00001274:    e92d4fff    -..O    PUSH     {r0-r11,lr}
        0x00001278:    b083        ..      SUB      sp,sp,#0xc
        0x0000127a:    461f        .F      MOV      r7,r3
        0x0000127c:    f8ddb040    ..@.    LDR      r11,[sp,#0x40]
        0x00001280:    4604        .F      MOV      r4,r0
        0x00001282:    2806        .(      CMP      r0,#6
        0x00001284:    bf38        8.      IT       CC
        0x00001286:    4858        XH      LDRCC    r0,[pc,#352] ; [0x13e8] = 0x10000074
        0x00001288:    bf82        ..      ITTT     HI
        0x0000128a:    2002        .       MOVHI    r0,#2
        0x0000128c:    b007        ..      ADDHI    sp,sp,#0x1c
        0x0000128e:    e8bd8ff0    ....    POPHI    {r4-r11,pc}
        0x00001292:    d202        ..      BCS      0x129a ; am_hal_iom_i2c_write_nq + 38
        0x00001294:    5d01        .]      LDRB     r1,[r0,r4]
        0x00001296:    2900        .)      CMP      r1,#0
        0x00001298:    d1fc        ..      BNE      0x1294 ; am_hal_iom_i2c_write_nq + 32
        0x0000129a:    f8df8150    ..P.    LDR      r8,[pc,#336] ; [0x13ec] = 0x1000007b
        0x0000129e:    f04f0200    O...    MOV      r2,#0
        0x000012a2:    f8082004    ...     STRB     r2,[r8,r4]
        0x000012a6:    b127        '.      CBZ      r7,0x12b2 ; am_hal_iom_i2c_write_nq + 62
        0x000012a8:    2c06        .,      CMP      r4,#6
        0x000012aa:    d008        ..      BEQ      0x12be ; am_hal_iom_i2c_write_nq + 74
        0x000012ac:    f5b77f80    ....    CMP      r7,#0x100
        0x000012b0:    d327        '.      BCC      0x1302 ; am_hal_iom_i2c_write_nq + 142
        0x000012b2:    2003        .       MOVS     r0,#3
        0x000012b4:    f8080004    ....    STRB     r0,[r8,r4]
        0x000012b8:    b007        ..      ADD      sp,sp,#0x1c
        0x000012ba:    e8bd8ff0    ....    POP      {r4-r11,pc}
        0x000012be:    9804        ..      LDR      r0,[sp,#0x10]
        0x000012c0:    f01b4f80    ...O    TST      r11,#0x40000000
        0x000012c4:    f3cb7100    ...q    UBFX     r1,r11,#28,#1
        0x000012c8:    ea4f0040    O.@.    LSL      r0,r0,#1
        0x000012cc:    d008        ..      BEQ      0x12e0 ; am_hal_iom_i2c_write_nq + 108
        0x000012ce:    e9cd2100    ...!    STRD     r2,r1,[sp,#0]
        0x000012d2:    b2c0        ..      UXTB     r0,r0
        0x000012d4:    2300        .#      MOVS     r3,#0
        0x000012d6:    4639        9F      MOV      r1,r7
        0x000012d8:    9a05        ..      LDR      r2,[sp,#0x14]
        0x000012da:    f7fffaad    ....    BL       am_hal_i2c_bit_bang_send ; 0x838
        0x000012de:    e009        ..      B        0x12f4 ; am_hal_iom_i2c_write_nq + 128
        0x000012e0:    2201        ."      MOVS     r2,#1
        0x000012e2:    e9cd2100    ...!    STRD     r2,r1,[sp,#0]
        0x000012e6:    b2c0        ..      UXTB     r0,r0
        0x000012e8:    f3cb2307    ...#    UBFX     r3,r11,#8,#8
        0x000012ec:    4639        9F      MOV      r1,r7
        0x000012ee:    9a05        ..      LDR      r2,[sp,#0x14]
        0x000012f0:    f7fffaa2    ....    BL       am_hal_i2c_bit_bang_send ; 0x838
        0x000012f4:    493e        >I      LDR      r1,[pc,#248] ; [0x13f0] = 0x348e
        0x000012f6:    5c08        .\      LDRB     r0,[r1,r0]
        0x000012f8:    f8880006    ....    STRB     r0,[r8,#6]
        0x000012fc:    b007        ..      ADD      sp,sp,#0x1c
        0x000012fe:    e8bd8ff0    ....    POP      {r4-r11,pc}
        0x00001302:    0320         .      LSLS     r0,r4,#12
        0x00001304:    f10045a0    ...E    ADD      r5,r0,#0x50000000
        0x00001308:    f5054580    ...E    ADD      r5,r5,#0x4000
        0x0000130c:    f8d5011c    ....    LDR      r0,[r5,#0x11c]
        0x00001310:    f0100f08    ....    TST      r0,#8
        0x00001314:    bf0c        ..      ITE      EQ
        0x00001316:    2680        .&      MOVEQ    r6,#0x80
        0x00001318:    2640        @&      MOVNE    r6,#0x40
        0x0000131a:    f8d59200    ....    LDR      r9,[r5,#0x200]
        0x0000131e:    2000        .       MOVS     r0,#0
        0x00001320:    f8c50200    ....    STR      r0,[r5,#0x200]
        0x00001324:    f2407aff    @..z    MOV      r10,#0x7ff
        0x00001328:    f8c5a208    ....    STR      r10,[r5,#0x208]
        0x0000132c:    42b7        .B      CMP      r7,r6
        0x0000132e:    bf98        ..      IT       LS
        0x00001330:    461e        .F      MOVLS    r6,r3
        0x00001332:    4632        2F      MOV      r2,r6
        0x00001334:    4620         F      MOV      r0,r4
        0x00001336:    9905        ..      LDR      r1,[sp,#0x14]
        0x00001338:    f7fffcd0    ....    BL       am_hal_iom_fifo_write ; 0xcdc
        0x0000133c:    463b        ;F      MOV      r3,r7
        0x0000133e:    f8cdb000    ....    STR      r11,[sp,#0]
        0x00001342:    4621        !F      MOV      r1,r4
        0x00001344:    2000        .       MOVS     r0,#0
        0x00001346:    9a04        ..      LDR      r2,[sp,#0x10]
        0x00001348:    f7fffd3c    ..<.    BL       am_hal_iom_i2c_cmd_run ; 0xdc4
        0x0000134c:    b140        @.      CBZ      r0,0x1360 ; am_hal_iom_i2c_write_nq + 236
        0x0000134e:    f8080004    ....    STRB     r0,[r8,r4]
        0x00001352:    f8c5a208    ....    STR      r10,[r5,#0x208]
        0x00001356:    f8c59200    ....    STR      r9,[r5,#0x200]
        0x0000135a:    b007        ..      ADD      sp,sp,#0x1c
        0x0000135c:    e8bd8ff0    ....    POP      {r4-r11,pc}
        0x00001360:    9805        ..      LDR      r0,[sp,#0x14]
        0x00001362:    f0260103    &...    BIC      r1,r6,#3
        0x00001366:    1bbf        ..      SUBS     r7,r7,r6
        0x00001368:    eb010b00    ....    ADD      r11,r1,r0
        0x0000136c:    e01b        ..      B        0x13a6 ; am_hal_iom_i2c_write_nq + 306
        0x0000136e:    2c06        .,      CMP      r4,#6
        0x00001370:    bf28        (.      IT       CS
        0x00001372:    2600        .&      MOVCS    r6,#0
        0x00001374:    d20b        ..      BCS      0x138e ; am_hal_iom_i2c_write_nq + 282
        0x00001376:    f8d5011c    ....    LDR      r0,[r5,#0x11c]
        0x0000137a:    f0100f08    ....    TST      r0,#8
        0x0000137e:    bf0c        ..      ITE      EQ
        0x00001380:    2080        .       MOVEQ    r0,#0x80
        0x00001382:    2040        @       MOVNE    r0,#0x40
        0x00001384:    f8d51100    ....    LDR      r1,[r5,#0x100]
        0x00001388:    1a40        @.      SUBS     r0,r0,r1
        0x0000138a:    f00006fc    ....    AND      r6,r0,#0xfc
        0x0000138e:    42b7        .B      CMP      r7,r6
        0x00001390:    bf98        ..      IT       LS
        0x00001392:    463e        >F      MOVLS    r6,r7
        0x00001394:    4632        2F      MOV      r2,r6
        0x00001396:    4659        YF      MOV      r1,r11
        0x00001398:    4620         F      MOV      r0,r4
        0x0000139a:    f7fffc9f    ....    BL       am_hal_iom_fifo_write ; 0xcdc
        0x0000139e:    f0260003    &...    BIC      r0,r6,#3
        0x000013a2:    1bbf        ..      SUBS     r7,r7,r6
        0x000013a4:    4483        .D      ADD      r11,r11,r0
        0x000013a6:    b127        '.      CBZ      r7,0x13b2 ; am_hal_iom_i2c_write_nq + 318
        0x000013a8:    f8d50204    ....    LDR      r0,[r5,#0x204]
        0x000013ac:    f0100f01    ....    TST      r0,#1
        0x000013b0:    d0dd        ..      BEQ      0x136e ; am_hal_iom_i2c_write_nq + 250
        0x000013b2:    4810        .H      LDR      r0,[pc,#64] ; [0x13f4] = 0x50004204
        0x000013b4:    2301        .#      MOVS     r3,#1
        0x000013b6:    eb003104    ...1    ADD      r1,r0,r4,LSL #12
        0x000013ba:    480f        .H      LDR      r0,[pc,#60] ; [0x13f8] = 0x100005bc
        0x000013bc:    461a        .F      MOV      r2,r3
        0x000013be:    f8500024    P.$.    LDR      r0,[r0,r4,LSL #2]
        0x000013c2:    f7fff931    ..1.    BL       am_hal_flash_delay_status_change ; 0x628
        0x000013c6:    2801        .(      CMP      r0,#1
        0x000013c8:    bf18        ..      IT       NE
        0x000013ca:    2001        .       MOVNE    r0,#1
        0x000013cc:    d103        ..      BNE      0x13d6 ; am_hal_iom_i2c_write_nq + 354
        0x000013ce:    2100        .!      MOVS     r1,#0
        0x000013d0:    4620         F      MOV      r0,r4
        0x000013d2:    f001fcb1    ....    BL       internal_iom_get_int_err ; 0x2d38
        0x000013d6:    f8080004    ....    STRB     r0,[r8,r4]
        0x000013da:    f8c5a208    ....    STR      r10,[r5,#0x208]
        0x000013de:    f8c59200    ....    STR      r9,[r5,#0x200]
        0x000013e2:    b007        ..      ADD      sp,sp,#0x1c
        0x000013e4:    e8bd8ff0    ....    POP      {r4-r11,pc}
    $d
        0x000013e8:    10000074    t...    DCD    268435572
        0x000013ec:    1000007b    {...    DCD    268435579
        0x000013f0:    0000348e    .4..    DCD    13454
        0x000013f4:    50004204    .B.P    DCD    1342194180
        0x000013f8:    100005bc    ....    DCD    268436924
    $t
    i.am_hal_iom_int_clear
    am_hal_iom_int_clear
        0x000013fc:    2806        .(      CMP      r0,#6
        0x000013fe:    bf28        (.      IT       CS
        0x00001400:    4770        pG      BXCS     lr
        0x00001402:    0300        ..      LSLS     r0,r0,#12
        0x00001404:    f10040a0    ...@    ADD      r0,r0,#0x50000000
        0x00001408:    f5004080    ...@    ADD      r0,r0,#0x4000
        0x0000140c:    f8c01208    ....    STR      r1,[r0,#0x208]
        0x00001410:    4770        pG      BX       lr
    i.am_hal_iom_int_enable
    am_hal_iom_int_enable
        0x00001412:    2806        .(      CMP      r0,#6
        0x00001414:    bf28        (.      IT       CS
        0x00001416:    4770        pG      BXCS     lr
        0x00001418:    0300        ..      LSLS     r0,r0,#12
        0x0000141a:    f10040a0    ...@    ADD      r0,r0,#0x50000000
        0x0000141e:    f5004080    ...@    ADD      r0,r0,#0x4000
        0x00001422:    f8d02200    ..."    LDR      r2,[r0,#0x200]
        0x00001426:    4311        .C      ORRS     r1,r1,r2
        0x00001428:    f8c01200    ....    STR      r1,[r0,#0x200]
        0x0000142c:    4770        pG      BX       lr
        0x0000142e:    0000        ..      MOVS     r0,r0
    i.am_hal_iom_int_service
    am_hal_iom_int_service
        0x00001430:    2806        .(      CMP      r0,#6
        0x00001432:    bf28        (.      IT       CS
        0x00001434:    4770        pG      BXCS     lr
        0x00001436:    e92d47f0    -..G    PUSH     {r4-r10,lr}
        0x0000143a:    4605        .F      MOV      r5,r0
        0x0000143c:    4a54        TJ      LDR      r2,[pc,#336] ; [0x1590] = 0x10000544
        0x0000143e:    eb000085    ....    ADD      r0,r0,r5,LSL #2
        0x00001442:    eb020480    ....    ADD      r4,r2,r0,LSL #2
        0x00001446:    4f53        SO      LDR      r7,[pc,#332] ; [0x1594] = 0x1000007b
        0x00001448:    ea4f3205    O..2    LSL      r2,r5,#12
        0x0000144c:    f10246a0    ...F    ADD      r6,r2,#0x50000000
        0x00001450:    5d78        x]      LDRB     r0,[r7,r5]
        0x00001452:    f04f0800    O...    MOV      r8,#0
        0x00001456:    4308        .C      ORRS     r0,r0,r1
        0x00001458:    5578        xU      STRB     r0,[r7,r5]
        0x0000145a:    f0110f01    ....    TST      r1,#1
        0x0000145e:    f5064680    ...F    ADD      r6,r6,#0x4000
        0x00001462:    d01f        ..      BEQ      0x14a4 ; am_hal_iom_int_service + 116
        0x00001464:    1ff8        ..      SUBS     r0,r7,#7
        0x00001466:    f8008005    ....    STRB     r8,[r0,r5]
        0x0000146a:    6820         h      LDR      r0,[r4,#0]
        0x0000146c:    2800        .(      CMP      r0,#0
        0x0000146e:    bf08        ..      IT       EQ
        0x00001470:    e8bd87f0    ....    POPEQ    {r4-r10,pc}
        0x00001474:    2802        .(      CMP      r0,#2
        0x00001476:    d106        ..      BNE      0x1486 ; am_hal_iom_int_service + 86
        0x00001478:    f8d60100    ....    LDR      r0,[r6,#0x100]
        0x0000147c:    6861        ah      LDR      r1,[r4,#4]
        0x0000147e:    b2c2        ..      UXTB     r2,r0
        0x00001480:    4628        (F      MOV      r0,r5
        0x00001482:    f7fffbbf    ....    BL       am_hal_iom_fifo_read ; 0xc04
        0x00001486:    f8c48000    ....    STR      r8,[r4,#0]
        0x0000148a:    5d79        y]      LDRB     r1,[r7,r5]
        0x0000148c:    4628        (F      MOV      r0,r5
        0x0000148e:    f001fc53    ..S.    BL       internal_iom_get_int_err ; 0x2d38
        0x00001492:    5578        xU      STRB     r0,[r7,r5]
        0x00001494:    6920         i      LDR      r0,[r4,#0x10]
        0x00001496:    2800        .(      CMP      r0,#0
        0x00001498:    bf08        ..      IT       EQ
        0x0000149a:    e8bd87f0    ....    POPEQ    {r4-r10,pc}
        0x0000149e:    e8bd47f0    ...G    POP      {r4-r10,lr}
        0x000014a2:    4700        .G      BX       r0
        0x000014a4:    f0110f02    ....    TST      r1,#2
        0x000014a8:    bf1a        ..      ITTE     NE
        0x000014aa:    6820         h      LDRNE    r0,[r4,#0]
        0x000014ac:    2800        .(      CMPNE    r0,#0
        0x000014ae:    e8bd87f0    ....    POPEQ    {r4-r10,pc}
        0x000014b2:    2801        .(      CMP      r0,#1
        0x000014b4:    f8d60108    ....    LDR      r0,[r6,#0x108]
        0x000014b8:    bf08        ..      IT       EQ
        0x000014ba:    f3c02906    ...)    UBFXEQ   r9,r0,#8,#7
        0x000014be:    d012        ..      BEQ      0x14e6 ; am_hal_iom_int_service + 182
        0x000014c0:    f000087f    ....    AND      r8,r0,#0x7f
        0x000014c4:    f8d60100    ....    LDR      r0,[r6,#0x100]
        0x000014c8:    b2c0        ..      UXTB     r0,r0
        0x000014ca:    4540        @E      CMP      r0,r8
        0x000014cc:    bf38        8.      IT       CC
        0x000014ce:    e8bd87f0    ....    POPCC    {r4-r10,pc}
        0x000014d2:    68a1        .h      LDR      r1,[r4,#8]
        0x000014d4:    4281        .B      CMP      r1,r0
        0x000014d6:    d13a        :.      BNE      0x154e ; am_hal_iom_int_service + 286
        0x000014d8:    460a        .F      MOV      r2,r1
        0x000014da:    4628        (F      MOV      r0,r5
        0x000014dc:    6861        ah      LDR      r1,[r4,#4]
        0x000014de:    e8bd47f0    ...G    POP      {r4-r10,lr}
        0x000014e2:    f7ffbb8f    ....    B        am_hal_iom_fifo_read ; 0xc04
        0x000014e6:    2d06        .-      CMP      r5,#6
        0x000014e8:    bf28        (.      IT       CS
        0x000014ea:    4647        GF      MOVCS    r7,r8
        0x000014ec:    d20b        ..      BCS      0x1506 ; am_hal_iom_int_service + 214
        0x000014ee:    f8d6011c    ....    LDR      r0,[r6,#0x11c]
        0x000014f2:    f0100f08    ....    TST      r0,#8
        0x000014f6:    bf0c        ..      ITE      EQ
        0x000014f8:    2080        .       MOVEQ    r0,#0x80
        0x000014fa:    2040        @       MOVNE    r0,#0x40
        0x000014fc:    f8d61100    ....    LDR      r1,[r6,#0x100]
        0x00001500:    1a40        @.      SUBS     r0,r0,r1
        0x00001502:    f00007fc    ....    AND      r7,r0,#0xfc
        0x00001506:    68a0        .h      LDR      r0,[r4,#8]
        0x00001508:    42b8        .B      CMP      r0,r7
        0x0000150a:    bf98        ..      IT       LS
        0x0000150c:    4607        .F      MOVLS    r7,r0
        0x0000150e:    463a        :F      MOV      r2,r7
        0x00001510:    4628        (F      MOV      r0,r5
        0x00001512:    6861        ah      LDR      r1,[r4,#4]
        0x00001514:    f7fffbe2    ....    BL       am_hal_iom_fifo_write ; 0xcdc
        0x00001518:    f8d60208    ....    LDR      r0,[r6,#0x208]
        0x0000151c:    f0400002    @...    ORR      r0,r0,#2
        0x00001520:    f8c60208    ....    STR      r0,[r6,#0x208]
        0x00001524:    68a0        .h      LDR      r0,[r4,#8]
        0x00001526:    f0270203    '...    BIC      r2,r7,#3
        0x0000152a:    1bc1        ..      SUBS     r1,r0,r7
        0x0000152c:    60a1        .`      STR      r1,[r4,#8]
        0x0000152e:    6860        `h      LDR      r0,[r4,#4]
        0x00001530:    4410        .D      ADD      r0,r0,r2
        0x00001532:    6060        ``      STR      r0,[r4,#4]
        0x00001534:    bf08        ..      IT       EQ
        0x00001536:    e8bd87f0    ....    POPEQ    {r4-r10,pc}
        0x0000153a:    2d06        .-      CMP      r5,#6
        0x0000153c:    bf2e        ..      ITEE     CS
        0x0000153e:    2000        .       MOVCS    r0,#0
        0x00001540:    f8d60100    ....    LDRCC    r0,[r6,#0x100]
        0x00001544:    b2c0        ..      UXTBCC   r0,r0
        0x00001546:    4548        HE      CMP      r0,r9
        0x00001548:    d9cd        ..      BLS      0x14e6 ; am_hal_iom_int_service + 182
        0x0000154a:    e8bd87f0    ....    POP      {r4-r10,pc}
        0x0000154e:    2804        .(      CMP      r0,#4
        0x00001550:    d314        ..      BCC      0x157c ; am_hal_iom_int_service + 332
        0x00001552:    f0200703     ...    BIC      r7,r0,#3
        0x00001556:    463a        :F      MOV      r2,r7
        0x00001558:    4628        (F      MOV      r0,r5
        0x0000155a:    6861        ah      LDR      r1,[r4,#4]
        0x0000155c:    f7fffb52    ..R.    BL       am_hal_iom_fifo_read ; 0xc04
        0x00001560:    68a0        .h      LDR      r0,[r4,#8]
        0x00001562:    f0270103    '...    BIC      r1,r7,#3
        0x00001566:    1bc0        ..      SUBS     r0,r0,r7
        0x00001568:    60a0        .`      STR      r0,[r4,#8]
        0x0000156a:    6860        `h      LDR      r0,[r4,#4]
        0x0000156c:    4408        .D      ADD      r0,r0,r1
        0x0000156e:    6060        ``      STR      r0,[r4,#4]
        0x00001570:    f8d60208    ....    LDR      r0,[r6,#0x208]
        0x00001574:    f0400002    @...    ORR      r0,r0,#2
        0x00001578:    f8c60208    ....    STR      r0,[r6,#0x208]
        0x0000157c:    2d06        .-      CMP      r5,#6
        0x0000157e:    bf2e        ..      ITEE     CS
        0x00001580:    2000        .       MOVCS    r0,#0
        0x00001582:    f8d60100    ....    LDRCC    r0,[r6,#0x100]
        0x00001586:    b2c0        ..      UXTBCC   r0,r0
        0x00001588:    4540        @E      CMP      r0,r8
        0x0000158a:    d2a2        ..      BCS      0x14d2 ; am_hal_iom_int_service + 162
        0x0000158c:    e8bd87f0    ....    POP      {r4-r10,pc}
    $d
        0x00001590:    10000544    D...    DCD    268436804
        0x00001594:    1000007b    {...    DCD    268435579
    $t
    i.am_hal_iom_int_status_get
    am_hal_iom_int_status_get
        0x00001598:    2806        .(      CMP      r0,#6
        0x0000159a:    bf24        $.      ITT      CS
        0x0000159c:    2000        .       MOVCS    r0,#0
        0x0000159e:    4770        pG      BXCS     lr
        0x000015a0:    0300        ..      LSLS     r0,r0,#12
        0x000015a2:    f10040a0    ...@    ADD      r0,r0,#0x50000000
        0x000015a6:    f5004080    ...@    ADD      r0,r0,#0x4000
        0x000015aa:    2900        .)      CMP      r1,#0
        0x000015ac:    bf04        ..      ITT      EQ
        0x000015ae:    f8d00204    ....    LDREQ    r0,[r0,#0x204]
        0x000015b2:    4770        pG      BXEQ     lr
        0x000015b4:    f8d01204    ....    LDR      r1,[r0,#0x204]
        0x000015b8:    f8d00200    ....    LDR      r0,[r0,#0x200]
        0x000015bc:    4008        .@      ANDS     r0,r0,r1
        0x000015be:    4770        pG      BX       lr
    i.am_hal_iom_pwrctrl_enable
    am_hal_iom_pwrctrl_enable
        0x000015c0:    b510        ..      PUSH     {r4,lr}
        0x000015c2:    4604        .F      MOV      r4,r0
        0x000015c4:    2806        .(      CMP      r0,#6
        0x000015c6:    d305        ..      BCC      0x15d4 ; am_hal_iom_pwrctrl_enable + 20
        0x000015c8:    a205        ..      ADR      r2,{pc}+0x18 ; 0x15e0
        0x000015ca:    f44f7135    O.5q    MOV      r1,#0x2d4
        0x000015ce:    a011        ..      ADR      r0,{pc}+0x46 ; 0x1614
        0x000015d0:    f7fff824    ..$.    BL       am_hal_debug_error ; 0x61c
        0x000015d4:    2002        .       MOVS     r0,#2
        0x000015d6:    40a0        .@      LSLS     r0,r0,r4
        0x000015d8:    e8bd4010    ...@    POP      {r4,lr}
        0x000015dc:    f000bdfe    ....    B.W      am_hal_pwrctrl_periph_enable ; 0x21dc
    $d
        0x000015e0:    69797254    Tryi    DCD    1769566804
        0x000015e4:    7420676e    ng t    DCD    1948280686
        0x000015e8:    6e65206f    o en    DCD    1852121199
        0x000015ec:    656c6261    able    DCD    1701601889
        0x000015f0:    206e6120     an     DCD    544104736
        0x000015f4:    204d4f49    IOM     DCD    541937481
        0x000015f8:    75646f6d    modu    DCD    1969516397
        0x000015fc:    7420656c    le t    DCD    1948280172
        0x00001600:    20746168    hat     DCD    544498024
        0x00001604:    73656f64    does    DCD    1936027492
        0x00001608:    2074276e    n't     DCD    544483182
        0x0000160c:    73697865    exis    DCD    1936291941
        0x00001610:    00002e74    t...    DCD    11892
        0x00001614:    612f2e2e    ../a    DCD    1630481966
        0x00001618:    61685f6d    m_ha    DCD    1634230125
        0x0000161c:    6f695f6c    l_io    DCD    1869176684
        0x00001620:    00632e6d    m.c.    DCD    6499949
    $t
    i.am_hal_iom_queue_init
    am_hal_iom_queue_init
        0x00001624:    2806        .(      CMP      r0,#6
        0x00001626:    bf28        (.      IT       CS
        0x00001628:    4770        pG      BXCS     lr
        0x0000162a:    eb000040    ..@.    ADD      r0,r0,r0,LSL #1
        0x0000162e:    4613        .F      MOV      r3,r2
        0x00001630:    221c        ."      MOVS     r2,#0x1c
        0x00001632:    f8dfc00c    ....    LDR      r12,[pc,#12] ; [0x1640] = 0x100005d4
        0x00001636:    eb0c00c0    ....    ADD      r0,r12,r0,LSL #3
        0x0000163a:    f000be2d    ..-.    B.W      am_hal_queue_init ; 0x2298
    $d
        0x0000163e:    0000        ..      DCW    0
        0x00001640:    100005d4    ....    DCD    268436948
    $t
    i.am_hal_iom_queue_service
    am_hal_iom_queue_service
        0x00001644:    2806        .(      CMP      r0,#6
        0x00001646:    bf28        (.      IT       CS
        0x00001648:    4770        pG      BXCS     lr
        0x0000164a:    b5f0        ..      PUSH     {r4-r7,lr}
        0x0000164c:    b089        ..      SUB      sp,sp,#0x24
        0x0000164e:    460d        .F      MOV      r5,r1
        0x00001650:    4604        .F      MOV      r4,r0
        0x00001652:    f7fffeed    ....    BL       am_hal_iom_int_service ; 0x1430
        0x00001656:    f0150f01    ....    TST      r5,#1
        0x0000165a:    bf04        ..      ITT      EQ
        0x0000165c:    b009        ..      ADDEQ    sp,sp,#0x24
        0x0000165e:    bdf0        ..      POPEQ    {r4-r7,pc}
        0x00001660:    eb040044    ..D.    ADD      r0,r4,r4,LSL #1
        0x00001664:    492a        *I      LDR      r1,[pc,#168] ; [0x1710] = 0x100005d4
        0x00001666:    eb0105c0    ....    ADD      r5,r1,r0,LSL #3
        0x0000166a:    6968        hi      LDR      r0,[r5,#0x14]
        0x0000166c:    2800        .(      CMP      r0,#0
        0x0000166e:    bf04        ..      ITT      EQ
        0x00001670:    b009        ..      ADDEQ    sp,sp,#0x24
        0x00001672:    bdf0        ..      POPEQ    {r4-r7,pc}
        0x00001674:    4626        &F      MOV      r6,r4
        0x00001676:    2000        .       MOVS     r0,#0
        0x00001678:    9002        ..      STR      r0,[sp,#8]
        0x0000167a:    9003        ..      STR      r0,[sp,#0xc]
        0x0000167c:    9004        ..      STR      r0,[sp,#0x10]
        0x0000167e:    9005        ..      STR      r0,[sp,#0x14]
        0x00001680:    9006        ..      STR      r0,[sp,#0x18]
        0x00001682:    9007        ..      STR      r0,[sp,#0x1c]
        0x00001684:    9008        ..      STR      r0,[sp,#0x20]
        0x00001686:    f7fefd83    ....    BL       am_hal_interrupt_master_disable ; 0x190
        0x0000168a:    4607        .F      MOV      r7,r0
        0x0000168c:    4628        (F      MOV      r0,r5
        0x0000168e:    2201        ."      MOVS     r2,#1
        0x00001690:    a902        ..      ADD      r1,sp,#8
        0x00001692:    f000fe5b    ..[.    BL       am_hal_queue_item_get ; 0x234c
        0x00001696:    b190        ..      CBZ      r0,0x16be ; am_hal_iom_queue_service + 122
        0x00001698:    f8ddc008    ....    LDR      r12,[sp,#8]
        0x0000169c:    e9dd3006    ...0    LDRD     r3,r0,[sp,#0x18]
        0x000016a0:    e9dd1204    ....    LDRD     r1,r2,[sp,#0x10]
        0x000016a4:    9d08        ..      LDR      r5,[sp,#0x20]
        0x000016a6:    f1bc0f00    ....    CMP      r12,#0
        0x000016aa:    d00d        ..      BEQ      0x16c8 ; am_hal_iom_queue_service + 132
        0x000016ac:    f1bc0f01    ....    CMP      r12,#1
        0x000016b0:    d010        ..      BEQ      0x16d4 ; am_hal_iom_queue_service + 144
        0x000016b2:    f1bc0f02    ....    CMP      r12,#2
        0x000016b6:    d01f        ..      BEQ      0x16f8 ; am_hal_iom_queue_service + 180
        0x000016b8:    f1bc0f03    ....    CMP      r12,#3
        0x000016bc:    d022        ".      BEQ      0x1704 ; am_hal_iom_queue_service + 192
        0x000016be:    4638        8F      MOV      r0,r7
        0x000016c0:    f7fefd6a    ..j.    BL       am_hal_interrupt_master_set ; 0x198
        0x000016c4:    b009        ..      ADD      sp,sp,#0x24
        0x000016c6:    bdf0        ..      POP      {r4-r7,pc}
        0x000016c8:    e9cd0500    ....    STRD     r0,r5,[sp,#0]
        0x000016cc:    4630        0F      MOV      r0,r6
        0x000016ce:    f000f8e1    ....    BL       am_hal_iom_spi_write_nb ; 0x1894
        0x000016d2:    e004        ..      B        0x16de ; am_hal_iom_queue_service + 154
        0x000016d4:    e9cd0500    ....    STRD     r0,r5,[sp,#0]
        0x000016d8:    4630        0F      MOV      r0,r6
        0x000016da:    f000f849    ..I.    BL       am_hal_iom_spi_read_nb ; 0x1770
        0x000016de:    4604        .F      MOV      r4,r0
        0x000016e0:    4638        8F      MOV      r0,r7
        0x000016e2:    f7fefd59    ..Y.    BL       am_hal_interrupt_master_set ; 0x198
        0x000016e6:    2c00        .,      CMP      r4,#0
        0x000016e8:    bf04        ..      ITT      EQ
        0x000016ea:    b009        ..      ADDEQ    sp,sp,#0x24
        0x000016ec:    bdf0        ..      POPEQ    {r4-r7,pc}
        0x000016ee:    4809        .H      LDR      r0,[pc,#36] ; [0x1714] = 0x1000007b
        0x000016f0:    5584        .U      STRB     r4,[r0,r6]
        0x000016f2:    47a8        .G      BLX      r5
        0x000016f4:    b009        ..      ADD      sp,sp,#0x24
        0x000016f6:    bdf0        ..      POP      {r4-r7,pc}
        0x000016f8:    e9cd0500    ....    STRD     r0,r5,[sp,#0]
        0x000016fc:    4630        0F      MOV      r0,r6
        0x000016fe:    f7fffd27    ..'.    BL       am_hal_iom_i2c_write_nb ; 0x1150
        0x00001702:    e7ec        ..      B        0x16de ; am_hal_iom_queue_service + 154
        0x00001704:    e9cd0500    ....    STRD     r0,r5,[sp,#0]
        0x00001708:    4630        0F      MOV      r0,r6
        0x0000170a:    f7fffc09    ....    BL       am_hal_iom_i2c_read_nb ; 0xf20
        0x0000170e:    e7e6        ..      B        0x16de ; am_hal_iom_queue_service + 154
    $d
        0x00001710:    100005d4    ....    DCD    268436948
        0x00001714:    1000007b    {...    DCD    268435579
    $t
    i.am_hal_iom_sleeping_queue_flush
    am_hal_iom_sleeping_queue_flush
        0x00001718:    e92d41f0    -..A    PUSH     {r4-r8,lr}
        0x0000171c:    2501        .%      MOVS     r5,#1
        0x0000171e:    4604        .F      MOV      r4,r0
        0x00001720:    2806        .(      CMP      r0,#6
        0x00001722:    bf28        (.      IT       CS
        0x00001724:    e8bd81f0    ....    POPCS    {r4-r8,pc}
        0x00001728:    4f0f        .O      LDR      r7,[pc,#60] ; [0x1768] = 0x10000074
        0x0000172a:    4810        .H      LDR      r0,[pc,#64] ; [0x176c] = 0x100005d4
        0x0000172c:    eb040144    ..D.    ADD      r1,r4,r4,LSL #1
        0x00001730:    eb0006c1    ....    ADD      r6,r0,r1,LSL #3
        0x00001734:    f7fefd2c    ..,.    BL       am_hal_interrupt_master_disable ; 0x190
        0x00001738:    4680        .F      MOV      r8,r0
        0x0000173a:    5d38        8]      LDRB     r0,[r7,r4]
        0x0000173c:    2800        .(      CMP      r0,#0
        0x0000173e:    bf04        ..      ITT      EQ
        0x00001740:    68b0        .h      LDREQ    r0,[r6,#8]
        0x00001742:    2800        .(      CMPEQ    r0,#0
        0x00001744:    d00a        ..      BEQ      0x175c ; am_hal_iom_sleeping_queue_flush + 68
        0x00001746:    f04f0000    O...    MOV      r0,#0
        0x0000174a:    f000fe5d    ..].    BL       am_hal_sysctrl_sleep ; 0x2408
        0x0000174e:    4640        @F      MOV      r0,r8
        0x00001750:    f7fefd22    ..".    BL       am_hal_interrupt_master_set ; 0x198
        0x00001754:    2d00        .-      CMP      r5,#0
        0x00001756:    d1ed        ..      BNE      0x1734 ; am_hal_iom_sleeping_queue_flush + 28
        0x00001758:    e8bd81f0    ....    POP      {r4-r8,pc}
        0x0000175c:    4640        @F      MOV      r0,r8
        0x0000175e:    e8bd41f0    ...A    POP      {r4-r8,lr}
        0x00001762:    f7febd19    ....    B        am_hal_interrupt_master_set ; 0x198
    $d
        0x00001766:    0000        ..      DCW    0
        0x00001768:    10000074    t...    DCD    268435572
        0x0000176c:    100005d4    ....    DCD    268436948
    $t
    i.am_hal_iom_spi_read_nb
    am_hal_iom_spi_read_nb
        0x00001770:    2806        .(      CMP      r0,#6
        0x00001772:    bf24        $.      ITT      CS
        0x00001774:    2002        .       MOVCS    r0,#2
        0x00001776:    4770        pG      BXCS     lr
        0x00001778:    e92d4fff    -..O    PUSH     {r0-r11,lr}
        0x0000177c:    b081        ..      SUB      sp,sp,#4
        0x0000177e:    f8df90f4    ....    LDR      r9,[pc,#244] ; [0x1874] = 0x10000074
        0x00001782:    9d0e        ..      LDR      r5,[sp,#0x38]
        0x00001784:    461e        .F      MOV      r6,r3
        0x00001786:    4604        .F      MOV      r4,r0
        0x00001788:    f8190004    ....    LDRB     r0,[r9,r4]
        0x0000178c:    2800        .(      CMP      r0,#0
        0x0000178e:    d1fb        ..      BNE      0x1788 ; am_hal_iom_spi_read_nb + 24
        0x00001790:    f8df80e4    ....    LDR      r8,[pc,#228] ; [0x1878] = 0x1000007b
        0x00001794:    2e00        ..      CMP      r6,#0
        0x00001796:    f8080004    ....    STRB     r0,[r8,r4]
        0x0000179a:    9000        ..      STR      r0,[sp,#0]
        0x0000179c:    bf18        ..      IT       NE
        0x0000179e:    f5b65f80    ..._    CMPNE    r6,#0x1000
        0x000017a2:    bf21        !.      ITTTT    CS
        0x000017a4:    2003        .       MOVCS    r0,#3
        0x000017a6:    f8080004    ....    STRBCS   r0,[r8,r4]
        0x000017aa:    b005        ..      ADDCS    sp,sp,#0x14
        0x000017ac:    e8bd8ff0    ....    POPCS    {r4-r11,pc}
        0x000017b0:    2101        .!      MOVS     r1,#1
        0x000017b2:    f8091004    ....    STRB     r1,[r9,r4]
        0x000017b6:    0323        #.      LSLS     r3,r4,#12
        0x000017b8:    f10347a0    ...G    ADD      r7,r3,#0x50000000
        0x000017bc:    f5074780    ...G    ADD      r7,r7,#0x4000
        0x000017c0:    f24072ff    @..r    MOV      r2,#0x7ff
        0x000017c4:    f8c72208    ..."    STR      r2,[r7,#0x208]
        0x000017c8:    2c04        .,      CMP      r4,#4
        0x000017ca:    bf08        ..      IT       EQ
        0x000017cc:    f0154f80    ...O    TSTEQ    r5,#0x40000000
        0x000017d0:    d12b        +.      BNE      0x182a ; am_hal_iom_spi_read_nb + 186
        0x000017d2:    4a2a        *J      LDR      r2,[pc,#168] ; [0x187c] = 0x40020000
        0x000017d4:    68d2        .h      LDR      r2,[r2,#0xc]
        0x000017d6:    b2d2        ..      UXTB     r2,r2
        0x000017d8:    2a20         *      CMP      r2,#0x20
        0x000017da:    d126        &.      BNE      0x182a ; am_hal_iom_spi_read_nb + 186
        0x000017dc:    f8dfa0a0    ....    LDR      r10,[pc,#160] ; [0x1880] = 0x50008000
        0x000017e0:    f8dab200    ....    LDR      r11,[r10,#0x200]
        0x000017e4:    f8ca0200    ....    STR      r0,[r10,#0x200]
        0x000017e8:    e9dd0102    ....    LDRD     r0,r1,[sp,#8]
        0x000017ec:    f0455380    E..S    ORR      r3,r5,#0x10000000
        0x000017f0:    2200        ."      MOVS     r2,#0
        0x000017f2:    f000f8dd    ....    BL       am_hal_iom_workaround_word_write ; 0x19b0
        0x000017f6:    4824        $H      LDR      r0,[pc,#144] ; [0x1888] = 0x100005bc
        0x000017f8:    2301        .#      MOVS     r3,#1
        0x000017fa:    f0454580    E..E    ORR      r5,r5,#0x40000000
        0x000017fe:    4921        !I      LDR      r1,[pc,#132] ; [0x1884] = 0x50008204
        0x00001800:    6900        .i      LDR      r0,[r0,#0x10]
        0x00001802:    461a        .F      MOV      r2,r3
        0x00001804:    f7feff10    ....    BL       am_hal_flash_delay_status_change ; 0x628
        0x00001808:    2801        .(      CMP      r0,#1
        0x0000180a:    f04f0001    O...    MOV      r0,#1
        0x0000180e:    bf1e        ..      ITTT     NE
        0x00001810:    f8880004    ....    STRBNE   r0,[r8,#4]
        0x00001814:    b005        ..      ADDNE    sp,sp,#0x14
        0x00001816:    e8bd8ff0    ....    POPNE    {r4-r11,pc}
        0x0000181a:    f8890004    ....    STRB     r0,[r9,#4]
        0x0000181e:    f24070ff    @..p    MOV      r0,#0x7ff
        0x00001822:    f8ca0208    ....    STR      r0,[r10,#0x208]
        0x00001826:    f8cab200    ....    STR      r11,[r10,#0x200]
        0x0000182a:    4818        .H      LDR      r0,[pc,#96] ; [0x188c] = 0x10000544
        0x0000182c:    eb040184    ....    ADD      r1,r4,r4,LSL #2
        0x00001830:    2202        ."      MOVS     r2,#2
        0x00001832:    f8402021    @.!     STR      r2,[r0,r1,LSL #2]
        0x00001836:    eb000081    ....    ADD      r0,r0,r1,LSL #2
        0x0000183a:    9a03        ..      LDR      r2,[sp,#0xc]
        0x0000183c:    e9c02601    ...&    STRD     r2,r6,[r0,#4]
        0x00001840:    990f        ..      LDR      r1,[sp,#0x3c]
        0x00001842:    f4066270    ..pb    AND      r2,r6,#0xf00
        0x00001846:    e9c05103    ...Q    STRD     r5,r1,[r0,#0xc]
        0x0000184a:    f04f4000    O..@    MOV      r0,#0x80000000
        0x0000184e:    ea4030c2    @..0    ORR      r0,r0,r2,LSL #15
        0x00001852:    b2f2        ..      UXTB     r2,r6
        0x00001854:    4310        .C      ORRS     r0,r0,r2
        0x00001856:    9902        ..      LDR      r1,[sp,#8]
        0x00001858:    f44f22e0    O.."    MOV      r2,#0x70000
        0x0000185c:    ea024101    ...A    AND      r1,r2,r1,LSL #16
        0x00001860:    4308        .C      ORRS     r0,r0,r1
        0x00001862:    490b        .I      LDR      r1,[pc,#44] ; [0x1890] = 0x5c00ff00
        0x00001864:    4029        )@      ANDS     r1,r1,r5
        0x00001866:    4308        .C      ORRS     r0,r0,r1
        0x00001868:    f8c70110    ....    STR      r0,[r7,#0x110]
        0x0000186c:    9800        ..      LDR      r0,[sp,#0]
        0x0000186e:    b005        ..      ADD      sp,sp,#0x14
        0x00001870:    e8bd8ff0    ....    POP      {r4-r11,pc}
    $d
        0x00001874:    10000074    t...    DCD    268435572
        0x00001878:    1000007b    {...    DCD    268435579
        0x0000187c:    40020000    ...@    DCD    1073872896
        0x00001880:    50008000    ...P    DCD    1342210048
        0x00001884:    50008204    ...P    DCD    1342210564
        0x00001888:    100005bc    ....    DCD    268436924
        0x0000188c:    10000544    D...    DCD    268436804
        0x00001890:    5c00ff00    ...\    DCD    1543569152
    $t
    i.am_hal_iom_spi_write_nb
    am_hal_iom_spi_write_nb
        0x00001894:    2806        .(      CMP      r0,#6
        0x00001896:    bf24        $.      ITT      CS
        0x00001898:    2002        .       MOVCS    r0,#2
        0x0000189a:    4770        pG      BXCS     lr
        0x0000189c:    e92d4fff    -..O    PUSH     {r0-r11,lr}
        0x000018a0:    b081        ..      SUB      sp,sp,#4
        0x000018a2:    4605        .F      MOV      r5,r0
        0x000018a4:    e9dd7b0e    ...{    LDRD     r7,r11,[sp,#0x38]
        0x000018a8:    483c        <H      LDR      r0,[pc,#240] ; [0x199c] = 0x10000074
        0x000018aa:    461c        .F      MOV      r4,r3
        0x000018ac:    4690        .F      MOV      r8,r2
        0x000018ae:    5d41        A]      LDRB     r1,[r0,r5]
        0x000018b0:    2900        .)      CMP      r1,#0
        0x000018b2:    d1fc        ..      BNE      0x18ae ; am_hal_iom_spi_write_nb + 26
        0x000018b4:    493a        :I      LDR      r1,[pc,#232] ; [0x19a0] = 0x1000007b
        0x000018b6:    2200        ."      MOVS     r2,#0
        0x000018b8:    2c00        .,      CMP      r4,#0
        0x000018ba:    554a        JU      STRB     r2,[r1,r5]
        0x000018bc:    9200        ..      STR      r2,[sp,#0]
        0x000018be:    bf18        ..      IT       NE
        0x000018c0:    f5b45f80    ..._    CMPNE    r4,#0x1000
        0x000018c4:    bf21        !.      ITTTT    CS
        0x000018c6:    2003        .       MOVCS    r0,#3
        0x000018c8:    5548        HU      STRBCS   r0,[r1,r5]
        0x000018ca:    b005        ..      ADDCS    sp,sp,#0x14
        0x000018cc:    e8bd8ff0    ....    POPCS    {r4-r11,pc}
        0x000018d0:    0329        ).      LSLS     r1,r5,#12
        0x000018d2:    f1014aa0    ...J    ADD      r10,r1,#0x50000000
        0x000018d6:    f50a4a80    ...J    ADD      r10,r10,#0x4000
        0x000018da:    f8da111c    ....    LDR      r1,[r10,#0x11c]
        0x000018de:    f0110f08    ....    TST      r1,#8
        0x000018e2:    bf0c        ..      ITE      EQ
        0x000018e4:    2680        .&      MOVEQ    r6,#0x80
        0x000018e6:    2640        @&      MOVNE    r6,#0x40
        0x000018e8:    f04f0901    O...    MOV      r9,#1
        0x000018ec:    f8009005    ....    STRB     r9,[r0,r5]
        0x000018f0:    f24070ff    @..p    MOV      r0,#0x7ff
        0x000018f4:    f8ca0208    ....    STR      r0,[r10,#0x208]
        0x000018f8:    2d04        .-      CMP      r5,#4
        0x000018fa:    d104        ..      BNE      0x1906 ; am_hal_iom_spi_write_nb + 114
        0x000018fc:    4829        )H      LDR      r0,[pc,#164] ; [0x19a4] = 0x40020000
        0x000018fe:    68c0        .h      LDR      r0,[r0,#0xc]
        0x00001900:    b2c0        ..      UXTB     r0,r0
        0x00001902:    2820         (      CMP      r0,#0x20
        0x00001904:    d02e        ..      BEQ      0x1964 ; am_hal_iom_spi_write_nb + 208
        0x00001906:    42b4        .B      CMP      r4,r6
        0x00001908:    bf98        ..      IT       LS
        0x0000190a:    461e        .F      MOVLS    r6,r3
        0x0000190c:    4632        2F      MOV      r2,r6
        0x0000190e:    4641        AF      MOV      r1,r8
        0x00001910:    4628        (F      MOV      r0,r5
        0x00001912:    f7fff9e3    ....    BL       am_hal_iom_fifo_write ; 0xcdc
        0x00001916:    b308        ..      CBZ      r0,0x195c ; am_hal_iom_spi_write_nb + 200
        0x00001918:    4823        #H      LDR      r0,[pc,#140] ; [0x19a8] = 0x10000544
        0x0000191a:    eb050185    ....    ADD      r1,r5,r5,LSL #2
        0x0000191e:    f4046270    ..pb    AND      r2,r4,#0xf00
        0x00001922:    f8409021    @.!.    STR      r9,[r0,r1,LSL #2]
        0x00001926:    eb000081    ....    ADD      r0,r0,r1,LSL #2
        0x0000192a:    1ba1        ..      SUBS     r1,r4,r6
        0x0000192c:    f8c0b010    ....    STR      r11,[r0,#0x10]
        0x00001930:    e9c01702    ....    STRD     r1,r7,[r0,#8]
        0x00001934:    f0260103    &...    BIC      r1,r6,#3
        0x00001938:    4441        AD      ADD      r1,r1,r8
        0x0000193a:    6041        A`      STR      r1,[r0,#4]
        0x0000193c:    2000        .       MOVS     r0,#0
        0x0000193e:    ea4030c2    @..0    ORR      r0,r0,r2,LSL #15
        0x00001942:    b2e2        ..      UXTB     r2,r4
        0x00001944:    4310        .C      ORRS     r0,r0,r2
        0x00001946:    9902        ..      LDR      r1,[sp,#8]
        0x00001948:    f44f22e0    O.."    MOV      r2,#0x70000
        0x0000194c:    ea024101    ...A    AND      r1,r2,r1,LSL #16
        0x00001950:    4308        .C      ORRS     r0,r0,r1
        0x00001952:    4916        .I      LDR      r1,[pc,#88] ; [0x19ac] = 0x5c00ff00
        0x00001954:    4039        9@      ANDS     r1,r1,r7
        0x00001956:    4308        .C      ORRS     r0,r0,r1
        0x00001958:    f8ca0110    ....    STR      r0,[r10,#0x110]
        0x0000195c:    9800        ..      LDR      r0,[sp,#0]
        0x0000195e:    b005        ..      ADD      sp,sp,#0x14
        0x00001960:    e8bd8ff0    ....    POP      {r4-r11,pc}
        0x00001964:    1f30        0.      SUBS     r0,r6,#4
        0x00001966:    4284        .B      CMP      r4,r0
        0x00001968:    bf94        ..      ITE      LS
        0x0000196a:    4619        .F      MOVLS    r1,r3
        0x0000196c:    4601        .F      MOVHI    r1,r0
        0x0000196e:    480e        .H      LDR      r0,[pc,#56] ; [0x19a8] = 0x10000544
        0x00001970:    4a0d        .J      LDR      r2,[pc,#52] ; [0x19a8] = 0x10000544
        0x00001972:    f8c09050    ..P.    STR      r9,[r0,#0x50]
        0x00001976:    f0210003    !...    BIC      r0,r1,#3
        0x0000197a:    eb000308    ....    ADD      r3,r0,r8
        0x0000197e:    f8c2b060    ..`.    STR      r11,[r2,#0x60]
        0x00001982:    f1020050    ..P.    ADD      r0,r2,#0x50
        0x00001986:    6553        Se      STR      r3,[r2,#0x54]
        0x00001988:    1a61        a.      SUBS     r1,r4,r1
        0x0000198a:    e9c01702    ....    STRD     r1,r7,[r0,#8]
        0x0000198e:    463b        ;F      MOV      r3,r7
        0x00001990:    4622        "F      MOV      r2,r4
        0x00001992:    4641        AF      MOV      r1,r8
        0x00001994:    9802        ..      LDR      r0,[sp,#8]
        0x00001996:    f000f80b    ....    BL       am_hal_iom_workaround_word_write ; 0x19b0
        0x0000199a:    e7df        ..      B        0x195c ; am_hal_iom_spi_write_nb + 200
    $d
        0x0000199c:    10000074    t...    DCD    268435572
        0x000019a0:    1000007b    {...    DCD    268435579
        0x000019a4:    40020000    ...@    DCD    1073872896
        0x000019a8:    10000544    D...    DCD    268436804
        0x000019ac:    5c00ff00    ...\    DCD    1543569152
    $t
    i.am_hal_iom_workaround_word_write
    am_hal_iom_workaround_word_write
        0x000019b0:    e92d4fff    -..O    PUSH     {r0-r11,lr}
        0x000019b4:    b085        ..      SUB      sp,sp,#0x14
        0x000019b6:    4cf5        .L      LDR      r4,[pc,#980] ; [0x1d8c] = 0x50008000
        0x000019b8:    f04f0900    O...    MOV      r9,#0
        0x000019bc:    f8cd9008    ....    STR      r9,[sp,#8]
        0x000019c0:    f8d4011c    ....    LDR      r0,[r4,#0x11c]
        0x000019c4:    469b        .F      MOV      r11,r3
        0x000019c6:    f0100f08    ....    TST      r0,#8
        0x000019ca:    bf0c        ..      ITE      EQ
        0x000019cc:    f04f0a80    O...    MOVEQ    r10,#0x80
        0x000019d0:    f04f0a40    O.@.    MOVNE    r10,#0x40
        0x000019d4:    f64071fb    @..q    MOV      r1,#0xffb
        0x000019d8:    9807        ..      LDR      r0,[sp,#0x1c]
        0x000019da:    4288        .B      CMP      r0,r1
        0x000019dc:    d905        ..      BLS      0x19ea ; am_hal_iom_workaround_word_write + 58
        0x000019de:    a2ec        ..      ADR      r2,{pc}+0x3b2 ; 0x1d90
        0x000019e0:    f24041ba    @..A    MOV      r1,#0x4ba
        0x000019e4:    a0f0        ..      ADR      r0,{pc}+0x3c4 ; 0x1da8
        0x000019e6:    f7fefe19    ....    BL       am_hal_debug_error ; 0x61c
        0x000019ea:    f8d4610c    ...a    LDR      r6,[r4,#0x10c]
        0x000019ee:    4ff2        .O      LDR      r7,[pc,#968] ; [0x1db8] = 0xf42400
        0x000019f0:    f8d4110c    ....    LDR      r1,[r4,#0x10c]
        0x000019f4:    2001        .       MOVS     r0,#1
        0x000019f6:    f3c122c0    ..."    UBFX     r2,r1,#11,#1
        0x000019fa:    f3c13c00    ...<    UBFX     r12,r1,#12,#1
        0x000019fe:    0e09        ..      LSRS     r1,r1,#24
        0x00001a00:    eb000342    ..B.    ADD      r3,r0,r2,LSL #1
        0x00001a04:    fb1cf101    ....    SMULBB   r1,r12,r1
        0x00001a08:    4cec        .L      LDR      r4,[pc,#944] ; [0x1dbc] = 0x2dc6c00
        0x00001a0a:    1c4a        J.      ADDS     r2,r1,#1
        0x00001a0c:    1e41        A.      SUBS     r1,r0,#1
        0x00001a0e:    fa03f101    ....    LSL      r1,r3,r1
        0x00001a12:    4351        QC      MULS     r1,r2,r1
        0x00001a14:    fbb4f5f1    ....    UDIV     r5,r4,r1
        0x00001a18:    fbb4fcf1    ....    UDIV     r12,r4,r1
        0x00001a1c:    fb014515    ...E    MLS      r5,r1,r5,r4
        0x00001a20:    ebb50f51    ..Q.    CMP      r5,r1,LSR #1
        0x00001a24:    bf8c        ..      ITE      HI
        0x00001a26:    2101        .!      MOVHI    r1,#1
        0x00001a28:    2100        .!      MOVLS    r1,#0
        0x00001a2a:    4461        aD      ADD      r1,r1,r12
        0x00001a2c:    42b9        .B      CMP      r1,r7
        0x00001a2e:    d800        ..      BHI      0x1a32 ; am_hal_iom_workaround_word_write + 130
        0x00001a30:    b949        I.      CBNZ     r1,0x1a46 ; am_hal_iom_workaround_word_write + 150
        0x00001a32:    1c40        @.      ADDS     r0,r0,#1
        0x00001a34:    2808        .(      CMP      r0,#8
        0x00001a36:    d3e9        ..      BCC      0x1a0c ; am_hal_iom_workaround_word_write + 92
        0x00001a38:    a2e1        ..      ADR      r2,{pc}+0x388 ; 0x1dc0
        0x00001a3a:    f44f618b    O..a    MOV      r1,#0x458
        0x00001a3e:    a0ee        ..      ADR      r0,{pc}+0x3ba ; 0x1df8
        0x00001a40:    f7fefdec    ....    BL       am_hal_debug_error ; 0x61c
        0x00001a44:    4638        8F      MOV      r0,r7
        0x00001a46:    4635        5F      MOV      r5,r6
        0x00001a48:    f360250a    `..%    BFI      r5,r0,#8,#3
        0x00001a4c:    2701        .'      MOVS     r7,#1
        0x00001a4e:    f3c62202    ..."    UBFX     r2,r6,#8,#3
        0x00001a52:    f3c623c0    ...#    UBFX     r3,r6,#11,#1
        0x00001a56:    0e30        0.      LSRS     r0,r6,#24
        0x00001a58:    eb070343    ..C.    ADD      r3,r7,r3,LSL #1
        0x00001a5c:    1e52        R.      SUBS     r2,r2,#1
        0x00001a5e:    f3c63100    ...1    UBFX     r1,r6,#12,#1
        0x00001a62:    fa03f202    ....    LSL      r2,r3,r2
        0x00001a66:    fb11f000    ....    SMULBB   r0,r1,r0
        0x00001a6a:    1c40        @.      ADDS     r0,r0,#1
        0x00001a6c:    4350        PC      MULS     r0,r2,r0
        0x00001a6e:    fbb4f2f0    ....    UDIV     r2,r4,r0
        0x00001a72:    fbb4f1f0    ....    UDIV     r1,r4,r0
        0x00001a76:    fb004212    ...B    MLS      r2,r0,r2,r4
        0x00001a7a:    ebb20f50    ..P.    CMP      r2,r0,LSR #1
        0x00001a7e:    bf8c        ..      ITE      HI
        0x00001a80:    2001        .       MOVHI    r0,#1
        0x00001a82:    2000        .       MOVLS    r0,#0
        0x00001a84:    4408        .D      ADD      r0,r0,r1
        0x00001a86:    49c1        .I      LDR      r1,[pc,#772] ; [0x1d8c] = 0x50008000
        0x00001a88:    f8c1510c    ...Q    STR      r5,[r1,#0x10c]
        0x00001a8c:    49de        .I      LDR      r1,[pc,#888] ; [0x1e08] = 0x5b8d800
        0x00001a8e:    eb000040    ..@.    ADD      r0,r0,r0,LSL #1
        0x00001a92:    fbb1f0f0    ....    UDIV     r0,r1,r0
        0x00001a96:    49dd        .I      LDR      r1,[pc,#884] ; [0x1e0c] = 0x800009d
        0x00001a98:    4788        .G      BLX      r1
        0x00001a9a:    f3c52302    ...#    UBFX     r3,r5,#8,#3
        0x00001a9e:    f3c522c0    ..."    UBFX     r2,r5,#11,#1
        0x00001aa2:    0e29        ).      LSRS     r1,r5,#24
        0x00001aa4:    f04f0c01    O...    MOV      r12,#1
        0x00001aa8:    eb0c0242    ..B.    ADD      r2,r12,r2,LSL #1
        0x00001aac:    1e5b        [.      SUBS     r3,r3,#1
        0x00001aae:    f3c53000    ...0    UBFX     r0,r5,#12,#1
        0x00001ab2:    409a        .@      LSLS     r2,r2,r3
        0x00001ab4:    fb10f001    ....    SMULBB   r0,r0,r1
        0x00001ab8:    1c40        @.      ADDS     r0,r0,#1
        0x00001aba:    4350        PC      MULS     r0,r2,r0
        0x00001abc:    fbb4f2f0    ....    UDIV     r2,r4,r0
        0x00001ac0:    fbb4f1f0    ....    UDIV     r1,r4,r0
        0x00001ac4:    fb004212    ...B    MLS      r2,r0,r2,r4
        0x00001ac8:    ebb20f50    ..P.    CMP      r2,r0,LSR #1
        0x00001acc:    bf8c        ..      ITE      HI
        0x00001ace:    2001        .       MOVHI    r0,#1
        0x00001ad0:    2000        .       MOVLS    r0,#0
        0x00001ad2:    1847        G.      ADDS     r7,r0,r1
        0x00001ad4:    d105        ..      BNE      0x1ae2 ; am_hal_iom_workaround_word_write + 306
        0x00001ad6:    a2ce        ..      ADR      r2,{pc}+0x33a ; 0x1e10
        0x00001ad8:    f24041e5    @..A    MOV      r1,#0x4e5
        0x00001adc:    a0b2        ..      ADR      r0,{pc}+0x2cc ; 0x1da8
        0x00001ade:    f7fefd9d    ....    BL       am_hal_debug_error ; 0x61c
        0x00001ae2:    48aa        .H      LDR      r0,[pc,#680] ; [0x1d8c] = 0x50008000
        0x00001ae4:    f8df8348    ..H.    LDR      r8,[pc,#840] ; [0x1e30] = 0xf4240
        0x00001ae8:    f8d0010c    ....    LDR      r0,[r0,#0x10c]
        0x00001aec:    2501        .%      MOVS     r5,#1
        0x00001aee:    f3c022c0    ..."    UBFX     r2,r0,#11,#1
        0x00001af2:    f3c03100    ...1    UBFX     r1,r0,#12,#1
        0x00001af6:    0e00        ..      LSRS     r0,r0,#24
        0x00001af8:    eb050c42    ..B.    ADD      r12,r5,r2,LSL #1
        0x00001afc:    fb11f000    ....    SMULBB   r0,r1,r0
        0x00001b00:    1c43        C.      ADDS     r3,r0,#1
        0x00001b02:    1e68        h.      SUBS     r0,r5,#1
        0x00001b04:    fa0cf000    ....    LSL      r0,r12,r0
        0x00001b08:    4358        XC      MULS     r0,r3,r0
        0x00001b0a:    fbb4fef0    ....    UDIV     lr,r4,r0
        0x00001b0e:    fbb4f1f0    ....    UDIV     r1,r4,r0
        0x00001b12:    fb00421e    ...B    MLS      r2,r0,lr,r4
        0x00001b16:    ebb20f50    ..P.    CMP      r2,r0,LSR #1
        0x00001b1a:    bf8c        ..      ITE      HI
        0x00001b1c:    2001        .       MOVHI    r0,#1
        0x00001b1e:    2000        .       MOVLS    r0,#0
        0x00001b20:    4408        .D      ADD      r0,r0,r1
        0x00001b22:    4540        @E      CMP      r0,r8
        0x00001b24:    d800        ..      BHI      0x1b28 ; am_hal_iom_workaround_word_write + 376
        0x00001b26:    b948        H.      CBNZ     r0,0x1b3c ; am_hal_iom_workaround_word_write + 396
        0x00001b28:    1c6d        m.      ADDS     r5,r5,#1
        0x00001b2a:    2d08        .-      CMP      r5,#8
        0x00001b2c:    d3e9        ..      BCC      0x1b02 ; am_hal_iom_workaround_word_write + 338
        0x00001b2e:    a2a4        ..      ADR      r2,{pc}+0x292 ; 0x1dc0
        0x00001b30:    f44f618b    O..a    MOV      r1,#0x458
        0x00001b34:    a0b0        ..      ADR      r0,{pc}+0x2c4 ; 0x1df8
        0x00001b36:    f7fefd71    ..q.    BL       am_hal_debug_error ; 0x61c
        0x00001b3a:    4645        EF      MOV      r5,r8
        0x00001b3c:    4630        0F      MOV      r0,r6
        0x00001b3e:    f365200a    e..     BFI      r0,r5,#8,#3
        0x00001b42:    9003        ..      STR      r0,[sp,#0xc]
        0x00001b44:    f01b4f80    ...O    TST      r11,#0x40000000
        0x00001b48:    eb070047    ..G.    ADD      r0,r7,r7,LSL #1
        0x00001b4c:    d04f        O.      BEQ      0x1bee ; am_hal_iom_workaround_word_write + 574
        0x00001b4e:    49b9        .I      LDR      r1,[pc,#740] ; [0x1e34] = 0x4d3f6400
        0x00001b50:    fbb1f7f0    ....    UDIV     r7,r1,r0
        0x00001b54:    9806        ..      LDR      r0,[sp,#0x18]
        0x00001b56:    7800        .x      LDRB     r0,[r0,#0]
        0x00001b58:    f0100f80    ....    TST      r0,#0x80
        0x00001b5c:    bf03        ..      ITTTE    EQ
        0x00001b5e:    f06f00ff    o...    MVNEQ    r0,#0xff
        0x00001b62:    9002        ..      STREQ    r0,[sp,#8]
        0x00001b64:    2500        .%      MOVEQ    r5,#0
        0x00001b66:    f8cd9008    ....    STRNE    r9,[sp,#8]
        0x00001b6a:    bf18        ..      IT       NE
        0x00001b6c:    2501        .%      MOVNE    r5,#1
        0x00001b6e:    f04b4080    K..@    ORR      r0,r11,#0x40000000
        0x00001b72:    9008        ..      STR      r0,[sp,#0x20]
        0x00001b74:    9807        ..      LDR      r0,[sp,#0x1c]
        0x00001b76:    f1000804    ....    ADD      r8,r0,#4
        0x00001b7a:    45d0        .E      CMP      r8,r10
        0x00001b7c:    bf98        ..      IT       LS
        0x00001b7e:    46c2        .F      MOVLS    r10,r8
        0x00001b80:    2204        ."      MOVS     r2,#4
        0x00001b82:    a902        ..      ADD      r1,sp,#8
        0x00001b84:    4610        .F      MOV      r0,r2
        0x00001b86:    f7fff8a9    ....    BL       am_hal_iom_fifo_write ; 0xcdc
        0x00001b8a:    f1aa0204    ....    SUB      r2,r10,#4
        0x00001b8e:    2004        .       MOVS     r0,#4
        0x00001b90:    9906        ..      LDR      r1,[sp,#0x18]
        0x00001b92:    f7fff8a3    ....    BL       am_hal_iom_fifo_write ; 0xcdc
        0x00001b96:    49a8        .I      LDR      r1,[pc,#672] ; [0x1e38] = 0x3493
        0x00001b98:    9b05        ..      LDR      r3,[sp,#0x14]
        0x00001b9a:    2000        .       MOVS     r0,#0
        0x00001b9c:    f04f0aff    O...    MOV      r10,#0xff
        0x00001ba0:    eb000240    ..@.    ADD      r2,r0,r0,LSL #1
        0x00001ba4:    f811c002    ....    LDRB     r12,[r1,r2]
        0x00001ba8:    459c        .E      CMP      r12,r3
        0x00001baa:    d133        3.      BNE      0x1c14 ; am_hal_iom_workaround_word_write + 612
        0x00001bac:    eb020c01    ....    ADD      r12,r2,r1
        0x00001bb0:    f89c2001    ...     LDRB     r2,[r12,#1]
        0x00001bb4:    f00204fc    ....    AND      r4,r2,#0xfc
        0x00001bb8:    f1044480    ...D    ADD      r4,r4,#0x40000000
        0x00001bbc:    f5043480    ...4    ADD      r4,r4,#0x10000
        0x00001bc0:    6824        $h      LDR      r4,[r4,#0]
        0x00001bc2:    0792        ..      LSLS     r2,r2,#30
        0x00001bc4:    0ed2        ..      LSRS     r2,r2,#27
        0x00001bc6:    fa0afb02    ....    LSL      r11,r10,r2
        0x00001bca:    ea04040b    ....    AND      r4,r4,r11
        0x00001bce:    fa24f202    $...    LSR      r2,r4,r2
        0x00001bd2:    f89cc002    ....    LDRB     r12,[r12,#2]
        0x00001bd6:    f3c202c2    ....    UBFX     r2,r2,#3,#3
        0x00001bda:    4594        .E      CMP      r12,r2
        0x00001bdc:    d11a        ..      BNE      0x1c14 ; am_hal_iom_workaround_word_write + 612
        0x00001bde:    eb000040    ..@.    ADD      r0,r0,r0,LSL #1
        0x00001be2:    4408        .D      ADD      r0,r0,r1
        0x00001be4:    7844        Dx      LDRB     r4,[r0,#1]
        0x00001be6:    4895        .H      LDR      r0,[pc,#596] ; [0x1e3c] = 0xdeadbeef
        0x00001be8:    4284        .B      CMP      r4,r0
        0x00001bea:    d11d        ..      BNE      0x1c28 ; am_hal_iom_workaround_word_write + 632
        0x00001bec:    e016        ..      B        0x1c1c ; am_hal_iom_workaround_word_write + 620
        0x00001bee:    4994        .I      LDR      r1,[pc,#592] ; [0x1e40] = 0x365c0400
        0x00001bf0:    fbb1f7f0    ....    UDIV     r7,r1,r0
        0x00001bf4:    f40b407f    ...@    AND      r0,r11,#0xff00
        0x00001bf8:    0400        ..      LSLS     r0,r0,#16
        0x00001bfa:    f0104f00    ...O    TST      r0,#0x80000000
        0x00001bfe:    9002        ..      STR      r0,[sp,#8]
        0x00001c00:    bf11        ..      ITEEE    NE
        0x00001c02:    2501        .%      MOVNE    r5,#1
        0x00001c04:    f440407f    @..@    ORREQ    r0,r0,#0xff00
        0x00001c08:    f440007f    @...    ORREQ    r0,r0,#0xff0000
        0x00001c0c:    9002        ..      STREQ    r0,[sp,#8]
        0x00001c0e:    bf08        ..      IT       EQ
        0x00001c10:    2500        .%      MOVEQ    r5,#0
        0x00001c12:    e7ac        ..      B        0x1b6e ; am_hal_iom_workaround_word_write + 446
        0x00001c14:    1c40        @.      ADDS     r0,r0,#1
        0x00001c16:    280d        .(      CMP      r0,#0xd
        0x00001c18:    d3c2        ..      BCC      0x1ba0 ; am_hal_iom_workaround_word_write + 496
        0x00001c1a:    4c88        .L      LDR      r4,[pc,#544] ; [0x1e3c] = 0xdeadbeef
        0x00001c1c:    2200        ."      MOVS     r2,#0
        0x00001c1e:    f240512d    @.-Q    MOV      r1,#0x52d
        0x00001c22:    a061        a.      ADR      r0,{pc}+0x186 ; 0x1da8
        0x00001c24:    f7fefcfa    ....    BL       am_hal_debug_error ; 0x61c
        0x00001c28:    f0040bfc    ....    AND      r11,r4,#0xfc
        0x00001c2c:    f10b4b80    ...K    ADD      r11,r11,#0x40000000
        0x00001c30:    f50b3b80    ...;    ADD      r11,r11,#0x10000
        0x00001c34:    f8db0000    ....    LDR      r0,[r11,#0]
        0x00001c38:    9000        ..      STR      r0,[sp,#0]
        0x00001c3a:    f004011f    ....    AND      r1,r4,#0x1f
        0x00001c3e:    2001        .       MOVS     r0,#1
        0x00001c40:    4088        .@      LSLS     r0,r0,r1
        0x00001c42:    2104        .!      MOVS     r1,#4
        0x00001c44:    ea0101d4    ....    AND      r1,r1,r4,LSR #3
        0x00001c48:    f1014180    ...A    ADD      r1,r1,#0x40000000
        0x00001c4c:    f5013180    ...1    ADD      r1,r1,#0x10000
        0x00001c50:    f8c10090    ....    STR      r0,[r1,#0x90]
        0x00001c54:    2c32        2,      CMP      r4,#0x32
        0x00001c56:    d231        1.      BCS      0x1cbc ; am_hal_iom_workaround_word_write + 780
        0x00001c58:    f7fefa9a    ....    BL       am_hal_interrupt_master_disable ; 0x190
        0x00001c5c:    9001        ..      STR      r0,[sp,#4]
        0x00001c5e:    4879        yH      LDR      r0,[pc,#484] ; [0x1e44] = 0x40010000
        0x00001c60:    2173        s!      MOVS     r1,#0x73
        0x00001c62:    6601        .f      STR      r1,[r0,#0x60]
        0x00001c64:    217c        |!      MOVS     r1,#0x7c
        0x00001c66:    ea010154    ..T.    AND      r1,r1,r4,LSR #1
        0x00001c6a:    180a        ..      ADDS     r2,r1,r0
        0x00001c6c:    6c13        .l      LDR      r3,[r2,#0x40]
        0x00001c6e:    0761        a.      LSLS     r1,r4,#29
        0x00001c70:    0ec9        ..      LSRS     r1,r1,#27
        0x00001c72:    f04f0c07    O...    MOV      r12,#7
        0x00001c76:    fa0cfc01    ....    LSL      r12,r12,r1
        0x00001c7a:    ea23030c    #...    BIC      r3,r3,r12
        0x00001c7e:    f04f0c02    O...    MOV      r12,#2
        0x00001c82:    fa0cf101    ....    LSL      r1,r12,r1
        0x00001c86:    4319        .C      ORRS     r1,r1,r3
        0x00001c88:    6411        .d      STR      r1,[r2,#0x40]
        0x00001c8a:    f8db3000    ...0    LDR      r3,[r11,#0]
        0x00001c8e:    07a1        ..      LSLS     r1,r4,#30
        0x00001c90:    0ec9        ..      LSRS     r1,r1,#27
        0x00001c92:    fa0af201    ....    LSL      r2,r10,r1
        0x00001c96:    f04f0c18    O...    MOV      r12,#0x18
        0x00001c9a:    4393        .C      BICS     r3,r3,r2
        0x00001c9c:    fa0cf101    ....    LSL      r1,r12,r1
        0x00001ca0:    430b        .C      ORRS     r3,r3,r1
        0x00001ca2:    f8cb3000    ...0    STR      r3,[r11,#0]
        0x00001ca6:    f8db10e0    ....    LDR      r1,[r11,#0xe0]
        0x00001caa:    ea210202    !...    BIC      r2,r1,r2
        0x00001cae:    f8cb20e0    ...     STR      r2,[r11,#0xe0]
        0x00001cb2:    f8c09060    ..`.    STR      r9,[r0,#0x60]
        0x00001cb6:    9801        ..      LDR      r0,[sp,#4]
        0x00001cb8:    f7fefa6e    ..n.    BL       am_hal_interrupt_master_set ; 0x198
        0x00001cbc:    f7fefa68    ..h.    BL       am_hal_interrupt_master_disable ; 0x190
        0x00001cc0:    4c60        `L      LDR      r4,[pc,#384] ; [0x1e44] = 0x40010000
        0x00001cc2:    9001        ..      STR      r0,[sp,#4]
        0x00001cc4:    2073        s       MOVS     r0,#0x73
        0x00001cc6:    6620         f      STR      r0,[r4,#0x60]
        0x00001cc8:    6d60        `m      LDR      r0,[r4,#0x54]
        0x00001cca:    f42020e0     ..     BIC      r0,r0,#0x70000
        0x00001cce:    6560        `e      STR      r0,[r4,#0x54]
        0x00001cd0:    6ae0        .j      LDR      r0,[r4,#0x2c]
        0x00001cd2:    f02000ff     ...    BIC      r0,r0,#0xff
        0x00001cd6:    f040002a    @.*.    ORR      r0,r0,#0x2a
        0x00001cda:    62e0        .b      STR      r0,[r4,#0x2c]
        0x00001cdc:    f8d4010c    ....    LDR      r0,[r4,#0x10c]
        0x00001ce0:    f02000ff     ...    BIC      r0,r0,#0xff
        0x00001ce4:    f8c4010c    ....    STR      r0,[r4,#0x10c]
        0x00001ce8:    f8c49060    ..`.    STR      r9,[r4,#0x60]
        0x00001cec:    9801        ..      LDR      r0,[sp,#4]
        0x00001cee:    f7fefa53    ..S.    BL       am_hal_interrupt_master_set ; 0x198
        0x00001cf2:    2073        s       MOVS     r0,#0x73
        0x00001cf4:    6620         f      STR      r0,[r4,#0x60]
        0x00001cf6:    f4086270    ..pb    AND      r2,r8,#0xf00
        0x00001cfa:    ea4932c2    I..2    ORR      r2,r9,r2,LSL #15
        0x00001cfe:    f00803ff    ....    AND      r3,r8,#0xff
        0x00001d02:    431a        .C      ORRS     r2,r2,r3
        0x00001d04:    9905        ..      LDR      r1,[sp,#0x14]
        0x00001d06:    f44f23e0    O..#    MOV      r3,#0x70000
        0x00001d0a:    ea034101    ...A    AND      r1,r3,r1,LSL #16
        0x00001d0e:    4311        .C      ORRS     r1,r1,r2
        0x00001d10:    4a4d        MJ      LDR      r2,[pc,#308] ; [0x1e48] = 0x5c00ff00
        0x00001d12:    9808        ..      LDR      r0,[sp,#0x20]
        0x00001d14:    f8cdb004    ....    STR      r11,[sp,#4]
        0x00001d18:    4010        .@      ANDS     r0,r0,r2
        0x00001d1a:    ea400801    @...    ORR      r8,r0,r1
        0x00001d1e:    f8ddb00c    ....    LDR      r11,[sp,#0xc]
        0x00001d22:    f7fefa35    ..5.    BL       am_hal_interrupt_master_disable ; 0x190
        0x00001d26:    f8dfa064    ..d.    LDR      r10,[pc,#100] ; [0x1d8c] = 0x50008000
        0x00001d2a:    9003        ..      STR      r0,[sp,#0xc]
        0x00001d2c:    f8ca8110    ....    STR      r8,[r10,#0x110]
        0x00001d30:    4936        6I      LDR      r1,[pc,#216] ; [0x1e0c] = 0x800009d
        0x00001d32:    4638        8F      MOV      r0,r7
        0x00001d34:    4788        .G      BLX      r1
        0x00001d36:    f8cab10c    ....    STR      r11,[r10,#0x10c]
        0x00001d3a:    e9dd0100    ....    LDRD     r0,r1,[sp,#0]
        0x00001d3e:    462a        *F      MOV      r2,r5
        0x00001d40:    f7fefa2e    ....    BL       __asm___12_am_hal_iom_c_97762dd2__iom_workaround_loop ; 0x1a0
        0x00001d44:    f8ca610c    ...a    STR      r6,[r10,#0x10c]
        0x00001d48:    f7fefa22    ..".    BL       am_hal_interrupt_master_disable ; 0x190
        0x00001d4c:    9000        ..      STR      r0,[sp,#0]
        0x00001d4e:    2073        s       MOVS     r0,#0x73
        0x00001d50:    6620         f      STR      r0,[r4,#0x60]
        0x00001d52:    6d60        `m      LDR      r0,[r4,#0x54]
        0x00001d54:    f42020e0     ..     BIC      r0,r0,#0x70000
        0x00001d58:    6560        `e      STR      r0,[r4,#0x54]
        0x00001d5a:    6ae0        .j      LDR      r0,[r4,#0x2c]
        0x00001d5c:    f02000ff     ...    BIC      r0,r0,#0xff
        0x00001d60:    f0400028    @.(.    ORR      r0,r0,#0x28
        0x00001d64:    62e0        .b      STR      r0,[r4,#0x2c]
        0x00001d66:    f8d4010c    ....    LDR      r0,[r4,#0x10c]
        0x00001d6a:    f02000ff     ...    BIC      r0,r0,#0xff
        0x00001d6e:    f8c4010c    ....    STR      r0,[r4,#0x10c]
        0x00001d72:    f8c49060    ..`.    STR      r9,[r4,#0x60]
        0x00001d76:    9800        ..      LDR      r0,[sp,#0]
        0x00001d78:    f7fefa0e    ....    BL       am_hal_interrupt_master_set ; 0x198
        0x00001d7c:    9803        ..      LDR      r0,[sp,#0xc]
        0x00001d7e:    f7fefa0b    ....    BL       am_hal_interrupt_master_set ; 0x198
        0x00001d82:    f8c49060    ..`.    STR      r9,[r4,#0x60]
        0x00001d86:    b009        ..      ADD      sp,sp,#0x24
        0x00001d88:    e8bd8ff0    ....    POP      {r4-r11,pc}
    $d
        0x00001d8c:    50008000    ...P    DCD    1342210048
        0x00001d90:    20495053    SPI     DCD    541675603
        0x00001d94:    6e617274    tran    DCD    1851880052
        0x00001d98:    72656673    sfer    DCD    1919247987
        0x00001d9c:    6f6f7420     too    DCD    1869575200
        0x00001da0:    67696220     big    DCD    1734959648
        0x00001da4:    0000002e    ....    DCD    46
        0x00001da8:    612f2e2e    ../a    DCD    1630481966
        0x00001dac:    61685f6d    m_ha    DCD    1634230125
        0x00001db0:    6f695f6c    l_io    DCD    1869176684
        0x00001db4:    00632e6d    m.c.    DCD    6499949
        0x00001db8:    00f42400    .$..    DCD    16000000
        0x00001dbc:    02dc6c00    .l..    DCD    48000000
        0x00001dc0:    6c756f43    Coul    DCD    1819635523
        0x00001dc4:    69662064    d fi    DCD    1768300644
        0x00001dc8:    6120646e    nd a    DCD    1629512814
        0x00001dcc:    6c617620     val    DCD    1818326560
        0x00001dd0:    66206469    id f    DCD    1713398889
        0x00001dd4:    75716572    requ    DCD    1970365810
        0x00001dd8:    79636e65    ency    DCD    2036559461
        0x00001ddc:    5320202e    .  S    DCD    1394614318
        0x00001de0:    6c756f68    houl    DCD    1819635560
        0x00001de4:    656e2064    d ne    DCD    1701716068
        0x00001de8:    20726576    ver     DCD    544367990
        0x00001dec:    20746567    get     DCD    544499047
        0x00001df0:    65726568    here    DCD    1701995880
        0x00001df4:    0000002e    ....    DCD    46
        0x00001df8:    612f2e2e    ../a    DCD    1630481966
        0x00001dfc:    61685f6d    m_ha    DCD    1634230125
        0x00001e00:    6f695f6c    l_io    DCD    1869176684
        0x00001e04:    00632e6d    m.c.    DCD    6499949
        0x00001e08:    05b8d800    ....    DCD    96000000
        0x00001e0c:    0800009d    ....    DCD    134217885
        0x00001e10:    61766e49    Inva    DCD    1635151433
        0x00001e14:    2064696c    lid     DCD    543451500
        0x00001e18:    46206948    Hi F    DCD    1176529224
        0x00001e1c:    75716572    requ    DCD    1970365810
        0x00001e20:    79636e65    ency    DCD    2036559461
        0x00001e24:    726f6620     for    DCD    1919903264
        0x00001e28:    4d4f4920     IOM    DCD    1297041696
        0x00001e2c:    0000002e    ....    DCD    46
        0x00001e30:    000f4240    @B..    DCD    1000000
        0x00001e34:    4d3f6400    .d?M    DCD    1296000000
        0x00001e38:    00003493    .4..    DCD    13459
        0x00001e3c:    deadbeef    ....    DCD    3735928559
        0x00001e40:    365c0400    ..\6    DCD    912000000
        0x00001e44:    40010000    ...@    DCD    1073807360
        0x00001e48:    5c00ff00    ...\    DCD    1543569152
    $t
    i.am_hal_ios_access_int_clear
    am_hal_ios_access_int_clear
        0x00001e4c:    f04f41a0    O..A    MOV      r1,#0x50000000
        0x00001e50:    f8c10218    ....    STR      r0,[r1,#0x218]
        0x00001e54:    4770        pG      BX       lr
        0x00001e56:    0000        ..      MOVS     r0,r0
    i.am_hal_ios_config
    am_hal_ios_config
        0x00001e58:    e92d41f0    -..A    PUSH     {r4-r8,lr}
        0x00001e5c:    4605        .F      MOV      r5,r0
        0x00001e5e:    2001        .       MOVS     r0,#1
        0x00001e60:    f000f9bc    ....    BL       am_hal_pwrctrl_periph_enable ; 0x21dc
        0x00001e64:    68a8        .h      LDR      r0,[r5,#8]
        0x00001e66:    4e1f        .N      LDR      r6,[pc,#124] ; [0x1ee4] = 0x10000084
        0x00001e68:    f10042a0    ...B    ADD      r2,r0,#0x50000000
        0x00001e6c:    f04f44a0    O..D    MOV      r4,#0x50000000
        0x00001e70:    6072        r`      STR      r2,[r6,#4]
        0x00001e72:    68e9        .h      LDR      r1,[r5,#0xc]
        0x00001e74:    f10143a0    ...C    ADD      r3,r1,#0x50000000
        0x00001e78:    1a9a        ..      SUBS     r2,r3,r2
        0x00001e7a:    60b3        .`      STR      r3,[r6,#8]
        0x00001e7c:    7032        2p      STRB     r2,[r6,#0]
        0x00001e7e:    6130        0a      STR      r0,[r6,#0x10]
        0x00001e80:    88aa        ..      LDRH     r2,[r5,#4]
        0x00001e82:    f04f537c    O.|S    MOV      r3,#0x3f000000
        0x00001e86:    08d2        ..      LSRS     r2,r2,#3
        0x00001e88:    ea036202    ...b    AND      r2,r3,r2,LSL #24
        0x00001e8c:    f3c000c4    ....    UBFX     r0,r0,#3,#5
        0x00001e90:    4310        .C      ORRS     r0,r0,r2
        0x00001e92:    08c9        ..      LSRS     r1,r1,#3
        0x00001e94:    141a        ..      ASRS     r2,r3,#16
        0x00001e96:    ea022101    ...!    AND      r1,r2,r1,LSL #8
        0x00001e9a:    4308        .C      ORRS     r0,r0,r1
        0x00001e9c:    f8d41118    ....    LDR      r1,[r4,#0x118]
        0x00001ea0:    f0214100    !..A    BIC      r1,r1,#0x80000000
        0x00001ea4:    f8c41118    ....    STR      r1,[r4,#0x118]
        0x00001ea8:    6829        )h      LDR      r1,[r5,#0]
        0x00001eaa:    f8c41118    ....    STR      r1,[r4,#0x118]
        0x00001eae:    f8c40104    ....    STR      r0,[r4,#0x104]
        0x00001eb2:    f8d40118    ....    LDR      r0,[r4,#0x118]
        0x00001eb6:    f0404000    @..@    ORR      r0,r0,#0x80000000
        0x00001eba:    f8c40118    ....    STR      r0,[r4,#0x118]
        0x00001ebe:    f5047480    ...t    ADD      r4,r4,#0x100
        0x00001ec2:    68af        .h      LDR      r7,[r5,#8]
        0x00001ec4:    f7fef964    ..d.    BL       am_hal_interrupt_master_disable ; 0x190
        0x00001ec8:    2101        .!      MOVS     r1,#1
        0x00001eca:    60e1        .`      STR      r1,[r4,#0xc]
        0x00001ecc:    6027        '`      STR      r7,[r4,#0]
        0x00001ece:    2100        .!      MOVS     r1,#0
        0x00001ed0:    60e1        .`      STR      r1,[r4,#0xc]
        0x00001ed2:    f10741a0    ...A    ADD      r1,r7,#0x50000000
        0x00001ed6:    60f1        .`      STR      r1,[r6,#0xc]
        0x00001ed8:    f7fef95e    ..^.    BL       am_hal_interrupt_master_set ; 0x198
        0x00001edc:    6928        (i      LDR      r0,[r5,#0x10]
        0x00001ede:    60a0        .`      STR      r0,[r4,#8]
        0x00001ee0:    e8bd81f0    ....    POP      {r4-r8,pc}
    $d
        0x00001ee4:    10000084    ....    DCD    268435588
    $t
    i.am_hal_ios_int_clear
    am_hal_ios_int_clear
        0x00001ee8:    f04f41a0    O..A    MOV      r1,#0x50000000
        0x00001eec:    f8c10208    ....    STR      r0,[r1,#0x208]
        0x00001ef0:    4770        pG      BX       lr
    i.am_hal_ios_lram_read
    am_hal_ios_lram_read
        0x00001ef2:    f10040a0    ...@    ADD      r0,r0,#0x50000000
        0x00001ef6:    7800        .x      LDRB     r0,[r0,#0]
        0x00001ef8:    4770        pG      BX       lr
        0x00001efa:    0000        ..      MOVS     r0,r0
    i.am_hal_itm_enable
    am_hal_itm_enable
        0x00001efc:    480d        .H      LDR      r0,[pc,#52] ; [0x1f34] = 0x1000003c
        0x00001efe:    6800        .h      LDR      r0,[r0,#0]
        0x00001f00:    f0100f01    ....    TST      r0,#1
        0x00001f04:    bf18        ..      IT       NE
        0x00001f06:    4770        pG      BXNE     lr
        0x00001f08:    480b        .H      LDR      r0,[pc,#44] ; [0x1f38] = 0xe000edfc
        0x00001f0a:    6801        .h      LDR      r1,[r0,#0]
        0x00001f0c:    f0417180    A..q    ORR      r1,r1,#0x1000000
        0x00001f10:    6001        .`      STR      r1,[r0,#0]
        0x00001f12:    6801        .h      LDR      r1,[r0,#0]
        0x00001f14:    f0117f80    ....    TST      r1,#0x1000000
        0x00001f18:    d0fb        ..      BEQ      0x1f12 ; am_hal_itm_enable + 22
        0x00001f1a:    4909        .I      LDR      r1,[pc,#36] ; [0x1f40] = 0xe0000fb0
        0x00001f1c:    4807        .H      LDR      r0,[pc,#28] ; [0x1f3c] = 0xc5acce55
        0x00001f1e:    6008        .`      STR      r0,[r1,#0]
        0x00001f20:    4908        .I      LDR      r1,[pc,#32] ; [0x1f44] = 0xe0000e40
        0x00001f22:    200f        .       MOVS     r0,#0xf
        0x00001f24:    6008        .`      STR      r0,[r1,#0]
        0x00001f26:    1748        H.      ASRS     r0,r1,#29
        0x00001f28:    4907        .I      LDR      r1,[pc,#28] ; [0x1f48] = 0xe0000e00
        0x00001f2a:    6008        .`      STR      r0,[r1,#0]
        0x00001f2c:    4908        .I      LDR      r1,[pc,#32] ; [0x1f50] = 0xe0000e80
        0x00001f2e:    4807        .H      LDR      r0,[pc,#28] ; [0x1f4c] = 0x150511
        0x00001f30:    6008        .`      STR      r0,[r1,#0]
        0x00001f32:    4770        pG      BX       lr
    $d
        0x00001f34:    1000003c    <...    DCD    268435516
        0x00001f38:    e000edfc    ....    DCD    3758157308
        0x00001f3c:    c5acce55    U...    DCD    3316436565
        0x00001f40:    e0000fb0    ....    DCD    3758100400
        0x00001f44:    e0000e40    @...    DCD    3758100032
        0x00001f48:    e0000e00    ....    DCD    3758099968
        0x00001f4c:    00150511    ....    DCD    1377553
        0x00001f50:    e0000e80    ....    DCD    3758100096
    $t
    i.am_hal_itm_print
    am_hal_itm_print
        0x00001f54:    7802        .x      LDRB     r2,[r0,#0]
        0x00001f56:    2100        .!      MOVS     r1,#0
        0x00001f58:    2a00        .*      CMP      r2,#0
        0x00001f5a:    bf08        ..      IT       EQ
        0x00001f5c:    4770        pG      BXEQ     lr
        0x00001f5e:    1c49        I.      ADDS     r1,r1,#1
        0x00001f60:    5c42        B\      LDRB     r2,[r0,r1]
        0x00001f62:    2a00        .*      CMP      r2,#0
        0x00001f64:    d1fb        ..      BNE      0x1f5e ; am_hal_itm_print + 10
        0x00001f66:    2900        .)      CMP      r1,#0
        0x00001f68:    bf08        ..      IT       EQ
        0x00001f6a:    4770        pG      BXEQ     lr
        0x00001f6c:    f810cb01    ....    LDRB     r12,[r0],#1
        0x00001f70:    f04f4260    O.`B    MOV      r2,#0xe0000000
        0x00001f74:    6813        .h      LDR      r3,[r2,#0]
        0x00001f76:    2b00        .+      CMP      r3,#0
        0x00001f78:    d0fc        ..      BEQ      0x1f74 ; am_hal_itm_print + 32
        0x00001f7a:    f882c000    ....    STRB     r12,[r2,#0]
        0x00001f7e:    1e49        I.      SUBS     r1,r1,#1
        0x00001f80:    d1f4        ..      BNE      0x1f6c ; am_hal_itm_print + 24
        0x00001f82:    4770        pG      BX       lr
    i.am_hal_pwrctrl_bucks_disable
    am_hal_pwrctrl_bucks_disable
        0x00001f84:    4810        .H      LDR      r0,[pc,#64] ; [0x1fc8] = 0x40021000
        0x00001f86:    6841        Ah      LDR      r1,[r0,#4]
        0x00001f88:    f0110f02    ....    TST      r1,#2
        0x00001f8c:    bf02        ..      ITTT     EQ
        0x00001f8e:    6841        Ah      LDREQ    r1,[r0,#4]
        0x00001f90:    f0110f01    ....    TSTEQ    r1,#1
        0x00001f94:    4770        pG      BXEQ     lr
        0x00001f96:    490d        .I      LDR      r1,[pc,#52] ; [0x1fcc] = 0x40020000
        0x00001f98:    68c9        .h      LDR      r1,[r1,#0xc]
        0x00001f9a:    f00101f0    ....    AND      r1,r1,#0xf0
        0x00001f9e:    2920         )      CMP      r1,#0x20
        0x00001fa0:    bf04        ..      ITT      EQ
        0x00001fa2:    6881        .h      LDREQ    r1,[r0,#8]
        0x00001fa4:    f5b17f00    ....    CMPEQ    r1,#0x200
        0x00001fa8:    6801        .h      LDR      r1,[r0,#0]
        0x00001faa:    bf0f        ..      ITEEE    EQ
        0x00001fac:    f0010105    ....    ANDEQ    r1,r1,#5
        0x00001fb0:    f0210102    !...    BICNE    r1,r1,#2
        0x00001fb4:    6001        .`      STRNE    r1,[r0,#0]
        0x00001fb6:    6801        .h      LDRNE    r1,[r0,#0]
        0x00001fb8:    bf18        ..      IT       NE
        0x00001fba:    f0210101    !...    BICNE    r1,r1,#1
        0x00001fbe:    6001        .`      STR      r1,[r0,#0]
        0x00001fc0:    f04f000a    O...    MOV      r0,#0xa
        0x00001fc4:    f7febb2c    ..,.    B        am_hal_flash_delay ; 0x620
    $d
        0x00001fc8:    40021000    ...@    DCD    1073876992
        0x00001fcc:    40020000    ...@    DCD    1073872896
    $t
    i.am_hal_pwrctrl_bucks_enable
    am_hal_pwrctrl_bucks_enable
        0x00001fd0:    480b        .H      LDR      r0,[pc,#44] ; [0x2000] = 0x40021000
        0x00001fd2:    6841        Ah      LDR      r1,[r0,#4]
        0x00001fd4:    f0110f02    ....    TST      r1,#2
        0x00001fd8:    bf1e        ..      ITTT     NE
        0x00001fda:    6841        Ah      LDRNE    r1,[r0,#4]
        0x00001fdc:    f0110f01    ....    TSTNE    r1,#1
        0x00001fe0:    4770        pG      BXNE     lr
        0x00001fe2:    6801        .h      LDR      r1,[r0,#0]
        0x00001fe4:    f0410102    A...    ORR      r1,r1,#2
        0x00001fe8:    6001        .`      STR      r1,[r0,#0]
        0x00001fea:    6801        .h      LDR      r1,[r0,#0]
        0x00001fec:    f0410101    A...    ORR      r1,r1,#1
        0x00001ff0:    6001        .`      STR      r1,[r0,#0]
        0x00001ff2:    2103        .!      MOVS     r1,#3
        0x00001ff4:    6842        Bh      LDR      r2,[r0,#4]
        0x00001ff6:    ea310202    1...    BICS     r2,r1,r2
        0x00001ffa:    d1fb        ..      BNE      0x1ff4 ; am_hal_pwrctrl_bucks_enable + 36
        0x00001ffc:    4770        pG      BX       lr
    $d
        0x00001ffe:    0000        ..      DCW    0
        0x00002000:    40021000    ...@    DCD    1073876992
    $t
    i.am_hal_pwrctrl_bucks_init
    am_hal_pwrctrl_bucks_init
        0x00002004:    480e        .H      LDR      r0,[pc,#56] ; [0x2040] = 0x40021000
        0x00002006:    6841        Ah      LDR      r1,[r0,#4]
        0x00002008:    f0110f02    ....    TST      r1,#2
        0x0000200c:    f04f0103    O...    MOV      r1,#3
        0x00002010:    bf1c        ..      ITT      NE
        0x00002012:    6842        Bh      LDRNE    r2,[r0,#4]
        0x00002014:    f0120f01    ....    TSTNE    r2,#1
        0x00002018:    d10b        ..      BNE      0x2032 ; am_hal_pwrctrl_bucks_init + 46
        0x0000201a:    6802        .h      LDR      r2,[r0,#0]
        0x0000201c:    f0420202    B...    ORR      r2,r2,#2
        0x00002020:    6002        .`      STR      r2,[r0,#0]
        0x00002022:    6802        .h      LDR      r2,[r0,#0]
        0x00002024:    f0420201    B...    ORR      r2,r2,#1
        0x00002028:    6002        .`      STR      r2,[r0,#0]
        0x0000202a:    6842        Bh      LDR      r2,[r0,#4]
        0x0000202c:    ea310202    1...    BICS     r2,r1,r2
        0x00002030:    d1fb        ..      BNE      0x202a ; am_hal_pwrctrl_bucks_init + 38
        0x00002032:    6842        Bh      LDR      r2,[r0,#4]
        0x00002034:    ea310202    1...    BICS     r2,r1,r2
        0x00002038:    d1fb        ..      BNE      0x2032 ; am_hal_pwrctrl_bucks_init + 46
        0x0000203a:    2042        B       MOVS     r0,#0x42
        0x0000203c:    f7febaf0    ....    B        am_hal_flash_delay ; 0x620
    $d
        0x00002040:    40021000    ...@    DCD    1073876992
    $t
    i.am_hal_pwrctrl_low_power_init
    am_hal_pwrctrl_low_power_init
        0x00002044:    4804        .H      LDR      r0,[pc,#16] ; [0x2058] = 0x40021000
        0x00002046:    6981        .i      LDR      r1,[r0,#0x18]
        0x00002048:    f0410106    A...    ORR      r1,r1,#6
        0x0000204c:    6181        .a      STR      r1,[r0,#0x18]
        0x0000204e:    6801        .h      LDR      r1,[r0,#0]
        0x00002050:    f0210104    !...    BIC      r1,r1,#4
        0x00002054:    6001        .`      STR      r1,[r0,#0]
        0x00002056:    4770        pG      BX       lr
    $d
        0x00002058:    40021000    ...@    DCD    1073876992
    $t
    i.am_hal_pwrctrl_memory_enable
    am_hal_pwrctrl_memory_enable
        0x0000205c:    b410        ..      PUSH     {r4}
        0x0000205e:    f8dfc170    ..p.    LDR      r12,[pc,#368] ; [0x21d0] = 0x40021000
        0x00002062:    f5b06f00    ...o    CMP      r0,#0x800
        0x00002066:    d051        Q.      BEQ      0x210c ; am_hal_pwrctrl_memory_enable + 176
        0x00002068:    f5b05fc0    ..._    CMP      r0,#0x1800
        0x0000206c:    d054        T.      BEQ      0x2118 ; am_hal_pwrctrl_memory_enable + 188
        0x0000206e:    2801        .(      CMP      r0,#1
        0x00002070:    d057        W.      BEQ      0x2122 ; am_hal_pwrctrl_memory_enable + 198
        0x00002072:    2803        .(      CMP      r0,#3
        0x00002074:    d05b        [.      BEQ      0x212e ; am_hal_pwrctrl_memory_enable + 210
        0x00002076:    2807        .(      CMP      r0,#7
        0x00002078:    d05f        _.      BEQ      0x213a ; am_hal_pwrctrl_memory_enable + 222
        0x0000207a:    280f        .(      CMP      r0,#0xf
        0x0000207c:    d063        c.      BEQ      0x2146 ; am_hal_pwrctrl_memory_enable + 234
        0x0000207e:    281f        .(      CMP      r0,#0x1f
        0x00002080:    d067        g.      BEQ      0x2152 ; am_hal_pwrctrl_memory_enable + 246
        0x00002082:    283f        ?(      CMP      r0,#0x3f
        0x00002084:    d06b        k.      BEQ      0x215e ; am_hal_pwrctrl_memory_enable + 258
        0x00002086:    287f        .(      CMP      r0,#0x7f
        0x00002088:    d072        r.      BEQ      0x2170 ; am_hal_pwrctrl_memory_enable + 276
        0x0000208a:    28ff        .(      CMP      r0,#0xff
        0x0000208c:    d076        v.      BEQ      0x217c ; am_hal_pwrctrl_memory_enable + 288
        0x0000208e:    f5a07180    ...q    SUB      r1,r0,#0x100
        0x00002092:    39ff        .9      SUBS     r1,r1,#0xff
        0x00002094:    d033        3.      BEQ      0x20fe ; am_hal_pwrctrl_memory_enable + 162
        0x00002096:    f5a07140    ..@q    SUB      r1,r0,#0x300
        0x0000209a:    39ff        .9      SUBS     r1,r1,#0xff
        0x0000209c:    d074        t.      BEQ      0x2188 ; am_hal_pwrctrl_memory_enable + 300
        0x0000209e:    4a4d        MJ      LDR      r2,[pc,#308] ; [0x21d4] = 0x7ff00
        0x000020a0:    ebb02122    .."!    SUBS     r1,r0,r2,ASR #8
        0x000020a4:    bf08        ..      IT       EQ
        0x000020a6:    f24071ff    @..q    MOVEQ    r1,#0x7ff
        0x000020aa:    d075        u.      BEQ      0x2198 ; am_hal_pwrctrl_memory_enable + 316
        0x000020ac:    f1b04f20    .. O    CMP      r0,#0xa0000000
        0x000020b0:    bf04        ..      ITT      EQ
        0x000020b2:    f04f4120    O. A    MOVEQ    r1,#0xa0000000
        0x000020b6:    0a8a        ..      LSREQ    r2,r1,#10
        0x000020b8:    d06e        n.      BEQ      0x2198 ; am_hal_pwrctrl_memory_enable + 316
        0x000020ba:    f06f4120    o. A    MVN      r1,#0xa0000000
        0x000020be:    4288        .B      CMP      r0,r1
        0x000020c0:    d16c        l.      BNE      0x219c ; am_hal_pwrctrl_memory_enable + 320
        0x000020c2:    2100        .!      MOVS     r1,#0
        0x000020c4:    43c3        .C      MVNS     r3,r0
        0x000020c6:    460a        .F      MOV      r2,r1
        0x000020c8:    ea5f2093    _..     LSRS.W   r0,r3,#10
        0x000020cc:    f8dc4010    ...@    LDR      r4,[r12,#0x10]
        0x000020d0:    ea240303    $...    BIC      r3,r4,r3
        0x000020d4:    f8cc3010    ...0    STR      r3,[r12,#0x10]
        0x000020d8:    b129        ).      CBZ      r1,0x20e6 ; am_hal_pwrctrl_memory_enable + 138
        0x000020da:    bf00        ..      NOP      
        0x000020dc:    f8dc3010    ...0    LDR      r3,[r12,#0x10]
        0x000020e0:    4319        .C      ORRS     r1,r1,r3
        0x000020e2:    f8cc1010    ....    STR      r1,[r12,#0x10]
        0x000020e6:    2800        .(      CMP      r0,#0
        0x000020e8:    bf18        ..      IT       NE
        0x000020ea:    21c7        .!      MOVNE    r1,#0xc7
        0x000020ec:    d05c        \.      BEQ      0x21a8 ; am_hal_pwrctrl_memory_enable + 332
        0x000020ee:    bf00        ..      NOP      
        0x000020f0:    f8dc3014    ...0    LDR      r3,[r12,#0x14]
        0x000020f4:    4203        .B      TST      r3,r0
        0x000020f6:    d055        U.      BEQ      0x21a4 ; am_hal_pwrctrl_memory_enable + 328
        0x000020f8:    1e49        I.      SUBS     r1,r1,#1
        0x000020fa:    d1f9        ..      BNE      0x20f0 ; am_hal_pwrctrl_memory_enable + 148
        0x000020fc:    e062        b.      B        0x21c4 ; am_hal_pwrctrl_memory_enable + 360
        0x000020fe:    f24011ff    @...    MOV      r1,#0x1ff
        0x00002102:    f44f63c0    O..c    MOV      r3,#0x600
        0x00002106:    020a        ..      LSLS     r2,r1,#8
        0x00002108:    0218        ..      LSLS     r0,r3,#8
        0x0000210a:    e7df        ..      B        0x20cc ; am_hal_pwrctrl_memory_enable + 112
        0x0000210c:    f44f6100    O..a    MOV      r1,#0x800
        0x00002110:    004b        K.      LSLS     r3,r1,#1
        0x00002112:    2220         "      MOVS     r2,#0x20
        0x00002114:    2040        @       MOVS     r0,#0x40
        0x00002116:    e7d9        ..      B        0x20cc ; am_hal_pwrctrl_memory_enable + 112
        0x00002118:    2260        `"      MOVS     r2,#0x60
        0x0000211a:    f44f51c0    O..Q    MOV      r1,#0x1800
        0x0000211e:    2000        .       MOVS     r0,#0
        0x00002120:    e7dc        ..      B        0x20dc ; am_hal_pwrctrl_memory_enable + 128
        0x00002122:    2101        .!      MOVS     r1,#1
        0x00002124:    f24073fe    @..s    MOV      r3,#0x7fe
        0x00002128:    020a        ..      LSLS     r2,r1,#8
        0x0000212a:    0218        ..      LSLS     r0,r3,#8
        0x0000212c:    e7ce        ..      B        0x20cc ; am_hal_pwrctrl_memory_enable + 112
        0x0000212e:    2103        .!      MOVS     r1,#3
        0x00002130:    f24073fc    @..s    MOV      r3,#0x7fc
        0x00002134:    020a        ..      LSLS     r2,r1,#8
        0x00002136:    0218        ..      LSLS     r0,r3,#8
        0x00002138:    e7c8        ..      B        0x20cc ; am_hal_pwrctrl_memory_enable + 112
        0x0000213a:    2107        .!      MOVS     r1,#7
        0x0000213c:    f44f63ff    O..c    MOV      r3,#0x7f8
        0x00002140:    020a        ..      LSLS     r2,r1,#8
        0x00002142:    0218        ..      LSLS     r0,r3,#8
        0x00002144:    e7c2        ..      B        0x20cc ; am_hal_pwrctrl_memory_enable + 112
        0x00002146:    210f        .!      MOVS     r1,#0xf
        0x00002148:    f44f63fe    O..c    MOV      r3,#0x7f0
        0x0000214c:    020a        ..      LSLS     r2,r1,#8
        0x0000214e:    0218        ..      LSLS     r0,r3,#8
        0x00002150:    e7bc        ..      B        0x20cc ; am_hal_pwrctrl_memory_enable + 112
        0x00002152:    211f        .!      MOVS     r1,#0x1f
        0x00002154:    f44f63fc    O..c    MOV      r3,#0x7e0
        0x00002158:    020a        ..      LSLS     r2,r1,#8
        0x0000215a:    0218        ..      LSLS     r0,r3,#8
        0x0000215c:    e7b6        ..      B        0x20cc ; am_hal_pwrctrl_memory_enable + 112
        0x0000215e:    213f        ?!      MOVS     r1,#0x3f
        0x00002160:    f44f63f8    O..c    MOV      r3,#0x7c0
        0x00002164:    020a        ..      LSLS     r2,r1,#8
        0x00002166:    0218        ..      LSLS     r0,r3,#8
        0x00002168:    e7b0        ..      B        0x20cc ; am_hal_pwrctrl_memory_enable + 112
        0x0000216a:    e001        ..      B        0x2170 ; am_hal_pwrctrl_memory_enable + 276
        0x0000216c:    e006        ..      B        0x217c ; am_hal_pwrctrl_memory_enable + 288
        0x0000216e:    e00b        ..      B        0x2188 ; am_hal_pwrctrl_memory_enable + 300
        0x00002170:    217f        .!      MOVS     r1,#0x7f
        0x00002172:    f44f63f0    O..c    MOV      r3,#0x780
        0x00002176:    020a        ..      LSLS     r2,r1,#8
        0x00002178:    0218        ..      LSLS     r0,r3,#8
        0x0000217a:    e7a7        ..      B        0x20cc ; am_hal_pwrctrl_memory_enable + 112
        0x0000217c:    21ff        .!      MOVS     r1,#0xff
        0x0000217e:    f44f63e0    O..c    MOV      r3,#0x700
        0x00002182:    020a        ..      LSLS     r2,r1,#8
        0x00002184:    0218        ..      LSLS     r0,r3,#8
        0x00002186:    e7a1        ..      B        0x20cc ; am_hal_pwrctrl_memory_enable + 112
        0x00002188:    f24031ff    @..1    MOV      r1,#0x3ff
        0x0000218c:    1c4b        K.      ADDS     r3,r1,#1
        0x0000218e:    020a        ..      LSLS     r2,r1,#8
        0x00002190:    0218        ..      LSLS     r0,r3,#8
        0x00002192:    e79b        ..      B        0x20cc ; am_hal_pwrctrl_memory_enable + 112
        0x00002194:    e000        ..      B        0x2198 ; am_hal_pwrctrl_memory_enable + 316
        0x00002196:    e001        ..      B        0x219c ; am_hal_pwrctrl_memory_enable + 320
        0x00002198:    2000        .       MOVS     r0,#0
        0x0000219a:    e79f        ..      B        0x20dc ; am_hal_pwrctrl_memory_enable + 128
        0x0000219c:    490e        .I      LDR      r1,[pc,#56] ; [0x21d8] = 0xa0001fff
        0x0000219e:    4288        .B      CMP      r0,r1
        0x000021a0:    d0fa        ..      BEQ      0x2198 ; am_hal_pwrctrl_memory_enable + 316
        0x000021a2:    e00f        ..      B        0x21c4 ; am_hal_pwrctrl_memory_enable + 360
        0x000021a4:    2900        .)      CMP      r1,#0
        0x000021a6:    dd0d        ..      BLE      0x21c4 ; am_hal_pwrctrl_memory_enable + 360
        0x000021a8:    2a00        .*      CMP      r2,#0
        0x000021aa:    bf18        ..      IT       NE
        0x000021ac:    20c7        .       MOVNE    r0,#0xc7
        0x000021ae:    d00c        ..      BEQ      0x21ca ; am_hal_pwrctrl_memory_enable + 366
        0x000021b0:    f8dc1014    ....    LDR      r1,[r12,#0x14]
        0x000021b4:    ea320101    2...    BICS     r1,r2,r1
        0x000021b8:    d002        ..      BEQ      0x21c0 ; am_hal_pwrctrl_memory_enable + 356
        0x000021ba:    1e40        @.      SUBS     r0,r0,#1
        0x000021bc:    d1f8        ..      BNE      0x21b0 ; am_hal_pwrctrl_memory_enable + 340
        0x000021be:    e001        ..      B        0x21c4 ; am_hal_pwrctrl_memory_enable + 360
        0x000021c0:    2800        .(      CMP      r0,#0
        0x000021c2:    dc02        ..      BGT      0x21ca ; am_hal_pwrctrl_memory_enable + 366
        0x000021c4:    bc10        ..      POP      {r4}
        0x000021c6:    2000        .       MOVS     r0,#0
        0x000021c8:    4770        pG      BX       lr
        0x000021ca:    bc10        ..      POP      {r4}
        0x000021cc:    2001        .       MOVS     r0,#1
        0x000021ce:    4770        pG      BX       lr
    $d
        0x000021d0:    40021000    ...@    DCD    1073876992
        0x000021d4:    0007ff00    ....    DCD    524032
        0x000021d8:    a0001fff    ....    DCD    2684362751
    $t
    i.am_hal_pwrctrl_periph_enable
    am_hal_pwrctrl_periph_enable
        0x000021dc:    b538        8.      PUSH     {r3-r5,lr}
        0x000021de:    0004        ..      MOVS     r4,r0
        0x000021e0:    d002        ..      BEQ      0x21e8 ; am_hal_pwrctrl_periph_enable + 12
        0x000021e2:    1e60        `.      SUBS     r0,r4,#1
        0x000021e4:    4204        .B      TST      r4,r0
        0x000021e6:    d004        ..      BEQ      0x21f2 ; am_hal_pwrctrl_periph_enable + 22
        0x000021e8:    a218        ..      ADR      r2,{pc}+0x64 ; 0x224c
        0x000021ea:    215f        _!      MOVS     r1,#0x5f
        0x000021ec:    a024        $.      ADR      r0,{pc}+0x94 ; 0x2280
        0x000021ee:    f7fefa15    ....    BL       am_hal_debug_error ; 0x61c
        0x000021f2:    f7fdffcd    ....    BL       am_hal_interrupt_master_disable ; 0x190
        0x000021f6:    4d27        'M      LDR      r5,[pc,#156] ; [0x2294] = 0x40021000
        0x000021f8:    9000        ..      STR      r0,[sp,#0]
        0x000021fa:    68a8        .h      LDR      r0,[r5,#8]
        0x000021fc:    4320         C      ORRS     r0,r0,r4
        0x000021fe:    60a8        .`      STR      r0,[r5,#8]
        0x00002200:    9800        ..      LDR      r0,[sp,#0]
        0x00002202:    f7fdffc9    ....    BL       am_hal_interrupt_master_set ; 0x198
        0x00002206:    200e        .       MOVS     r0,#0xe
        0x00002208:    f7fefa0a    ....    BL       am_hal_flash_delay ; 0x620
        0x0000220c:    f0140f0e    ....    TST      r4,#0xe
        0x00002210:    bf18        ..      IT       NE
        0x00002212:    2004        .       MOVNE    r0,#4
        0x00002214:    d003        ..      BEQ      0x221e ; am_hal_pwrctrl_periph_enable + 66
        0x00002216:    6969        ii      LDR      r1,[r5,#0x14]
        0x00002218:    4201        .B      TST      r1,r0
        0x0000221a:    d0fc        ..      BEQ      0x2216 ; am_hal_pwrctrl_periph_enable + 58
        0x0000221c:    bd38        8.      POP      {r3-r5,pc}
        0x0000221e:    f0140f70    ..p.    TST      r4,#0x70
        0x00002222:    bf18        ..      IT       NE
        0x00002224:    2008        .       MOVNE    r0,#8
        0x00002226:    d1f6        ..      BNE      0x2216 ; am_hal_pwrctrl_periph_enable + 58
        0x00002228:    f2401081    @...    MOV      r0,#0x181
        0x0000222c:    4204        .B      TST      r4,r0
        0x0000222e:    bf18        ..      IT       NE
        0x00002230:    2002        .       MOVNE    r0,#2
        0x00002232:    d1f0        ..      BNE      0x2216 ; am_hal_pwrctrl_periph_enable + 58
        0x00002234:    f4147f00    ....    TST      r4,#0x200
        0x00002238:    bf18        ..      IT       NE
        0x0000223a:    2080        .       MOVNE    r0,#0x80
        0x0000223c:    d1eb        ..      BNE      0x2216 ; am_hal_pwrctrl_periph_enable + 58
        0x0000223e:    f4146f80    ...o    TST      r4,#0x400
        0x00002242:    bf14        ..      ITE      NE
        0x00002244:    2010        .       MOVNE    r0,#0x10
        0x00002246:    f04f30ff    O..0    MOVEQ    r0,#0xffffffff
        0x0000224a:    e7e4        ..      B        0x2216 ; am_hal_pwrctrl_periph_enable + 58
    $d
        0x0000224c:    6e6e6143    Cann    DCD    1852727619
        0x00002250:    6520746f    ot e    DCD    1696625775
        0x00002254:    6c62616e    nabl    DCD    1818386798
        0x00002258:    6f6d2065    e mo    DCD    1869422693
        0x0000225c:    74206572    re t    DCD    1948280178
        0x00002260:    206e6168    han     DCD    544104808
        0x00002264:    20656e6f    one     DCD    543518319
        0x00002268:    69726570    peri    DCD    1769104752
        0x0000226c:    72656870    pher    DCD    1919248496
        0x00002270:    61206c61    al a    DCD    1629514849
        0x00002274:    20612074    t a     DCD    543236212
        0x00002278:    656d6974    time    DCD    1701669236
        0x0000227c:    0000002e    ....    DCD    46
        0x00002280:    612f2e2e    ../a    DCD    1630481966
        0x00002284:    61685f6d    m_ha    DCD    1634230125
        0x00002288:    77705f6c    l_pw    DCD    2003853164
        0x0000228c:    72746372    rctr    DCD    1920230258
        0x00002290:    00632e6c    l.c.    DCD    6499948
        0x00002294:    40021000    ...@    DCD    1073876992
    $t
    i.am_hal_queue_init
    am_hal_queue_init
        0x00002298:    f04f0c00    O...    MOV      r12,#0
        0x0000229c:    f8c0c000    ....    STR      r12,[r0,#0]
        0x000022a0:    f8c0c004    ....    STR      r12,[r0,#4]
        0x000022a4:    e9c02104    ...!    STRD     r2,r1,[r0,#0x10]
        0x000022a8:    e9c0c302    ....    STRD     r12,r3,[r0,#8]
        0x000022ac:    4770        pG      BX       lr
    i.am_hal_queue_item_add
    am_hal_queue_item_add
        0x000022ae:    e92d41f0    -..A    PUSH     {r4-r8,lr}
        0x000022b2:    4604        .F      MOV      r4,r0
        0x000022b4:    6900        .i      LDR      r0,[r0,#0x10]
        0x000022b6:    2600        .&      MOVS     r6,#0
        0x000022b8:    fb00f502    ....    MUL      r5,r0,r2
        0x000022bc:    460f        .F      MOV      r7,r1
        0x000022be:    f7fdff67    ..g.    BL       am_hal_interrupt_master_disable ; 0x190
        0x000022c2:    4603        .F      MOV      r3,r0
        0x000022c4:    e9d41002    ....    LDRD     r1,r0,[r4,#8]
        0x000022c8:    1a40        @.      SUBS     r0,r0,r1
        0x000022ca:    42a8        .B      CMP      r0,r5
        0x000022cc:    d338        8.      BCC      0x2340 ; am_hal_queue_item_add + 146
        0x000022ce:    b39d        ..      CBZ      r5,0x2338 ; am_hal_queue_item_add + 138
        0x000022d0:    1e78        x.      SUBS     r0,r7,#1
        0x000022d2:    f0150f01    ....    TST      r5,#1
        0x000022d6:    d00e        ..      BEQ      0x22f6 ; am_hal_queue_item_add + 72
        0x000022d8:    f8d4c000    ....    LDR      r12,[r4,#0]
        0x000022dc:    6962        bi      LDR      r2,[r4,#0x14]
        0x000022de:    f8101f01    ....    LDRB     r1,[r0,#1]!
        0x000022e2:    f802100c    ....    STRB     r1,[r2,r12]
        0x000022e6:    6821        !h      LDR      r1,[r4,#0]
        0x000022e8:    68e2        .h      LDR      r2,[r4,#0xc]
        0x000022ea:    1c49        I.      ADDS     r1,r1,#1
        0x000022ec:    fbb1fcf2    ....    UDIV     r12,r1,r2
        0x000022f0:    fb02111c    ....    MLS      r1,r2,r12,r1
        0x000022f4:    6021        !`      STR      r1,[r4,#0]
        0x000022f6:    0869        i.      LSRS     r1,r5,#1
        0x000022f8:    d01e        ..      BEQ      0x2338 ; am_hal_queue_item_add + 138
        0x000022fa:    f8d4c014    ....    LDR      r12,[r4,#0x14]
        0x000022fe:    6826        &h      LDR      r6,[r4,#0]
        0x00002300:    7842        Bx      LDRB     r2,[r0,#1]
        0x00002302:    f80c2006    ...     STRB     r2,[r12,r6]
        0x00002306:    6822        "h      LDR      r2,[r4,#0]
        0x00002308:    f8d4c00c    ....    LDR      r12,[r4,#0xc]
        0x0000230c:    1c52        R.      ADDS     r2,r2,#1
        0x0000230e:    fbb2f6fc    ....    UDIV     r6,r2,r12
        0x00002312:    fb0c2216    ..."    MLS      r2,r12,r6,r2
        0x00002316:    6022        "`      STR      r2,[r4,#0]
        0x00002318:    6966        fi      LDR      r6,[r4,#0x14]
        0x0000231a:    f810cf02    ....    LDRB     r12,[r0,#2]!
        0x0000231e:    f806c002    ....    STRB     r12,[r6,r2]
        0x00002322:    6822        "h      LDR      r2,[r4,#0]
        0x00002324:    f8d4c00c    ....    LDR      r12,[r4,#0xc]
        0x00002328:    1c52        R.      ADDS     r2,r2,#1
        0x0000232a:    fbb2f6fc    ....    UDIV     r6,r2,r12
        0x0000232e:    fb0c2216    ..."    MLS      r2,r12,r6,r2
        0x00002332:    6022        "`      STR      r2,[r4,#0]
        0x00002334:    1e49        I.      SUBS     r1,r1,#1
        0x00002336:    d1e0        ..      BNE      0x22fa ; am_hal_queue_item_add + 76
        0x00002338:    68a0        .h      LDR      r0,[r4,#8]
        0x0000233a:    2601        .&      MOVS     r6,#1
        0x0000233c:    4428        (D      ADD      r0,r0,r5
        0x0000233e:    60a0        .`      STR      r0,[r4,#8]
        0x00002340:    4618        .F      MOV      r0,r3
        0x00002342:    f7fdff29    ..).    BL       am_hal_interrupt_master_set ; 0x198
        0x00002346:    4630        0F      MOV      r0,r6
        0x00002348:    e8bd81f0    ....    POP      {r4-r8,pc}
    i.am_hal_queue_item_get
    am_hal_queue_item_get
        0x0000234c:    e92d41f0    -..A    PUSH     {r4-r8,lr}
        0x00002350:    4604        .F      MOV      r4,r0
        0x00002352:    6900        .i      LDR      r0,[r0,#0x10]
        0x00002354:    2600        .&      MOVS     r6,#0
        0x00002356:    fb00f502    ....    MUL      r5,r0,r2
        0x0000235a:    460f        .F      MOV      r7,r1
        0x0000235c:    f7fdff18    ....    BL       am_hal_interrupt_master_disable ; 0x190
        0x00002360:    4603        .F      MOV      r3,r0
        0x00002362:    68a0        .h      LDR      r0,[r4,#8]
        0x00002364:    42a8        .B      CMP      r0,r5
        0x00002366:    d337        7.      BCC      0x23d8 ; am_hal_queue_item_get + 140
        0x00002368:    b395        ..      CBZ      r5,0x23d0 ; am_hal_queue_item_get + 132
        0x0000236a:    1e78        x.      SUBS     r0,r7,#1
        0x0000236c:    f0150f01    ....    TST      r5,#1
        0x00002370:    d00c        ..      BEQ      0x238c ; am_hal_queue_item_get + 64
        0x00002372:    6862        bh      LDR      r2,[r4,#4]
        0x00002374:    6961        ai      LDR      r1,[r4,#0x14]
        0x00002376:    5c89        .\      LDRB     r1,[r1,r2]
        0x00002378:    f8001f01    ....    STRB     r1,[r0,#1]!
        0x0000237c:    6861        ah      LDR      r1,[r4,#4]
        0x0000237e:    68e2        .h      LDR      r2,[r4,#0xc]
        0x00002380:    1c49        I.      ADDS     r1,r1,#1
        0x00002382:    fbb1fcf2    ....    UDIV     r12,r1,r2
        0x00002386:    fb02111c    ....    MLS      r1,r2,r12,r1
        0x0000238a:    6061        a`      STR      r1,[r4,#4]
        0x0000238c:    0869        i.      LSRS     r1,r5,#1
        0x0000238e:    d01f        ..      BEQ      0x23d0 ; am_hal_queue_item_get + 132
        0x00002390:    f8d4c004    ....    LDR      r12,[r4,#4]
        0x00002394:    6962        bi      LDR      r2,[r4,#0x14]
        0x00002396:    f812200c    ...     LDRB     r2,[r2,r12]
        0x0000239a:    7042        Bp      STRB     r2,[r0,#1]
        0x0000239c:    6862        bh      LDR      r2,[r4,#4]
        0x0000239e:    f8d4c00c    ....    LDR      r12,[r4,#0xc]
        0x000023a2:    1c52        R.      ADDS     r2,r2,#1
        0x000023a4:    fbb2f6fc    ....    UDIV     r6,r2,r12
        0x000023a8:    fb0c2216    ..."    MLS      r2,r12,r6,r2
        0x000023ac:    6062        b`      STR      r2,[r4,#4]
        0x000023ae:    f8d4c014    ....    LDR      r12,[r4,#0x14]
        0x000023b2:    f81c2002    ...     LDRB     r2,[r12,r2]
        0x000023b6:    f8002f02    .../    STRB     r2,[r0,#2]!
        0x000023ba:    6862        bh      LDR      r2,[r4,#4]
        0x000023bc:    f8d4c00c    ....    LDR      r12,[r4,#0xc]
        0x000023c0:    1c52        R.      ADDS     r2,r2,#1
        0x000023c2:    fbb2f6fc    ....    UDIV     r6,r2,r12
        0x000023c6:    fb0c2216    ..."    MLS      r2,r12,r6,r2
        0x000023ca:    6062        b`      STR      r2,[r4,#4]
        0x000023cc:    1e49        I.      SUBS     r1,r1,#1
        0x000023ce:    d1df        ..      BNE      0x2390 ; am_hal_queue_item_get + 68
        0x000023d0:    68a0        .h      LDR      r0,[r4,#8]
        0x000023d2:    1b40        @.      SUBS     r0,r0,r5
        0x000023d4:    2601        .&      MOVS     r6,#1
        0x000023d6:    60a0        .`      STR      r0,[r4,#8]
        0x000023d8:    4618        .F      MOV      r0,r3
        0x000023da:    f7fdfedd    ....    BL       am_hal_interrupt_master_set ; 0x198
        0x000023de:    4630        0F      MOV      r0,r6
        0x000023e0:    e8bd81f0    ....    POP      {r4-r8,pc}
    i.am_hal_rtc_osc_disable
    am_hal_rtc_osc_disable
        0x000023e4:    f04f2040    O.@     MOV      r0,#0x40004000
        0x000023e8:    6d01        .m      LDR      r1,[r0,#0x50]
        0x000023ea:    f0410110    A...    ORR      r1,r1,#0x10
        0x000023ee:    6501        .e      STR      r1,[r0,#0x50]
        0x000023f0:    4770        pG      BX       lr
    i.am_hal_rtc_osc_select
    am_hal_rtc_osc_select
        0x000023f2:    f04f2140    O.@!    MOV      r1,#0x40004000
        0x000023f6:    2800        .(      CMP      r0,#0
        0x000023f8:    68c8        .h      LDR      r0,[r1,#0xc]
        0x000023fa:    bf14        ..      ITE      NE
        0x000023fc:    f0400080    @...    ORRNE    r0,r0,#0x80
        0x00002400:    f0200080     ...    BICEQ    r0,r0,#0x80
        0x00002404:    60c8        .`      STR      r0,[r1,#0xc]
        0x00002406:    4770        pG      BX       lr
    i.am_hal_sysctrl_sleep
    am_hal_sysctrl_sleep
        0x00002408:    b5f8        ..      PUSH     {r3-r7,lr}
        0x0000240a:    4604        .F      MOV      r4,r0
        0x0000240c:    f7fdfec0    ....    BL       am_hal_interrupt_master_disable ; 0x190
        0x00002410:    4934        4I      LDR      r1,[pc,#208] ; [0x24e4] = 0xe000ed10
        0x00002412:    4605        .F      MOV      r5,r0
        0x00002414:    b12c        ,.      CBZ      r4,0x2422 ; am_hal_sysctrl_sleep + 26
        0x00002416:    4834        4H      LDR      r0,[pc,#208] ; [0x24e8] = 0x40020000
        0x00002418:    f8d02250    ..P"    LDR      r2,[r0,#0x250]
        0x0000241c:    f0120f01    ....    TST      r2,#1
        0x00002420:    d009        ..      BEQ      0x2436 ; am_hal_sysctrl_sleep + 46
        0x00002422:    6808        .h      LDR      r0,[r1,#0]
        0x00002424:    f0200004     ...    BIC      r0,r0,#4
        0x00002428:    6008        .`      STR      r0,[r1,#0]
        0x0000242a:    bf30        0.      WFI      
        0x0000242c:    4628        (F      MOV      r0,r5
        0x0000242e:    e8bd40f8    ...@    POP      {r3-r7,lr}
        0x00002432:    f7fdbeb1    ....    B        am_hal_interrupt_master_set ; 0x198
        0x00002436:    680a        .h      LDR      r2,[r1,#0]
        0x00002438:    f0420204    B...    ORR      r2,r2,#4
        0x0000243c:    600a        .`      STR      r2,[r1,#0]
        0x0000243e:    68c0        .h      LDR      r0,[r0,#0xc]
        0x00002440:    f00000f0    ....    AND      r0,r0,#0xf0
        0x00002444:    2820         (      CMP      r0,#0x20
        0x00002446:    bf14        ..      ITE      NE
        0x00002448:    2000        .       MOVNE    r0,#0
        0x0000244a:    2002        .       MOVEQ    r0,#2
        0x0000244c:    4c27        'L      LDR      r4,[pc,#156] ; [0x24ec] = 0x10000098
        0x0000244e:    60e0        .`      STR      r0,[r4,#0xc]
        0x00002450:    6861        ah      LDR      r1,[r4,#4]
        0x00002452:    1e49        I.      SUBS     r1,r1,#1
        0x00002454:    2903        .)      CMP      r1,#3
        0x00002456:    bf94        ..      ITE      LS
        0x00002458:    2104        .!      MOVLS    r1,#4
        0x0000245a:    2100        .!      MOVHI    r1,#0
        0x0000245c:    4301        .C      ORRS     r1,r1,r0
        0x0000245e:    4824        $H      LDR      r0,[pc,#144] ; [0x24f0] = 0x40021000
        0x00002460:    60e1        .`      STR      r1,[r4,#0xc]
        0x00002462:    6802        .h      LDR      r2,[r0,#0]
        0x00002464:    f0120203    ....    ANDS     r2,r2,#3
        0x00002468:    bf18        ..      IT       NE
        0x0000246a:    2201        ."      MOVNE    r2,#1
        0x0000246c:    4311        .C      ORRS     r1,r1,r2
        0x0000246e:    60e1        .`      STR      r1,[r4,#0xc]
        0x00002470:    6880        .h      LDR      r0,[r0,#8]
        0x00002472:    f24052ff    @..R    MOV      r2,#0x5ff
        0x00002476:    4210        .B      TST      r0,r2
        0x00002478:    bf14        ..      ITE      NE
        0x0000247a:    2000        .       MOVNE    r0,#0
        0x0000247c:    2008        .       MOVEQ    r0,#8
        0x0000247e:    4308        .C      ORRS     r0,r0,r1
        0x00002480:    2600        .&      MOVS     r6,#0
        0x00002482:    2101        .!      MOVS     r1,#1
        0x00002484:    60e0        .`      STR      r0,[r4,#0xc]
        0x00002486:    280f        .(      CMP      r0,#0xf
        0x00002488:    bf1c        ..      ITT      NE
        0x0000248a:    bf30        0.      WFINE    
        0x0000248c:    7021        !p      STRBNE   r1,[r4,#0]
        0x0000248e:    d1cd        ..      BNE      0x242c ; am_hal_sysctrl_sleep + 36
        0x00002490:    6860        `h      LDR      r0,[r4,#4]
        0x00002492:    f04f31ff    O..1    MOV      r1,#0xffffffff
        0x00002496:    1e40        @.      SUBS     r0,r0,#1
        0x00002498:    9000        ..      STR      r0,[sp,#0]
        0x0000249a:    f7fef855    ..U.    BL       am_hal_ctimer_clear ; 0x548
        0x0000249e:    2300        .#      MOVS     r3,#0
        0x000024a0:    f04f1201    O...    MOV      r2,#0x10001
        0x000024a4:    1e59        Y.      SUBS     r1,r3,#1
        0x000024a6:    9800        ..      LDR      r0,[sp,#0]
        0x000024a8:    f7fef862    ..b.    BL       am_hal_ctimer_period_set ; 0x570
        0x000024ac:    f7fffd6a    ..j.    BL       am_hal_pwrctrl_bucks_disable ; 0x1f84
        0x000024b0:    bf30        0.      WFI      
        0x000024b2:    2107        .!      MOVS     r1,#7
        0x000024b4:    2231        1"      MOVS     r2,#0x31
        0x000024b6:    4608        .F      MOV      r0,r1
        0x000024b8:    f000fe92    ....    BL       setBuckZX ; 0x31e0
        0x000024bc:    201c        .       MOVS     r0,#0x1c
        0x000024be:    f7fef8af    ....    BL       am_hal_flash_delay ; 0x620
        0x000024c2:    f7fffd85    ....    BL       am_hal_pwrctrl_bucks_enable ; 0x1fd0
        0x000024c6:    6860        `h      LDR      r0,[r4,#4]
        0x000024c8:    1e40        @.      SUBS     r0,r0,#1
        0x000024ca:    9000        ..      STR      r0,[sp,#0]
        0x000024cc:    7026        &p      STRB     r6,[r4,#0]
        0x000024ce:    60a6        .`      STR      r6,[r4,#8]
        0x000024d0:    204c        L       MOVS     r0,#0x4c
        0x000024d2:    f7fef8a5    ....    BL       am_hal_flash_delay ; 0x620
        0x000024d6:    f04f31ff    O..1    MOV      r1,#0xffffffff
        0x000024da:    9800        ..      LDR      r0,[sp,#0]
        0x000024dc:    f7fef886    ....    BL       am_hal_ctimer_start ; 0x5ec
        0x000024e0:    e7a4        ..      B        0x242c ; am_hal_sysctrl_sleep + 36
    $d
        0x000024e2:    0000        ..      DCW    0
        0x000024e4:    e000ed10    ....    DCD    3758157072
        0x000024e8:    40020000    ...@    DCD    1073872896
        0x000024ec:    10000098    ....    DCD    268435608
        0x000024f0:    40021000    ...@    DCD    1073876992
    $t
    i.am_hal_tpiu_enable
    am_hal_tpiu_enable
        0x000024f4:    e92d41f0    -..A    PUSH     {r4-r8,lr}
        0x000024f8:    4c1b        .L      LDR      r4,[pc,#108] ; [0x2568] = 0xe0040000
        0x000024fa:    2700        .'      MOVS     r7,#0
        0x000024fc:    6805        .h      LDR      r5,[r0,#0]
        0x000024fe:    f8c47304    ...s    STR      r7,[r4,#0x304]
        0x00002502:    4e1a        .N      LDR      r6,[pc,#104] ; [0x256c] = 0x40020000
        0x00002504:    2101        .!      MOVS     r1,#1
        0x00002506:    b30d        ..      CBZ      r5,0x254c ; am_hal_tpiu_enable + 88
        0x00002508:    6061        a`      STR      r1,[r4,#4]
        0x0000250a:    4919        .I      LDR      r1,[pc,#100] ; [0x2570] = 0x1da381
        0x0000250c:    f5a54061    ..a@    SUB      r0,r5,#0xe100
        0x00002510:    4288        .B      CMP      r0,r1
        0x00002512:    bf28        (.      IT       CS
        0x00002514:    4d17        .M      LDRCS    r5,[pc,#92] ; [0x2574] = 0xf4240
        0x00002516:    f7fdffcf    ....    BL       am_hal_clkgen_sysclk_get ; 0x4b8
        0x0000251a:    f1b03fff    ...?    CMP      r0,#0xffffffff
        0x0000251e:    bf1d        ..      ITTTE    NE
        0x00002520:    08c0        ..      LSRNE    r0,r0,#3
        0x00002522:    fbb0f0f5    ....    UDIVNE   r0,r0,r5
        0x00002526:    1e40        @.      SUBNE    r0,r0,#1
        0x00002528:    2005        .       MOVEQ    r0,#5
        0x0000252a:    b280        ..      UXTH     r0,r0
        0x0000252c:    6120         a      STR      r0,[r4,#0x10]
        0x0000252e:    2002        .       MOVS     r0,#2
        0x00002530:    f8c400f0    ....    STR      r0,[r4,#0xf0]
        0x00002534:    4810        .H      LDR      r0,[pc,#64] ; [0x2578] = 0xe0040f00
        0x00002536:    6007        .`      STR      r7,[r0,#0]
        0x00002538:    f2402001    @..     MOV      r0,#0x201
        0x0000253c:    f8c60250    ..P.    STR      r0,[r6,#0x250]
        0x00002540:    e8bd41f0    ...A    POP      {r4-r8,lr}
        0x00002544:    f44f7047    O.Gp    MOV      r0,#0x31c
        0x00002548:    f7feb86a    ..j.    B        am_hal_flash_delay ; 0x620
        0x0000254c:    6902        .i      LDR      r2,[r0,#0x10]
        0x0000254e:    6122        "a      STR      r2,[r4,#0x10]
        0x00002550:    6882        .h      LDR      r2,[r0,#8]
        0x00002552:    f8c420f0    ...     STR      r2,[r4,#0xf0]
        0x00002556:    7b02        .{      LDRB     r2,[r0,#0xc]
        0x00002558:    1e52        R.      SUBS     r2,r2,#1
        0x0000255a:    4091        .@      LSLS     r1,r1,r2
        0x0000255c:    6061        a`      STR      r1,[r4,#4]
        0x0000255e:    f8d61250    ..P.    LDR      r1,[r6,#0x250]
        0x00002562:    6840        @h      LDR      r0,[r0,#4]
        0x00002564:    4308        .C      ORRS     r0,r0,r1
        0x00002566:    e7e9        ..      B        0x253c ; am_hal_tpiu_enable + 72
    $d
        0x00002568:    e0040000    ....    DCD    3758358528
        0x0000256c:    40020000    ...@    DCD    1073872896
        0x00002570:    001da381    ....    DCD    1942401
        0x00002574:    000f4240    @B..    DCD    1000000
        0x00002578:    e0040f00    ....    DCD    3758362368
    $t
    i.am_hal_vcomp_disable
    am_hal_vcomp_disable
        0x0000257c:    4901        .I      LDR      r1,[pc,#4] ; [0x2584] = 0x4000c000
        0x0000257e:    2037        7       MOVS     r0,#0x37
        0x00002580:    6088        .`      STR      r0,[r1,#8]
        0x00002582:    4770        pG      BX       lr
    $d
        0x00002584:    4000c000    ...@    DCD    1073790976
    $t
    i.am_iomaster0_isr
    am_iomaster0_isr
        0x00002588:    b510        ..      PUSH     {r4,lr}
        0x0000258a:    2101        .!      MOVS     r1,#1
        0x0000258c:    2000        .       MOVS     r0,#0
        0x0000258e:    f7fff803    ....    BL       am_hal_iom_int_status_get ; 0x1598
        0x00002592:    4604        .F      MOV      r4,r0
        0x00002594:    4621        !F      MOV      r1,r4
        0x00002596:    2000        .       MOVS     r0,#0
        0x00002598:    f7feff30    ..0.    BL       am_hal_iom_int_clear ; 0x13fc
        0x0000259c:    4621        !F      MOV      r1,r4
        0x0000259e:    2000        .       MOVS     r0,#0
        0x000025a0:    f7fff850    ..P.    BL       am_hal_iom_queue_service ; 0x1644
        0x000025a4:    bd10        ..      POP      {r4,pc}
    i.am_util_delay_ms
    am_util_delay_ms
        0x000025a6:    b570        p.      PUSH     {r4-r6,lr}
        0x000025a8:    4604        .F      MOV      r4,r0
        0x000025aa:    f7fdff85    ....    BL       am_hal_clkgen_sysclk_get ; 0x4b8
        0x000025ae:    4606        .F      MOV      r6,r0
        0x000025b0:    f64030b8    @..0    MOV      r0,#0xbb8
        0x000025b4:    fbb6f0f0    ....    UDIV     r0,r6,r0
        0x000025b8:    fb00f504    ....    MUL      r5,r0,r4
        0x000025bc:    4628        (F      MOV      r0,r5
        0x000025be:    f7fef82f    ../.    BL       am_hal_flash_delay ; 0x620
        0x000025c2:    bd70        p.      POP      {r4-r6,pc}
    i.am_util_stdio_printf
    am_util_stdio_printf
        0x000025c4:    b40f        ..      PUSH     {r0-r3}
        0x000025c6:    b538        8.      PUSH     {r3-r5,lr}
        0x000025c8:    a805        ..      ADD      r0,sp,#0x14
        0x000025ca:    9000        ..      STR      r0,[sp,#0]
        0x000025cc:    4807        .H      LDR      r0,[pc,#28] ; [0x25ec] = 0x10000444
        0x000025ce:    9a00        ..      LDR      r2,[sp,#0]
        0x000025d0:    9904        ..      LDR      r1,[sp,#0x10]
        0x000025d2:    f000f825    ..%.    BL       am_util_stdio_vsprintf ; 0x2620
        0x000025d6:    4604        .F      MOV      r4,r0
        0x000025d8:    2000        .       MOVS     r0,#0
        0x000025da:    9000        ..      STR      r0,[sp,#0]
        0x000025dc:    4803        .H      LDR      r0,[pc,#12] ; [0x25ec] = 0x10000444
        0x000025de:    4904        .I      LDR      r1,[pc,#16] ; [0x25f0] = 0x10000034
        0x000025e0:    6809        .h      LDR      r1,[r1,#0]
        0x000025e2:    4788        .G      BLX      r1
        0x000025e4:    4620         F      MOV      r0,r4
        0x000025e6:    bc38        8.      POP      {r3-r5}
        0x000025e8:    f85dfb14    ]...    LDR      pc,[sp],#0x14
    $d
        0x000025ec:    10000444    D...    DCD    268436548
        0x000025f0:    10000034    4...    DCD    268435508
    $t
    i.am_util_stdio_printf_init
    am_util_stdio_printf_init
        0x000025f4:    4901        .I      LDR      r1,[pc,#4] ; [0x25fc] = 0x10000034
        0x000025f6:    6008        .`      STR      r0,[r1,#0]
        0x000025f8:    4770        pG      BX       lr
    $d
        0x000025fa:    0000        ..      DCW    0
        0x000025fc:    10000034    4...    DCD    268435508
    $t
    i.am_util_stdio_terminal_clear
    am_util_stdio_terminal_clear
        0x00002600:    b510        ..      PUSH     {r4,lr}
        0x00002602:    a002        ..      ADR      r0,{pc}+0xa ; 0x260c
        0x00002604:    f7ffffde    ....    BL       am_util_stdio_printf ; 0x25c4
        0x00002608:    bd10        ..      POP      {r4,pc}
    $d
        0x0000260a:    0000        ..      DCW    0
        0x0000260c:    0a0a0a0a    ....    DCD    168430090
        0x00002610:    0a0a0a0a    ....    DCD    168430090
        0x00002614:    0a0a0a0a    ....    DCD    168430090
        0x00002618:    0a0a0a0a    ....    DCD    168430090
        0x0000261c:    00000a0a    ....    DCD    2570
    $t
    i.am_util_stdio_vsprintf
    am_util_stdio_vsprintf
        0x00002620:    e92d4ff7    -..O    PUSH     {r0-r2,r4-r11,lr}
        0x00002624:    ed2d8b02    -...    VPUSH    {d8}
        0x00002628:    b08a        ..      SUB      sp,sp,#0x28
        0x0000262a:    4604        .F      MOV      r4,r0
        0x0000262c:    460d        .F      MOV      r5,r1
        0x0000262e:    f04f0900    O...    MOV      r9,#0
        0x00002632:    2000        .       MOVS     r0,#0
        0x00002634:    9000        ..      STR      r0,[sp,#0]
        0x00002636:    e1b9        ..      B        0x29ac ; am_util_stdio_vsprintf + 908
        0x00002638:    2006        .       MOVS     r0,#6
        0x0000263a:    9006        ..      STR      r0,[sp,#0x18]
        0x0000263c:    7828        (x      LDRB     r0,[r5,#0]
        0x0000263e:    2825        %(      CMP      r0,#0x25
        0x00002640:    d012        ..      BEQ      0x2668 ; am_util_stdio_vsprintf + 72
        0x00002642:    b16c        l.      CBZ      r4,0x2660 ; am_util_stdio_vsprintf + 64
        0x00002644:    7828        (x      LDRB     r0,[r5,#0]
        0x00002646:    280a        .(      CMP      r0,#0xa
        0x00002648:    d107        ..      BNE      0x265a ; am_util_stdio_vsprintf + 58
        0x0000264a:    48de        .H      LDR      r0,[pc,#888] ; [0x29c4] = 0x10000038
        0x0000264c:    7800        .x      LDRB     r0,[r0,#0]
        0x0000264e:    b120         .      CBZ      r0,0x265a ; am_util_stdio_vsprintf + 58
        0x00002650:    200d        .       MOVS     r0,#0xd
        0x00002652:    f8040b01    ....    STRB     r0,[r4],#1
        0x00002656:    f1090901    ....    ADD      r9,r9,#1
        0x0000265a:    7828        (x      LDRB     r0,[r5,#0]
        0x0000265c:    f8040b01    ....    STRB     r0,[r4],#1
        0x00002660:    1c6d        m.      ADDS     r5,r5,#1
        0x00002662:    f1090901    ....    ADD      r9,r9,#1
        0x00002666:    e1a1        ..      B        0x29ac ; am_util_stdio_vsprintf + 908
        0x00002668:    1c6d        m.      ADDS     r5,r5,#1
        0x0000266a:    2000        .       MOVS     r0,#0
        0x0000266c:    9002        ..      STR      r0,[sp,#8]
        0x0000266e:    9003        ..      STR      r0,[sp,#0xc]
        0x00002670:    2020                MOVS     r0,#0x20
        0x00002672:    9004        ..      STR      r0,[sp,#0x10]
        0x00002674:    7828        (x      LDRB     r0,[r5,#0]
        0x00002676:    2830        0(      CMP      r0,#0x30
        0x00002678:    d101        ..      BNE      0x267e ; am_util_stdio_vsprintf + 94
        0x0000267a:    9004        ..      STR      r0,[sp,#0x10]
        0x0000267c:    1c6d        m.      ADDS     r5,r5,#1
        0x0000267e:    a907        ..      ADD      r1,sp,#0x1c
        0x00002680:    4628        (F      MOV      r0,r5
        0x00002682:    f000f9a7    ....    BL       decstr_to_int ; 0x29d4
        0x00002686:    4606        .F      MOV      r6,r0
        0x00002688:    9807        ..      LDR      r0,[sp,#0x1c]
        0x0000268a:    4405        .D      ADD      r5,r5,r0
        0x0000268c:    7828        (x      LDRB     r0,[r5,#0]
        0x0000268e:    2873        s(      CMP      r0,#0x73
        0x00002690:    d002        ..      BEQ      0x2698 ; am_util_stdio_vsprintf + 120
        0x00002692:    2e00        ..      CMP      r6,#0
        0x00002694:    da00        ..      BGE      0x2698 ; am_util_stdio_vsprintf + 120
        0x00002696:    4276        vB      RSBS     r6,r6,#0
        0x00002698:    7828        (x      LDRB     r0,[r5,#0]
        0x0000269a:    282e        .(      CMP      r0,#0x2e
        0x0000269c:    d107        ..      BNE      0x26ae ; am_util_stdio_vsprintf + 142
        0x0000269e:    1c6d        m.      ADDS     r5,r5,#1
        0x000026a0:    a907        ..      ADD      r1,sp,#0x1c
        0x000026a2:    4628        (F      MOV      r0,r5
        0x000026a4:    f000f996    ....    BL       decstr_to_int ; 0x29d4
        0x000026a8:    9006        ..      STR      r0,[sp,#0x18]
        0x000026aa:    9807        ..      LDR      r0,[sp,#0x1c]
        0x000026ac:    4405        .D      ADD      r5,r5,r0
        0x000026ae:    7828        (x      LDRB     r0,[r5,#0]
        0x000026b0:    286c        l(      CMP      r0,#0x6c
        0x000026b2:    d106        ..      BNE      0x26c2 ; am_util_stdio_vsprintf + 162
        0x000026b4:    1c6d        m.      ADDS     r5,r5,#1
        0x000026b6:    7828        (x      LDRB     r0,[r5,#0]
        0x000026b8:    286c        l(      CMP      r0,#0x6c
        0x000026ba:    d102        ..      BNE      0x26c2 ; am_util_stdio_vsprintf + 162
        0x000026bc:    1c6d        m.      ADDS     r5,r5,#1
        0x000026be:    2001        .       MOVS     r0,#1
        0x000026c0:    9002        ..      STR      r0,[sp,#8]
        0x000026c2:    7828        (x      LDRB     r0,[r5,#0]
        0x000026c4:    2866        f(      CMP      r0,#0x66
        0x000026c6:    d06f        o.      BEQ      0x27a8 ; am_util_stdio_vsprintf + 392
        0x000026c8:    dc08        ..      BGT      0x26dc ; am_util_stdio_vsprintf + 188
        0x000026ca:    2846        F(      CMP      r0,#0x46
        0x000026cc:    d06d        m.      BEQ      0x27aa ; am_util_stdio_vsprintf + 394
        0x000026ce:    2858        X(      CMP      r0,#0x58
        0x000026d0:    d05c        \.      BEQ      0x278c ; am_util_stdio_vsprintf + 364
        0x000026d2:    2863        c(      CMP      r0,#0x63
        0x000026d4:    d00b        ..      BEQ      0x26ee ; am_util_stdio_vsprintf + 206
        0x000026d6:    2864        d(      CMP      r0,#0x64
        0x000026d8:    d168        h.      BNE      0x27ac ; am_util_stdio_vsprintf + 396
        0x000026da:    e0c3        ..      B        0x2864 ; am_util_stdio_vsprintf + 580
        0x000026dc:    2869        i(      CMP      r0,#0x69
        0x000026de:    d07d        }.      BEQ      0x27dc ; am_util_stdio_vsprintf + 444
        0x000026e0:    2873        s(      CMP      r0,#0x73
        0x000026e2:    d011        ..      BEQ      0x2708 ; am_util_stdio_vsprintf + 232
        0x000026e4:    2875        u(      CMP      r0,#0x75
        0x000026e6:    d07a        z.      BEQ      0x27de ; am_util_stdio_vsprintf + 446
        0x000026e8:    2878        x(      CMP      r0,#0x78
        0x000026ea:    d1f5        ..      BNE      0x26d8 ; am_util_stdio_vsprintf + 184
        0x000026ec:    e04b        K.      B        0x2786 ; am_util_stdio_vsprintf + 358
        0x000026ee:    980e        ..      LDR      r0,[sp,#0x38]
        0x000026f0:    f8101b04    ....    LDRB     r1,[r0],#4
        0x000026f4:    900e        ..      STR      r0,[sp,#0x38]
        0x000026f6:    b2c8        ..      UXTB     r0,r1
        0x000026f8:    9005        ..      STR      r0,[sp,#0x14]
        0x000026fa:    b114        ..      CBZ      r4,0x2702 ; am_util_stdio_vsprintf + 226
        0x000026fc:    9805        ..      LDR      r0,[sp,#0x14]
        0x000026fe:    f8040b01    ....    STRB     r0,[r4],#1
        0x00002702:    f1090901    ....    ADD      r9,r9,#1
        0x00002706:    e14e        N.      B        0x29a6 ; am_util_stdio_vsprintf + 902
        0x00002708:    980e        ..      LDR      r0,[sp,#0x38]
        0x0000270a:    f850bb04    P...    LDR      r11,[r0],#4
        0x0000270e:    900e        ..      STR      r0,[sp,#0x38]
        0x00002710:    4658        XF      MOV      r0,r11
        0x00002712:    f000fda3    ....    BL       simple_strlen ; 0x325c
        0x00002716:    9000        ..      STR      r0,[sp,#0]
        0x00002718:    2e00        ..      CMP      r6,#0
        0x0000271a:    dd11        ..      BLE      0x2740 ; am_util_stdio_vsprintf + 288
        0x0000271c:    9800        ..      LDR      r0,[sp,#0]
        0x0000271e:    42b0        .B      CMP      r0,r6
        0x00002720:    d20e        ..      BCS      0x2740 ; am_util_stdio_vsprintf + 288
        0x00002722:    9800        ..      LDR      r0,[sp,#0]
        0x00002724:    1a36        6.      SUBS     r6,r6,r0
        0x00002726:    4632        2F      MOV      r2,r6
        0x00002728:    4620         F      MOV      r0,r4
        0x0000272a:    9904        ..      LDR      r1,[sp,#0x10]
        0x0000272c:    f000fd47    ..G.    BL       padbuffer ; 0x31be
        0x00002730:    4606        .F      MOV      r6,r0
        0x00002732:    b10c        ..      CBZ      r4,0x2738 ; am_util_stdio_vsprintf + 280
        0x00002734:    4630        0F      MOV      r0,r6
        0x00002736:    e000        ..      B        0x273a ; am_util_stdio_vsprintf + 282
        0x00002738:    2000        .       MOVS     r0,#0
        0x0000273a:    4404        .D      ADD      r4,r4,r0
        0x0000273c:    44b1        .D      ADD      r9,r9,r6
        0x0000273e:    2600        .&      MOVS     r6,#0
        0x00002740:    e008        ..      B        0x2754 ; am_util_stdio_vsprintf + 308
        0x00002742:    b11c        ..      CBZ      r4,0x274c ; am_util_stdio_vsprintf + 300
        0x00002744:    f89b0000    ....    LDRB     r0,[r11,#0]
        0x00002748:    f8040b01    ....    STRB     r0,[r4],#1
        0x0000274c:    f10b0b01    ....    ADD      r11,r11,#1
        0x00002750:    f1090901    ....    ADD      r9,r9,#1
        0x00002754:    f89b0000    ....    LDRB     r0,[r11,#0]
        0x00002758:    2800        .(      CMP      r0,#0
        0x0000275a:    d1f2        ..      BNE      0x2742 ; am_util_stdio_vsprintf + 290
        0x0000275c:    b196        ..      CBZ      r6,0x2784 ; am_util_stdio_vsprintf + 356
        0x0000275e:    4276        vB      RSBS     r6,r6,#0
        0x00002760:    9800        ..      LDR      r0,[sp,#0]
        0x00002762:    42b0        .B      CMP      r0,r6
        0x00002764:    d20e        ..      BCS      0x2784 ; am_util_stdio_vsprintf + 356
        0x00002766:    9800        ..      LDR      r0,[sp,#0]
        0x00002768:    1a36        6.      SUBS     r6,r6,r0
        0x0000276a:    4632        2F      MOV      r2,r6
        0x0000276c:    4620         F      MOV      r0,r4
        0x0000276e:    9904        ..      LDR      r1,[sp,#0x10]
        0x00002770:    f000fd25    ..%.    BL       padbuffer ; 0x31be
        0x00002774:    4606        .F      MOV      r6,r0
        0x00002776:    b10c        ..      CBZ      r4,0x277c ; am_util_stdio_vsprintf + 348
        0x00002778:    4630        0F      MOV      r0,r6
        0x0000277a:    e000        ..      B        0x277e ; am_util_stdio_vsprintf + 350
        0x0000277c:    2000        .       MOVS     r0,#0
        0x0000277e:    4404        .D      ADD      r4,r4,r0
        0x00002780:    44b1        .D      ADD      r9,r9,r6
        0x00002782:    2600        .&      MOVS     r6,#0
        0x00002784:    e10f        ..      B        0x29a6 ; am_util_stdio_vsprintf + 902
        0x00002786:    2001        .       MOVS     r0,#1
        0x00002788:    9003        ..      STR      r0,[sp,#0xc]
        0x0000278a:    bf00        ..      NOP      
        0x0000278c:    9802        ..      LDR      r0,[sp,#8]
        0x0000278e:    b170        p.      CBZ      r0,0x27ae ; am_util_stdio_vsprintf + 398
        0x00002790:    980e        ..      LDR      r0,[sp,#0x38]
        0x00002792:    1dc0        ..      ADDS     r0,r0,#7
        0x00002794:    f0200007     ...    BIC      r0,r0,#7
        0x00002798:    4601        .F      MOV      r1,r0
        0x0000279a:    900e        ..      STR      r0,[sp,#0x38]
        0x0000279c:    6800        .h      LDR      r0,[r0,#0]
        0x0000279e:    6849        Ih      LDR      r1,[r1,#4]
        0x000027a0:    9a0e        ..      LDR      r2,[sp,#0x38]
        0x000027a2:    3208        .2      ADDS     r2,r2,#8
        0x000027a4:    920e        ..      STR      r2,[sp,#0x38]
        0x000027a6:    e008        ..      B        0x27ba ; am_util_stdio_vsprintf + 410
        0x000027a8:    e0c3        ..      B        0x2932 ; am_util_stdio_vsprintf + 786
        0x000027aa:    e0c3        ..      B        0x2934 ; am_util_stdio_vsprintf + 788
        0x000027ac:    e0f4        ..      B        0x2998 ; am_util_stdio_vsprintf + 888
        0x000027ae:    980e        ..      LDR      r0,[sp,#0x38]
        0x000027b0:    6800        .h      LDR      r0,[r0,#0]
        0x000027b2:    990e        ..      LDR      r1,[sp,#0x38]
        0x000027b4:    1d09        ..      ADDS     r1,r1,#4
        0x000027b6:    910e        ..      STR      r1,[sp,#0x38]
        0x000027b8:    2100        .!      MOVS     r1,#0
        0x000027ba:    4607        .F      MOV      r7,r0
        0x000027bc:    4688        .F      MOV      r8,r1
        0x000027be:    b19e        ..      CBZ      r6,0x27e8 ; am_util_stdio_vsprintf + 456
        0x000027c0:    4638        8F      MOV      r0,r7
        0x000027c2:    4641        AF      MOV      r1,r8
        0x000027c4:    f000fcb2    ....    BL       ndigits_in_hex ; 0x312c
        0x000027c8:    1a36        6.      SUBS     r6,r6,r0
        0x000027ca:    4632        2F      MOV      r2,r6
        0x000027cc:    4620         F      MOV      r0,r4
        0x000027ce:    9904        ..      LDR      r1,[sp,#0x10]
        0x000027d0:    f000fcf5    ....    BL       padbuffer ; 0x31be
        0x000027d4:    4606        .F      MOV      r6,r0
        0x000027d6:    b11c        ..      CBZ      r4,0x27e0 ; am_util_stdio_vsprintf + 448
        0x000027d8:    4630        0F      MOV      r0,r6
        0x000027da:    e002        ..      B        0x27e2 ; am_util_stdio_vsprintf + 450
        0x000027dc:    e043        C.      B        0x2866 ; am_util_stdio_vsprintf + 582
        0x000027de:    e00e        ..      B        0x27fe ; am_util_stdio_vsprintf + 478
        0x000027e0:    2000        .       MOVS     r0,#0
        0x000027e2:    4404        .D      ADD      r4,r4,r0
        0x000027e4:    44b1        .D      ADD      r9,r9,r6
        0x000027e6:    2600        .&      MOVS     r6,#0
        0x000027e8:    4622        "F      MOV      r2,r4
        0x000027ea:    4638        8F      MOV      r0,r7
        0x000027ec:    4641        AF      MOV      r1,r8
        0x000027ee:    9b03        ..      LDR      r3,[sp,#0xc]
        0x000027f0:    f000fd40    ..@.    BL       uint64_to_hexstr ; 0x3274
        0x000027f4:    4682        .F      MOV      r10,r0
        0x000027f6:    b104        ..      CBZ      r4,0x27fa ; am_util_stdio_vsprintf + 474
        0x000027f8:    4454        TD      ADD      r4,r4,r10
        0x000027fa:    44d1        .D      ADD      r9,r9,r10
        0x000027fc:    e0d3        ..      B        0x29a6 ; am_util_stdio_vsprintf + 902
        0x000027fe:    9802        ..      LDR      r0,[sp,#8]
        0x00002800:    b158        X.      CBZ      r0,0x281a ; am_util_stdio_vsprintf + 506
        0x00002802:    980e        ..      LDR      r0,[sp,#0x38]
        0x00002804:    1dc0        ..      ADDS     r0,r0,#7
        0x00002806:    f0200007     ...    BIC      r0,r0,#7
        0x0000280a:    4601        .F      MOV      r1,r0
        0x0000280c:    900e        ..      STR      r0,[sp,#0x38]
        0x0000280e:    6800        .h      LDR      r0,[r0,#0]
        0x00002810:    6849        Ih      LDR      r1,[r1,#4]
        0x00002812:    9a0e        ..      LDR      r2,[sp,#0x38]
        0x00002814:    3208        .2      ADDS     r2,r2,#8
        0x00002816:    920e        ..      STR      r2,[sp,#0x38]
        0x00002818:    e005        ..      B        0x2826 ; am_util_stdio_vsprintf + 518
        0x0000281a:    980e        ..      LDR      r0,[sp,#0x38]
        0x0000281c:    6800        .h      LDR      r0,[r0,#0]
        0x0000281e:    990e        ..      LDR      r1,[sp,#0x38]
        0x00002820:    1d09        ..      ADDS     r1,r1,#4
        0x00002822:    910e        ..      STR      r1,[sp,#0x38]
        0x00002824:    2100        .!      MOVS     r1,#0
        0x00002826:    4607        .F      MOV      r7,r0
        0x00002828:    4688        .F      MOV      r8,r1
        0x0000282a:    b18e        ..      CBZ      r6,0x2850 ; am_util_stdio_vsprintf + 560
        0x0000282c:    4638        8F      MOV      r0,r7
        0x0000282e:    4641        AF      MOV      r1,r8
        0x00002830:    f000fca8    ....    BL       ndigits_in_u64 ; 0x3184
        0x00002834:    1a36        6.      SUBS     r6,r6,r0
        0x00002836:    4632        2F      MOV      r2,r6
        0x00002838:    4620         F      MOV      r0,r4
        0x0000283a:    9904        ..      LDR      r1,[sp,#0x10]
        0x0000283c:    f000fcbf    ....    BL       padbuffer ; 0x31be
        0x00002840:    4606        .F      MOV      r6,r0
        0x00002842:    b10c        ..      CBZ      r4,0x2848 ; am_util_stdio_vsprintf + 552
        0x00002844:    4630        0F      MOV      r0,r6
        0x00002846:    e000        ..      B        0x284a ; am_util_stdio_vsprintf + 554
        0x00002848:    2000        .       MOVS     r0,#0
        0x0000284a:    4404        .D      ADD      r4,r4,r0
        0x0000284c:    44b1        .D      ADD      r9,r9,r6
        0x0000284e:    2600        .&      MOVS     r6,#0
        0x00002850:    4622        "F      MOV      r2,r4
        0x00002852:    4638        8F      MOV      r0,r7
        0x00002854:    4641        AF      MOV      r1,r8
        0x00002856:    f000fd52    ..R.    BL       uint64_to_str ; 0x32fe
        0x0000285a:    4682        .F      MOV      r10,r0
        0x0000285c:    b104        ..      CBZ      r4,0x2860 ; am_util_stdio_vsprintf + 576
        0x0000285e:    4454        TD      ADD      r4,r4,r10
        0x00002860:    44d1        .D      ADD      r9,r9,r10
        0x00002862:    e0a0        ..      B        0x29a6 ; am_util_stdio_vsprintf + 902
        0x00002864:    bf00        ..      NOP      
        0x00002866:    9802        ..      LDR      r0,[sp,#8]
        0x00002868:    b158        X.      CBZ      r0,0x2882 ; am_util_stdio_vsprintf + 610
        0x0000286a:    980e        ..      LDR      r0,[sp,#0x38]
        0x0000286c:    1dc0        ..      ADDS     r0,r0,#7
        0x0000286e:    f0200007     ...    BIC      r0,r0,#7
        0x00002872:    4601        .F      MOV      r1,r0
        0x00002874:    900e        ..      STR      r0,[sp,#0x38]
        0x00002876:    6800        .h      LDR      r0,[r0,#0]
        0x00002878:    6849        Ih      LDR      r1,[r1,#4]
        0x0000287a:    9a0e        ..      LDR      r2,[sp,#0x38]
        0x0000287c:    3208        .2      ADDS     r2,r2,#8
        0x0000287e:    920e        ..      STR      r2,[sp,#0x38]
        0x00002880:    e005        ..      B        0x288e ; am_util_stdio_vsprintf + 622
        0x00002882:    980e        ..      LDR      r0,[sp,#0x38]
        0x00002884:    6800        .h      LDR      r0,[r0,#0]
        0x00002886:    990e        ..      LDR      r1,[sp,#0x38]
        0x00002888:    1d09        ..      ADDS     r1,r1,#4
        0x0000288a:    910e        ..      STR      r1,[sp,#0x38]
        0x0000288c:    17c1        ..      ASRS     r1,r0,#31
        0x0000288e:    e9cd0108    ....    STRD     r0,r1,[sp,#0x20]
        0x00002892:    2300        .#      MOVS     r3,#0
        0x00002894:    e9dd0108    ....    LDRD     r0,r1,[sp,#0x20]
        0x00002898:    1ac0        ..      SUBS     r0,r0,r3
        0x0000289a:    4199        .A      SBCS     r1,r1,r3
        0x0000289c:    da08        ..      BGE      0x28b0 ; am_util_stdio_vsprintf + 656
        0x0000289e:    2200        ."      MOVS     r2,#0
        0x000028a0:    e9dd1008    ....    LDRD     r1,r0,[sp,#0x20]
        0x000028a4:    424f        OB      RSBS     r7,r1,#0
        0x000028a6:    eb620800    b...    SBC      r8,r2,r0
        0x000028aa:    2001        .       MOVS     r0,#1
        0x000028ac:    9001        ..      STR      r0,[sp,#4]
        0x000028ae:    e003        ..      B        0x28b8 ; am_util_stdio_vsprintf + 664
        0x000028b0:    e9dd7808    ...x    LDRD     r7,r8,[sp,#0x20]
        0x000028b4:    2000        .       MOVS     r0,#0
        0x000028b6:    9001        ..      STR      r0,[sp,#4]
        0x000028b8:    b34e        N.      CBZ      r6,0x290e ; am_util_stdio_vsprintf + 750
        0x000028ba:    4638        8F      MOV      r0,r7
        0x000028bc:    4641        AF      MOV      r1,r8
        0x000028be:    f000fc4f    ..O.    BL       ndigits_in_i64 ; 0x3160
        0x000028c2:    1a36        6.      SUBS     r6,r6,r0
        0x000028c4:    9801        ..      LDR      r0,[sp,#4]
        0x000028c6:    b148        H.      CBZ      r0,0x28dc ; am_util_stdio_vsprintf + 700
        0x000028c8:    1e76        v.      SUBS     r6,r6,#1
        0x000028ca:    9804        ..      LDR      r0,[sp,#0x10]
        0x000028cc:    2830        0(      CMP      r0,#0x30
        0x000028ce:    d105        ..      BNE      0x28dc ; am_util_stdio_vsprintf + 700
        0x000028d0:    b114        ..      CBZ      r4,0x28d8 ; am_util_stdio_vsprintf + 696
        0x000028d2:    202d        -       MOVS     r0,#0x2d
        0x000028d4:    f8040b01    ....    STRB     r0,[r4],#1
        0x000028d8:    f1090901    ....    ADD      r9,r9,#1
        0x000028dc:    4632        2F      MOV      r2,r6
        0x000028de:    4620         F      MOV      r0,r4
        0x000028e0:    9904        ..      LDR      r1,[sp,#0x10]
        0x000028e2:    f000fc6c    ..l.    BL       padbuffer ; 0x31be
        0x000028e6:    4606        .F      MOV      r6,r0
        0x000028e8:    b10c        ..      CBZ      r4,0x28ee ; am_util_stdio_vsprintf + 718
        0x000028ea:    4630        0F      MOV      r0,r6
        0x000028ec:    e000        ..      B        0x28f0 ; am_util_stdio_vsprintf + 720
        0x000028ee:    2000        .       MOVS     r0,#0
        0x000028f0:    4404        .D      ADD      r4,r4,r0
        0x000028f2:    44b1        .D      ADD      r9,r9,r6
        0x000028f4:    2600        .&      MOVS     r6,#0
        0x000028f6:    9801        ..      LDR      r0,[sp,#4]
        0x000028f8:    b188        ..      CBZ      r0,0x291e ; am_util_stdio_vsprintf + 766
        0x000028fa:    9804        ..      LDR      r0,[sp,#0x10]
        0x000028fc:    2820         (      CMP      r0,#0x20
        0x000028fe:    d10e        ..      BNE      0x291e ; am_util_stdio_vsprintf + 766
        0x00002900:    b114        ..      CBZ      r4,0x2908 ; am_util_stdio_vsprintf + 744
        0x00002902:    202d        -       MOVS     r0,#0x2d
        0x00002904:    f8040b01    ....    STRB     r0,[r4],#1
        0x00002908:    f1090901    ....    ADD      r9,r9,#1
        0x0000290c:    e007        ..      B        0x291e ; am_util_stdio_vsprintf + 766
        0x0000290e:    9801        ..      LDR      r0,[sp,#4]
        0x00002910:    b128        (.      CBZ      r0,0x291e ; am_util_stdio_vsprintf + 766
        0x00002912:    b114        ..      CBZ      r4,0x291a ; am_util_stdio_vsprintf + 762
        0x00002914:    202d        -       MOVS     r0,#0x2d
        0x00002916:    f8040b01    ....    STRB     r0,[r4],#1
        0x0000291a:    f1090901    ....    ADD      r9,r9,#1
        0x0000291e:    4622        "F      MOV      r2,r4
        0x00002920:    4638        8F      MOV      r0,r7
        0x00002922:    4641        AF      MOV      r1,r8
        0x00002924:    f000fceb    ....    BL       uint64_to_str ; 0x32fe
        0x00002928:    4682        .F      MOV      r10,r0
        0x0000292a:    b104        ..      CBZ      r4,0x292e ; am_util_stdio_vsprintf + 782
        0x0000292c:    4454        TD      ADD      r4,r4,r10
        0x0000292e:    44d1        .D      ADD      r9,r9,r10
        0x00002930:    e039        9.      B        0x29a6 ; am_util_stdio_vsprintf + 902
        0x00002932:    bf00        ..      NOP      
        0x00002934:    b37c        |.      CBZ      r4,0x2996 ; am_util_stdio_vsprintf + 886
        0x00002936:    980e        ..      LDR      r0,[sp,#0x38]
        0x00002938:    1dc0        ..      ADDS     r0,r0,#7
        0x0000293a:    f0200007     ...    BIC      r0,r0,#7
        0x0000293e:    900e        ..      STR      r0,[sp,#0x38]
        0x00002940:    ecb01b02    ....    VLDM     r0!,{d1}
        0x00002944:    eeb00a41    ..A.    VMOV.F32 s0,s2
        0x00002948:    eef00a61    ..a.    VMOV.F32 s1,s3
        0x0000294c:    900e        ..      STR      r0,[sp,#0x38]
        0x0000294e:    ec510b10    Q...    VMOV     r0,r1,d0
        0x00002952:    f000fd0d    ....    BL       __aeabi_d2f ; 0x3370
        0x00002956:    ee080a10    ....    VMOV     s16,r0
        0x0000295a:    2014        .       MOVS     r0,#0x14
        0x0000295c:    6020         `      STR      r0,[r4,#0]
        0x0000295e:    4620         F      MOV      r0,r4
        0x00002960:    eeb00a48    ..H.    VMOV.F32 s0,s16
        0x00002964:    9906        ..      LDR      r1,[sp,#0x18]
        0x00002966:    f000f8bd    ....    BL       ftoa ; 0x2ae4
        0x0000296a:    4682        .F      MOV      r10,r0
        0x0000296c:    f1ba0f00    ....    CMP      r10,#0
        0x00002970:    da0e        ..      BGE      0x2990 ; am_util_stdio_vsprintf + 880
        0x00002972:    f10a0101    ....    ADD      r1,r10,#1
        0x00002976:    b909        ..      CBNZ     r1,0x297c ; am_util_stdio_vsprintf + 860
        0x00002978:    4813        .H      LDR      r0,[pc,#76] ; [0x29c8] = 0x302e30
        0x0000297a:    e005        ..      B        0x2988 ; am_util_stdio_vsprintf + 872
        0x0000297c:    f10a0102    ....    ADD      r1,r10,#2
        0x00002980:    b909        ..      CBNZ     r1,0x2986 ; am_util_stdio_vsprintf + 870
        0x00002982:    4812        .H      LDR      r0,[pc,#72] ; [0x29cc] = 0x232e23
        0x00002984:    e000        ..      B        0x2988 ; am_util_stdio_vsprintf + 872
        0x00002986:    4812        .H      LDR      r0,[pc,#72] ; [0x29d0] = 0x3f2e3f
        0x00002988:    6020         `      STR      r0,[r4,#0]
        0x0000298a:    f04f0a03    O...    MOV      r10,#3
        0x0000298e:    bf00        ..      NOP      
        0x00002990:    44d1        .D      ADD      r9,r9,r10
        0x00002992:    4454        TD      ADD      r4,r4,r10
        0x00002994:    bf00        ..      NOP      
        0x00002996:    e006        ..      B        0x29a6 ; am_util_stdio_vsprintf + 902
        0x00002998:    b114        ..      CBZ      r4,0x29a0 ; am_util_stdio_vsprintf + 896
        0x0000299a:    7828        (x      LDRB     r0,[r5,#0]
        0x0000299c:    f8040b01    ....    STRB     r0,[r4],#1
        0x000029a0:    f1090901    ....    ADD      r9,r9,#1
        0x000029a4:    bf00        ..      NOP      
        0x000029a6:    bf00        ..      NOP      
        0x000029a8:    1c6d        m.      ADDS     r5,r5,#1
        0x000029aa:    bf00        ..      NOP      
        0x000029ac:    7828        (x      LDRB     r0,[r5,#0]
        0x000029ae:    2800        .(      CMP      r0,#0
        0x000029b0:    f47fae42    ..B.    BNE      0x2638 ; am_util_stdio_vsprintf + 24
        0x000029b4:    b104        ..      CBZ      r4,0x29b8 ; am_util_stdio_vsprintf + 920
        0x000029b6:    7020         p      STRB     r0,[r4,#0]
        0x000029b8:    4648        HF      MOV      r0,r9
        0x000029ba:    b00a        ..      ADD      sp,sp,#0x28
        0x000029bc:    ecbd8b02    ....    VPOP     {d8}
        0x000029c0:    e8bd8ffe    ....    POP      {r1-r11,pc}
    $d
        0x000029c4:    10000038    8...    DCD    268435512
        0x000029c8:    00302e30    0.0.    DCD    3157552
        0x000029cc:    00232e23    #.#.    DCD    2305571
        0x000029d0:    003f2e3f    ?.?.    DCD    4140607
    $t
    i.decstr_to_int
    decstr_to_int
        0x000029d4:    b530        0.      PUSH     {r4,r5,lr}
        0x000029d6:    4602        .F      MOV      r2,r0
        0x000029d8:    2500        .%      MOVS     r5,#0
        0x000029da:    2300        .#      MOVS     r3,#0
        0x000029dc:    2400        .$      MOVS     r4,#0
        0x000029de:    7810        .x      LDRB     r0,[r2,#0]
        0x000029e0:    282d        -(      CMP      r0,#0x2d
        0x000029e2:    d102        ..      BNE      0x29ea ; decstr_to_int + 22
        0x000029e4:    2501        .%      MOVS     r5,#1
        0x000029e6:    1c52        R.      ADDS     r2,r2,#1
        0x000029e8:    1c64        d.      ADDS     r4,r4,#1
        0x000029ea:    e007        ..      B        0x29fc ; decstr_to_int + 40
        0x000029ec:    1c64        d.      ADDS     r4,r4,#1
        0x000029ee:    eb030083    ....    ADD      r0,r3,r3,LSL #2
        0x000029f2:    0043        C.      LSLS     r3,r0,#1
        0x000029f4:    7810        .x      LDRB     r0,[r2,#0]
        0x000029f6:    3830        08      SUBS     r0,r0,#0x30
        0x000029f8:    4403        .D      ADD      r3,r3,r0
        0x000029fa:    1c52        R.      ADDS     r2,r2,#1
        0x000029fc:    7810        .x      LDRB     r0,[r2,#0]
        0x000029fe:    2830        0(      CMP      r0,#0x30
        0x00002a00:    db02        ..      BLT      0x2a08 ; decstr_to_int + 52
        0x00002a02:    7810        .x      LDRB     r0,[r2,#0]
        0x00002a04:    2839        9(      CMP      r0,#0x39
        0x00002a06:    ddf1        ..      BLE      0x29ec ; decstr_to_int + 24
        0x00002a08:    b101        ..      CBZ      r1,0x2a0c ; decstr_to_int + 56
        0x00002a0a:    600c        .`      STR      r4,[r1,#0]
        0x00002a0c:    b10d        ..      CBZ      r5,0x2a12 ; decstr_to_int + 62
        0x00002a0e:    4258        XB      RSBS     r0,r3,#0
        0x00002a10:    bd30        0.      POP      {r4,r5,pc}
        0x00002a12:    4618        .F      MOV      r0,r3
        0x00002a14:    e7fc        ..      B        0x2a10 ; decstr_to_int + 60
    i.divu64_10
    divu64_10
        0x00002a16:    e92d4ff0    -..O    PUSH     {r4-r11,lr}
        0x00002a1a:    4604        .F      MOV      r4,r0
        0x00002a1c:    460d        .F      MOV      r5,r1
        0x00002a1e:    2000        .       MOVS     r0,#0
        0x00002a20:    ea850100    ....    EOR      r1,r5,r0
        0x00002a24:    4040        @@      EORS     r0,r0,r0
        0x00002a26:    4301        .C      ORRS     r1,r1,r0
        0x00002a28:    d044        D.      BEQ      0x2ab4 ; divu64_10 + 158
        0x00002a2a:    ea5f0a55    _.U.    LSRS     r10,r5,#1
        0x00002a2e:    ea4f0134    O.4.    RRX      r1,r4
        0x00002a32:    ea4f0b94    O...    LSR      r11,r4,#2
        0x00002a36:    ea4b7085    K..p    ORR      r0,r11,r5,LSL #30
        0x00002a3a:    180a        ..      ADDS     r2,r1,r0
        0x00002a3c:    eb4a0395    J...    ADC      r3,r10,r5,LSR #2
        0x00002a40:    ea4f1012    O...    LSR      r0,r2,#4
        0x00002a44:    ea407a03    @..z    ORR      r10,r0,r3,LSL #28
        0x00002a48:    eb1a0202    ....    ADDS     r2,r10,r2
        0x00002a4c:    eb431313    C...    ADC      r3,r3,r3,LSR #4
        0x00002a50:    ea4f2012    O..     LSR      r0,r2,#8
        0x00002a54:    ea406a03    @..j    ORR      r10,r0,r3,LSL #24
        0x00002a58:    eb1a0202    ....    ADDS     r2,r10,r2
        0x00002a5c:    eb432313    C..#    ADC      r3,r3,r3,LSR #8
        0x00002a60:    ea4f4012    O..@    LSR      r0,r2,#16
        0x00002a64:    ea404a03    @..J    ORR      r10,r0,r3,LSL #16
        0x00002a68:    eb1a0202    ....    ADDS     r2,r10,r2
        0x00002a6c:    eb434313    C..C    ADC      r3,r3,r3,LSR #16
        0x00002a70:    189a        ..      ADDS     r2,r3,r2
        0x00002a72:    f1430300    C...    ADC      r3,r3,#0
        0x00002a76:    08d0        ..      LSRS     r0,r2,#3
        0x00002a78:    ea407243    @.Cr    ORR      r2,r0,r3,LSL #29
        0x00002a7c:    08db        ..      LSRS     r3,r3,#3
        0x00002a7e:    210a        .!      MOVS     r1,#0xa
        0x00002a80:    f04f0a00    O...    MOV      r10,#0
        0x00002a84:    fba20b01    ....    UMULL    r0,r11,r2,r1
        0x00002a88:    fb03b101    ....    MLA      r1,r3,r1,r11
        0x00002a8c:    fb02110a    ....    MLA      r1,r2,r10,r1
        0x00002a90:    1a26        &.      SUBS     r6,r4,r0
        0x00002a92:    eb650701    e...    SBC      r7,r5,r1
        0x00002a96:    2106        .!      MOVS     r1,#6
        0x00002a98:    eb160a01    ....    ADDS     r10,r6,r1
        0x00002a9c:    f1470100    G...    ADC      r1,r7,#0
        0x00002aa0:    ea4f101a    O...    LSR      r0,r10,#4
        0x00002aa4:    ea407a01    @..z    ORR      r10,r0,r1,LSL #28
        0x00002aa8:    eb1a0002    ....    ADDS     r0,r10,r2
        0x00002aac:    eb431111    C...    ADC      r1,r3,r1,LSR #4
        0x00002ab0:    e8bd8ff0    ....    POP      {r4-r11,pc}
        0x00002ab4:    46a0        .F      MOV      r8,r4
        0x00002ab6:    ea4f0058    O.X.    LSR      r0,r8,#1
        0x00002aba:    eb000c98    ....    ADD      r12,r0,r8,LSR #2
        0x00002abe:    eb0c1c1c    ....    ADD      r12,r12,r12,LSR #4
        0x00002ac2:    eb0c2c1c    ...,    ADD      r12,r12,r12,LSR #8
        0x00002ac6:    eb0c4c1c    ...L    ADD      r12,r12,r12,LSR #16
        0x00002aca:    ea4f0cdc    O...    LSR      r12,r12,#3
        0x00002ace:    eb0c008c    ....    ADD      r0,r12,r12,LSL #2
        0x00002ad2:    eba80940    ..@.    SUB      r9,r8,r0,LSL #1
        0x00002ad6:    f1090006    ....    ADD      r0,r9,#6
        0x00002ada:    eb0c1010    ....    ADD      r0,r12,r0,LSR #4
        0x00002ade:    2100        .!      MOVS     r1,#0
        0x00002ae0:    e7e6        ..      B        0x2ab0 ; divu64_10 + 154
        0x00002ae2:    0000        ..      MOVS     r0,r0
    i.ftoa
    ftoa
        0x00002ae4:    e92d4ff3    -..O    PUSH     {r0,r1,r4-r11,lr}
        0x00002ae8:    ed2d0b02    -...    VPUSH    {d0}
        0x00002aec:    ed2d8b02    -...    VPUSH    {d8}
        0x00002af0:    b081        ..      SUB      sp,sp,#4
        0x00002af2:    eeb08a40    ..@.    VMOV.F32 s16,s0
        0x00002af6:    4604        .F      MOV      r4,r0
        0x00002af8:    f8d4b000    ....    LDR      r11,[r4,#0]
        0x00002afc:    f1bb0f04    ....    CMP      r11,#4
        0x00002b00:    da07        ..      BGE      0x2b12 ; ftoa + 46
        0x00002b02:    f06f0002    o...    MVN      r0,#2
        0x00002b06:    b001        ..      ADD      sp,sp,#4
        0x00002b08:    ecbd8b02    ....    VPOP     {d8}
        0x00002b0c:    b004        ..      ADD      sp,sp,#0x10
        0x00002b0e:    e8bd8ff0    ....    POP      {r4-r11,pc}
        0x00002b12:    eeb58ac0    ....    VCMPE.F32 s16,#0.0
        0x00002b16:    eef1fa10    ....    VMRS     APSR_nzcv,FPSCR
        0x00002b1a:    d103        ..      BNE      0x2b24 ; ftoa + 64
        0x00002b1c:    484e        NH      LDR      r0,[pc,#312] ; [0x2c58] = 0x302e30
        0x00002b1e:    6020         `      STR      r0,[r4,#0]
        0x00002b20:    2003        .       MOVS     r0,#3
        0x00002b22:    e7f0        ..      B        0x2b06 ; ftoa + 34
        0x00002b24:    46a2        .F      MOV      r10,r4
        0x00002b26:    ed8d8a00    ....    VSTR     s16,[sp,#0]
        0x00002b2a:    9800        ..      LDR      r0,[sp,#0]
        0x00002b2c:    f3c050c7    ...P    UBFX     r0,r0,#23,#8
        0x00002b30:    f1a0057f    ....    SUB      r5,r0,#0x7f
        0x00002b34:    9800        ..      LDR      r0,[sp,#0]
        0x00002b36:    f020407f     ..@    BIC      r0,r0,#0xff000000
        0x00002b3a:    f4400900    @...    ORR      r9,r0,#0x800000
        0x00002b3e:    f04f0800    O...    MOV      r8,#0
        0x00002b42:    2700        .'      MOVS     r7,#0
        0x00002b44:    2d1f        .-      CMP      r5,#0x1f
        0x00002b46:    db01        ..      BLT      0x2b4c ; ftoa + 104
        0x00002b48:    1eb8        ..      SUBS     r0,r7,#2
        0x00002b4a:    e7dc        ..      B        0x2b06 ; ftoa + 34
        0x00002b4c:    f1150f17    ....    CMN      r5,#0x17
        0x00002b50:    da02        ..      BGE      0x2b58 ; ftoa + 116
        0x00002b52:    f04f30ff    O..0    MOV      r0,#0xffffffff
        0x00002b56:    e7d6        ..      B        0x2b06 ; ftoa + 34
        0x00002b58:    2d17        .-      CMP      r5,#0x17
        0x00002b5a:    db04        ..      BLT      0x2b66 ; ftoa + 130
        0x00002b5c:    f1a50017    ....    SUB      r0,r5,#0x17
        0x00002b60:    fa09f700    ....    LSL      r7,r9,r0
        0x00002b64:    e011        ..      B        0x2b8a ; ftoa + 166
        0x00002b66:    2d00        .-      CMP      r5,#0
        0x00002b68:    db09        ..      BLT      0x2b7e ; ftoa + 154
        0x00002b6a:    f1c50017    ....    RSB      r0,r5,#0x17
        0x00002b6e:    fa49f700    I...    ASR      r7,r9,r0
        0x00002b72:    1c68        h.      ADDS     r0,r5,#1
        0x00002b74:    fa09f000    ....    LSL      r0,r9,r0
        0x00002b78:    f020487f     ..H    BIC      r8,r0,#0xff000000
        0x00002b7c:    e005        ..      B        0x2b8a ; ftoa + 166
        0x00002b7e:    f029407f    )..@    BIC      r0,r9,#0xff000000
        0x00002b82:    1c69        i.      ADDS     r1,r5,#1
        0x00002b84:    4249        IB      RSBS     r1,r1,#0
        0x00002b86:    fa40f801    @...    ASR      r8,r0,r1
        0x00002b8a:    9800        ..      LDR      r0,[sp,#0]
        0x00002b8c:    2800        .(      CMP      r0,#0
        0x00002b8e:    da02        ..      BGE      0x2b96 ; ftoa + 178
        0x00002b90:    202d        -       MOVS     r0,#0x2d
        0x00002b92:    f8040b01    ....    STRB     r0,[r4],#1
        0x00002b96:    b91f        ..      CBNZ     r7,0x2ba0 ; ftoa + 188
        0x00002b98:    2030        0       MOVS     r0,#0x30
        0x00002b9a:    f8040b01    ....    STRB     r0,[r4],#1
        0x00002b9e:    e014        ..      B        0x2bca ; ftoa + 230
        0x00002ba0:    2f00        ./      CMP      r7,#0
        0x00002ba2:    dd05        ..      BLE      0x2bb0 ; ftoa + 204
        0x00002ba4:    4622        "F      MOV      r2,r4
        0x00002ba6:    4638        8F      MOV      r0,r7
        0x00002ba8:    17f9        ..      ASRS     r1,r7,#31
        0x00002baa:    f000fba8    ....    BL       uint64_to_str ; 0x32fe
        0x00002bae:    e007        ..      B        0x2bc0 ; ftoa + 220
        0x00002bb0:    202d        -       MOVS     r0,#0x2d
        0x00002bb2:    f8040b01    ....    STRB     r0,[r4],#1
        0x00002bb6:    4622        "F      MOV      r2,r4
        0x00002bb8:    4278        xB      RSBS     r0,r7,#0
        0x00002bba:    17c1        ..      ASRS     r1,r0,#31
        0x00002bbc:    f000fb9f    ....    BL       uint64_to_str ; 0x32fe
        0x00002bc0:    e000        ..      B        0x2bc4 ; ftoa + 224
        0x00002bc2:    1c64        d.      ADDS     r4,r4,#1
        0x00002bc4:    7820         x      LDRB     r0,[r4,#0]
        0x00002bc6:    2800        .(      CMP      r0,#0
        0x00002bc8:    d1fb        ..      BNE      0x2bc2 ; ftoa + 222
        0x00002bca:    202e        .       MOVS     r0,#0x2e
        0x00002bcc:    f8040b01    ....    STRB     r0,[r4],#1
        0x00002bd0:    f1b80f00    ....    CMP      r8,#0
        0x00002bd4:    d103        ..      BNE      0x2bde ; ftoa + 250
        0x00002bd6:    2030        0       MOVS     r0,#0x30
        0x00002bd8:    f8040b01    ....    STRB     r0,[r4],#1
        0x00002bdc:    e036        6.      B        0x2c4c ; ftoa + 360
        0x00002bde:    eba4020a    ....    SUB      r2,r4,r10
        0x00002be2:    ebab0202    ....    SUB      r2,r11,r2
        0x00002be6:    1e51        Q.      SUBS     r1,r2,#1
        0x00002be8:    9a06        ..      LDR      r2,[sp,#0x18]
        0x00002bea:    4291        .B      CMP      r1,r2
        0x00002bec:    dd01        ..      BLE      0x2bf2 ; ftoa + 270
        0x00002bee:    9a06        ..      LDR      r2,[sp,#0x18]
        0x00002bf0:    e000        ..      B        0x2bf4 ; ftoa + 272
        0x00002bf2:    460a        .F      MOV      r2,r1
        0x00002bf4:    4611        .F      MOV      r1,r2
        0x00002bf6:    2000        .       MOVS     r0,#0
        0x00002bf8:    e00b        ..      B        0x2c12 ; ftoa + 302
        0x00002bfa:    eb080288    ....    ADD      r2,r8,r8,LSL #2
        0x00002bfe:    ea4f0842    O.B.    LSL      r8,r2,#1
        0x00002c02:    2230        0"      MOVS     r2,#0x30
        0x00002c04:    eb026228    ..(b    ADD      r2,r2,r8,ASR #24
        0x00002c08:    f8042b01    ...+    STRB     r2,[r4],#1
        0x00002c0c:    f028487f    (..H    BIC      r8,r8,#0xff000000
        0x00002c10:    1c40        @.      ADDS     r0,r0,#1
        0x00002c12:    4288        .B      CMP      r0,r1
        0x00002c14:    dbf1        ..      BLT      0x2bfa ; ftoa + 278
        0x00002c16:    eb080288    ....    ADD      r2,r8,r8,LSL #2
        0x00002c1a:    0052        R.      LSLS     r2,r2,#1
        0x00002c1c:    2305        .#      MOVS     r3,#5
        0x00002c1e:    ebb36f22    .."o    CMP      r3,r2,ASR #24
        0x00002c22:    dc12        ..      BGT      0x2c4a ; ftoa + 358
        0x00002c24:    1e66        f.      SUBS     r6,r4,#1
        0x00002c26:    e00d        ..      B        0x2c44 ; ftoa + 352
        0x00002c28:    7832        2x      LDRB     r2,[r6,#0]
        0x00002c2a:    2a2e        .*      CMP      r2,#0x2e
        0x00002c2c:    d009        ..      BEQ      0x2c42 ; ftoa + 350
        0x00002c2e:    7832        2x      LDRB     r2,[r6,#0]
        0x00002c30:    2a39        9*      CMP      r2,#0x39
        0x00002c32:    d102        ..      BNE      0x2c3a ; ftoa + 342
        0x00002c34:    2230        0"      MOVS     r2,#0x30
        0x00002c36:    7032        2p      STRB     r2,[r6,#0]
        0x00002c38:    e003        ..      B        0x2c42 ; ftoa + 350
        0x00002c3a:    7832        2x      LDRB     r2,[r6,#0]
        0x00002c3c:    1c52        R.      ADDS     r2,r2,#1
        0x00002c3e:    7032        2p      STRB     r2,[r6,#0]
        0x00002c40:    e002        ..      B        0x2c48 ; ftoa + 356
        0x00002c42:    1e76        v.      SUBS     r6,r6,#1
        0x00002c44:    4556        VE      CMP      r6,r10
        0x00002c46:    d2ef        ..      BCS      0x2c28 ; ftoa + 324
        0x00002c48:    bf00        ..      NOP      
        0x00002c4a:    bf00        ..      NOP      
        0x00002c4c:    2000        .       MOVS     r0,#0
        0x00002c4e:    7020         p      STRB     r0,[r4,#0]
        0x00002c50:    eba4000a    ....    SUB      r0,r4,r10
        0x00002c54:    e757        W.      B        0x2b06 ; ftoa + 34
    $d
        0x00002c56:    0000        ..      DCW    0
        0x00002c58:    00302e30    0.0.    DCD    3157552
    $t
    i.i2c_pull_and_wait_scl_hi
    i2c_pull_and_wait_scl_hi
        0x00002c5c:    b570        p.      PUSH     {r4-r6,lr}
        0x00002c5e:    4c0d        .L      LDR      r4,[pc,#52] ; [0x2c94] = 0x100006dc
        0x00002c60:    68e1        .h      LDR      r1,[r4,#0xc]
        0x00002c62:    69a0        .i      LDR      r0,[r4,#0x18]
        0x00002c64:    6008        .`      STR      r0,[r1,#0]
        0x00002c66:    6961        ai      LDR      r1,[r4,#0x14]
        0x00002c68:    6809        .h      LDR      r1,[r1,#0]
        0x00002c6a:    4201        .B      TST      r1,r0
        0x00002c6c:    bf08        ..      IT       EQ
        0x00002c6e:    f44f75c8    O..u    MOVEQ    r5,#0x190
        0x00002c72:    d10a        ..      BNE      0x2c8a ; i2c_pull_and_wait_scl_hi + 46
        0x00002c74:    e001        ..      B        0x2c7a ; i2c_pull_and_wait_scl_hi + 30
        0x00002c76:    1e6d        m.      SUBS     r5,r5,#1
        0x00002c78:    d009        ..      BEQ      0x2c8e ; i2c_pull_and_wait_scl_hi + 50
        0x00002c7a:    2004        .       MOVS     r0,#4
        0x00002c7c:    f7fdfcd0    ....    BL       am_hal_flash_delay ; 0x620
        0x00002c80:    6960        `i      LDR      r0,[r4,#0x14]
        0x00002c82:    6800        .h      LDR      r0,[r0,#0]
        0x00002c84:    69a1        .i      LDR      r1,[r4,#0x18]
        0x00002c86:    4208        .B      TST      r0,r1
        0x00002c88:    d0f5        ..      BEQ      0x2c76 ; i2c_pull_and_wait_scl_hi + 26
        0x00002c8a:    2000        .       MOVS     r0,#0
        0x00002c8c:    bd70        p.      POP      {r4-r6,pc}
        0x00002c8e:    2001        .       MOVS     r0,#1
        0x00002c90:    bd70        p.      POP      {r4-r6,pc}
    $d
        0x00002c92:    0000        ..      DCW    0
        0x00002c94:    100006dc    ....    DCD    268437212
    $t
    i.i2c_send_byte
    i2c_send_byte
        0x00002c98:    e92d41f0    -..A    PUSH     {r4-r8,lr}
        0x00002c9c:    4c25        %L      LDR      r4,[pc,#148] ; [0x2d34] = 0x100006dc
        0x00002c9e:    4607        .F      MOV      r7,r0
        0x00002ca0:    2600        .&      MOVS     r6,#0
        0x00002ca2:    f04f0880    O...    MOV      r8,#0x80
        0x00002ca6:    6921        !i      LDR      r1,[r4,#0x10]
        0x00002ca8:    69a0        .i      LDR      r0,[r4,#0x18]
        0x00002caa:    6008        .`      STR      r0,[r1,#0]
        0x00002cac:    fa28f006    (...    LSR      r0,r8,r6
        0x00002cb0:    4238        8B      TST      r0,r7
        0x00002cb2:    6aa0        .j      LDR      r0,[r4,#0x28]
        0x00002cb4:    bf14        ..      ITE      NE
        0x00002cb6:    69e1        .i      LDRNE    r1,[r4,#0x1c]
        0x00002cb8:    6a21        !j      LDREQ    r1,[r4,#0x20]
        0x00002cba:    6008        .`      STR      r0,[r1,#0]
        0x00002cbc:    2007        .       MOVS     r0,#7
        0x00002cbe:    f7fdfcaf    ....    BL       am_hal_flash_delay ; 0x620
        0x00002cc2:    68e1        .h      LDR      r1,[r4,#0xc]
        0x00002cc4:    69a0        .i      LDR      r0,[r4,#0x18]
        0x00002cc6:    6008        .`      STR      r0,[r1,#0]
        0x00002cc8:    6961        ai      LDR      r1,[r4,#0x14]
        0x00002cca:    6809        .h      LDR      r1,[r1,#0]
        0x00002ccc:    4201        .B      TST      r1,r0
        0x00002cce:    bf08        ..      IT       EQ
        0x00002cd0:    f44f75c8    O..u    MOVEQ    r5,#0x190
        0x00002cd4:    d10a        ..      BNE      0x2cec ; i2c_send_byte + 84
        0x00002cd6:    e001        ..      B        0x2cdc ; i2c_send_byte + 68
        0x00002cd8:    1e6d        m.      SUBS     r5,r5,#1
        0x00002cda:    d016        ..      BEQ      0x2d0a ; i2c_send_byte + 114
        0x00002cdc:    2004        .       MOVS     r0,#4
        0x00002cde:    f7fdfc9f    ....    BL       am_hal_flash_delay ; 0x620
        0x00002ce2:    6960        `i      LDR      r0,[r4,#0x14]
        0x00002ce4:    6801        .h      LDR      r1,[r0,#0]
        0x00002ce6:    69a0        .i      LDR      r0,[r4,#0x18]
        0x00002ce8:    4201        .B      TST      r1,r0
        0x00002cea:    d0f5        ..      BEQ      0x2cd8 ; i2c_send_byte + 64
        0x00002cec:    2005        .       MOVS     r0,#5
        0x00002cee:    f7fdfc97    ....    BL       am_hal_flash_delay ; 0x620
        0x00002cf2:    1c76        v.      ADDS     r6,r6,#1
        0x00002cf4:    2e08        ..      CMP      r6,#8
        0x00002cf6:    dbd6        ..      BLT      0x2ca6 ; i2c_send_byte + 14
        0x00002cf8:    6921        !i      LDR      r1,[r4,#0x10]
        0x00002cfa:    69a0        .i      LDR      r0,[r4,#0x18]
        0x00002cfc:    6008        .`      STR      r0,[r1,#0]
        0x00002cfe:    2007        .       MOVS     r0,#7
        0x00002d00:    f7fdfc8e    ....    BL       am_hal_flash_delay ; 0x620
        0x00002d04:    f7ffffaa    ....    BL       i2c_pull_and_wait_scl_hi ; 0x2c5c
        0x00002d08:    b110        ..      CBZ      r0,0x2d10 ; i2c_send_byte + 120
        0x00002d0a:    2003        .       MOVS     r0,#3
        0x00002d0c:    e8bd81f0    ....    POP      {r4-r8,pc}
        0x00002d10:    6a60        `j      LDR      r0,[r4,#0x24]
        0x00002d12:    6800        .h      LDR      r0,[r0,#0]
        0x00002d14:    6aa1        .j      LDR      r1,[r4,#0x28]
        0x00002d16:    4208        .B      TST      r0,r1
        0x00002d18:    f04f0005    O...    MOV      r0,#5
        0x00002d1c:    d004        ..      BEQ      0x2d28 ; i2c_send_byte + 144
        0x00002d1e:    f7fdfc7f    ....    BL       am_hal_flash_delay ; 0x620
        0x00002d22:    2002        .       MOVS     r0,#2
        0x00002d24:    e8bd81f0    ....    POP      {r4-r8,pc}
        0x00002d28:    f7fdfc7a    ..z.    BL       am_hal_flash_delay ; 0x620
        0x00002d2c:    2000        .       MOVS     r0,#0
        0x00002d2e:    e8bd81f0    ....    POP      {r4-r8,pc}
    $d
        0x00002d32:    0000        ..      DCW    0
        0x00002d34:    100006dc    ....    DCD    268437212
    $t
    i.internal_iom_get_int_err
    internal_iom_get_int_err
        0x00002d38:    4602        .F      MOV      r2,r0
        0x00002d3a:    2000        .       MOVS     r0,#0
        0x00002d3c:    2a06        .*      CMP      r2,#6
        0x00002d3e:    bf2f        /.      ITEEE    CS
        0x00002d40:    2200        ."      MOVCS    r2,#0
        0x00002d42:    0312        ..      LSLCC    r2,r2,#12
        0x00002d44:    f5024280    ...B    ADDCC    r2,r2,#0x4000
        0x00002d48:    f10242a0    ...B    ADDCC    r2,r2,#0x50000000
        0x00002d4c:    bf38        8.      IT       CC
        0x00002d4e:    f8d22204    ..."    LDRCC    r2,[r2,#0x204]
        0x00002d52:    4311        .C      ORRS     r1,r1,r2
        0x00002d54:    f0110fcc    ....    TST      r1,#0xcc
        0x00002d58:    bf1c        ..      ITT      NE
        0x00002d5a:    2005        .       MOVNE    r0,#5
        0x00002d5c:    4770        pG      BXNE     lr
        0x00002d5e:    f4116fe0    ...o    TST      r1,#0x700
        0x00002d62:    bf1c        ..      ITT      NE
        0x00002d64:    2007        .       MOVNE    r0,#7
        0x00002d66:    4770        pG      BXNE     lr
        0x00002d68:    f0110f10    ....    TST      r1,#0x10
        0x00002d6c:    bf18        ..      IT       NE
        0x00002d6e:    2006        .       MOVNE    r0,#6
        0x00002d70:    4770        pG      BX       lr
        0x00002d72:    0000        ..      MOVS     r0,r0
    i.iom_set_up
    iom_set_up
        0x00002d74:    b508        ..      PUSH     {r3,lr}
        0x00002d76:    2000        .       MOVS     r0,#0
        0x00002d78:    f7fefc22    ..".    BL       am_hal_iom_pwrctrl_enable ; 0x15c0
        0x00002d7c:    492f        /I      LDR      r1,[pc,#188] ; [0x2e3c] = 0x10000028
        0x00002d7e:    2000        .       MOVS     r0,#0
        0x00002d80:    f7fdfde6    ....    BL       am_hal_iom_config ; 0x950
        0x00002d84:    2020                MOVS     r0,#0x20
        0x00002d86:    492e        .I      LDR      r1,[pc,#184] ; [0x2e40] = 0x40010090
        0x00002d88:    6008        .`      STR      r0,[r1,#0]
        0x00002d8a:    2040        @       MOVS     r0,#0x40
        0x00002d8c:    492c        ,I      LDR      r1,[pc,#176] ; [0x2e40] = 0x40010090
        0x00002d8e:    3990        .9      SUBS     r1,r1,#0x90
        0x00002d90:    f8c10090    ....    STR      r0,[r1,#0x90]
        0x00002d94:    f7fdf9fc    ....    BL       am_hal_interrupt_master_disable ; 0x190
        0x00002d98:    9000        ..      STR      r0,[sp,#0]
        0x00002d9a:    2073        s       MOVS     r0,#0x73
        0x00002d9c:    4928        (I      LDR      r1,[pc,#160] ; [0x2e40] = 0x40010090
        0x00002d9e:    3990        .9      SUBS     r1,r1,#0x90
        0x00002da0:    6608        .f      STR      r0,[r1,#0x60]
        0x00002da2:    4608        .F      MOV      r0,r1
        0x00002da4:    6c00        .l      LDR      r0,[r0,#0x40]
        0x00002da6:    f42000e0     ...    BIC      r0,r0,#0x700000
        0x00002daa:    f4400080    @...    ORR      r0,r0,#0x400000
        0x00002dae:    6408        .d      STR      r0,[r1,#0x40]
        0x00002db0:    4608        .F      MOV      r0,r1
        0x00002db2:    6840        @h      LDR      r0,[r0,#4]
        0x00002db4:    f420407f     ..@    BIC      r0,r0,#0xff00
        0x00002db8:    f4407040    @.@p    ORR      r0,r0,#0x300
        0x00002dbc:    6048        H`      STR      r0,[r1,#4]
        0x00002dbe:    4608        .F      MOV      r0,r1
        0x00002dc0:    f8d000e4    ....    LDR      r0,[r0,#0xe4]
        0x00002dc4:    f420407f     ..@    BIC      r0,r0,#0xff00
        0x00002dc8:    491d        .I      LDR      r1,[pc,#116] ; [0x2e40] = 0x40010090
        0x00002dca:    3154        T1      ADDS     r1,r1,#0x54
        0x00002dcc:    6008        .`      STR      r0,[r1,#0]
        0x00002dce:    2000        .       MOVS     r0,#0
        0x00002dd0:    491b        .I      LDR      r1,[pc,#108] ; [0x2e40] = 0x40010090
        0x00002dd2:    3990        .9      SUBS     r1,r1,#0x90
        0x00002dd4:    6608        .f      STR      r0,[r1,#0x60]
        0x00002dd6:    9800        ..      LDR      r0,[sp,#0]
        0x00002dd8:    f7fdf9de    ....    BL       am_hal_interrupt_master_set ; 0x198
        0x00002ddc:    f7fdf9d8    ....    BL       am_hal_interrupt_master_disable ; 0x190
        0x00002de0:    9000        ..      STR      r0,[sp,#0]
        0x00002de2:    2073        s       MOVS     r0,#0x73
        0x00002de4:    4916        .I      LDR      r1,[pc,#88] ; [0x2e40] = 0x40010090
        0x00002de6:    3990        .9      SUBS     r1,r1,#0x90
        0x00002de8:    6608        .f      STR      r0,[r1,#0x60]
        0x00002dea:    4608        .F      MOV      r0,r1
        0x00002dec:    6c00        .l      LDR      r0,[r0,#0x40]
        0x00002dee:    f02060e0     ..`    BIC      r0,r0,#0x7000000
        0x00002df2:    f0406080    @..`    ORR      r0,r0,#0x4000000
        0x00002df6:    6408        .d      STR      r0,[r1,#0x40]
        0x00002df8:    4608        .F      MOV      r0,r1
        0x00002dfa:    6840        @h      LDR      r0,[r0,#4]
        0x00002dfc:    f420007f     ...    BIC      r0,r0,#0xff0000
        0x00002e00:    f4403040    @.@0    ORR      r0,r0,#0x30000
        0x00002e04:    6048        H`      STR      r0,[r1,#4]
        0x00002e06:    4608        .F      MOV      r0,r1
        0x00002e08:    f8d000e4    ....    LDR      r0,[r0,#0xe4]
        0x00002e0c:    f420007f     ...    BIC      r0,r0,#0xff0000
        0x00002e10:    490b        .I      LDR      r1,[pc,#44] ; [0x2e40] = 0x40010090
        0x00002e12:    3154        T1      ADDS     r1,r1,#0x54
        0x00002e14:    6008        .`      STR      r0,[r1,#0]
        0x00002e16:    2000        .       MOVS     r0,#0
        0x00002e18:    4909        .I      LDR      r1,[pc,#36] ; [0x2e40] = 0x40010090
        0x00002e1a:    3990        .9      SUBS     r1,r1,#0x90
        0x00002e1c:    6608        .f      STR      r0,[r1,#0x60]
        0x00002e1e:    9800        ..      LDR      r0,[sp,#0]
        0x00002e20:    f7fdf9ba    ....    BL       am_hal_interrupt_master_set ; 0x198
        0x00002e24:    21ff        .!      MOVS     r1,#0xff
        0x00002e26:    2000        .       MOVS     r0,#0
        0x00002e28:    f7fefaf3    ....    BL       am_hal_iom_int_enable ; 0x1412
        0x00002e2c:    2016        .       MOVS     r0,#0x16
        0x00002e2e:    f7fdfd69    ..i.    BL       am_hal_interrupt_enable ; 0x904
        0x00002e32:    2000        .       MOVS     r0,#0
        0x00002e34:    f7fdfa48    ..H.    BL       am_bsp_iom_enable ; 0x2c8
        0x00002e38:    bd08        ..      POP      {r3,pc}
    $d
        0x00002e3a:    0000        ..      DCW    0
        0x00002e3c:    10000028    (...    DCD    268435496
        0x00002e40:    40010090    ...@    DCD    1073807504
    $t
    i.ios_set_up
    ios_set_up
        0x00002e44:    b508        ..      PUSH     {r3,lr}
        0x00002e46:    f7fdf9a3    ....    BL       am_hal_interrupt_master_disable ; 0x190
        0x00002e4a:    9000        ..      STR      r0,[sp,#0]
        0x00002e4c:    2073        s       MOVS     r0,#0x73
        0x00002e4e:    4937        7I      LDR      r1,[pc,#220] ; [0x2f2c] = 0x40010000
        0x00002e50:    6608        .f      STR      r0,[r1,#0x60]
        0x00002e52:    4608        .F      MOV      r0,r1
        0x00002e54:    6c00        .l      LDR      r0,[r0,#0x40]
        0x00002e56:    f0200007     ...    BIC      r0,r0,#7
        0x00002e5a:    6408        .d      STR      r0,[r1,#0x40]
        0x00002e5c:    4608        .F      MOV      r0,r1
        0x00002e5e:    6800        .h      LDR      r0,[r0,#0]
        0x00002e60:    f02000ff     ...    BIC      r0,r0,#0xff
        0x00002e64:    f0400002    @...    ORR      r0,r0,#2
        0x00002e68:    6008        .`      STR      r0,[r1,#0]
        0x00002e6a:    4830        0H      LDR      r0,[pc,#192] ; [0x2f2c] = 0x40010000
        0x00002e6c:    30e0        .0      ADDS     r0,r0,#0xe0
        0x00002e6e:    6800        .h      LDR      r0,[r0,#0]
        0x00002e70:    f02000ff     ...    BIC      r0,r0,#0xff
        0x00002e74:    f8c100e0    ....    STR      r0,[r1,#0xe0]
        0x00002e78:    2000        .       MOVS     r0,#0
        0x00002e7a:    6608        .f      STR      r0,[r1,#0x60]
        0x00002e7c:    9800        ..      LDR      r0,[sp,#0]
        0x00002e7e:    f7fdf98b    ....    BL       am_hal_interrupt_master_set ; 0x198
        0x00002e82:    f7fdf985    ....    BL       am_hal_interrupt_master_disable ; 0x190
        0x00002e86:    9000        ..      STR      r0,[sp,#0]
        0x00002e88:    2073        s       MOVS     r0,#0x73
        0x00002e8a:    4928        (I      LDR      r1,[pc,#160] ; [0x2f2c] = 0x40010000
        0x00002e8c:    6608        .f      STR      r0,[r1,#0x60]
        0x00002e8e:    4608        .F      MOV      r0,r1
        0x00002e90:    6c00        .l      LDR      r0,[r0,#0x40]
        0x00002e92:    f0200070     .p.    BIC      r0,r0,#0x70
        0x00002e96:    f0400040    @.@.    ORR      r0,r0,#0x40
        0x00002e9a:    6408        .d      STR      r0,[r1,#0x40]
        0x00002e9c:    4608        .F      MOV      r0,r1
        0x00002e9e:    6800        .h      LDR      r0,[r0,#0]
        0x00002ea0:    f420407f     ..@    BIC      r0,r0,#0xff00
        0x00002ea4:    f4407000    @..p    ORR      r0,r0,#0x200
        0x00002ea8:    6008        .`      STR      r0,[r1,#0]
        0x00002eaa:    4608        .F      MOV      r0,r1
        0x00002eac:    f8d000e0    ....    LDR      r0,[r0,#0xe0]
        0x00002eb0:    f420407f     ..@    BIC      r0,r0,#0xff00
        0x00002eb4:    491d        .I      LDR      r1,[pc,#116] ; [0x2f2c] = 0x40010000
        0x00002eb6:    31e0        .1      ADDS     r1,r1,#0xe0
        0x00002eb8:    6008        .`      STR      r0,[r1,#0]
        0x00002eba:    2000        .       MOVS     r0,#0
        0x00002ebc:    491b        .I      LDR      r1,[pc,#108] ; [0x2f2c] = 0x40010000
        0x00002ebe:    6608        .f      STR      r0,[r1,#0x60]
        0x00002ec0:    9800        ..      LDR      r0,[sp,#0]
        0x00002ec2:    f7fdf969    ..i.    BL       am_hal_interrupt_master_set ; 0x198
        0x00002ec6:    481a        .H      LDR      r0,[pc,#104] ; [0x2f30] = 0x10000010
        0x00002ec8:    f7feffc6    ....    BL       am_hal_ios_config ; 0x1e58
        0x00002ecc:    f04f30ff    O..0    MOV      r0,#0xffffffff
        0x00002ed0:    f7feffbc    ....    BL       am_hal_ios_access_int_clear ; 0x1e4c
        0x00002ed4:    f04f30ff    O..0    MOV      r0,#0xffffffff
        0x00002ed8:    f7fff806    ....    BL       am_hal_ios_int_clear ; 0x1ee8
        0x00002edc:    2015        .       MOVS     r0,#0x15
        0x00002ede:    f7fdfd11    ....    BL       am_hal_interrupt_enable ; 0x904
        0x00002ee2:    2014        .       MOVS     r0,#0x14
        0x00002ee4:    f7fdfd0e    ....    BL       am_hal_interrupt_enable ; 0x904
        0x00002ee8:    f7fdf952    ..R.    BL       am_hal_interrupt_master_disable ; 0x190
        0x00002eec:    9000        ..      STR      r0,[sp,#0]
        0x00002eee:    2073        s       MOVS     r0,#0x73
        0x00002ef0:    490e        .I      LDR      r1,[pc,#56] ; [0x2f2c] = 0x40010000
        0x00002ef2:    6608        .f      STR      r0,[r1,#0x60]
        0x00002ef4:    4608        .F      MOV      r0,r1
        0x00002ef6:    6c00        .l      LDR      r0,[r0,#0x40]
        0x00002ef8:    f42020e0     ..     BIC      r0,r0,#0x70000
        0x00002efc:    6408        .d      STR      r0,[r1,#0x40]
        0x00002efe:    4608        .F      MOV      r0,r1
        0x00002f00:    6840        @h      LDR      r0,[r0,#4]
        0x00002f02:    f02000ff     ...    BIC      r0,r0,#0xff
        0x00002f06:    f0400008    @...    ORR      r0,r0,#8
        0x00002f0a:    6048        H`      STR      r0,[r1,#4]
        0x00002f0c:    4608        .F      MOV      r0,r1
        0x00002f0e:    f8d000e4    ....    LDR      r0,[r0,#0xe4]
        0x00002f12:    f02000ff     ...    BIC      r0,r0,#0xff
        0x00002f16:    4905        .I      LDR      r1,[pc,#20] ; [0x2f2c] = 0x40010000
        0x00002f18:    31e4        .1      ADDS     r1,r1,#0xe4
        0x00002f1a:    6008        .`      STR      r0,[r1,#0]
        0x00002f1c:    2000        .       MOVS     r0,#0
        0x00002f1e:    4903        .I      LDR      r1,[pc,#12] ; [0x2f2c] = 0x40010000
        0x00002f20:    6608        .f      STR      r0,[r1,#0x60]
        0x00002f22:    9800        ..      LDR      r0,[sp,#0]
        0x00002f24:    f7fdf938    ..8.    BL       am_hal_interrupt_master_set ; 0x198
        0x00002f28:    bd08        ..      POP      {r3,pc}
    $d
        0x00002f2a:    0000        ..      DCW    0
        0x00002f2c:    40010000    ...@    DCD    1073807360
        0x00002f30:    10000010    ....    DCD    268435472
    $t
    i.itm_start
    itm_start
        0x00002f34:    b508        ..      PUSH     {r3,lr}
        0x00002f36:    4813        .H      LDR      r0,[pc,#76] ; [0x2f84] = 0x3ad
        0x00002f38:    f7fffb5c    ..\.    BL       am_util_stdio_printf_init ; 0x25f4
        0x00002f3c:    f7fdf928    ..(.    BL       am_hal_interrupt_master_disable ; 0x190
        0x00002f40:    9000        ..      STR      r0,[sp,#0]
        0x00002f42:    2073        s       MOVS     r0,#0x73
        0x00002f44:    4910        .I      LDR      r1,[pc,#64] ; [0x2f88] = 0x40010000
        0x00002f46:    6608        .f      STR      r0,[r1,#0x60]
        0x00002f48:    4608        .F      MOV      r0,r1
        0x00002f4a:    6d40        @m      LDR      r0,[r0,#0x54]
        0x00002f4c:    f0200070     .p.    BIC      r0,r0,#0x70
        0x00002f50:    6548        He      STR      r0,[r1,#0x54]
        0x00002f52:    4608        .F      MOV      r0,r1
        0x00002f54:    6a80        .j      LDR      r0,[r0,#0x28]
        0x00002f56:    f420407f     ..@    BIC      r0,r0,#0xff00
        0x00002f5a:    f4405080    @..P    ORR      r0,r0,#0x1000
        0x00002f5e:    6288        .b      STR      r0,[r1,#0x28]
        0x00002f60:    480a        .H      LDR      r0,[pc,#40] ; [0x2f8c] = 0x40010108
        0x00002f62:    6800        .h      LDR      r0,[r0,#0]
        0x00002f64:    f420407f     ..@    BIC      r0,r0,#0xff00
        0x00002f68:    f8c10108    ....    STR      r0,[r1,#0x108]
        0x00002f6c:    2000        .       MOVS     r0,#0
        0x00002f6e:    6608        .f      STR      r0,[r1,#0x60]
        0x00002f70:    9800        ..      LDR      r0,[sp,#0]
        0x00002f72:    f7fdf911    ....    BL       am_hal_interrupt_master_set ; 0x198
        0x00002f76:    f7feffc1    ....    BL       am_hal_itm_enable ; 0x1efc
        0x00002f7a:    f7fdf96d    ..m.    BL       am_bsp_debug_printf_enable ; 0x258
        0x00002f7e:    f7fffb3f    ..?.    BL       am_util_stdio_terminal_clear ; 0x2600
        0x00002f82:    bd08        ..      POP      {r3,pc}
    $d
        0x00002f84:    000003ad    ....    DCD    941
        0x00002f88:    40010000    ...@    DCD    1073807360
        0x00002f8c:    40010108    ...@    DCD    1073807624
    $t
    i.main
    main
        0x00002f90:    b508        ..      PUSH     {r3,lr}
        0x00002f92:    2000        .       MOVS     r0,#0
        0x00002f94:    f7fdfaa2    ....    BL       am_hal_clkgen_sysclk_select ; 0x4dc
        0x00002f98:    4837        7H      LDR      r0,[pc,#220] ; [0x3078] = 0x3482
        0x00002f9a:    f7fdfa1b    ....    BL       am_hal_cachectrl_enable ; 0x3d4
        0x00002f9e:    f7fdfa07    ....    BL       am_bsp_low_power_init ; 0x3b0
        0x00002fa2:    f7ffffc7    ....    BL       itm_start ; 0x2f34
        0x00002fa6:    f7fffb2b    ..+.    BL       am_util_stdio_terminal_clear ; 0x2600
        0x00002faa:    a034        4.      ADR      r0,{pc}+0xd2 ; 0x307c
        0x00002fac:    f7fffb0a    ....    BL       am_util_stdio_printf ; 0x25c4
        0x00002fb0:    200a        .       MOVS     r0,#0xa
        0x00002fb2:    f7fffaf8    ....    BL       am_util_delay_ms ; 0x25a6
        0x00002fb6:    f7fdf8e7    ....    BL       am_hal_interrupt_master_enable ; 0x188
        0x00002fba:    f7ffff43    ..C.    BL       ios_set_up ; 0x2e44
        0x00002fbe:    f7fffed9    ....    BL       iom_set_up ; 0x2d74
        0x00002fc2:    f44f4000    O..@    MOV      r0,#0x8000
        0x00002fc6:    9000        ..      STR      r0,[sp,#0]
        0x00002fc8:    4839        9H      LDR      r0,[pc,#228] ; [0x30b0] = 0x10000010
        0x00002fca:    6800        .h      LDR      r0,[r0,#0]
        0x00002fcc:    f3c0214a    ..J!    UBFX     r1,r0,#9,#11
        0x00002fd0:    2310        .#      MOVS     r3,#0x10
        0x00002fd2:    4a38        8J      LDR      r2,[pc,#224] ; [0x30b4] = 0x10000000
        0x00002fd4:    2000        .       MOVS     r0,#0
        0x00002fd6:    f7fef81d    ....    BL       am_hal_iom_i2c_write ; 0x1014
        0x00002fda:    a037        7.      ADR      r0,{pc}+0xde ; 0x30b8
        0x00002fdc:    f7fffaf2    ....    BL       am_util_stdio_printf ; 0x25c4
        0x00002fe0:    2400        .$      MOVS     r4,#0
        0x00002fe2:    e00b        ..      B        0x2ffc ; main + 108
        0x00002fe4:    4620         F      MOV      r0,r4
        0x00002fe6:    f7feff84    ....    BL       am_hal_ios_lram_read ; 0x1ef2
        0x00002fea:    4932        2I      LDR      r1,[pc,#200] ; [0x30b4] = 0x10000000
        0x00002fec:    5d09        .]      LDRB     r1,[r1,r4]
        0x00002fee:    4288        .B      CMP      r0,r1
        0x00002ff0:    d003        ..      BEQ      0x2ffa ; main + 106
        0x00002ff2:    a039        9.      ADR      r0,{pc}+0xe6 ; 0x30d8
        0x00002ff4:    f7fffae6    ....    BL       am_util_stdio_printf ; 0x25c4
        0x00002ff8:    e002        ..      B        0x3000 ; main + 112
        0x00002ffa:    1c64        d.      ADDS     r4,r4,#1
        0x00002ffc:    2c10        .,      CMP      r4,#0x10
        0x00002ffe:    d3f1        ..      BCC      0x2fe4 ; main + 84
        0x00003000:    bf00        ..      NOP      
        0x00003002:    f44f7260    O.`r    MOV      r2,#0x380
        0x00003006:    493f        ?I      LDR      r1,[pc,#252] ; [0x3104] = 0x100000b4
        0x00003008:    2000        .       MOVS     r0,#0
        0x0000300a:    f7fefb0b    ....    BL       am_hal_iom_queue_init ; 0x1624
        0x0000300e:    2400        .$      MOVS     r4,#0
        0x00003010:    e011        ..      B        0x3036 ; main + 166
        0x00003012:    f0440080    D...    ORR      r0,r4,#0x80
        0x00003016:    f44f417f    O..A    MOV      r1,#0xff00
        0x0000301a:    ea012000    ...     AND      r0,r1,r0,LSL #8
        0x0000301e:    9000        ..      STR      r0,[sp,#0]
        0x00003020:    4824        $H      LDR      r0,[pc,#144] ; [0x30b4] = 0x10000000
        0x00003022:    1902        ..      ADDS     r2,r0,r4
        0x00003024:    4822        "H      LDR      r0,[pc,#136] ; [0x30b0] = 0x10000010
        0x00003026:    6800        .h      LDR      r0,[r0,#0]
        0x00003028:    f3c0214a    ..J!    UBFX     r1,r0,#9,#11
        0x0000302c:    2301        .#      MOVS     r3,#1
        0x0000302e:    2000        .       MOVS     r0,#0
        0x00003030:    f7fdfff0    ....    BL       am_hal_iom_i2c_write ; 0x1014
        0x00003034:    1c64        d.      ADDS     r4,r4,#1
        0x00003036:    2c10        .,      CMP      r4,#0x10
        0x00003038:    d3eb        ..      BCC      0x3012 ; main + 130
        0x0000303a:    200a        .       MOVS     r0,#0xa
        0x0000303c:    f7fffab3    ....    BL       am_util_delay_ms ; 0x25a6
        0x00003040:    a031        1.      ADR      r0,{pc}+0xc8 ; 0x3108
        0x00003042:    f7fffabf    ....    BL       am_util_stdio_printf ; 0x25c4
        0x00003046:    2400        .$      MOVS     r4,#0
        0x00003048:    e00b        ..      B        0x3062 ; main + 210
        0x0000304a:    4620         F      MOV      r0,r4
        0x0000304c:    f7feff51    ..Q.    BL       am_hal_ios_lram_read ; 0x1ef2
        0x00003050:    4918        .I      LDR      r1,[pc,#96] ; [0x30b4] = 0x10000000
        0x00003052:    5d09        .]      LDRB     r1,[r1,r4]
        0x00003054:    4288        .B      CMP      r0,r1
        0x00003056:    d003        ..      BEQ      0x3060 ; main + 208
        0x00003058:    a01f        ..      ADR      r0,{pc}+0x80 ; 0x30d8
        0x0000305a:    f7fffab3    ....    BL       am_util_stdio_printf ; 0x25c4
        0x0000305e:    e002        ..      B        0x3066 ; main + 214
        0x00003060:    1c64        d.      ADDS     r4,r4,#1
        0x00003062:    2c10        .,      CMP      r4,#0x10
        0x00003064:    d3f1        ..      BCC      0x304a ; main + 186
        0x00003066:    bf00        ..      NOP      
        0x00003068:    2064        d       MOVS     r0,#0x64
        0x0000306a:    f7fffa9c    ....    BL       am_util_delay_ms ; 0x25a6
        0x0000306e:    e002        ..      B        0x3076 ; main + 230
        0x00003070:    2001        .       MOVS     r0,#1
        0x00003072:    f7fff9c9    ....    BL       am_hal_sysctrl_sleep ; 0x2408
        0x00003076:    e7fb        ..      B        0x3070 ; main + 224
    $d
        0x00003078:    00003482    .4..    DCD    13442
        0x0000307c:    20433249    I2C     DCD    541274697
        0x00003080:    706f6f4c    Loop    DCD    1886351180
        0x00003084:    6b636162    back    DCD    1801675106
        0x00003088:    61784520     Exa    DCD    1635271968
        0x0000308c:    656c706d    mple    DCD    1701605485
        0x00003090:    69737520     usi    DCD    1769174304
        0x00003094:    4920676e    ng I    DCD    1226860398
        0x00003098:    54534d4f    OMST    DCD    1414745423
        0x0000309c:    34232052    R #4    DCD    874717266
        0x000030a0:    646e6120     and    DCD    1684955424
        0x000030a4:    534f4920     IOS    DCD    1397704992
        0x000030a8:    4556414c    LAVE    DCD    1163280716
        0x000030ac:    00000000    ....    DCD    0
        0x000030b0:    10000010    ....    DCD    268435472
        0x000030b4:    10000000    ....    DCD    268435456
        0x000030b8:    6f6c420a    .Blo    DCD    1869365770
        0x000030bc:    6e696b63    ckin    DCD    1852402531
        0x000030c0:    72542067    g Tr    DCD    1918115943
        0x000030c4:    66736e61    ansf    DCD    1718840929
        0x000030c8:    43207265    er C    DCD    1126199909
        0x000030cc:    6c706d6f    ompl    DCD    1819307375
        0x000030d0:    0a657465    ete.    DCD    174421093
        0x000030d4:    00000000    ....    DCD    0
        0x000030d8:    534f490a    .IOS    DCD    1397704970
        0x000030dc:    74614420     Dat    DCD    1952531488
        0x000030e0:    69642061    a di    DCD    1768169569
        0x000030e4:    6f6e2064    d no    DCD    1869488228
        0x000030e8:    616d2074    t ma    DCD    1634541684
        0x000030ec:    20686374    tch     DCD    543712116
        0x000030f0:    204d4f49    IOM     DCD    541937481
        0x000030f4:    61746164    data    DCD    1635017060
        0x000030f8:    6e657320     sen    DCD    1852142368
        0x000030fc:    21212174    t!!!    DCD    555819380
        0x00003100:    0000000a    ....    DCD    10
        0x00003104:    100000b4    ....    DCD    268435636
        0x00003108:    6e6f4e0a    .Non    DCD    1852788234
        0x0000310c:    6f6c422d    -Blo    DCD    1869365805
        0x00003110:    6e696b63    ckin    DCD    1852402531
        0x00003114:    72542067    g Tr    DCD    1918115943
        0x00003118:    66736e61    ansf    DCD    1718840929
        0x0000311c:    43207265    er C    DCD    1126199909
        0x00003120:    6c706d6f    ompl    DCD    1819307375
        0x00003124:    0a657465    ete.    DCD    174421093
        0x00003128:    00000000    ....    DCD    0
    $t
    i.ndigits_in_hex
    ndigits_in_hex
        0x0000312c:    b530        0.      PUSH     {r4,r5,lr}
        0x0000312e:    4602        .F      MOV      r2,r0
        0x00003130:    460b        .F      MOV      r3,r1
        0x00003132:    2400        .$      MOVS     r4,#0
        0x00003134:    ea820104    ....    EOR      r1,r2,r4
        0x00003138:    405c        \@      EORS     r4,r4,r3
        0x0000313a:    4321        !C      ORRS     r1,r1,r4
        0x0000313c:    d101        ..      BNE      0x3142 ; ndigits_in_hex + 22
        0x0000313e:    2101        .!      MOVS     r1,#1
        0x00003140:    e000        ..      B        0x3144 ; ndigits_in_hex + 24
        0x00003142:    2100        .!      MOVS     r1,#0
        0x00003144:    4608        .F      MOV      r0,r1
        0x00003146:    e004        ..      B        0x3152 ; ndigits_in_hex + 38
        0x00003148:    0911        ..      LSRS     r1,r2,#4
        0x0000314a:    ea417203    A..r    ORR      r2,r1,r3,LSL #28
        0x0000314e:    091b        ..      LSRS     r3,r3,#4
        0x00003150:    1c40        @.      ADDS     r0,r0,#1
        0x00003152:    2400        .$      MOVS     r4,#0
        0x00003154:    ea820104    ....    EOR      r1,r2,r4
        0x00003158:    405c        \@      EORS     r4,r4,r3
        0x0000315a:    4321        !C      ORRS     r1,r1,r4
        0x0000315c:    d1f4        ..      BNE      0x3148 ; ndigits_in_hex + 28
        0x0000315e:    bd30        0.      POP      {r4,r5,pc}
    i.ndigits_in_i64
    ndigits_in_i64
        0x00003160:    b570        p.      PUSH     {r4-r6,lr}
        0x00003162:    4604        .F      MOV      r4,r0
        0x00003164:    460d        .F      MOV      r5,r1
        0x00003166:    2100        .!      MOVS     r1,#0
        0x00003168:    4608        .F      MOV      r0,r1
        0x0000316a:    1a61        a.      SUBS     r1,r4,r1
        0x0000316c:    eb750000    u...    SBCS     r0,r5,r0
        0x00003170:    da03        ..      BGE      0x317a ; ndigits_in_i64 + 26
        0x00003172:    2200        ."      MOVS     r2,#0
        0x00003174:    4264        dB      RSBS     r4,r4,#0
        0x00003176:    eb620505    b...    SBC      r5,r2,r5
        0x0000317a:    4620         F      MOV      r0,r4
        0x0000317c:    4629        )F      MOV      r1,r5
        0x0000317e:    f000f801    ....    BL       ndigits_in_u64 ; 0x3184
        0x00003182:    bd70        p.      POP      {r4-r6,pc}
    i.ndigits_in_u64
    ndigits_in_u64
        0x00003184:    b570        p.      PUSH     {r4-r6,lr}
        0x00003186:    4604        .F      MOV      r4,r0
        0x00003188:    460d        .F      MOV      r5,r1
        0x0000318a:    2100        .!      MOVS     r1,#0
        0x0000318c:    ea840001    ....    EOR      r0,r4,r1
        0x00003190:    4069        i@      EORS     r1,r1,r5
        0x00003192:    4308        .C      ORRS     r0,r0,r1
        0x00003194:    d101        ..      BNE      0x319a ; ndigits_in_u64 + 22
        0x00003196:    2001        .       MOVS     r0,#1
        0x00003198:    e000        ..      B        0x319c ; ndigits_in_u64 + 24
        0x0000319a:    2000        .       MOVS     r0,#0
        0x0000319c:    4606        .F      MOV      r6,r0
        0x0000319e:    e006        ..      B        0x31ae ; ndigits_in_u64 + 42
        0x000031a0:    4620         F      MOV      r0,r4
        0x000031a2:    4629        )F      MOV      r1,r5
        0x000031a4:    f7fffc37    ..7.    BL       divu64_10 ; 0x2a16
        0x000031a8:    4604        .F      MOV      r4,r0
        0x000031aa:    460d        .F      MOV      r5,r1
        0x000031ac:    1c76        v.      ADDS     r6,r6,#1
        0x000031ae:    2100        .!      MOVS     r1,#0
        0x000031b0:    ea840001    ....    EOR      r0,r4,r1
        0x000031b4:    4069        i@      EORS     r1,r1,r5
        0x000031b6:    4308        .C      ORRS     r0,r0,r1
        0x000031b8:    d1f2        ..      BNE      0x31a0 ; ndigits_in_u64 + 28
        0x000031ba:    4630        0F      MOV      r0,r6
        0x000031bc:    bd70        p.      POP      {r4-r6,pc}
    i.padbuffer
    padbuffer
        0x000031be:    b530        0.      PUSH     {r4,r5,lr}
        0x000031c0:    4603        .F      MOV      r3,r0
        0x000031c2:    2000        .       MOVS     r0,#0
        0x000031c4:    2a00        .*      CMP      r2,#0
        0x000031c6:    dc00        ..      BGT      0x31ca ; padbuffer + 12
        0x000031c8:    bd30        0.      POP      {r4,r5,pc}
        0x000031ca:    e003        ..      B        0x31d4 ; padbuffer + 22
        0x000031cc:    b10b        ..      CBZ      r3,0x31d2 ; padbuffer + 20
        0x000031ce:    f8031b01    ....    STRB     r1,[r3],#1
        0x000031d2:    1c40        @.      ADDS     r0,r0,#1
        0x000031d4:    1e14        ..      SUBS     r4,r2,#0
        0x000031d6:    f1a20201    ....    SUB      r2,r2,#1
        0x000031da:    d1f7        ..      BNE      0x31cc ; padbuffer + 14
        0x000031dc:    bf00        ..      NOP      
        0x000031de:    e7f3        ..      B        0x31c8 ; padbuffer + 10
    i.setBuckZX
    setBuckZX
        0x000031e0:    b5f8        ..      PUSH     {r3-r7,lr}
        0x000031e2:    4614        .F      MOV      r4,r2
        0x000031e4:    460e        .F      MOV      r6,r1
        0x000031e6:    4605        .F      MOV      r5,r0
        0x000031e8:    f7fcffd2    ....    BL       am_hal_interrupt_master_disable ; 0x190
        0x000031ec:    4b19        .K      LDR      r3,[pc,#100] ; [0x3254] = 0x40020000
        0x000031ee:    9000        ..      STR      r0,[sp,#0]
        0x000031f0:    6e98        .n      LDR      r0,[r3,#0x68]
        0x000031f2:    6e99        .n      LDR      r1,[r3,#0x68]
        0x000031f4:    f3c00083    ....    UBFX     r0,r0,#2,#4
        0x000031f8:    4a17        .J      LDR      r2,[pc,#92] ; [0x3258] = 0x10000098
        0x000031fa:    f3c13143    ..C1    UBFX     r1,r1,#13,#4
        0x000031fe:    f0140f02    ....    TST      r4,#2
        0x00003202:    bf14        ..      ITE      NE
        0x00003204:    e9d25604    ...V    LDRDNE   r5,r6,[r2,#0x10]
        0x00003208:    f0140f01    ....    TSTEQ    r4,#1
        0x0000320c:    d011        ..      BEQ      0x3232 ; setBuckZX + 82
        0x0000320e:    f0140f10    ....    TST      r4,#0x10
        0x00003212:    d005        ..      BEQ      0x3220 ; setBuckZX + 64
        0x00003214:    f8d3c068    ..h.    LDR      r12,[r3,#0x68]
        0x00003218:    f3650c85    e...    BFI      r12,r5,#2,#4
        0x0000321c:    f8c3c068    ..h.    STR      r12,[r3,#0x68]
        0x00003220:    f0140f20    .. .    TST      r4,#0x20
        0x00003224:    d005        ..      BEQ      0x3232 ; setBuckZX + 82
        0x00003226:    f8d3c068    ..h.    LDR      r12,[r3,#0x68]
        0x0000322a:    f3663c50    f.P<    BFI      r12,r6,#13,#4
        0x0000322e:    f8c3c068    ..h.    STR      r12,[r3,#0x68]
        0x00003232:    f0140f04    ....    TST      r4,#4
        0x00003236:    d007        ..      BEQ      0x3248 ; setBuckZX + 104
        0x00003238:    f0140f10    ....    TST      r4,#0x10
        0x0000323c:    bf18        ..      IT       NE
        0x0000323e:    6110        .a      STRNE    r0,[r2,#0x10]
        0x00003240:    f0140f20    .. .    TST      r4,#0x20
        0x00003244:    bf18        ..      IT       NE
        0x00003246:    6151        Qa      STRNE    r1,[r2,#0x14]
        0x00003248:    9800        ..      LDR      r0,[sp,#0]
        0x0000324a:    e8bd40f8    ...@    POP      {r3-r7,lr}
        0x0000324e:    f7fcbfa3    ....    B        am_hal_interrupt_master_set ; 0x198
    $d
        0x00003252:    0000        ..      DCW    0
        0x00003254:    40020000    ...@    DCD    1073872896
        0x00003258:    10000098    ....    DCD    268435608
    $t
    i.simple_strlen
    simple_strlen
        0x0000325c:    4601        .F      MOV      r1,r0
        0x0000325e:    2000        .       MOVS     r0,#0
        0x00003260:    b901        ..      CBNZ     r1,0x3264 ; simple_strlen + 8
        0x00003262:    4770        pG      BX       lr
        0x00003264:    e000        ..      B        0x3268 ; simple_strlen + 12
        0x00003266:    1c40        @.      ADDS     r0,r0,#1
        0x00003268:    f8113b01    ...;    LDRB     r3,[r1],#1
        0x0000326c:    2b00        .+      CMP      r3,#0
        0x0000326e:    d1fa        ..      BNE      0x3266 ; simple_strlen + 10
        0x00003270:    bf00        ..      NOP      
        0x00003272:    e7f6        ..      B        0x3262 ; simple_strlen + 6
    i.uint64_to_hexstr
    uint64_to_hexstr
        0x00003274:    e92d41f0    -..A    PUSH     {r4-r8,lr}
        0x00003278:    b085        ..      SUB      sp,sp,#0x14
        0x0000327a:    4604        .F      MOV      r4,r0
        0x0000327c:    460d        .F      MOV      r5,r1
        0x0000327e:    461e        .F      MOV      r6,r3
        0x00003280:    2100        .!      MOVS     r1,#0
        0x00003282:    468c        .F      MOV      r12,r1
        0x00003284:    ea84070c    ....    EOR      r7,r4,r12
        0x00003288:    ea850c0c    ....    EOR      r12,r5,r12
        0x0000328c:    ea57070c    W...    ORRS     r7,r7,r12
        0x00003290:    d105        ..      BNE      0x329e ; uint64_to_hexstr + 42
        0x00003292:    f04f0830    O.0.    MOV      r8,#0x30
        0x00003296:    460f        .F      MOV      r7,r1
        0x00003298:    1c49        I.      ADDS     r1,r1,#1
        0x0000329a:    f80d8007    ....    STRB     r8,[sp,r7]
        0x0000329e:    e016        ..      B        0x32ce ; uint64_to_hexstr + 90
        0x000032a0:    270f        .'      MOVS     r7,#0xf
        0x000032a2:    4027        '@      ANDS     r7,r7,r4
        0x000032a4:    b2fb        ..      UXTB     r3,r7
        0x000032a6:    2b09        .+      CMP      r3,#9
        0x000032a8:    dd05        ..      BLE      0x32b6 ; uint64_to_hexstr + 66
        0x000032aa:    b10e        ..      CBZ      r6,0x32b0 ; uint64_to_hexstr + 60
        0x000032ac:    2727        ''      MOVS     r7,#0x27
        0x000032ae:    e000        ..      B        0x32b2 ; uint64_to_hexstr + 62
        0x000032b0:    2707        .'      MOVS     r7,#7
        0x000032b2:    441f        .D      ADD      r7,r7,r3
        0x000032b4:    b2fb        ..      UXTB     r3,r7
        0x000032b6:    f1030730    ..0.    ADD      r7,r3,#0x30
        0x000032ba:    f00708ff    ....    AND      r8,r7,#0xff
        0x000032be:    460f        .F      MOV      r7,r1
        0x000032c0:    1c49        I.      ADDS     r1,r1,#1
        0x000032c2:    f80d8007    ....    STRB     r8,[sp,r7]
        0x000032c6:    0927        '.      LSRS     r7,r4,#4
        0x000032c8:    ea477405    G..t    ORR      r4,r7,r5,LSL #28
        0x000032cc:    092d        -.      LSRS     r5,r5,#4
        0x000032ce:    f04f0c00    O...    MOV      r12,#0
        0x000032d2:    ea84070c    ....    EOR      r7,r4,r12
        0x000032d6:    ea850c0c    ....    EOR      r12,r5,r12
        0x000032da:    ea57070c    W...    ORRS     r7,r7,r12
        0x000032de:    d1df        ..      BNE      0x32a0 ; uint64_to_hexstr + 44
        0x000032e0:    4608        .F      MOV      r0,r1
        0x000032e2:    b14a        J.      CBZ      r2,0x32f8 ; uint64_to_hexstr + 132
        0x000032e4:    e003        ..      B        0x32ee ; uint64_to_hexstr + 122
        0x000032e6:    f81d7001    ...p    LDRB     r7,[sp,r1]
        0x000032ea:    f8027b01    ...{    STRB     r7,[r2],#1
        0x000032ee:    1e0f        ..      SUBS     r7,r1,#0
        0x000032f0:    f1a10101    ....    SUB      r1,r1,#1
        0x000032f4:    d1f7        ..      BNE      0x32e6 ; uint64_to_hexstr + 114
        0x000032f6:    7017        .p      STRB     r7,[r2,#0]
        0x000032f8:    b005        ..      ADD      sp,sp,#0x14
        0x000032fa:    e8bd81f0    ....    POP      {r4-r8,pc}
    i.uint64_to_str
    uint64_to_str
        0x000032fe:    e92d4ff0    -..O    PUSH     {r4-r11,lr}
        0x00003302:    b087        ..      SUB      sp,sp,#0x1c
        0x00003304:    4607        .F      MOV      r7,r0
        0x00003306:    4688        .F      MOV      r8,r1
        0x00003308:    4616        .F      MOV      r6,r2
        0x0000330a:    f04f0900    O...    MOV      r9,#0
        0x0000330e:    46cb        .F      MOV      r11,r9
        0x00003310:    bf00        ..      NOP      
        0x00003312:    4638        8F      MOV      r0,r7
        0x00003314:    4641        AF      MOV      r1,r8
        0x00003316:    f7fffb7e    ..~.    BL       divu64_10 ; 0x2a16
        0x0000331a:    4604        .F      MOV      r4,r0
        0x0000331c:    460d        .F      MOV      r5,r1
        0x0000331e:    210a        .!      MOVS     r1,#0xa
        0x00003320:    fba40101    ....    UMULL    r0,r1,r4,r1
        0x00003324:    ebb70a00    ....    SUBS     r10,r7,r0
        0x00003328:    f10a0030    ..0.    ADD      r0,r10,#0x30
        0x0000332c:    b2c2        ..      UXTB     r2,r0
        0x0000332e:    4648        HF      MOV      r0,r9
        0x00003330:    f1090901    ....    ADD      r9,r9,#1
        0x00003334:    f80d2000    ...     STRB     r2,[sp,r0]
        0x00003338:    4627        'F      MOV      r7,r4
        0x0000333a:    46a8        .F      MOV      r8,r5
        0x0000333c:    f04f0200    O...    MOV      r2,#0
        0x00003340:    ea870002    ....    EOR      r0,r7,r2
        0x00003344:    ea880102    ....    EOR      r1,r8,r2
        0x00003348:    4308        .C      ORRS     r0,r0,r1
        0x0000334a:    d1e2        ..      BNE      0x3312 ; uint64_to_str + 20
        0x0000334c:    46cb        .F      MOV      r11,r9
        0x0000334e:    b156        V.      CBZ      r6,0x3366 ; uint64_to_str + 104
        0x00003350:    e003        ..      B        0x335a ; uint64_to_str + 92
        0x00003352:    f81d0009    ....    LDRB     r0,[sp,r9]
        0x00003356:    f8060b01    ....    STRB     r0,[r6],#1
        0x0000335a:    f1b90000    ....    SUBS     r0,r9,#0
        0x0000335e:    f1a90901    ....    SUB      r9,r9,#1
        0x00003362:    d1f6        ..      BNE      0x3352 ; uint64_to_str + 84
        0x00003364:    7030        0p      STRB     r0,[r6,#0]
        0x00003366:    4658        XF      MOV      r0,r11
        0x00003368:    b007        ..      ADD      sp,sp,#0x1c
        0x0000336a:    e8bd8ff0    ....    POP      {r4-r11,pc}
        0x0000336e:    0000        ..      MOVS     r0,r0
    x$fpl$d2f
    $v0
    __aeabi_d2f
    _d2f
        0x00003370:    f0214200    !..B    BIC      r2,r1,#0x80000000
        0x00003374:    f1a25260    ..`R    SUB      r2,r2,#0x38000000
        0x00003378:    f5b21f80    ....    CMP      r2,#0x100000
        0x0000337c:    f0014300    ...C    AND      r3,r1,#0x80000000
        0x00003380:    bf28        (.      IT       CS
        0x00003382:    f1d26c7f    ...l    RSBSCS   r12,r2,#0xff00000
        0x00003386:    d90b        ..      BLS      0x33a0 ; __aeabi_d2f + 48
        0x00003388:    ea5f1c00    _...    LSLS     r12,r0,#4
        0x0000338c:    ea4302c2    C...    ORR      r2,r3,r2,LSL #3
        0x00003390:    eb427050    B.Pp    ADC      r0,r2,r0,LSR #29
        0x00003394:    bf18        ..      IT       NE
        0x00003396:    4770        pG      BXNE     lr
        0x00003398:    bf28        (.      IT       CS
        0x0000339a:    f0200001     ...    BICCS    r0,r0,#1
        0x0000339e:    4770        pG      BX       lr
        0x000033a0:    f5b21f80    ....    CMP      r2,#0x100000
        0x000033a4:    bfbc        ..      ITT      LT
        0x000033a6:    4618        .F      MOVLT    r0,r3
        0x000033a8:    4770        pG      BXLT     lr
        0x000033aa:    ea4f0c41    O.A.    LSL      r12,r1,#1
        0x000033ae:    f51c1f00    ....    CMN      r12,#0x200000
        0x000033b2:    d202        ..      BCS      0x33ba ; __aeabi_d2f + 74
        0x000033b4:    4608        .F      MOV      r0,r1
        0x000033b6:    f000b85f    .._.    B.W      __fpl_fretinf ; 0x3478
        0x000033ba:    b570        p.      PUSH     {r4-r6,lr}
        0x000033bc:    f000f809    ....    BL       __fpl_dnaninf ; 0x33d2
    $d
        0x000033c0:    89000000    ....    DCD    2298478592
    $t
        0x000033c4:    f7ffbff6    ....    B.W      0x33b4 ; __aeabi_d2f + 68
        0x000033c8:    f04f4000    O..@    MOV      r0,#0x80000000
        0x000033cc:    f5a00080    ....    SUB      r0,r0,#0x400000
        0x000033d0:    4770        pG      BX       lr
    x$fpl$dnaninf
    $v0
    __fpl_dnaninf
        0x000033d2:    f10e0e02    ....    ADD      lr,lr,#2
        0x000033d6:    f02e0e03    ....    BIC      lr,lr,#3
        0x000033da:    f85e6b04    ^..k    LDR      r6,[lr],#4
        0x000033de:    4236        6B      TST      r6,r6
        0x000033e0:    d405        ..      BMI      0x33ee ; __fpl_dnaninf + 28
        0x000033e2:    2a01        .*      CMP      r2,#1
        0x000033e4:    eb430503    C...    ADC      r5,r3,r3
        0x000033e8:    f5151f00    ....    CMN      r5,#0x200000
        0x000033ec:    d812        ..      BHI      0x3414 ; __fpl_dnaninf + 66
        0x000033ee:    2801        .(      CMP      r0,#1
        0x000033f0:    eb410c01    A...    ADC      r12,r1,r1
        0x000033f4:    f51c1f00    ....    CMN      r12,#0x200000
        0x000033f8:    d80c        ..      BHI      0x3414 ; __fpl_dnaninf + 66
        0x000033fa:    d10e        ..      BNE      0x341a ; __fpl_dnaninf + 72
        0x000033fc:    ea4f7cd1    O..|    LSR      r12,r1,#31
        0x00003400:    f5151f00    ....    CMN      r5,#0x200000
        0x00003404:    eb0c0c4c    ..L.    ADD      r12,r12,r12,LSL #1
        0x00003408:    f10c0c02    ....    ADD      r12,r12,#2
        0x0000340c:    bf08        ..      IT       EQ
        0x0000340e:    eb4c7cd3    L..|    ADCEQ    r12,r12,r3,LSR #31
        0x00003412:    e004        ..      B        0x341e ; __fpl_dnaninf + 76
        0x00003414:    f04f0c08    O...    MOV      r12,#8
        0x00003418:    e001        ..      B        0x341e ; __fpl_dnaninf + 76
        0x0000341a:    ea4f7cd3    O..|    LSR      r12,r3,#31
        0x0000341e:    eb0c054c    ..L.    ADD      r5,r12,r12,LSL #1
        0x00003422:    fa26f605    &...    LSR      r6,r6,r5
        0x00003426:    f0060607    ....    AND      r6,r6,#7
        0x0000342a:    f1b60c04    ....    SUBS     r12,r6,#4
        0x0000342e:    d206        ..      BCS      0x343e ; __fpl_dnaninf + 108
        0x00003430:    eb0e0c86    ....    ADD      r12,lr,r6,LSL #2
        0x00003434:    e8bd4070    ..p@    POP      {r4-r6,lr}
        0x00003438:    f04c0c01    L...    ORR      r12,r12,#1
        0x0000343c:    4760        `G      BX       r12
        0x0000343e:    e8dff00c    ....    TBB      [pc,r12]
    $d
        0x00003442:    0b09        ..      DCW    2825
        0x00003444:    0202        ..      DCW    514
    $t
        0x00003446:    f04f4100    O..A    MOV      r1,#0x80000000
        0x0000344a:    f04f0000    O...    MOV      r0,#0
        0x0000344e:    f5a12100    ...!    SUB      r1,r1,#0x80000
        0x00003452:    bd70        p.      POP      {r4-r6,pc}
        0x00003454:    4619        .F      MOV      r1,r3
        0x00003456:    4610        .F      MOV      r0,r2
        0x00003458:    2801        .(      CMP      r0,#1
        0x0000345a:    eb510401    Q...    ADCS     r4,r1,r1
        0x0000345e:    bf18        ..      IT       NE
        0x00003460:    f5d41400    ....    RSBSNE   r4,r4,#0x200000
        0x00003464:    bf84        ..      ITT      HI
        0x00003466:    2000        .       MOVHI    r0,#0
        0x00003468:    f0014100    ...A    ANDHI    r1,r1,#0x80000000
        0x0000346c:    bd70        p.      POP      {r4-r6,pc}
    x$fpl$fpinit
    $v0
    _fp_init
        0x0000346e:    f04f7040    O.@p    MOV      r0,#0x3000000
        0x00003472:    eee10a10    ....    VMSR     FPSCR,r0
    __fplib_config_fpu_vfp
    __fplib_config_pureend_doubles
        0x00003476:    4770        pG      BX       lr
    x$fpl$fretinf
    $v0
    __fpl_fretinf
        0x00003478:    21ff        .!      MOVS     r1,#0xff
        0x0000347a:    ea4150d0    A..P    ORR      r0,r1,r0,LSR #23
        0x0000347e:    05c0        ..      LSLS     r0,r0,#23
        0x00003480:    4770        pG      BX       lr
    $d.realdata
    .constdata
    x$fpl$usenofp
    __I$use$fp
    am_hal_cachectrl_defaults
        0x00003482:    0001        ..      DCW    1
        0x00003484:    03005000    .P..    DCD    50352128
        0x00003488:    01010001    ....    DCD    16842753
        0x0000348c:    0001        ..      DCW    1
    .constdata
    i2c_bb_errmap
        0x0000348e:    0600        ..      DCW    1536
        0x00003490:    0106        ..      DCW    262
        0x00003492:    01          .       DCB    1
    g_IOMPads
        0x00003493:    00          .       DCB    0
        0x00003494:    2200061d    ..."    DCD    570426909
        0x00003498:    04120106    ....    DCD    68288774
        0x0000349c:    02052501    .%..    DCD    33891585
        0x000034a0:    11030629    )...    DCD    285410857
        0x000034a4:    042d0304    ..-.    DCD    70058756
        0x000034a8:    04060a04    ....    DCD    67504644
        0x000034ac:    0905062e    ....    DCD    151324206
        0x000034b0:    062f0504    ../.    DCD    103744772
        0x000034b4:    07042306    .#..    DCD    117711622
        0x000034b8:    0626        &.      DCW    1574
    g_I2CPads
        0x000034ba:    0500        ..      DCW    1280
        0x000034bc:    00080100    ....    DCD    524544
        0x000034c0:    03070002    ....    DCD    50790402
        0x000034c4:    2704042a    *..'    DCD    654574634
        0x000034c8:    04300504    ..0.    DCD    70255876
        0x000034cc:    00041b02    ....    DCD    269058
    Region$$Table$$Base
        0x000034d0:    000034f0    .4..    DCD    13552
        0x000034d4:    10000000    ....    DCD    268435456
        0x000034d8:    000000b4    ....    DCD    180
        0x000034dc:    00000124    $...    DCD    292
        0x000034e0:    000035a4    .5..    DCD    13732
        0x000034e4:    100000b4    ....    DCD    268435636
        0x000034e8:    000016b4    ....    DCD    5812
        0x000034ec:    00000140    @...    DCD    320
    Region$$Table$$Limit

** Section #2 'SRAM' (SHT_PROGBITS) [SHF_ALLOC + SHF_WRITE]
    Size   : 180 bytes (alignment 4)
    Address: 0x10000000

    0x10000000:   15 2f 8f df c3 a0 6c 16 19 a5 18 c1 18 65 a8 44    ./....l......e.D
    0x10000010:   00 20 00 00 78 00 00 00 80 00 00 00 00 01 00 00    . ..x...........
    0x10000020:   40 00 00 00 00 00 00 00 00 00 00 00 40 42 0f 00    @...........@B..
    0x10000030:   00 00 0c 78 00 00 00 00 00 00 00 00 00 00 00 00    ...x............
    0x10000040:   06 00 00 00 0a 00 00 00 09 00 00 00 0a 00 00 00    ................
    0x10000050:   19 00 00 00 2a 00 00 00 2b 00 00 00 2a 00 00 00    ....*...+...*...
    0x10000060:   28 00 00 00 2a 00 00 00 31 00 00 00 2a 00 00 00    (...*...1...*...
    0x10000070:   19 17 00 00 00 00 00 00 00 00 00 00 00 00 00 00    ................
    0x10000080:   00 00 00 00 00 00 00 00 00 00 00 50 00 00 00 50    ...........P...P
    0x10000090:   00 00 00 50 00 00 00 00 00 00 00 00 00 00 00 00    ...P............
    0x100000a0:   00 00 00 00 00 00 00 00 00 00 00 00 00 00 00 00    ................
    0x100000b0:   00 00 00 00                                        ....


** Section #3 'SRAM' (SHT_NOBITS) [SHF_ALLOC + SHF_WRITE]
    Size   : 5812 bytes (alignment 8)
    Address: 0x100000b4


** Section #4 '.debug_abbrev' (SHT_PROGBITS)
    Size   : 1476 bytes


** Section #5 '.debug_frame' (SHT_PROGBITS)
    Size   : 4008 bytes


** Section #6 '.debug_info' (SHT_PROGBITS)
    Size   : 12176 bytes


** Section #7 '.debug_line' (SHT_PROGBITS)
    Size   : 4752 bytes


** Section #8 '.debug_loc' (SHT_PROGBITS)
    Size   : 2072 bytes


** Section #9 '.debug_macinfo' (SHT_PROGBITS)
    Size   : 9400 bytes


** Section #10 '.debug_pubnames' (SHT_PROGBITS)
    Size   : 561 bytes


** Section #11 '.symtab' (SHT_SYMTAB)
    Size   : 9792 bytes (alignment 4)
    String table #12 '.strtab'
    Last local symbol no. 405

    Symbol table .symtab (611 symbols, 405 local)

      #  Symbol Name                Value      Bind  Sec  Type  Vis  Size
    ========================================================================

      1  $d                         0x00000000   Lc    1   --   De 
      2  $t                         0x000000c0   Lc    1   --   De 
      3  $d                         0x000000e4   Lc    1   --   De 
      4  $t                         0x000000e8   Lc    1   --   De 
      5  $d                         0x0000011c   Lc    1   --   De 
      6  $t                         0x00000124   Lc    1   --   De 
      7  $d                         0x000001c0   Lc    1   --   De 
      8  $t                         0x000001c4   Lc    1   --   De 
      9  $d                         0x000001ce   Lc    1   --   De 
     10  $t                         0x000001dc   Lc    1   --   De 
     11  $d                         0x00000244   Lc    1   --   De 
     12  $t                         0x00000248   Lc    1   --   De 
     13  $d                         0x00000250   Lc    1   --   De 
     14  $t                         0x00000254   Lc    1   --   De 
     15  $d                         0x000002b2   Lc    1   --   De 
     16  $t                         0x000002c8   Lc    1   --   De 
     17  $d                         0x0000039e   Lc    1   --   De 
     18  $t                         0x000003ac   Lc    1   --   De 
     19  $d                         0x000004a0   Lc    1   --   De 
     20  $t                         0x000004a4   Lc    1   --   De 
     21  $d                         0x000004d4   Lc    1   --   De 
     22  $t                         0x000004dc   Lc    1   --   De 
     23  $d                         0x000004fc   Lc    1   --   De 
     24  $t                         0x00000548   Lc    1   --   De 
     25  $d                         0x0000056c   Lc    1   --   De 
     26  $t                         0x00000570   Lc    1   --   De 
     27  $d                         0x000005e2   Lc    1   --   De 
     28  $t                         0x000005ec   Lc    1   --   De 
     29  $d                         0x00000616   Lc    1   --   De 
     30  $t                         0x0000061c   Lc    1   --   De 
     31  $d                         0x00000624   Lc    1   --   De 
     32  $t                         0x00000628   Lc    1   --   De 
     33  $d                         0x00000658   Lc    1   --   De 
     34  $t                         0x0000065c   Lc    1   --   De 
     35  $d                         0x00000832   Lc    1   --   De 
     36  $t                         0x00000838   Lc    1   --   De 
     37  $d                         0x000008fe   Lc    1   --   De 
     38  $t                         0x00000904   Lc    1   --   De 
     39  $d                         0x0000094a   Lc    1   --   De 
     40  $t                         0x00000950   Lc    1   --   De 
     41  $d                         0x00000bbe   Lc    1   --   De 
     42  $t                         0x00000bdc   Lc    1   --   De 
     43  $d                         0x00000c00   Lc    1   --   De 
     44  $t                         0x00000c04   Lc    1   --   De 
     45  $d                         0x00000c94   Lc    1   --   De 
     46  $t                         0x00000cdc   Lc    1   --   De 
     47  $d                         0x00000d80   Lc    1   --   De 
     48  $t                         0x00000dc4   Lc    1   --   De 
     49  $d                         0x00000f06   Lc    1   --   De 
     50  $t                         0x00000f20   Lc    1   --   De 
     51  $d                         0x00001002   Lc    1   --   De 
     52  $t                         0x00001014   Lc    1   --   De 
     53  $d                         0x0000113c   Lc    1   --   De 
     54  $t                         0x00001150   Lc    1   --   De 
     55  $d                         0x00001262   Lc    1   --   De 
     56  $t                         0x00001274   Lc    1   --   De 
     57  $d                         0x000013e8   Lc    1   --   De 
     58  $t                         0x000013fc   Lc    1   --   De 
     59  $d                         0x00001590   Lc    1   --   De 
     60  $t                         0x00001598   Lc    1   --   De 
     61  $d                         0x000015e0   Lc    1   --   De 
     62  $t                         0x00001624   Lc    1   --   De 
     63  $d                         0x0000163e   Lc    1   --   De 
     64  $t                         0x00001644   Lc    1   --   De 
     65  $d                         0x00001710   Lc    1   --   De 
     66  $t                         0x00001718   Lc    1   --   De 
     67  $d                         0x00001766   Lc    1   --   De 
     68  $t                         0x00001770   Lc    1   --   De 
     69  $d                         0x00001874   Lc    1   --   De 
     70  $t                         0x00001894   Lc    1   --   De 
     71  $d                         0x0000199c   Lc    1   --   De 
     72  $t                         0x000019b0   Lc    1   --   De 
     73  $d                         0x00001d8c   Lc    1   --   De 
     74  $t                         0x00001e4c   Lc    1   --   De 
     75  $d                         0x00001ee4   Lc    1   --   De 
     76  $t                         0x00001ee8   Lc    1   --   De 
     77  $d                         0x00001f34   Lc    1   --   De 
     78  $t                         0x00001f54   Lc    1   --   De 
     79  $d                         0x00001fc8   Lc    1   --   De 
     80  $t                         0x00001fd0   Lc    1   --   De 
     81  $d                         0x00001ffe   Lc    1   --   De 
     82  $t                         0x00002004   Lc    1   --   De 
     83  $d                         0x00002040   Lc    1   --   De 
     84  $t                         0x00002044   Lc    1   --   De 
     85  $d                         0x00002058   Lc    1   --   De 
     86  $t                         0x0000205c   Lc    1   --   De 
     87  $d                         0x000021d0   Lc    1   --   De 
     88  $t                         0x000021dc   Lc    1   --   De 
     89  $d                         0x0000224c   Lc    1   --   De 
     90  $t                         0x00002298   Lc    1   --   De 
     91  $d                         0x000024e2   Lc    1   --   De 
     92  $t                         0x000024f4   Lc    1   --   De 
     93  $d                         0x00002568   Lc    1   --   De 
     94  $t                         0x0000257c   Lc    1   --   De 
     95  $d                         0x00002584   Lc    1   --   De 
     96  $t                         0x00002588   Lc    1   --   De 
     97  $d                         0x000025ec   Lc    1   --   De 
     98  $t                         0x000025f4   Lc    1   --   De 
     99  $d                         0x000025fa   Lc    1   --   De 
    100  $t                         0x00002600   Lc    1   --   De 
    101  $d                         0x0000260a   Lc    1   --   De 
    102  $t                         0x00002620   Lc    1   --   De 
    103  $d                         0x000029c4   Lc    1   --   De 
    104  $t                         0x000029d4   Lc    1   --   De 
    105  $d                         0x00002c56   Lc    1   --   De 
    106  $t                         0x00002c5c   Lc    1   --   De 
    107  $d                         0x00002c92   Lc    1   --   De 
    108  $t                         0x00002c98   Lc    1   --   De 
    109  $d                         0x00002d32   Lc    1   --   De 
    110  $t                         0x00002d38   Lc    1   --   De 
    111  $d                         0x00002e3a   Lc    1   --   De 
    112  $t                         0x00002e44   Lc    1   --   De 
    113  $d                         0x00002f2a   Lc    1   --   De 
    114  $t                         0x00002f34   Lc    1   --   De 
    115  $d                         0x00002f84   Lc    1   --   De 
    116  $t                         0x00002f90   Lc    1   --   De 
    117  $d                         0x00003078   Lc    1   --   De 
    118  $t                         0x0000312c   Lc    1   --   De 
    119  $d                         0x00003252   Lc    1   --   De 
    120  $t                         0x0000325c   Lc    1   --   De 
    121  $d                         0x000033c0   Lc    1   --   De 
    122  $t                         0x000033c4   Lc    1   --   De 
    123  $d                         0x00003442   Lc    1   --   De 
    124  $t                         0x00003446   Lc    1   --   De 
    125  $d.realdata                0x00003482   Lc    1   --   De 
    126  $d.realdata                0x10000000   Lc    2   --   De 
    127  ../src/i2c_loopback.c      0x00000000   Lc  Abs  File  De 
    128  i.am_iomaster0_isr         0x00002588   Lc    1  Sect  De 
    129  i.iom_set_up               0x00002d74   Lc    1  Sect  De 
    130  iom_set_up                 0x00002d75   Lc    1  Code  De   0xc6
    131  i.ios_set_up               0x00002e44   Lc    1  Sect  De 
    132  ios_set_up                 0x00002e45   Lc    1  Code  De   0xe6
    133  i.itm_start                0x00002f34   Lc    1  Sect  De 
    134  i.main                     0x00002f90   Lc    1  Sect  De 
    135  .bss                       0x100000b4   Lc    3  Sect  De   0x390
    136  .data                      0x10000000   Lc    2  Sect  De   0x34
    137  g_sIOMI2cConfig            0x10000028   Lc    2  Data  De   0xc
    138  ../../../../../utils/am_util_delay.c
                                    0x00000000   Lc  Abs  File  De 
    139  i.am_util_delay_ms         0x000025a6   Lc    1  Sect  De 
    140  ../../../../../utils/am_util_stdio.c
                                    0x00000000   Lc  Abs  File  De 
    141  i.am_util_stdio_printf     0x000025c4   Lc    1  Sect  De 
    142  i.am_util_stdio_printf_init
                                    0x000025f4   Lc    1  Sect  De 
    143  i.am_util_stdio_terminal_clear
                                    0x00002600   Lc    1  Sect  De 
    144  i.am_util_stdio_vsprintf   0x00002620   Lc    1  Sect  De 
    145  i.decstr_to_int            0x000029d4   Lc    1  Sect  De 
    146  decstr_to_int              0x000029d5   Lc    1  Code  De   0x42
    147  i.divu64_10                0x00002a16   Lc    1  Sect  De 
    148  divu64_10                  0x00002a17   Lc    1  Code  De   0xcc
    149  i.ftoa                     0x00002ae4   Lc    1  Sect  De 
    150  ftoa                       0x00002ae5   Lc    1  Code  De   0x172
    151  i.ndigits_in_hex           0x0000312c   Lc    1  Sect  De 
    152  ndigits_in_hex             0x0000312d   Lc    1  Code  De   0x34
    153  i.ndigits_in_i64           0x00003160   Lc    1  Sect  De 
    154  ndigits_in_i64             0x00003161   Lc    1  Code  De   0x24
    155  i.ndigits_in_u64           0x00003184   Lc    1  Sect  De 
    156  ndigits_in_u64             0x00003185   Lc    1  Code  De   0x3a
    157  i.padbuffer                0x000031be   Lc    1  Sect  De 
    158  padbuffer                  0x000031bf   Lc    1  Code  De   0x22
    159  i.simple_strlen            0x0000325c   Lc    1  Sect  De 
    160  simple_strlen              0x0000325d   Lc    1  Code  De   0x18
    161  i.uint64_to_hexstr         0x00003274   Lc    1  Sect  De 
    162  uint64_to_hexstr           0x00003275   Lc    1  Code  De   0x8a
    163  i.uint64_to_str            0x000032fe   Lc    1  Sect  De 
    164  uint64_to_str              0x000032ff   Lc    1  Code  De   0x70
    165  .bss                       0x10000444   Lc    3  Sect  De   0x100
    166  g_prfbuf                   0x10000444   Lc    3  Data  De   0x100
    167  .data                      0x10000034   Lc    2  Sect  De   0x5
    168  g_bTxtXlate                0x10000038   Lc    2  Data  De   0x1
    169  ../keil/startup_keil.s     0x00000000   Lc  Abs  File  De 
    170  STACK                      0x10000768   Lc    3  Sect  De   0x1000
    171  StackMem                   0x10000768   Lc    3  Data  De 
    172  HEAP                       0x10000768   Lc    3  Sect  De 
    173  HeapMem                    0x10000768   Lc    3  Data  De 
    174  RESET                      0x00000000   Lc    1  Sect  De   0xe8
    175  $v0                        0x000000c0   Lc    1   --   De 
    176  .text                      0x000001c4   Lc    1  Sect  De   0x18
    177  $v0                        0x000001c4   Lc    1   --   De 
    178  ../am_hal_global.c         0x00000000   Lc  Abs  File  De 
    179  .data                      0x1000003c   Lc    2  Sect  De   0x4
    180  ../am_bsp.c                0x00000000   Lc  Abs  File  De 
    181  i.am_bsp_debug_printf_enable
                                    0x00000258   Lc    1  Sect  De 
    182  i.am_bsp_iom_enable        0x000002c8   Lc    1  Sect  De 
    183  i.am_bsp_itm_string_print  0x000003ac   Lc    1  Sect  De 
    184  i.am_bsp_low_power_init    0x000003b0   Lc    1  Sect  De 
    185  .data                      0x10000040   Lc    2  Sect  De   0x30
    186  g_SPIpins                  0x10000040   Lc    2  Data  De   0x30
    187  ../am_hal_cachectrl.c      0x00000000   Lc  Abs  File  De 
    188  i.am_hal_cachectrl_enable  0x000003d4   Lc    1  Sect  De 
    189  .constdata                 0x00003482   Lc    1  Sect  De   0xc
    190  ../am_hal_clkgen.c         0x00000000   Lc  Abs  File  De 
    191  i.am_hal_clkgen_osc_stop   0x000004a4   Lc    1  Sect  De 
    192  i.am_hal_clkgen_sysclk_get 0x000004b8   Lc    1  Sect  De 
    193  i.am_hal_clkgen_sysclk_select
                                    0x000004dc   Lc    1  Sect  De 
    194  ../am_hal_flash.c          0x00000000   Lc  Abs  File  De 
    195  i.am_hal_flash_delay       0x00000620   Lc    1  Sect  De 
    196  i.am_hal_flash_delay_status_change
                                    0x00000628   Lc    1  Sect  De 
    197  ..\am_hal_interrupt.c      0x00000000   Lc  Abs  File  De 
    198  .emb_text                  0x00000188   Lc    1  Sect  De   0x16
    199  $v0                        0x00000188   Lc    1   --   De 
    200  ../am_hal_interrupt.c      0x00000000   Lc  Abs  File  De 
    201  i.am_hal_interrupt_enable  0x00000904   Lc    1  Sect  De 
    202  ..\am_hal_iom.c            0x00000000   Lc  Abs  File  De 
    203  .emb_text                  0x000001a0   Lc    1  Sect  De   0x24
    204  $v0                        0x000001a0   Lc    1   --   De 
    205  ../am_hal_iom.c            0x00000000   Lc  Abs  File  De 
    206  i.am_hal_iom_config        0x00000950   Lc    1  Sect  De 
    207  i.am_hal_iom_enable        0x00000bdc   Lc    1  Sect  De 
    208  i.am_hal_iom_fifo_read     0x00000c04   Lc    1  Sect  De 
    209  i.am_hal_iom_fifo_write    0x00000cdc   Lc    1  Sect  De 
    210  i.am_hal_iom_i2c_cmd_run   0x00000dc4   Lc    1  Sect  De 
    211  i.am_hal_iom_i2c_read_nb   0x00000f20   Lc    1  Sect  De 
    212  i.am_hal_iom_i2c_write     0x00001014   Lc    1  Sect  De 
    213  i.am_hal_iom_i2c_write_nb  0x00001150   Lc    1  Sect  De 
    214  i.am_hal_iom_i2c_write_nq  0x00001274   Lc    1  Sect  De 
    215  i.am_hal_iom_int_clear     0x000013fc   Lc    1  Sect  De 
    216  i.am_hal_iom_int_enable    0x00001412   Lc    1  Sect  De 
    217  i.am_hal_iom_int_service   0x00001430   Lc    1  Sect  De 
    218  i.am_hal_iom_int_status_get
                                    0x00001598   Lc    1  Sect  De 
    219  i.am_hal_iom_pwrctrl_enable
                                    0x000015c0   Lc    1  Sect  De 
    220  i.am_hal_iom_queue_init    0x00001624   Lc    1  Sect  De 
    221  i.am_hal_iom_queue_service 0x00001644   Lc    1  Sect  De 
    222  i.am_hal_iom_sleeping_queue_flush
                                    0x00001718   Lc    1  Sect  De 
    223  i.am_hal_iom_spi_read_nb   0x00001770   Lc    1  Sect  De 
    224  i.am_hal_iom_spi_write_nb  0x00001894   Lc    1  Sect  De 
    225  i.am_hal_iom_workaround_word_write
                                    0x000019b0   Lc    1  Sect  De 
    226  i.internal_iom_get_int_err 0x00002d38   Lc    1  Sect  De 
    227  internal_iom_get_int_err   0x00002d39   Lc    1  Code  De   0x3a
    228  .bss                       0x10000544   Lc    3  Sect  De   0x198
    229  .constdata                 0x0000348e   Lc    1  Sect  De   0x41
    230  .data                      0x10000070   Lc    2  Sect  De   0x12
    231  g_iom_error_status         0x1000007b   Lc    2  Data  De   0x7
    232  ..\am_hal_ios.c            0x00000000   Lc  Abs  File  De 
    233  ../am_hal_ios.c            0x00000000   Lc  Abs  File  De 
    234  i.am_hal_ios_access_int_clear
                                    0x00001e4c   Lc    1  Sect  De 
    235  i.am_hal_ios_config        0x00001e58   Lc    1  Sect  De 
    236  i.am_hal_ios_int_clear     0x00001ee8   Lc    1  Sect  De 
    237  i.am_hal_ios_lram_read     0x00001ef2   Lc    1  Sect  De 
    238  .data                      0x10000084   Lc    2  Sect  De   0x14
    239  ../am_hal_itm.c            0x00000000   Lc  Abs  File  De 
    240  i.am_hal_itm_enable        0x00001efc   Lc    1  Sect  De 
    241  i.am_hal_itm_print         0x00001f54   Lc    1  Sect  De 
    242  ../am_hal_sysctrl.c        0x00000000   Lc  Abs  File  De 
    243  i.am_hal_sysctrl_sleep     0x00002408   Lc    1  Sect  De 
    244  i.setBuckZX                0x000031e0   Lc    1  Sect  De 
    245  setBuckZX                  0x000031e1   Lc    1  Code  De   0x72
    246  .data                      0x10000098   Lc    2  Sect  De   0x1c
    247  g_bBuckRestoreComplete     0x10000098   Lc    2  Data  De   0x1
    248  g_ui32BuckTimer            0x1000009c   Lc    2  Data  De   0x4
    249  g_ui32BuckInputs           0x100000a0   Lc    2  Data  De   0x4
    250  g_buckZX_chk               0x100000a4   Lc    2  Data  De   0x4
    251  g_ui32SaveCoreBuckZX       0x100000a8   Lc    2  Data  De   0x4
    252  g_ui32SaveMemBuckZX        0x100000ac   Lc    2  Data  De   0x4
    253  g_ui32CoreBuck             0x100000b0   Lc    2  Data  De   0x4
    254  ..\am_hal_ctimer.c         0x00000000   Lc  Abs  File  De 
    255  ../am_hal_ctimer.c         0x00000000   Lc  Abs  File  De 
    256  i.am_hal_ctimer_clear      0x00000548   Lc    1  Sect  De 
    257  i.am_hal_ctimer_period_set 0x00000570   Lc    1  Sect  De 
    258  i.am_hal_ctimer_start      0x000005ec   Lc    1  Sect  De 
    259  ../am_hal_debug.c          0x00000000   Lc  Abs  File  De 
    260  i.am_hal_debug_error       0x0000061c   Lc    1  Sect  De 
    261  ../am_hal_gpio.c           0x00000000   Lc  Abs  File  De 
    262  ../am_hal_i2c_bit_bang.c   0x00000000   Lc  Abs  File  De 
    263  i.am_hal_i2c_bit_bang_receive
                                    0x0000065c   Lc    1  Sect  De 
    264  i.am_hal_i2c_bit_bang_send 0x00000838   Lc    1  Sect  De 
    265  i.i2c_pull_and_wait_scl_hi 0x00002c5c   Lc    1  Sect  De 
    266  i2c_pull_and_wait_scl_hi   0x00002c5d   Lc    1  Code  De   0x36
    267  i.i2c_send_byte            0x00002c98   Lc    1  Sect  De 
    268  i2c_send_byte              0x00002c99   Lc    1  Code  De   0x9a
    269  .bss                       0x100006dc   Lc    3  Sect  De   0x2c
    270  am_hal_i2c_bit_bang_priv   0x100006dc   Lc    3  Data  De   0x2c
    271  ../am_hal_pwrctrl.c        0x00000000   Lc  Abs  File  De 
    272  i.am_hal_pwrctrl_bucks_disable
                                    0x00001f84   Lc    1  Sect  De 
    273  i.am_hal_pwrctrl_bucks_enable
                                    0x00001fd0   Lc    1  Sect  De 
    274  i.am_hal_pwrctrl_bucks_init
                                    0x00002004   Lc    1  Sect  De 
    275  i.am_hal_pwrctrl_low_power_init
                                    0x00002044   Lc    1  Sect  De 
    276  i.am_hal_pwrctrl_memory_enable
                                    0x0000205c   Lc    1  Sect  De 
    277  i.am_hal_pwrctrl_periph_enable
                                    0x000021dc   Lc    1  Sect  De 
    278  ../am_hal_queue.c          0x00000000   Lc  Abs  File  De 
    279  i.am_hal_queue_init        0x00002298   Lc    1  Sect  De 
    280  i.am_hal_queue_item_add    0x000022ae   Lc    1  Sect  De 
    281  i.am_hal_queue_item_get    0x0000234c   Lc    1  Sect  De 
    282  ../am_hal_rtc.c            0x00000000   Lc  Abs  File  De 
    283  i.am_hal_rtc_osc_disable   0x000023e4   Lc    1  Sect  De 
    284  i.am_hal_rtc_osc_select    0x000023f2   Lc    1  Sect  De 
    285  ../am_hal_tpiu.c           0x00000000   Lc  Abs  File  De 
    286  i.am_hal_tpiu_enable       0x000024f4   Lc    1  Sect  De 
    287  ../am_hal_uart.c           0x00000000   Lc  Abs  File  De 
    288  ../am_hal_vcomp.c          0x00000000   Lc  Abs  File  De 
    289  i.am_hal_vcomp_disable     0x0000257c   Lc    1  Sect  De 
    290  dc.s                       0x00000000   Lc  Abs  File  De 
    291  ../clib/longlong.s         0x00000000   Lc  Abs  File  De 
    292  ../clib/heapaux.c          0x00000000   Lc  Abs  File  De 
    293  .text                      0x000001dc   Lc    1  Sect  De 
    294  ../clib/angel/startup.s    0x00000000   Lc  Abs  File  De 
    295  !!!main                    0x000000e8   Lc    1  Sect  De   0x8
    296  ../fplib/d2f.s             0x00000000   Lc  Abs  File  De 
    297  x$fpl$d2f                  0x00003370   Lc    1  Sect  De   0x62
    298  $v0                        0x00003370   Lc    1   --   De 
    299  ../clib/angel/kernel.s     0x00000000   Lc  Abs  File  De 
    300  .ARM.Collect$$rtentry$$00000000
                                    0x00000168   Lc    1  Sect  De 
    301  ../fplib/dnaninf.s         0x00000000   Lc  Abs  File  De 
    302  x$fpl$dnaninf              0x000033d2   Lc    1  Sect  De   0x9c
    303  $v0                        0x000033d2   Lc    1   --   De 
    304  ../fplib/fretinf.s         0x00000000   Lc  Abs  File  De 
    305  x$fpl$fretinf              0x00003478   Lc    1  Sect  De   0xa
    306  $v0                        0x00003478   Lc    1   --   De 
    307  ../fplib/usenofp.s         0x00000000   Lc  Abs  File  De 
    308  x$fpl$usenofp              0x00003482   Lc    1  Sect  De 
    309  ../clib/angel/kernel.s     0x00000000   Lc  Abs  File  De 
    310  .ARM.Collect$$rtentry$$00000002
                                    0x00000168   Lc    1  Sect  De 
    311  .ARM.Collect$$rtentry$$00000009
                                    0x0000016e   Lc    1  Sect  De 
    312  .ARM.Collect$$rtentry$$0000000A
                                    0x0000016e   Lc    1  Sect  De   0x4
    313  .ARM.Collect$$rtentry$$0000000C
                                    0x00000172   Lc    1  Sect  De 
    314  .ARM.Collect$$rtentry$$0000000D
                                    0x00000172   Lc    1  Sect  De   0x8
    315  ../clib/angel/kernel.s     0x00000000   Lc  Abs  File  De 
    316  .ARM.Collect$$rtentry$$00000004
                                    0x00000168   Lc    1  Sect  De   0x6
    317  ../clib/angel/sys.s        0x00000000   Lc  Abs  File  De 
    318  .text                      0x000001e2   Lc    1  Sect  De   0x4a
    319  ../clib/stdlib.c           0x00000000   Lc  Abs  File  De 
    320  .text                      0x0000022c   Lc    1  Sect  De 
    321  ../clib/angel/boardlib.s   0x00000000   Lc  Abs  File  De 
    322  ../clib/angel/boardlib.s   0x00000000   Lc  Abs  File  De 
    323  ../clib/angel/boardlib.s   0x00000000   Lc  Abs  File  De 
    324  ../clib/libinit.s          0x00000000   Lc  Abs  File  De 
    325  .ARM.Collect$$libinit$$00000000
                                    0x0000015c   Lc    1  Sect  De   0x2
    326  ../clib/angel/sys.s        0x00000000   Lc  Abs  File  De 
    327  .text                      0x00000240   Lc    1  Sect  De   0x8
    328  .bss                       0x10000708   Lc    3  Sect  De   0x60
    329  ../clib/angel/kernel.s     0x00000000   Lc  Abs  File  De 
    330  .ARM.Collect$$rtexit$$00000000
                                    0x0000017a   Lc    1  Sect  De   0x2
    331  ../clib/libinit.s          0x00000000   Lc  Abs  File  De 
    332  .ARM.Collect$$libinit$$00000001
                                    0x0000015e   Lc    1  Sect  De   0x4
    333  .ARM.Collect$$libinit$$00000004
                                    0x00000162   Lc    1  Sect  De 
    334  .ARM.Collect$$libinit$$0000000A
                                    0x00000162   Lc    1  Sect  De 
    335  .ARM.Collect$$libinit$$0000000C
                                    0x00000162   Lc    1  Sect  De 
    336  .ARM.Collect$$libinit$$0000000E
                                    0x00000162   Lc    1  Sect  De 
    337  .ARM.Collect$$libinit$$00000011
                                    0x00000162   Lc    1  Sect  De 
    338  .ARM.Collect$$libinit$$00000013
                                    0x00000162   Lc    1  Sect  De 
    339  .ARM.Collect$$libinit$$00000015
                                    0x00000162   Lc    1  Sect  De 
    340  .ARM.Collect$$libinit$$00000017
                                    0x00000162   Lc    1  Sect  De 
    341  .ARM.Collect$$libinit$$00000019
                                    0x00000162   Lc    1  Sect  De 
    342  .ARM.Collect$$libinit$$0000001B
                                    0x00000162   Lc    1  Sect  De 
    343  .ARM.Collect$$libinit$$0000001D
                                    0x00000162   Lc    1  Sect  De 
    344  .ARM.Collect$$libinit$$0000001F
                                    0x00000162   Lc    1  Sect  De 
    345  .ARM.Collect$$libinit$$00000021
                                    0x00000162   Lc    1  Sect  De 
    346  .ARM.Collect$$libinit$$00000023
                                    0x00000162   Lc    1  Sect  De 
    347  .ARM.Collect$$libinit$$00000025
                                    0x00000162   Lc    1  Sect  De 
    348  .ARM.Collect$$libinit$$0000002C
                                    0x00000162   Lc    1  Sect  De 
    349  .ARM.Collect$$libinit$$0000002E
                                    0x00000162   Lc    1  Sect  De 
    350  .ARM.Collect$$libinit$$00000030
                                    0x00000162   Lc    1  Sect  De 
    351  .ARM.Collect$$libinit$$00000032
                                    0x00000162   Lc    1  Sect  De 
    352  .ARM.Collect$$libinit$$00000033
                                    0x00000162   Lc    1  Sect  De   0x2
    353  ../clib/angel/kernel.s     0x00000000   Lc  Abs  File  De 
    354  .ARM.Collect$$rtexit$$00000002
                                    0x0000017c   Lc    1  Sect  De 
    355  .ARM.Collect$$rtexit$$00000003
                                    0x0000017c   Lc    1  Sect  De   0x4
    356  .ARM.Collect$$rtexit$$00000004
                                    0x00000180   Lc    1  Sect  De   0x6
    357  ../clib/armsys.c           0x00000000   Lc  Abs  File  De 
    358  ../clib/armsys.c           0x00000000   Lc  Abs  File  De 
    359  ../fplib/fpinit.s          0x00000000   Lc  Abs  File  De 
    360  x$fpl$fpinit               0x0000346e   Lc    1  Sect  De   0xa
    361  $v0                        0x0000346e   Lc    1   --   De 
    362  ../clib/angel/sysapp.c     0x00000000   Lc  Abs  File  De 
    363  .text                      0x00000248   Lc    1  Sect  De 
    364  ../clib/angel/boardlib.s   0x00000000   Lc  Abs  File  De 
    365  ../clib/armsys.c           0x00000000   Lc  Abs  File  De 
    366  ../clib/armsys.c           0x00000000   Lc  Abs  File  De 
    367  ../clib/libinit.s          0x00000000   Lc  Abs  File  De 
    368  .ARM.Collect$$libshutdown$$00000000
                                    0x00000164   Lc    1  Sect  De   0x2
    369  ../clib/angel/sysapp.c     0x00000000   Lc  Abs  File  De 
    370  ../clib/angel/sys.s        0x00000000   Lc  Abs  File  De 
    371  .text                      0x00000254   Lc    1  Sect  De   0x2
    372  ../clib/angel/sys.s        0x00000000   Lc  Abs  File  De 
    373  .text                      0x00000256   Lc    1  Sect  De 
    374  ../clib/heapalloc.c        0x00000000   Lc  Abs  File  De 
    375  ../clib/signal.c           0x00000000   Lc  Abs  File  De 
    376  ../clib/signal.c           0x00000000   Lc  Abs  File  De 
    377  ../clib/libinit.s          0x00000000   Lc  Abs  File  De 
    378  .ARM.Collect$$libshutdown$$00000002
                                    0x00000166   Lc    1  Sect  De 
    379  .ARM.Collect$$libshutdown$$00000004
                                    0x00000166   Lc    1  Sect  De 
    380  .ARM.Collect$$libshutdown$$00000007
                                    0x00000166   Lc    1  Sect  De 
    381  .ARM.Collect$$libshutdown$$0000000A
                                    0x00000166   Lc    1  Sect  De 
    382  .ARM.Collect$$libshutdown$$0000000C
                                    0x00000166   Lc    1  Sect  De 
    383  .ARM.Collect$$libshutdown$$0000000F
                                    0x00000166   Lc    1  Sect  De 
    384  .ARM.Collect$$libshutdown$$00000010
                                    0x00000166   Lc    1  Sect  De   0x2
    385  ../clib/angel/rt.s         0x00000000   Lc  Abs  File  De 
    386  ../clib/signal.c           0x00000000   Lc  Abs  File  De 
    387  ../clib/signal.c           0x00000000   Lc  Abs  File  De 
    388  ../clib/signal.c           0x00000000   Lc  Abs  File  De 
    389  ../clib/signal.c           0x00000000   Lc  Abs  File  De 
    390  ../clib/angel/sysapp.c     0x00000000   Lc  Abs  File  De 
    391  ../clib/signal.s           0x00000000   Lc  Abs  File  De 
    392  ../clib/signal.c           0x00000000   Lc  Abs  File  De 
    393  ../clib/signal.c           0x00000000   Lc  Abs  File  De 
    394  ../clib/signal.c           0x00000000   Lc  Abs  File  De 
    395  ../clib/signal.c           0x00000000   Lc  Abs  File  De 
    396  ../clib/signal.c           0x00000000   Lc  Abs  File  De 
    397  ../clib/signal.c           0x00000000   Lc  Abs  File  De 
    398  ../clib/signal.c           0x00000000   Lc  Abs  File  De 
    399  ../clib/signal.c           0x00000000   Lc  Abs  File  De 
    400  ../clib/angel/scatter.s    0x00000000   Lc  Abs  File  De 
    401  !!!scatter                 0x000000f0   Lc    1  Sect  De   0x34
    402  ../clib/angel/handlers.s   0x00000000   Lc  Abs  File  De 
    403  !!handler_copy             0x00000124   Lc    1  Sect  De   0x1a
    404  ../clib/angel/handlers.s   0x00000000   Lc  Abs  File  De 
    405  !!handler_zi               0x00000140   Lc    1  Sect  De   0x1c
    406  BuildAttributes$$THM_ISAv4$E$P$D$K$B$S$7EM$VFPi3$EXTD16$VFPS$VFMA$PE$A:L22UL41UL21$X:L11$S22US41US21$IEEE1$IW$USESV6$~STKCKD$USESV7$~SHL$OTIME$ROPI$EBA8$UX$STANDARDLIB$REQ8$EABIv2
                                    0x00000000   Gb  Abs   --   Hi 
    407  __ARM_use_no_argv          0x00000000   Gb  Abs   --   Hi 
    408  __Vectors                  0x00000000   Gb    1  Data  Hi 
    409  Reset_Handler              0x000000c1   Wk    1  Code  Hi   0x1c
    410  am_nmi_isr                 0x000000dd   Wk    1  Code  Hi   0x2
    411  am_fault_isr               0x000000df   Wk    1  Code  Hi   0x2
    412  am_memmanage_isr           0x000000e1   Wk    1  Code  Hi   0x2
    413  am_adc_isr                 0x000000e3   Wk    1  Code  Hi 
    414  am_brownout_isr            0x000000e3   Wk    1  Code  Hi 
    415  am_clkgen_isr              0x000000e3   Wk    1  Code  Hi 
    416  am_ctimer_isr              0x000000e3   Wk    1  Code  Hi 
    417  am_debugmon_isr            0x000000e3   Wk    1  Code  Hi 
    418  am_flash_isr               0x000000e3   Wk    1  Code  Hi 
    419  am_gpio_isr                0x000000e3   Wk    1  Code  Hi 
    420  am_iomaster1_isr           0x000000e3   Wk    1  Code  Hi 
    421  am_iomaster2_isr           0x000000e3   Wk    1  Code  Hi 
    422  am_iomaster3_isr           0x000000e3   Wk    1  Code  Hi 
    423  am_iomaster4_isr           0x000000e3   Wk    1  Code  Hi 
    424  am_iomaster5_isr           0x000000e3   Wk    1  Code  Hi 
    425  am_ioslave_acc_isr         0x000000e3   Wk    1  Code  Hi 
    426  am_ioslave_ios_isr         0x000000e3   Wk    1  Code  Hi 
    427  am_pdm_isr                 0x000000e3   Wk    1  Code  Hi 
    428  am_pendsv_isr              0x000000e3   Wk    1  Code  Hi 
    429  am_software0_isr           0x000000e3   Wk    1  Code  Hi 
    430  am_software1_isr           0x000000e3   Wk    1  Code  Hi 
    431  am_software2_isr           0x000000e3   Wk    1  Code  Hi 
    432  am_software3_isr           0x000000e3   Wk    1  Code  Hi 
    433  am_stimer_cmpr0_isr        0x000000e3   Wk    1  Code  Hi 
    434  am_stimer_cmpr1_isr        0x000000e3   Wk    1  Code  Hi 
    435  am_stimer_cmpr2_isr        0x000000e3   Wk    1  Code  Hi 
    436  am_stimer_cmpr3_isr        0x000000e3   Wk    1  Code  Hi 
    437  am_stimer_cmpr4_isr        0x000000e3   Wk    1  Code  Hi 
    438  am_stimer_cmpr5_isr        0x000000e3   Wk    1  Code  Hi 
    439  am_stimer_cmpr6_isr        0x000000e3   Wk    1  Code  Hi 
    440  am_stimer_cmpr7_isr        0x000000e3   Wk    1  Code  Hi 
    441  am_stimer_isr              0x000000e3   Wk    1  Code  Hi 
    442  am_svcall_isr              0x000000e3   Wk    1  Code  Hi 
    443  am_systick_isr             0x000000e3   Wk    1  Code  Hi 
    444  am_uart0_isr               0x000000e3   Wk    1  Code  Hi 
    445  am_uart1_isr               0x000000e3   Wk    1  Code  Hi 
    446  am_uart_isr                0x000000e3   Wk    1  Code  Hi 
    447  am_vcomp_isr               0x000000e3   Wk    1  Code  Hi 
    448  am_watchdog_isr            0x000000e3   Wk    1  Code  Hi 
    449  __main                     0x000000e9   Gb    1  Code  Hi   0x8
    450  __scatterload              0x000000f1   Gb    1  Code  Hi 
    451  __scatterload_rt2          0x000000f1   Gb    1  Code  Hi   0x2c
    452  __scatterload_rt2_thumb_only
                                    0x000000f1   Gb    1  Code  Hi 
    453  __scatterload_null         0x000000ff   Gb    1  Code  Hi 
    454  __scatterload_copy         0x00000125   Gb    1  Code  Hi   0x1a
    455  __scatterload_zeroinit     0x00000141   Gb    1  Code  Hi   0x1c
    456  __rt_lib_init              0x0000015d   Gb    1  Code  De 
    457  __rt_lib_init_fp_1         0x0000015f   Gb    1  Code  Hi 
    458  __rt_lib_init_alloca_1     0x00000163   Gb    1  Code  Hi 
    459  __rt_lib_init_argv_1       0x00000163   Gb    1  Code  Hi 
    460  __rt_lib_init_atexit_1     0x00000163   Gb    1  Code  Hi 
    461  __rt_lib_init_clock_1      0x00000163   Gb    1  Code  Hi 
    462  __rt_lib_init_cpp_1        0x00000163   Gb    1  Code  Hi 
    463  __rt_lib_init_exceptions_1 0x00000163   Gb    1  Code  Hi 
    464  __rt_lib_init_fp_trap_1    0x00000163   Gb    1  Code  Hi 
    465  __rt_lib_init_getenv_1     0x00000163   Gb    1  Code  Hi 
    466  __rt_lib_init_heap_1       0x00000163   Gb    1  Code  Hi 
    467  __rt_lib_init_lc_collate_1 0x00000163   Gb    1  Code  Hi 
    468  __rt_lib_init_lc_ctype_1   0x00000163   Gb    1  Code  Hi 
    469  __rt_lib_init_lc_monetary_1
                                    0x00000163   Gb    1  Code  Hi 
    470  __rt_lib_init_lc_numeric_1 0x00000163   Gb    1  Code  Hi 
    471  __rt_lib_init_lc_time_1    0x00000163   Gb    1  Code  Hi 
    472  __rt_lib_init_preinit_1    0x00000163   Gb    1  Code  Hi 
    473  __rt_lib_init_rand_1       0x00000163   Gb    1  Code  Hi 
    474  __rt_lib_init_return       0x00000163   Gb    1  Code  Hi 
    475  __rt_lib_init_signal_1     0x00000163   Gb    1  Code  Hi 
    476  __rt_lib_init_stdio_1      0x00000163   Gb    1  Code  Hi 
    477  __rt_lib_init_user_alloc_1 0x00000163   Gb    1  Code  Hi 
    478  __rt_lib_shutdown          0x00000165   Gb    1  Code  De 
    479  __rt_lib_shutdown_cpp_1    0x00000167   Gb    1  Code  Hi 
    480  __rt_lib_shutdown_fp_trap_1
                                    0x00000167   Gb    1  Code  Hi 
    481  __rt_lib_shutdown_heap_1   0x00000167   Gb    1  Code  Hi 
    482  __rt_lib_shutdown_return   0x00000167   Gb    1  Code  Hi 
    483  __rt_lib_shutdown_signal_1 0x00000167   Gb    1  Code  Hi 
    484  __rt_lib_shutdown_stdio_1  0x00000167   Gb    1  Code  Hi 
    485  __rt_lib_shutdown_user_alloc_1
                                    0x00000167   Gb    1  Code  Hi 
    486  __rt_entry                 0x00000169   Gb    1  Code  Hi 
    487  __rt_entry_presh_1         0x00000169   Gb    1  Code  Hi 
    488  __rt_entry_sh              0x00000169   Gb    1  Code  Hi 
    489  __rt_entry_li              0x0000016f   Gb    1  Code  Hi 
    490  __rt_entry_postsh_1        0x0000016f   Gb    1  Code  Hi 
    491  __rt_entry_main            0x00000173   Gb    1  Code  Hi 
    492  __rt_entry_postli_1        0x00000173   Gb    1  Code  Hi 
    493  __rt_exit                  0x0000017b   Gb    1  Code  De 
    494  __rt_exit_ls               0x0000017d   Gb    1  Code  Hi 
    495  __rt_exit_prels_1          0x0000017d   Gb    1  Code  Hi 
    496  __rt_exit_exit             0x00000181   Gb    1  Code  Hi 
    497  am_hal_interrupt_master_enable
                                    0x00000189   Gb    1  Code  Hi   0x8
    498  am_hal_interrupt_master_disable
                                    0x00000191   Gb    1  Code  Hi   0x8
    499  am_hal_interrupt_master_set
                                    0x00000199   Gb    1  Code  Hi   0x6
    500  __asm___12_am_hal_iom_c_97762dd2__iom_workaround_loop
                                    0x000001a1   Gb    1  Code  Hi   0x20
    501  __user_initial_stackheap   0x000001c5   Gb    1  Code  Hi   0xa
    502  __use_two_region_memory    0x000001dd   Gb    1  Code  Hi   0x2
    503  __rt_heap_escrow$2region   0x000001df   Gb    1  Code  De   0x2
    504  __rt_heap_expand$2region   0x000001e1   Gb    1  Code  De   0x2
    505  __user_setup_stackheap     0x000001e3   Gb    1  Code  De   0x4a
    506  exit                       0x0000022d   Gb    1  Code  De   0x12
    507  __user_libspace            0x00000241   Wk    1  Code  De   0x8
    508  __user_perproc_libspace    0x00000241   Wk    1  Code  De 
    509  __user_perthread_libspace  0x00000241   Wk    1  Code  De 
    510  _sys_exit                  0x00000249   Gb    1  Code  De   0x8
    511  __I$use$semihosting        0x00000255   Gb    1  Code  Hi 
    512  __use_no_semihosting_swi   0x00000255   Gb    1  Code  Hi   0x2
    513  __semihosting_library_function
                                    0x00000257   Gb    1  Code  Hi 
    514  am_bsp_debug_printf_enable 0x00000259   Gb    1  Code  Hi   0x5a
    515  am_bsp_iom_enable          0x000002c9   Gb    1  Code  Hi   0xd6
    516  am_bsp_itm_string_print    0x000003ad   Gb    1  Code  Hi   0x4
    517  am_bsp_low_power_init      0x000003b1   Gb    1  Code  Hi   0x22
    518  am_hal_cachectrl_enable    0x000003d5   Gb    1  Code  Hi   0xcc
    519  am_hal_clkgen_osc_stop     0x000004a5   Gb    1  Code  Hi   0x14
    520  am_hal_clkgen_sysclk_get   0x000004b9   Gb    1  Code  Hi   0x1c
    521  am_hal_clkgen_sysclk_select
                                    0x000004dd   Gb    1  Code  Hi   0x20
    522  am_hal_ctimer_clear        0x00000549   Gb    1  Code  Hi   0x24
    523  am_hal_ctimer_period_set   0x00000571   Gb    1  Code  Hi   0x72
    524  am_hal_ctimer_start        0x000005ed   Gb    1  Code  Hi   0x2a
    525  am_hal_debug_error         0x0000061d   Wk    1  Code  Hi   0x2
    526  am_hal_flash_delay         0x00000621   Gb    1  Code  Hi   0x4
    527  am_hal_flash_delay_status_change
                                    0x00000629   Gb    1  Code  Hi   0x30
    528  am_hal_i2c_bit_bang_receive
                                    0x0000065d   Gb    1  Code  Hi   0x1d6
    529  am_hal_i2c_bit_bang_send   0x00000839   Gb    1  Code  Hi   0xc6
    530  am_hal_interrupt_enable    0x00000905   Gb    1  Code  Hi   0x46
    531  am_hal_iom_config          0x00000951   Gb    1  Code  Hi   0x26e
    532  am_hal_iom_enable          0x00000bdd   Gb    1  Code  Hi   0x24
    533  am_hal_iom_fifo_read       0x00000c05   Gb    1  Code  Hi   0x90
    534  am_hal_iom_fifo_write      0x00000cdd   Gb    1  Code  Hi   0xa4
    535  am_hal_iom_i2c_cmd_run     0x00000dc5   Gb    1  Code  Hi   0x142
    536  am_hal_iom_i2c_read_nb     0x00000f21   Gb    1  Code  Hi   0xe2
    537  am_hal_iom_i2c_write       0x00001015   Gb    1  Code  Hi   0x128
    538  am_hal_iom_i2c_write_nb    0x00001151   Gb    1  Code  Hi   0x112
    539  am_hal_iom_i2c_write_nq    0x00001275   Gb    1  Code  Hi   0x174
    540  am_hal_iom_int_clear       0x000013fd   Gb    1  Code  Hi   0x16
    541  am_hal_iom_int_enable      0x00001413   Gb    1  Code  Hi   0x1c
    542  am_hal_iom_int_service     0x00001431   Gb    1  Code  Hi   0x160
    543  am_hal_iom_int_status_get  0x00001599   Gb    1  Code  Hi   0x28
    544  am_hal_iom_pwrctrl_enable  0x000015c1   Gb    1  Code  Hi   0x20
    545  am_hal_iom_queue_init      0x00001625   Gb    1  Code  Hi   0x1a
    546  am_hal_iom_queue_service   0x00001645   Gb    1  Code  Hi   0xcc
    547  am_hal_iom_sleeping_queue_flush
                                    0x00001719   Gb    1  Code  Hi   0x4e
    548  am_hal_iom_spi_read_nb     0x00001771   Gb    1  Code  Hi   0x104
    549  am_hal_iom_spi_write_nb    0x00001895   Gb    1  Code  Hi   0x108
    550  am_hal_iom_workaround_word_write
                                    0x000019b1   Gb    1  Code  Hi   0x3dc
    551  am_hal_ios_access_int_clear
                                    0x00001e4d   Gb    1  Code  Hi   0xa
    552  am_hal_ios_config          0x00001e59   Gb    1  Code  Hi   0x8c
    553  am_hal_ios_int_clear       0x00001ee9   Gb    1  Code  Hi   0xa
    554  am_hal_ios_lram_read       0x00001ef3   Gb    1  Code  Hi   0x8
    555  am_hal_itm_enable          0x00001efd   Gb    1  Code  Hi   0x38
    556  am_hal_itm_print           0x00001f55   Gb    1  Code  Hi   0x30
    557  am_hal_pwrctrl_bucks_disable
                                    0x00001f85   Gb    1  Code  Hi   0x44
    558  am_hal_pwrctrl_bucks_enable
                                    0x00001fd1   Gb    1  Code  Hi   0x2e
    559  am_hal_pwrctrl_bucks_init  0x00002005   Gb    1  Code  Hi   0x3c
    560  am_hal_pwrctrl_low_power_init
                                    0x00002045   Gb    1  Code  Hi   0x14
    561  am_hal_pwrctrl_memory_enable
                                    0x0000205d   Gb    1  Code  Hi   0x174
    562  am_hal_pwrctrl_periph_enable
                                    0x000021dd   Gb    1  Code  Hi   0x70
    563  am_hal_queue_init          0x00002299   Gb    1  Code  Hi   0x16
    564  am_hal_queue_item_add      0x000022af   Gb    1  Code  Hi   0x9e
    565  am_hal_queue_item_get      0x0000234d   Gb    1  Code  Hi   0x98
    566  am_hal_rtc_osc_disable     0x000023e5   Gb    1  Code  Hi   0xe
    567  am_hal_rtc_osc_select      0x000023f3   Gb    1  Code  Hi   0x16
    568  am_hal_sysctrl_sleep       0x00002409   Gb    1  Code  Hi   0xda
    569  am_hal_tpiu_enable         0x000024f5   Gb    1  Code  Hi   0x74
    570  am_hal_vcomp_disable       0x0000257d   Gb    1  Code  Hi   0x8
    571  am_iomaster0_isr           0x00002589   Gb    1  Code  Hi   0x1e
    572  am_util_delay_ms           0x000025a7   Gb    1  Code  Hi   0x1e
    573  am_util_stdio_printf       0x000025c5   Gb    1  Code  Hi   0x28
    574  am_util_stdio_printf_init  0x000025f5   Gb    1  Code  Hi   0x6
    575  am_util_stdio_terminal_clear
                                    0x00002601   Gb    1  Code  Hi   0xa
    576  am_util_stdio_vsprintf     0x00002621   Gb    1  Code  Hi   0x3a4
    577  itm_start                  0x00002f35   Gb    1  Code  Hi   0x50
    578  main                       0x00002f91   Gb    1  Code  Hi   0xe8
    579  __aeabi_d2f                0x00003371   Gb    1  Code  Hi 
    580  _d2f                       0x00003371   Gb    1  Code  De   0x62
    581  __fpl_dnaninf              0x000033d3   Gb    1  Code  De   0x9c
    582  _fp_init                   0x0000346f   Gb    1  Code  De   0xa
    583  __fplib_config_fpu_vfp     0x00003477   Gb    1  Code  De 
    584  __fplib_config_pureend_doubles
                                    0x00003477   Gb    1  Code  De 
    585  __fpl_fretinf              0x00003479   Gb    1  Code  De   0xa
    586  __I$use$fp                 0x00003482   Gb    1   --   De 
    587  am_hal_cachectrl_defaults  0x00003482   Gb    1  Data  Hi   0xc
    588  i2c_bb_errmap              0x0000348e   Gb    1  Data  Hi   0x5
    589  g_IOMPads                  0x00003493   Gb    1  Data  Hi   0x27
    590  g_I2CPads                  0x000034ba   Gb    1  Data  Hi   0x15
    591  Region$$Table$$Base        0x000034d0   Gb    1   --   Hi 
    592  Region$$Table$$Limit       0x000034f0   Gb    1   --   Hi 
    593  g_testdata                 0x10000000   Gb    2  Data  Hi   0x10
    594  g_sIOSI2cConfig            0x10000010   Gb    2  Data  Hi   0x18
    595  g_pfnCharPrint             0x10000034   Gb    2  Data  Hi   0x4
    596  g_ui32HALflags             0x1000003c   Gb    2  Data  Hi   0x4
    597  am_hal_iom_queue_flush     0x10000070   Gb    2  Data  Hi   0x4
    598  g_bIomBusy                 0x10000074   Gb    2  Data  Hi   0x7
    599  g_ui32HwFifoSize           0x10000084   Gb    2  Data  Hi   0x1
    600  g_pui8FIFOBase             0x10000088   Gb    2  Data  Hi   0x4
    601  g_pui8FIFOEnd              0x1000008c   Gb    2  Data  Hi   0x4
    602  g_pui8FIFOPtr              0x10000090   Gb    2  Data  Hi   0x4
    603  g_ui32FifoBaseOffset       0x10000094   Gb    2  Data  Hi   0x4
    604  g_psQueueMemory            0x100000b4   Gb    3  Data  Hi   0x380
    605  g_resultdata               0x10000434   Gb    3  Data  Hi   0x10
    606  g_psIOMBuffers             0x10000544   Gb    3  Data  Hi   0x78
    607  ui32StatusTimeout          0x100005bc   Gb    3  Data  Hi   0x18
    608  g_psIOMQueue               0x100005d4   Gb    3  Data  Hi   0x90
    609  am_hal_iom_pwrsave         0x10000664   Gb    3  Data  Hi   0x78
    610  __libspace_start           0x10000708   Gb    3  Data  De   0x60
    611  __temporary_stack_top$libspace
                                    0x10000768   Gb    3  Data  De 


** Section #12 '.strtab' (SHT_STRTAB)
    Size   : 9136 bytes

            #  Offset String
        ====================================

            1      1: $d
            2      4: $t
            3      7: $d.realdata
            4     19: ../src/i2c_loopback.c
            5     41: i.am_iomaster0_isr
            6     60: i.iom_set_up
            7     73: iom_set_up
            8     84: i.ios_set_up
            9     97: ios_set_up
           10    108: i.itm_start
           11    120: i.main
           12    127: .bss
           13    132: .data
           14    138: g_sIOMI2cConfig
           15    154: ../../../../../utils/am_util_delay.c
           16    191: i.am_util_delay_ms
           17    210: ../../../../../utils/am_util_stdio.c
           18    247: i.am_util_stdio_printf
           19    270: i.am_util_stdio_printf_init
           20    298: i.am_util_stdio_terminal_clear
           21    329: i.am_util_stdio_vsprintf
           22    354: i.decstr_to_int
           23    370: decstr_to_int
           24    384: i.divu64_10
           25    396: divu64_10
           26    406: i.ftoa
           27    413: ftoa
           28    418: i.ndigits_in_hex
           29    435: ndigits_in_hex
           30    450: i.ndigits_in_i64
           31    467: ndigits_in_i64
           32    482: i.ndigits_in_u64
           33    499: ndigits_in_u64
           34    514: i.padbuffer
           35    526: padbuffer
           36    536: i.simple_strlen
           37    552: simple_strlen
           38    566: i.uint64_to_hexstr
           39    585: uint64_to_hexstr
           40    602: i.uint64_to_str
           41    618: uint64_to_str
           42    632: g_prfbuf
           43    641: g_bTxtXlate
           44    653: ../keil/startup_keil.s
           45    676: STACK
           46    682: StackMem
           47    691: HEAP
           48    696: HeapMem
           49    704: RESET
           50    710: $v0
           51    714: .text
           52    720: ../am_hal_global.c
           53    739: ../am_bsp.c
           54    751: i.am_bsp_debug_printf_enable
           55    780: i.am_bsp_iom_enable
           56    800: i.am_bsp_itm_string_print
           57    826: i.am_bsp_low_power_init
           58    850: g_SPIpins
           59    860: ../am_hal_cachectrl.c
           60    882: i.am_hal_cachectrl_enable
           61    908: .constdata
           62    919: ../am_hal_clkgen.c
           63    938: i.am_hal_clkgen_osc_stop
           64    963: i.am_hal_clkgen_sysclk_get
           65    990: i.am_hal_clkgen_sysclk_select
           66   1020: ../am_hal_flash.c
           67   1038: i.am_hal_flash_delay
           68   1059: i.am_hal_flash_delay_status_change
           69   1094: ..\am_hal_interrupt.c
           70   1116: .emb_text
           71   1126: ../am_hal_interrupt.c
           72   1148: i.am_hal_interrupt_enable
           73   1174: ..\am_hal_iom.c
           74   1190: ../am_hal_iom.c
           75   1206: i.am_hal_iom_config
           76   1226: i.am_hal_iom_enable
           77   1246: i.am_hal_iom_fifo_read
           78   1269: i.am_hal_iom_fifo_write
           79   1293: i.am_hal_iom_i2c_cmd_run
           80   1318: i.am_hal_iom_i2c_read_nb
           81   1343: i.am_hal_iom_i2c_write
           82   1366: i.am_hal_iom_i2c_write_nb
           83   1392: i.am_hal_iom_i2c_write_nq
           84   1418: i.am_hal_iom_int_clear
           85   1441: i.am_hal_iom_int_enable
           86   1465: i.am_hal_iom_int_service
           87   1490: i.am_hal_iom_int_status_get
           88   1518: i.am_hal_iom_pwrctrl_enable
           89   1546: i.am_hal_iom_queue_init
           90   1570: i.am_hal_iom_queue_service
           91   1597: i.am_hal_iom_sleeping_queue_flush
           92   1631: i.am_hal_iom_spi_read_nb
           93   1656: i.am_hal_iom_spi_write_nb
           94   1682: i.am_hal_iom_workaround_word_write
           95   1717: i.internal_iom_get_int_err
           96   1744: internal_iom_get_int_err
           97   1769: g_iom_error_status
           98   1788: ..\am_hal_ios.c
           99   1804: ../am_hal_ios.c
          100   1820: i.am_hal_ios_access_int_clear
          101   1850: i.am_hal_ios_config
          102   1870: i.am_hal_ios_int_clear
          103   1893: i.am_hal_ios_lram_read
          104   1916: ../am_hal_itm.c
          105   1932: i.am_hal_itm_enable
          106   1952: i.am_hal_itm_print
          107   1971: ../am_hal_sysctrl.c
          108   1991: i.am_hal_sysctrl_sleep
          109   2014: i.setBuckZX
          110   2026: setBuckZX
          111   2036: g_bBuckRestoreComplete
          112   2059: g_ui32BuckTimer
          113   2075: g_ui32BuckInputs
          114   2092: g_buckZX_chk
          115   2105: g_ui32SaveCoreBuckZX
          116   2126: g_ui32SaveMemBuckZX
          117   2146: g_ui32CoreBuck
          118   2161: ..\am_hal_ctimer.c
          119   2180: ../am_hal_ctimer.c
          120   2199: i.am_hal_ctimer_clear
          121   2221: i.am_hal_ctimer_period_set
          122   2248: i.am_hal_ctimer_start
          123   2270: ../am_hal_debug.c
          124   2288: i.am_hal_debug_error
          125   2309: ../am_hal_gpio.c
          126   2326: ../am_hal_i2c_bit_bang.c
          127   2351: i.am_hal_i2c_bit_bang_receive
          128   2381: i.am_hal_i2c_bit_bang_send
          129   2408: i.i2c_pull_and_wait_scl_hi
          130   2435: i2c_pull_and_wait_scl_hi
          131   2460: i.i2c_send_byte
          132   2476: i2c_send_byte
          133   2490: am_hal_i2c_bit_bang_priv
          134   2515: ../am_hal_pwrctrl.c
          135   2535: i.am_hal_pwrctrl_bucks_disable
          136   2566: i.am_hal_pwrctrl_bucks_enable
          137   2596: i.am_hal_pwrctrl_bucks_init
          138   2624: i.am_hal_pwrctrl_low_power_init
          139   2656: i.am_hal_pwrctrl_memory_enable
          140   2687: i.am_hal_pwrctrl_periph_enable
          141   2718: ../am_hal_queue.c
          142   2736: i.am_hal_queue_init
          143   2756: i.am_hal_queue_item_add
          144   2780: i.am_hal_queue_item_get
          145   2804: ../am_hal_rtc.c
          146   2820: i.am_hal_rtc_osc_disable
          147   2845: i.am_hal_rtc_osc_select
          148   2869: ../am_hal_tpiu.c
          149   2886: i.am_hal_tpiu_enable
          150   2907: ../am_hal_uart.c
          151   2924: ../am_hal_vcomp.c
          152   2942: i.am_hal_vcomp_disable
          153   2965: dc.s
          154   2970: ../clib/longlong.s
          155   2989: ../clib/heapaux.c
          156   3007: ../clib/angel/startup.s
          157   3031: !!!main
          158   3039: ../fplib/d2f.s
          159   3054: x$fpl$d2f
          160   3064: ../clib/angel/kernel.s
          161   3087: .ARM.Collect$$rtentry$$00000000
          162   3119: ../fplib/dnaninf.s
          163   3138: x$fpl$dnaninf
          164   3152: ../fplib/fretinf.s
          165   3171: x$fpl$fretinf
          166   3185: ../fplib/usenofp.s
          167   3204: x$fpl$usenofp
          168   3218: .ARM.Collect$$rtentry$$00000002
          169   3250: .ARM.Collect$$rtentry$$00000009
          170   3282: .ARM.Collect$$rtentry$$0000000A
          171   3314: .ARM.Collect$$rtentry$$0000000C
          172   3346: .ARM.Collect$$rtentry$$0000000D
          173   3378: .ARM.Collect$$rtentry$$00000004
          174   3410: ../clib/angel/sys.s
          175   3430: ../clib/stdlib.c
          176   3447: ../clib/angel/boardlib.s
          177   3472: ../clib/libinit.s
          178   3490: .ARM.Collect$$libinit$$00000000
          179   3522: .ARM.Collect$$rtexit$$00000000
          180   3553: .ARM.Collect$$libinit$$00000001
          181   3585: .ARM.Collect$$libinit$$00000004
          182   3617: .ARM.Collect$$libinit$$0000000A
          183   3649: .ARM.Collect$$libinit$$0000000C
          184   3681: .ARM.Collect$$libinit$$0000000E
          185   3713: .ARM.Collect$$libinit$$00000011
          186   3745: .ARM.Collect$$libinit$$00000013
          187   3777: .ARM.Collect$$libinit$$00000015
          188   3809: .ARM.Collect$$libinit$$00000017
          189   3841: .ARM.Collect$$libinit$$00000019
          190   3873: .ARM.Collect$$libinit$$0000001B
          191   3905: .ARM.Collect$$libinit$$0000001D
          192   3937: .ARM.Collect$$libinit$$0000001F
          193   3969: .ARM.Collect$$libinit$$00000021
          194   4001: .ARM.Collect$$libinit$$00000023
          195   4033: .ARM.Collect$$libinit$$00000025
          196   4065: .ARM.Collect$$libinit$$0000002C
          197   4097: .ARM.Collect$$libinit$$0000002E
          198   4129: .ARM.Collect$$libinit$$00000030
          199   4161: .ARM.Collect$$libinit$$00000032
          200   4193: .ARM.Collect$$libinit$$00000033
          201   4225: .ARM.Collect$$rtexit$$00000002
          202   4256: .ARM.Collect$$rtexit$$00000003
          203   4287: .ARM.Collect$$rtexit$$00000004
          204   4318: ../clib/armsys.c
          205   4335: ../fplib/fpinit.s
          206   4353: x$fpl$fpinit
          207   4366: ../clib/angel/sysapp.c
          208   4389: .ARM.Collect$$libshutdown$$00000000
          209   4425: ../clib/heapalloc.c
          210   4445: ../clib/signal.c
          211   4462: .ARM.Collect$$libshutdown$$00000002
          212   4498: .ARM.Collect$$libshutdown$$00000004
          213   4534: .ARM.Collect$$libshutdown$$00000007
          214   4570: .ARM.Collect$$libshutdown$$0000000A
          215   4606: .ARM.Collect$$libshutdown$$0000000C
          216   4642: .ARM.Collect$$libshutdown$$0000000F
          217   4678: .ARM.Collect$$libshutdown$$00000010
          218   4714: ../clib/angel/rt.s
          219   4733: ../clib/signal.s
          220   4750: ../clib/angel/scatter.s
          221   4774: !!!scatter
          222   4785: ../clib/angel/handlers.s
          223   4810: !!handler_copy
          224   4825: !!handler_zi
          225   4838: BuildAttributes$$THM_ISAv4$E$P$D$K$B$S$7EM$VFPi3$EXTD16$VFPS$VFMA$PE$A:L22UL41UL21$X:L11$S22US41US21$IEEE1$IW$USESV6$~STKCKD$USESV7$~SHL$OTIME$ROPI$EBA8$UX$STANDARDLIB$REQ8$EABIv2
          226   5018: __ARM_use_no_argv
          227   5036: __Vectors
          228   5046: Reset_Handler
          229   5060: am_nmi_isr
          230   5071: am_fault_isr
          231   5084: am_memmanage_isr
          232   5101: am_adc_isr
          233   5112: am_brownout_isr
          234   5128: am_clkgen_isr
          235   5142: am_ctimer_isr
          236   5156: am_debugmon_isr
          237   5172: am_flash_isr
          238   5185: am_gpio_isr
          239   5197: am_iomaster1_isr
          240   5214: am_iomaster2_isr
          241   5231: am_iomaster3_isr
          242   5248: am_iomaster4_isr
          243   5265: am_iomaster5_isr
          244   5282: am_ioslave_acc_isr
          245   5301: am_ioslave_ios_isr
          246   5320: am_pdm_isr
          247   5331: am_pendsv_isr
          248   5345: am_software0_isr
          249   5362: am_software1_isr
          250   5379: am_software2_isr
          251   5396: am_software3_isr
          252   5413: am_stimer_cmpr0_isr
          253   5433: am_stimer_cmpr1_isr
          254   5453: am_stimer_cmpr2_isr
          255   5473: am_stimer_cmpr3_isr
          256   5493: am_stimer_cmpr4_isr
          257   5513: am_stimer_cmpr5_isr
          258   5533: am_stimer_cmpr6_isr
          259   5553: am_stimer_cmpr7_isr
          260   5573: am_stimer_isr
          261   5587: am_svcall_isr
          262   5601: am_systick_isr
          263   5616: am_uart0_isr
          264   5629: am_uart1_isr
          265   5642: am_uart_isr
          266   5654: am_vcomp_isr
          267   5667: am_watchdog_isr
          268   5683: __main
          269   5690: __scatterload
          270   5704: __scatterload_rt2
          271   5722: __scatterload_rt2_thumb_only
          272   5751: __scatterload_null
          273   5770: __scatterload_copy
          274   5789: __scatterload_zeroinit
          275   5812: __rt_lib_init
          276   5826: __rt_lib_init_fp_1
          277   5845: __rt_lib_init_alloca_1
          278   5868: __rt_lib_init_argv_1
          279   5889: __rt_lib_init_atexit_1
          280   5912: __rt_lib_init_clock_1
          281   5934: __rt_lib_init_cpp_1
          282   5954: __rt_lib_init_exceptions_1
          283   5981: __rt_lib_init_fp_trap_1
          284   6005: __rt_lib_init_getenv_1
          285   6028: __rt_lib_init_heap_1
          286   6049: __rt_lib_init_lc_collate_1
          287   6076: __rt_lib_init_lc_ctype_1
          288   6101: __rt_lib_init_lc_monetary_1
          289   6129: __rt_lib_init_lc_numeric_1
          290   6156: __rt_lib_init_lc_time_1
          291   6180: __rt_lib_init_preinit_1
          292   6204: __rt_lib_init_rand_1
          293   6225: __rt_lib_init_return
          294   6246: __rt_lib_init_signal_1
          295   6269: __rt_lib_init_stdio_1
          296   6291: __rt_lib_init_user_alloc_1
          297   6318: __rt_lib_shutdown
          298   6336: __rt_lib_shutdown_cpp_1
          299   6360: __rt_lib_shutdown_fp_trap_1
          300   6388: __rt_lib_shutdown_heap_1
          301   6413: __rt_lib_shutdown_return
          302   6438: __rt_lib_shutdown_signal_1
          303   6465: __rt_lib_shutdown_stdio_1
          304   6491: __rt_lib_shutdown_user_alloc_1
          305   6522: __rt_entry
          306   6533: __rt_entry_presh_1
          307   6552: __rt_entry_sh
          308   6566: __rt_entry_li
          309   6580: __rt_entry_postsh_1
          310   6600: __rt_entry_main
          311   6616: __rt_entry_postli_1
          312   6636: __rt_exit
          313   6646: __rt_exit_ls
          314   6659: __rt_exit_prels_1
          315   6677: __rt_exit_exit
          316   6692: am_hal_interrupt_master_enable
          317   6723: am_hal_interrupt_master_disable
          318   6755: am_hal_interrupt_master_set
          319   6783: __asm___12_am_hal_iom_c_97762dd2__iom_workaround_loop
          320   6837: __user_initial_stackheap
          321   6862: __use_two_region_memory
          322   6886: __rt_heap_escrow$2region
          323   6911: __rt_heap_expand$2region
          324   6936: __user_setup_stackheap
          325   6959: exit
          326   6964: __user_libspace
          327   6980: __user_perproc_libspace
          328   7004: __user_perthread_libspace
          329   7030: _sys_exit
          330   7040: __I$use$semihosting
          331   7060: __use_no_semihosting_swi
          332   7085: __semihosting_library_function
          333   7116: am_bsp_debug_printf_enable
          334   7143: am_bsp_iom_enable
          335   7161: am_bsp_itm_string_print
          336   7185: am_bsp_low_power_init
          337   7207: am_hal_cachectrl_enable
          338   7231: am_hal_clkgen_osc_stop
          339   7254: am_hal_clkgen_sysclk_get
          340   7279: am_hal_clkgen_sysclk_select
          341   7307: am_hal_ctimer_clear
          342   7327: am_hal_ctimer_period_set
          343   7352: am_hal_ctimer_start
          344   7372: am_hal_debug_error
          345   7391: am_hal_flash_delay
          346   7410: am_hal_flash_delay_status_change
          347   7443: am_hal_i2c_bit_bang_receive
          348   7471: am_hal_i2c_bit_bang_send
          349   7496: am_hal_interrupt_enable
          350   7520: am_hal_iom_config
          351   7538: am_hal_iom_enable
          352   7556: am_hal_iom_fifo_read
          353   7577: am_hal_iom_fifo_write
          354   7599: am_hal_iom_i2c_cmd_run
          355   7622: am_hal_iom_i2c_read_nb
          356   7645: am_hal_iom_i2c_write
          357   7666: am_hal_iom_i2c_write_nb
          358   7690: am_hal_iom_i2c_write_nq
          359   7714: am_hal_iom_int_clear
          360   7735: am_hal_iom_int_enable
          361   7757: am_hal_iom_int_service
          362   7780: am_hal_iom_int_status_get
          363   7806: am_hal_iom_pwrctrl_enable
          364   7832: am_hal_iom_queue_init
          365   7854: am_hal_iom_queue_service
          366   7879: am_hal_iom_sleeping_queue_flush
          367   7911: am_hal_iom_spi_read_nb
          368   7934: am_hal_iom_spi_write_nb
          369   7958: am_hal_iom_workaround_word_write
          370   7991: am_hal_ios_access_int_clear
          371   8019: am_hal_ios_config
          372   8037: am_hal_ios_int_clear
          373   8058: am_hal_ios_lram_read
          374   8079: am_hal_itm_enable
          375   8097: am_hal_itm_print
          376   8114: am_hal_pwrctrl_bucks_disable
          377   8143: am_hal_pwrctrl_bucks_enable
          378   8171: am_hal_pwrctrl_bucks_init
          379   8197: am_hal_pwrctrl_low_power_init
          380   8227: am_hal_pwrctrl_memory_enable
          381   8256: am_hal_pwrctrl_periph_enable
          382   8285: am_hal_queue_init
          383   8303: am_hal_queue_item_add
          384   8325: am_hal_queue_item_get
          385   8347: am_hal_rtc_osc_disable
          386   8370: am_hal_rtc_osc_select
          387   8392: am_hal_sysctrl_sleep
          388   8413: am_hal_tpiu_enable
          389   8432: am_hal_vcomp_disable
          390   8453: am_iomaster0_isr
          391   8470: am_util_delay_ms
          392   8487: am_util_stdio_printf
          393   8508: am_util_stdio_printf_init
          394   8534: am_util_stdio_terminal_clear
          395   8563: am_util_stdio_vsprintf
          396   8586: itm_start
          397   8596: main
          398   8601: __aeabi_d2f
          399   8613: _d2f
          400   8618: __fpl_dnaninf
          401   8632: _fp_init
          402   8641: __fplib_config_fpu_vfp
          403   8664: __fplib_config_pureend_doubles
          404   8695: __fpl_fretinf
          405   8709: __I$use$fp
          406   8720: am_hal_cachectrl_defaults
          407   8746: i2c_bb_errmap
          408   8760: g_IOMPads
          409   8770: g_I2CPads
          410   8780: Region$$Table$$Base
          411   8800: Region$$Table$$Limit
          412   8821: g_testdata
          413   8832: g_sIOSI2cConfig
          414   8848: g_pfnCharPrint
          415   8863: g_ui32HALflags
          416   8878: am_hal_iom_queue_flush
          417   8901: g_bIomBusy
          418   8912: g_ui32HwFifoSize
          419   8929: g_pui8FIFOBase
          420   8944: g_pui8FIFOEnd
          421   8958: g_pui8FIFOPtr
          422   8972: g_ui32FifoBaseOffset
          423   8993: g_psQueueMemory
          424   9009: g_resultdata
          425   9022: g_psIOMBuffers
          426   9037: ui32StatusTimeout
          427   9055: g_psIOMQueue
          428   9068: am_hal_iom_pwrsave
          429   9087: __libspace_start
          430   9104: __temporary_stack_top$libspace
          431   9135: 


** Section #13 '.note' (SHT_NOTE)
    Size   : 28 bytes (alignment 4)


** Section #14 '.comment' (SHT_PROGBITS)
    Size   : 16236 bytes


** Section #15 '.shstrtab' (SHT_STRTAB)
    Size   : 148 bytes

            #  Offset String
        ====================================

            1      1: FLASH
            2      7: SRAM
            3     12: .debug_abbrev
            4     26: .debug_frame
            5     39: .debug_info
            6     51: .debug_line
            7     63: .debug_loc
            8     74: .debug_macinfo
            9     89: .debug_pubnames
           10    105: .symtab
           11    113: .strtab
           12    121: .note
           13    127: .comment
           14    136: .shstrtab
           15    146: 
           16    147: 


