
em9304_test_bridge_gcc.elf:     file format elf32-littlearm

Sections:
Idx Name          Size      VMA       LMA       File off  Algn
  0 .text         00004dc8  00000000  00000000  00010000  2**2
                  CONTENTS, ALLOC, LOAD, READONLY, CODE
  1 .stack        00000800  10000000  10000000  00030000  2**2
                  ALLOC
  2 .data         0000004c  10000800  00004dc8  00020800  2**2
                  CONTENTS, ALLOC, LOAD, DATA
  3 .bss          00000464  1000084c  00004e14  0002084c  2**2
                  ALLOC
  4 .ARM.attributes 00000037  00000000  00000000  0002084c  2**0
                  CONTENTS, READONLY
  5 .debug_info   00014a0d  00000000  00000000  00020883  2**0
                  CONTENTS, READONLY, DEBUGGING
  6 .debug_abbrev 00003169  00000000  00000000  00035290  2**0
                  CONTENTS, READONLY, DEBUGGING
  7 .debug_aranges 00000b78  00000000  00000000  000383f9  2**0
                  CONTENTS, READONLY, DEBUGGING
  8 .debug_ranges 00001e68  00000000  00000000  00038f71  2**0
                  CONTENTS, READONLY, DEBUGGING
  9 .debug_line   00006e6a  00000000  00000000  0003add9  2**0
                  CONTENTS, READONLY, DEBUGGING
 10 .debug_str    00004525  00000000  00000000  00041c43  2**0
                  CONTENTS, READONLY, DEBUGGING
 11 .comment      0000007c  00000000  00000000  00046168  2**0
                  CONTENTS, READONLY
 12 .debug_frame  000023ec  00000000  00000000  000461e4  2**2
                  CONTENTS, READONLY, DEBUGGING
 13 .debug_loc    0000fbdd  00000000  00000000  000485d0  2**0
                  CONTENTS, READONLY, DEBUGGING

Disassembly of section .text:

00000000 <g_am_pfnVectors>:
       0:	00 08 00 10 f5 0f 00 00 5d 10 00 00 9d 10 00 00     ........].......
      10:	9d 10 00 00 9d 10 00 00 9d 10 00 00 00 00 00 00     ................
	...
      2c:	63 10 00 00 63 10 00 00 00 00 00 00 63 10 00 00     c...c.......c...
      3c:	63 10 00 00 63 10 00 00 63 10 00 00 63 10 00 00     c...c...c...c...
      4c:	63 10 00 00 63 10 00 00 63 10 00 00 63 10 00 00     c...c...c...c...
      5c:	63 10 00 00 63 10 00 00 63 10 00 00 63 10 00 00     c...c...c...c...
      6c:	59 04 00 00 15 0e 00 00 c9 0d 00 00 59 0e 00 00     Y...........Y...
      7c:	63 10 00 00 63 10 00 00 63 10 00 00 63 10 00 00     c...c...c...c...
      8c:	63 10 00 00 63 10 00 00 63 10 00 00 63 10 00 00     c...c...c...c...
      9c:	63 10 00 00 63 10 00 00 63 10 00 00 63 10 00 00     c...c...c...c...
      ac:	63 10 00 00 63 10 00 00 63 10 00 00 63 10 00 00     c...c...c...c...
      bc:	63 10 00 00                                         c...

000000c0 <am_devices_button_init>:
//! @return None.
//
//*****************************************************************************
void
am_devices_button_init(am_devices_button_t *psButton)
{
      c0:	b590      	push	{r4, r7, lr}
      c2:	b085      	sub	sp, #20
      c4:	af00      	add	r7, sp, #0
      c6:	6078      	str	r0, [r7, #4]
    // Disable the pin to save power.
    //
#if AM_APOLLO3_GPIO
    am_hal_gpio_pinconfig(psButton->ui32GPIONumber, g_AM_HAL_GPIO_DISABLE);
#else
    am_hal_gpio_pin_config(psButton->ui32GPIONumber, AM_HAL_PIN_DISABLE);
      c8:	687b      	ldr	r3, [r7, #4]
      ca:	681b      	ldr	r3, [r3, #0]
      cc:	2b31      	cmp	r3, #49	; 0x31
      ce:	d866      	bhi.n	19e <am_devices_button_init+0xde>
      d0:	f001 fd60 	bl	1b94 <am_hal_interrupt_master_disable>
      d4:	4603      	mov	r3, r0
      d6:	60fb      	str	r3, [r7, #12]
      d8:	4b37      	ldr	r3, [pc, #220]	; (1b8 <am_devices_button_init+0xf8>)
      da:	2273      	movs	r2, #115	; 0x73
      dc:	601a      	str	r2, [r3, #0]
      de:	687b      	ldr	r3, [r7, #4]
      e0:	681b      	ldr	r3, [r3, #0]
      e2:	085b      	lsrs	r3, r3, #1
      e4:	f003 027c 	and.w	r2, r3, #124	; 0x7c
      e8:	4b34      	ldr	r3, [pc, #208]	; (1bc <am_devices_button_init+0xfc>)
      ea:	4413      	add	r3, r2
      ec:	4618      	mov	r0, r3
      ee:	687b      	ldr	r3, [r7, #4]
      f0:	681b      	ldr	r3, [r3, #0]
      f2:	085b      	lsrs	r3, r3, #1
      f4:	f003 027c 	and.w	r2, r3, #124	; 0x7c
      f8:	4b30      	ldr	r3, [pc, #192]	; (1bc <am_devices_button_init+0xfc>)
      fa:	4413      	add	r3, r2
      fc:	681a      	ldr	r2, [r3, #0]
      fe:	687b      	ldr	r3, [r7, #4]
     100:	681b      	ldr	r3, [r3, #0]
     102:	009b      	lsls	r3, r3, #2
     104:	f003 031c 	and.w	r3, r3, #28
     108:	2107      	movs	r1, #7
     10a:	fa01 f303 	lsl.w	r3, r1, r3
     10e:	43db      	mvns	r3, r3
     110:	4013      	ands	r3, r2
     112:	6003      	str	r3, [r0, #0]
     114:	687b      	ldr	r3, [r7, #4]
     116:	681b      	ldr	r3, [r3, #0]
     118:	f003 03fc 	and.w	r3, r3, #252	; 0xfc
     11c:	f103 4380 	add.w	r3, r3, #1073741824	; 0x40000000
     120:	f503 3380 	add.w	r3, r3, #65536	; 0x10000
     124:	461c      	mov	r4, r3
     126:	687b      	ldr	r3, [r7, #4]
     128:	681b      	ldr	r3, [r3, #0]
     12a:	00db      	lsls	r3, r3, #3
     12c:	f003 0318 	and.w	r3, r3, #24
     130:	2218      	movs	r2, #24
     132:	409a      	lsls	r2, r3
     134:	687b      	ldr	r3, [r7, #4]
     136:	681b      	ldr	r3, [r3, #0]
     138:	f003 03fc 	and.w	r3, r3, #252	; 0xfc
     13c:	f103 4380 	add.w	r3, r3, #1073741824	; 0x40000000
     140:	f503 3380 	add.w	r3, r3, #65536	; 0x10000
     144:	6819      	ldr	r1, [r3, #0]
     146:	687b      	ldr	r3, [r7, #4]
     148:	681b      	ldr	r3, [r3, #0]
     14a:	00db      	lsls	r3, r3, #3
     14c:	f003 0318 	and.w	r3, r3, #24
     150:	20ff      	movs	r0, #255	; 0xff
     152:	fa00 f303 	lsl.w	r3, r0, r3
     156:	43db      	mvns	r3, r3
     158:	400b      	ands	r3, r1
     15a:	4313      	orrs	r3, r2
     15c:	6023      	str	r3, [r4, #0]
     15e:	687b      	ldr	r3, [r7, #4]
     160:	681b      	ldr	r3, [r3, #0]
     162:	f003 02fc 	and.w	r2, r3, #252	; 0xfc
     166:	4b16      	ldr	r3, [pc, #88]	; (1c0 <am_devices_button_init+0x100>)
     168:	4413      	add	r3, r2
     16a:	4618      	mov	r0, r3
     16c:	687b      	ldr	r3, [r7, #4]
     16e:	681b      	ldr	r3, [r3, #0]
     170:	f003 02fc 	and.w	r2, r3, #252	; 0xfc
     174:	4b12      	ldr	r3, [pc, #72]	; (1c0 <am_devices_button_init+0x100>)
     176:	4413      	add	r3, r2
     178:	681a      	ldr	r2, [r3, #0]
     17a:	687b      	ldr	r3, [r7, #4]
     17c:	681b      	ldr	r3, [r3, #0]
     17e:	00db      	lsls	r3, r3, #3
     180:	f003 0318 	and.w	r3, r3, #24
     184:	21ff      	movs	r1, #255	; 0xff
     186:	fa01 f303 	lsl.w	r3, r1, r3
     18a:	43db      	mvns	r3, r3
     18c:	4013      	ands	r3, r2
     18e:	6003      	str	r3, [r0, #0]
     190:	4b09      	ldr	r3, [pc, #36]	; (1b8 <am_devices_button_init+0xf8>)
     192:	2200      	movs	r2, #0
     194:	601a      	str	r2, [r3, #0]
     196:	68fb      	ldr	r3, [r7, #12]
     198:	4618      	mov	r0, r3
     19a:	f001 fcff 	bl	1b9c <am_hal_interrupt_master_set>


    //
    // Initialize the state variables.
    //
    psButton->ui32Count = 0;
     19e:	687b      	ldr	r3, [r7, #4]
     1a0:	2200      	movs	r2, #0
     1a2:	609a      	str	r2, [r3, #8]
    psButton->bPressed = false;
     1a4:	687b      	ldr	r3, [r7, #4]
     1a6:	2200      	movs	r2, #0
     1a8:	731a      	strb	r2, [r3, #12]
    psButton->bChanged = false;
     1aa:	687b      	ldr	r3, [r7, #4]
     1ac:	2200      	movs	r2, #0
     1ae:	735a      	strb	r2, [r3, #13]
}
     1b0:	bf00      	nop
     1b2:	3714      	adds	r7, #20
     1b4:	46bd      	mov	sp, r7
     1b6:	bd90      	pop	{r4, r7, pc}
     1b8:	40010060 	.word	0x40010060
     1bc:	40010040 	.word	0x40010040
     1c0:	400100e0 	.word	0x400100e0

000001c4 <am_devices_button_array_init>:
//
//*****************************************************************************
void
am_devices_button_array_init(am_devices_button_t *psButtons,
                             uint32_t ui32NumButtons)
{
     1c4:	b580      	push	{r7, lr}
     1c6:	b084      	sub	sp, #16
     1c8:	af00      	add	r7, sp, #0
     1ca:	6078      	str	r0, [r7, #4]
     1cc:	6039      	str	r1, [r7, #0]
    uint32_t i;

    //
    // Loop through the list of buttons, configuring each one individually.
    //
    for ( i = 0; i < ui32NumButtons; i++ )
     1ce:	2300      	movs	r3, #0
     1d0:	60fb      	str	r3, [r7, #12]
     1d2:	e009      	b.n	1e8 <am_devices_button_array_init+0x24>
    {
        am_devices_button_init(psButtons + i);
     1d4:	68fb      	ldr	r3, [r7, #12]
     1d6:	011b      	lsls	r3, r3, #4
     1d8:	687a      	ldr	r2, [r7, #4]
     1da:	4413      	add	r3, r2
     1dc:	4618      	mov	r0, r3
     1de:	f7ff ff6f 	bl	c0 <am_devices_button_init>
    for ( i = 0; i < ui32NumButtons; i++ )
     1e2:	68fb      	ldr	r3, [r7, #12]
     1e4:	3301      	adds	r3, #1
     1e6:	60fb      	str	r3, [r7, #12]
     1e8:	68fa      	ldr	r2, [r7, #12]
     1ea:	683b      	ldr	r3, [r7, #0]
     1ec:	429a      	cmp	r2, r3
     1ee:	d3f1      	bcc.n	1d4 <am_devices_button_array_init+0x10>
    }
}
     1f0:	bf00      	nop
     1f2:	3710      	adds	r7, #16
     1f4:	46bd      	mov	sp, r7
     1f6:	bd80      	pop	{r7, pc}

000001f8 <am_devices_button_tick>:
//! @return None.
//
//*****************************************************************************
void
am_devices_button_tick(am_devices_button_t *psButton)
{
     1f8:	b590      	push	{r4, r7, lr}
     1fa:	b087      	sub	sp, #28
     1fc:	af00      	add	r7, sp, #0
     1fe:	6078      	str	r0, [r7, #4]
    // Enable the button pin.
    //
#if AM_APOLLO3_GPIO
    am_hal_gpio_pinconfig(psButton->ui32GPIONumber, g_AM_HAL_GPIO_INPUT);
#else
    am_hal_gpio_pin_config(psButton->ui32GPIONumber, AM_HAL_PIN_INPUT);
     200:	687b      	ldr	r3, [r7, #4]
     202:	681b      	ldr	r3, [r3, #0]
     204:	2b31      	cmp	r3, #49	; 0x31
     206:	d866      	bhi.n	2d6 <am_devices_button_tick+0xde>
     208:	f001 fcc4 	bl	1b94 <am_hal_interrupt_master_disable>
     20c:	4603      	mov	r3, r0
     20e:	60fb      	str	r3, [r7, #12]
     210:	4b87      	ldr	r3, [pc, #540]	; (430 <am_devices_button_tick+0x238>)
     212:	2273      	movs	r2, #115	; 0x73
     214:	601a      	str	r2, [r3, #0]
     216:	687b      	ldr	r3, [r7, #4]
     218:	681b      	ldr	r3, [r3, #0]
     21a:	085b      	lsrs	r3, r3, #1
     21c:	f003 027c 	and.w	r2, r3, #124	; 0x7c
     220:	4b84      	ldr	r3, [pc, #528]	; (434 <am_devices_button_tick+0x23c>)
     222:	4413      	add	r3, r2
     224:	4618      	mov	r0, r3
     226:	687b      	ldr	r3, [r7, #4]
     228:	681b      	ldr	r3, [r3, #0]
     22a:	085b      	lsrs	r3, r3, #1
     22c:	f003 027c 	and.w	r2, r3, #124	; 0x7c
     230:	4b80      	ldr	r3, [pc, #512]	; (434 <am_devices_button_tick+0x23c>)
     232:	4413      	add	r3, r2
     234:	681a      	ldr	r2, [r3, #0]
     236:	687b      	ldr	r3, [r7, #4]
     238:	681b      	ldr	r3, [r3, #0]
     23a:	009b      	lsls	r3, r3, #2
     23c:	f003 031c 	and.w	r3, r3, #28
     240:	2107      	movs	r1, #7
     242:	fa01 f303 	lsl.w	r3, r1, r3
     246:	43db      	mvns	r3, r3
     248:	4013      	ands	r3, r2
     24a:	6003      	str	r3, [r0, #0]
     24c:	687b      	ldr	r3, [r7, #4]
     24e:	681b      	ldr	r3, [r3, #0]
     250:	f003 03fc 	and.w	r3, r3, #252	; 0xfc
     254:	f103 4380 	add.w	r3, r3, #1073741824	; 0x40000000
     258:	f503 3380 	add.w	r3, r3, #65536	; 0x10000
     25c:	461c      	mov	r4, r3
     25e:	687b      	ldr	r3, [r7, #4]
     260:	681b      	ldr	r3, [r3, #0]
     262:	00db      	lsls	r3, r3, #3
     264:	f003 0318 	and.w	r3, r3, #24
     268:	221a      	movs	r2, #26
     26a:	409a      	lsls	r2, r3
     26c:	687b      	ldr	r3, [r7, #4]
     26e:	681b      	ldr	r3, [r3, #0]
     270:	f003 03fc 	and.w	r3, r3, #252	; 0xfc
     274:	f103 4380 	add.w	r3, r3, #1073741824	; 0x40000000
     278:	f503 3380 	add.w	r3, r3, #65536	; 0x10000
     27c:	6819      	ldr	r1, [r3, #0]
     27e:	687b      	ldr	r3, [r7, #4]
     280:	681b      	ldr	r3, [r3, #0]
     282:	00db      	lsls	r3, r3, #3
     284:	f003 0318 	and.w	r3, r3, #24
     288:	20ff      	movs	r0, #255	; 0xff
     28a:	fa00 f303 	lsl.w	r3, r0, r3
     28e:	43db      	mvns	r3, r3
     290:	400b      	ands	r3, r1
     292:	4313      	orrs	r3, r2
     294:	6023      	str	r3, [r4, #0]
     296:	687b      	ldr	r3, [r7, #4]
     298:	681b      	ldr	r3, [r3, #0]
     29a:	f003 02fc 	and.w	r2, r3, #252	; 0xfc
     29e:	4b66      	ldr	r3, [pc, #408]	; (438 <am_devices_button_tick+0x240>)
     2a0:	4413      	add	r3, r2
     2a2:	4618      	mov	r0, r3
     2a4:	687b      	ldr	r3, [r7, #4]
     2a6:	681b      	ldr	r3, [r3, #0]
     2a8:	f003 02fc 	and.w	r2, r3, #252	; 0xfc
     2ac:	4b62      	ldr	r3, [pc, #392]	; (438 <am_devices_button_tick+0x240>)
     2ae:	4413      	add	r3, r2
     2b0:	681a      	ldr	r2, [r3, #0]
     2b2:	687b      	ldr	r3, [r7, #4]
     2b4:	681b      	ldr	r3, [r3, #0]
     2b6:	00db      	lsls	r3, r3, #3
     2b8:	f003 0318 	and.w	r3, r3, #24
     2bc:	21ff      	movs	r1, #255	; 0xff
     2be:	fa01 f303 	lsl.w	r3, r1, r3
     2c2:	43db      	mvns	r3, r3
     2c4:	4013      	ands	r3, r2
     2c6:	6003      	str	r3, [r0, #0]
     2c8:	4b59      	ldr	r3, [pc, #356]	; (430 <am_devices_button_tick+0x238>)
     2ca:	2200      	movs	r2, #0
     2cc:	601a      	str	r2, [r3, #0]
     2ce:	68fb      	ldr	r3, [r7, #12]
     2d0:	4618      	mov	r0, r3
     2d2:	f001 fc63 	bl	1b9c <am_hal_interrupt_master_set>
    // its "state" counter to zero.
    //
#if AM_APOLLO3_GPIO
    am_hal_gpio_state_read(psButton->ui32GPIONumber, AM_HAL_GPIO_INPUT_READ, &ui32PinState);
#else
    ui32PinState = am_hal_gpio_input_bit_read(psButton->ui32GPIONumber);
     2d6:	687b      	ldr	r3, [r7, #4]
     2d8:	681b      	ldr	r3, [r3, #0]
     2da:	08db      	lsrs	r3, r3, #3
     2dc:	f003 0204 	and.w	r2, r3, #4
     2e0:	4b56      	ldr	r3, [pc, #344]	; (43c <am_devices_button_tick+0x244>)
     2e2:	4413      	add	r3, r2
     2e4:	681a      	ldr	r2, [r3, #0]
     2e6:	687b      	ldr	r3, [r7, #4]
     2e8:	681b      	ldr	r3, [r3, #0]
     2ea:	f003 031f 	and.w	r3, r3, #31
     2ee:	fa22 f303 	lsr.w	r3, r2, r3
     2f2:	f003 0301 	and.w	r3, r3, #1
     2f6:	2b00      	cmp	r3, #0
     2f8:	bf14      	ite	ne
     2fa:	2301      	movne	r3, #1
     2fc:	2300      	moveq	r3, #0
     2fe:	b2db      	uxtb	r3, r3
     300:	617b      	str	r3, [r7, #20]
#endif

    //
    // Check to see if the button is "pressed" according to our GPIO reading.
    //
    bRawButtonPressed = (ui32PinState != psButton->ui32Polarity);
     302:	687b      	ldr	r3, [r7, #4]
     304:	685a      	ldr	r2, [r3, #4]
     306:	697b      	ldr	r3, [r7, #20]
     308:	429a      	cmp	r2, r3
     30a:	bf14      	ite	ne
     30c:	2301      	movne	r3, #1
     30e:	2300      	moveq	r3, #0
     310:	74fb      	strb	r3, [r7, #19]

    //
    // Is this button state different from the last saved state?
    //
    if ( bRawButtonPressed != psButton->bPressed )
     312:	687b      	ldr	r3, [r7, #4]
     314:	7b1b      	ldrb	r3, [r3, #12]
     316:	7cfa      	ldrb	r2, [r7, #19]
     318:	429a      	cmp	r2, r3
     31a:	d005      	beq.n	328 <am_devices_button_tick+0x130>
    {
        //
        // If so, increase the debounce count.
        //
        psButton->ui32Count++;
     31c:	687b      	ldr	r3, [r7, #4]
     31e:	689b      	ldr	r3, [r3, #8]
     320:	1c5a      	adds	r2, r3, #1
     322:	687b      	ldr	r3, [r7, #4]
     324:	609a      	str	r2, [r3, #8]
     326:	e002      	b.n	32e <am_devices_button_tick+0x136>
    else
    {
        //
        // Otherwise, set the count back to zero.
        //
        psButton->ui32Count = 0;
     328:	687b      	ldr	r3, [r7, #4]
     32a:	2200      	movs	r2, #0
     32c:	609a      	str	r2, [r3, #8]

    //
    // If we hit the button debounce delay, record a button press to the
    // structure, and reset the count.
    //
    if ( psButton->ui32Count >= AM_DEVICES_BUTTON_DEBOUNCE_DELAY )
     32e:	687b      	ldr	r3, [r7, #4]
     330:	689b      	ldr	r3, [r3, #8]
     332:	2b03      	cmp	r3, #3
     334:	d909      	bls.n	34a <am_devices_button_tick+0x152>
    {
        psButton->bPressed = bRawButtonPressed;
     336:	687b      	ldr	r3, [r7, #4]
     338:	7cfa      	ldrb	r2, [r7, #19]
     33a:	731a      	strb	r2, [r3, #12]
        psButton->bChanged = true;
     33c:	687b      	ldr	r3, [r7, #4]
     33e:	2201      	movs	r2, #1
     340:	735a      	strb	r2, [r3, #13]
        psButton->ui32Count = 0;
     342:	687b      	ldr	r3, [r7, #4]
     344:	2200      	movs	r2, #0
     346:	609a      	str	r2, [r3, #8]
     348:	e002      	b.n	350 <am_devices_button_tick+0x158>
    {
        //
        // If we didn't just record a press/release event, update the structure
        // to say that the current state isn't new.
        //
        psButton->bChanged = false;
     34a:	687b      	ldr	r3, [r7, #4]
     34c:	2200      	movs	r2, #0
     34e:	735a      	strb	r2, [r3, #13]
    // Disable the button pin to save power.
    //
#if AM_APOLLO3_GPIO
    am_hal_gpio_pinconfig(psButton->ui32GPIONumber, g_AM_HAL_GPIO_DISABLE);
#else
    am_hal_gpio_pin_config(psButton->ui32GPIONumber, AM_HAL_PIN_DISABLE);
     350:	687b      	ldr	r3, [r7, #4]
     352:	681b      	ldr	r3, [r3, #0]
     354:	2b31      	cmp	r3, #49	; 0x31
     356:	d866      	bhi.n	426 <am_devices_button_tick+0x22e>
     358:	f001 fc1c 	bl	1b94 <am_hal_interrupt_master_disable>
     35c:	4603      	mov	r3, r0
     35e:	60bb      	str	r3, [r7, #8]
     360:	4b33      	ldr	r3, [pc, #204]	; (430 <am_devices_button_tick+0x238>)
     362:	2273      	movs	r2, #115	; 0x73
     364:	601a      	str	r2, [r3, #0]
     366:	687b      	ldr	r3, [r7, #4]
     368:	681b      	ldr	r3, [r3, #0]
     36a:	085b      	lsrs	r3, r3, #1
     36c:	f003 027c 	and.w	r2, r3, #124	; 0x7c
     370:	4b30      	ldr	r3, [pc, #192]	; (434 <am_devices_button_tick+0x23c>)
     372:	4413      	add	r3, r2
     374:	4618      	mov	r0, r3
     376:	687b      	ldr	r3, [r7, #4]
     378:	681b      	ldr	r3, [r3, #0]
     37a:	085b      	lsrs	r3, r3, #1
     37c:	f003 027c 	and.w	r2, r3, #124	; 0x7c
     380:	4b2c      	ldr	r3, [pc, #176]	; (434 <am_devices_button_tick+0x23c>)
     382:	4413      	add	r3, r2
     384:	681a      	ldr	r2, [r3, #0]
     386:	687b      	ldr	r3, [r7, #4]
     388:	681b      	ldr	r3, [r3, #0]
     38a:	009b      	lsls	r3, r3, #2
     38c:	f003 031c 	and.w	r3, r3, #28
     390:	2107      	movs	r1, #7
     392:	fa01 f303 	lsl.w	r3, r1, r3
     396:	43db      	mvns	r3, r3
     398:	4013      	ands	r3, r2
     39a:	6003      	str	r3, [r0, #0]
     39c:	687b      	ldr	r3, [r7, #4]
     39e:	681b      	ldr	r3, [r3, #0]
     3a0:	f003 03fc 	and.w	r3, r3, #252	; 0xfc
     3a4:	f103 4380 	add.w	r3, r3, #1073741824	; 0x40000000
     3a8:	f503 3380 	add.w	r3, r3, #65536	; 0x10000
     3ac:	461c      	mov	r4, r3
     3ae:	687b      	ldr	r3, [r7, #4]
     3b0:	681b      	ldr	r3, [r3, #0]
     3b2:	00db      	lsls	r3, r3, #3
     3b4:	f003 0318 	and.w	r3, r3, #24
     3b8:	2218      	movs	r2, #24
     3ba:	409a      	lsls	r2, r3
     3bc:	687b      	ldr	r3, [r7, #4]
     3be:	681b      	ldr	r3, [r3, #0]
     3c0:	f003 03fc 	and.w	r3, r3, #252	; 0xfc
     3c4:	f103 4380 	add.w	r3, r3, #1073741824	; 0x40000000
     3c8:	f503 3380 	add.w	r3, r3, #65536	; 0x10000
     3cc:	6819      	ldr	r1, [r3, #0]
     3ce:	687b      	ldr	r3, [r7, #4]
     3d0:	681b      	ldr	r3, [r3, #0]
     3d2:	00db      	lsls	r3, r3, #3
     3d4:	f003 0318 	and.w	r3, r3, #24
     3d8:	20ff      	movs	r0, #255	; 0xff
     3da:	fa00 f303 	lsl.w	r3, r0, r3
     3de:	43db      	mvns	r3, r3
     3e0:	400b      	ands	r3, r1
     3e2:	4313      	orrs	r3, r2
     3e4:	6023      	str	r3, [r4, #0]
     3e6:	687b      	ldr	r3, [r7, #4]
     3e8:	681b      	ldr	r3, [r3, #0]
     3ea:	f003 02fc 	and.w	r2, r3, #252	; 0xfc
     3ee:	4b12      	ldr	r3, [pc, #72]	; (438 <am_devices_button_tick+0x240>)
     3f0:	4413      	add	r3, r2
     3f2:	4618      	mov	r0, r3
     3f4:	687b      	ldr	r3, [r7, #4]
     3f6:	681b      	ldr	r3, [r3, #0]
     3f8:	f003 02fc 	and.w	r2, r3, #252	; 0xfc
     3fc:	4b0e      	ldr	r3, [pc, #56]	; (438 <am_devices_button_tick+0x240>)
     3fe:	4413      	add	r3, r2
     400:	681a      	ldr	r2, [r3, #0]
     402:	687b      	ldr	r3, [r7, #4]
     404:	681b      	ldr	r3, [r3, #0]
     406:	00db      	lsls	r3, r3, #3
     408:	f003 0318 	and.w	r3, r3, #24
     40c:	21ff      	movs	r1, #255	; 0xff
     40e:	fa01 f303 	lsl.w	r3, r1, r3
     412:	43db      	mvns	r3, r3
     414:	4013      	ands	r3, r2
     416:	6003      	str	r3, [r0, #0]
     418:	4b05      	ldr	r3, [pc, #20]	; (430 <am_devices_button_tick+0x238>)
     41a:	2200      	movs	r2, #0
     41c:	601a      	str	r2, [r3, #0]
     41e:	68bb      	ldr	r3, [r7, #8]
     420:	4618      	mov	r0, r3
     422:	f001 fbbb 	bl	1b9c <am_hal_interrupt_master_set>
#endif // AM_APOLLO3_GPIO
}
     426:	bf00      	nop
     428:	371c      	adds	r7, #28
     42a:	46bd      	mov	sp, r7
     42c:	bd90      	pop	{r4, r7, pc}
     42e:	bf00      	nop
     430:	40010060 	.word	0x40010060
     434:	40010040 	.word	0x40010040
     438:	400100e0 	.word	0x400100e0
     43c:	40010080 	.word	0x40010080

00000440 <iom_write_complete>:
// IOM write complete callback
//
//*****************************************************************************
static void
iom_write_complete(void)
{
     440:	b480      	push	{r7}
     442:	af00      	add	r7, sp, #0
    gIomDone = true;
     444:	4b03      	ldr	r3, [pc, #12]	; (454 <iom_write_complete+0x14>)
     446:	2201      	movs	r2, #1
     448:	701a      	strb	r2, [r3, #0]
}
     44a:	bf00      	nop
     44c:	46bd      	mov	sp, r7
     44e:	f85d 7b04 	ldr.w	r7, [sp], #4
     452:	4770      	bx	lr
     454:	1000084d 	.word	0x1000084d

00000458 <am_iomaster5_isr>:
//
//*****************************************************************************
#if (5 == AM_BSP_EM9304_IOM)
void
am_iomaster5_isr(void)
{
     458:	b580      	push	{r7, lr}
     45a:	b082      	sub	sp, #8
     45c:	af00      	add	r7, sp, #0
    uint32_t ui32IntStatus;

    //
    // Read and clear the interrupt status.
    //
    ui32IntStatus = am_hal_iom_int_status_get(5, false);
     45e:	2100      	movs	r1, #0
     460:	2005      	movs	r0, #5
     462:	f003 fced 	bl	3e40 <am_hal_iom_int_status_get>
     466:	6078      	str	r0, [r7, #4]
    am_hal_iom_int_clear(5, ui32IntStatus);
     468:	6879      	ldr	r1, [r7, #4]
     46a:	2005      	movs	r0, #5
     46c:	f003 fcde 	bl	3e2c <am_hal_iom_int_clear>

    //
    // Service FIFO interrupts as necessary, and call IOM callbacks as
    // transfers are completed.
    //
    am_hal_iom_int_service(5, ui32IntStatus);
     470:	6879      	ldr	r1, [r7, #4]
     472:	2005      	movs	r0, #5
     474:	f003 fcc8 	bl	3e08 <am_hal_iom_int_service>
}
     478:	bf00      	nop
     47a:	3708      	adds	r7, #8
     47c:	46bd      	mov	sp, r7
     47e:	bd80      	pop	{r7, pc}

00000480 <isRevB2>:
// Checks to see if this processor is a Rev B2 device.
//
//*****************************************************************************
static bool
isRevB2(void)
{
     480:	b480      	push	{r7}
     482:	af00      	add	r7, sp, #0
    //
    // Check to make sure the major rev is B and the minor rev is zero.
    //
    if ( (AM_REG(MCUCTRL, CHIPREV) & 0xFF) ==
     484:	4b06      	ldr	r3, [pc, #24]	; (4a0 <isRevB2+0x20>)
     486:	681b      	ldr	r3, [r3, #0]
     488:	b2db      	uxtb	r3, r3
     48a:	2b22      	cmp	r3, #34	; 0x22
     48c:	d101      	bne.n	492 <isRevB2+0x12>
         (AM_REG_MCUCTRL_CHIPREV_REVMAJ_B | AM_REG_MCUCTRL_CHIPREV_REVMIN_REV2) )
    {
        return true;
     48e:	2301      	movs	r3, #1
     490:	e000      	b.n	494 <isRevB2+0x14>
    }
    else
    {
        return false;
     492:	2300      	movs	r3, #0
    }
}
     494:	4618      	mov	r0, r3
     496:	46bd      	mov	sp, r7
     498:	f85d 7b04 	ldr.w	r7, [sp], #4
     49c:	4770      	bx	lr
     49e:	bf00      	nop
     4a0:	4002000c 	.word	0x4002000c

000004a4 <am_devices_em9304_tx_starts>:
//! @return Number of bytes that can be written to EM9304.
//
//*****************************************************************************
uint8_t
am_devices_em9304_tx_starts(const am_devices_em9304_t *psDevice)
{
     4a4:	b590      	push	{r4, r7, lr}
     4a6:	b087      	sub	sp, #28
     4a8:	af02      	add	r7, sp, #8
     4aa:	6078      	str	r0, [r7, #4]
  // Indicates that a SPI transfer is in progress
  spiTxInProgress = 1;
     4ac:	4b29      	ldr	r3, [pc, #164]	; (554 <am_devices_em9304_tx_starts+0xb0>)
     4ae:	2201      	movs	r2, #1
     4b0:	701a      	strb	r2, [r3, #0]

  am_hal_iom_buffer(2) sCommand;
  am_hal_iom_buffer(2) sStas;
  sCommand.bytes[0] = EM9304_SPI_HEADER_TX;
     4b2:	2342      	movs	r3, #66	; 0x42
     4b4:	733b      	strb	r3, [r7, #12]
  sCommand.bytes[1] = 0x0;
     4b6:	2300      	movs	r3, #0
     4b8:	737b      	strb	r3, [r7, #13]

  // Select the EM9304
  EM9304_SPISLAVESELECT();
     4ba:	4b27      	ldr	r3, [pc, #156]	; (558 <am_devices_em9304_tx_starts+0xb4>)
     4bc:	f44f 5200 	mov.w	r2, #8192	; 0x2000
     4c0:	601a      	str	r2, [r3, #0]

  // Wait EM9304 RDY signal
  while ( !EM9304_RDY_INT() );
     4c2:	bf00      	nop
     4c4:	f001 fadc 	bl	1a80 <am_hal_gpio_input_read>
     4c8:	460a      	mov	r2, r1
     4ca:	4601      	mov	r1, r0
     4cc:	f04f 6380 	mov.w	r3, #67108864	; 0x4000000
     4d0:	f04f 0400 	mov.w	r4, #0
     4d4:	ea03 0301 	and.w	r3, r3, r1
     4d8:	ea04 0402 	and.w	r4, r4, r2
     4dc:	4323      	orrs	r3, r4
     4de:	d0f1      	beq.n	4c4 <am_devices_em9304_tx_starts+0x20>

#if defined(AM_PART_APOLLO2)
  //
  // Full-Duplex operation is only supported for Apollo2 B2 Silicon.
  //
  if (isRevB2())
     4e0:	f7ff ffce 	bl	480 <isRevB2>
     4e4:	4603      	mov	r3, r0
     4e6:	2b00      	cmp	r3, #0
     4e8:	d019      	beq.n	51e <am_devices_em9304_tx_starts+0x7a>
  {
    //
    // Write to the IOM.
    //
    am_hal_iom_spi_fullduplex(psDevice->ui32IOMModule,
     4ea:	687b      	ldr	r3, [r7, #4]
     4ec:	6858      	ldr	r0, [r3, #4]
     4ee:	f107 0108 	add.w	r1, r7, #8
     4f2:	f107 020c 	add.w	r2, r7, #12
     4f6:	f04f 4380 	mov.w	r3, #1073741824	; 0x40000000
     4fa:	9301      	str	r3, [sp, #4]
     4fc:	2302      	movs	r3, #2
     4fe:	9300      	str	r3, [sp, #0]
     500:	460b      	mov	r3, r1
     502:	2100      	movs	r1, #0
     504:	f003 fc02 	bl	3d0c <am_hal_iom_spi_fullduplex>
                              AM_HAL_IOM_RAW);

    //
    // Check that the EM9304 is ready.
    //
    if (sStas.bytes[0] != EM9304_STS1_READY_VALUE)
     508:	7a3b      	ldrb	r3, [r7, #8]
     50a:	2bc0      	cmp	r3, #192	; 0xc0
     50c:	d005      	beq.n	51a <am_devices_em9304_tx_starts+0x76>
    {
      // Error
      EM9304_SPISLAVEDESELECT();
     50e:	4b13      	ldr	r3, [pc, #76]	; (55c <am_devices_em9304_tx_starts+0xb8>)
     510:	f44f 5200 	mov.w	r2, #8192	; 0x2000
     514:	601a      	str	r2, [r3, #0]
      am_util_debug_printf("HCI TX Failed to starts\n");
      am_util_debug_printf("%d, %d\n", sStas.bytes[0], sStas.bytes[1]);
      return 0;
     516:	2300      	movs	r3, #0
     518:	e018      	b.n	54c <am_devices_em9304_tx_starts+0xa8>
    }

    return sStas.bytes[1];
     51a:	7a7b      	ldrb	r3, [r7, #9]
     51c:	e016      	b.n	54c <am_devices_em9304_tx_starts+0xa8>
#endif
  {
    //
    // Write to the IOM.
    //
    am_hal_iom_spi_write(psDevice->ui32IOMModule,
     51e:	687b      	ldr	r3, [r7, #4]
     520:	6858      	ldr	r0, [r3, #4]
     522:	f107 020c 	add.w	r2, r7, #12
     526:	f04f 4380 	mov.w	r3, #1073741824	; 0x40000000
     52a:	9300      	str	r3, [sp, #0]
     52c:	2301      	movs	r3, #1
     52e:	2100      	movs	r1, #0
     530:	f002 fe9e 	bl	3270 <am_hal_iom_spi_write>
                         AM_HAL_IOM_RAW);

    //
    // Read from the IOM.
    //
    am_hal_iom_spi_read(psDevice->ui32IOMModule,
     534:	687b      	ldr	r3, [r7, #4]
     536:	6858      	ldr	r0, [r3, #4]
     538:	f107 0208 	add.w	r2, r7, #8
     53c:	f04f 4380 	mov.w	r3, #1073741824	; 0x40000000
     540:	9300      	str	r3, [sp, #0]
     542:	2301      	movs	r3, #1
     544:	2100      	movs	r1, #0
     546:	f003 f8e5 	bl	3714 <am_hal_iom_spi_read>
                        0, sStas.words, 1,
                        AM_HAL_IOM_RAW);

    return sStas.bytes[0];
     54a:	7a3b      	ldrb	r3, [r7, #8]
  }
}
     54c:	4618      	mov	r0, r3
     54e:	3714      	adds	r7, #20
     550:	46bd      	mov	sp, r7
     552:	bd90      	pop	{r4, r7, pc}
     554:	1000084c 	.word	0x1000084c
     558:	4001009c 	.word	0x4001009c
     55c:	40010094 	.word	0x40010094

00000560 <am_devices_em9304_tx_ends>:
//! @return None.
//
//*****************************************************************************
void
am_devices_em9304_tx_ends(void)
{
     560:	b580      	push	{r7, lr}
     562:	af00      	add	r7, sp, #0
    am_hal_iom_poll_complete(g_sEm9304.ui32IOMModule);
     564:	2305      	movs	r3, #5
     566:	4618      	mov	r0, r3
     568:	f003 fc44 	bl	3df4 <am_hal_iom_poll_complete>
    // Deselect the EM9304
    EM9304_SPISLAVEDESELECT();
     56c:	4b04      	ldr	r3, [pc, #16]	; (580 <am_devices_em9304_tx_ends+0x20>)
     56e:	f44f 5200 	mov.w	r2, #8192	; 0x2000
     572:	601a      	str	r2, [r3, #0]

    // Indicates that the SPI transfer is finished
    spiTxInProgress = 0;
     574:	4b03      	ldr	r3, [pc, #12]	; (584 <am_devices_em9304_tx_ends+0x24>)
     576:	2200      	movs	r2, #0
     578:	701a      	strb	r2, [r3, #0]
}
     57a:	bf00      	nop
     57c:	bd80      	pop	{r7, pc}
     57e:	bf00      	nop
     580:	40010094 	.word	0x40010094
     584:	1000084c 	.word	0x1000084c

00000588 <am_devices_em9304_block_write>:
void
am_devices_em9304_block_write(const am_devices_em9304_t *psDevice,
                              uint8_t type,
                              uint8_t *pui8Values,
                              uint32_t ui32NumBytes)
{
     588:	b590      	push	{r4, r7, lr}
     58a:	b0cb      	sub	sp, #300	; 0x12c
     58c:	af02      	add	r7, sp, #8
     58e:	f107 040c 	add.w	r4, r7, #12
     592:	6020      	str	r0, [r4, #0]
     594:	4608      	mov	r0, r1
     596:	1d39      	adds	r1, r7, #4
     598:	600a      	str	r2, [r1, #0]
     59a:	463a      	mov	r2, r7
     59c:	6013      	str	r3, [r2, #0]
     59e:	f107 030b 	add.w	r3, r7, #11
     5a2:	4602      	mov	r2, r0
     5a4:	701a      	strb	r2, [r3, #0]
  am_hal_iom_buffer(EM9304_BUFFER_SIZE) sData;
  uint8_t em9304BufSize = 0;
     5a6:	2300      	movs	r3, #0
     5a8:	f887 311f 	strb.w	r3, [r7, #287]	; 0x11f
  uint8_t hci_type_sent = 0;
     5ac:	2300      	movs	r3, #0
     5ae:	f887 311e 	strb.w	r3, [r7, #286]	; 0x11e

  // Check that we are not going to overwrite buffer.
  if ((ui32NumBytes + 1) > EM9304_BUFFER_SIZE)
     5b2:	463b      	mov	r3, r7
     5b4:	681b      	ldr	r3, [r3, #0]
     5b6:	3301      	adds	r3, #1
     5b8:	f5b3 7f80 	cmp.w	r3, #256	; 0x100
     5bc:	f200 809a 	bhi.w	6f4 <am_devices_em9304_block_write+0x16c>
  {
    am_util_debug_printf("HCI TX Error (STATUS ERROR) Packet Too Large\n");
    return;
  }

  for ( uint32_t i = 0; i < ui32NumBytes; )
     5c0:	2300      	movs	r3, #0
     5c2:	f8c7 3118 	str.w	r3, [r7, #280]	; 0x118
     5c6:	e08d      	b.n	6e4 <am_devices_em9304_block_write+0x15c>
  {
    if ( i < ui32NumBytes )
     5c8:	463b      	mov	r3, r7
     5ca:	f8d7 2118 	ldr.w	r2, [r7, #280]	; 0x118
     5ce:	681b      	ldr	r3, [r3, #0]
     5d0:	429a      	cmp	r2, r3
     5d2:	d207      	bcs.n	5e4 <am_devices_em9304_block_write+0x5c>
    {
      em9304BufSize = am_devices_em9304_tx_starts(psDevice);
     5d4:	f107 030c 	add.w	r3, r7, #12
     5d8:	6818      	ldr	r0, [r3, #0]
     5da:	f7ff ff63 	bl	4a4 <am_devices_em9304_tx_starts>
     5de:	4603      	mov	r3, r0
     5e0:	f887 311f 	strb.w	r3, [r7, #287]	; 0x11f
    }

    uint32_t len = (em9304BufSize < (ui32NumBytes - i)) ? em9304BufSize : (ui32NumBytes - i);
     5e4:	463b      	mov	r3, r7
     5e6:	681a      	ldr	r2, [r3, #0]
     5e8:	f8d7 3118 	ldr.w	r3, [r7, #280]	; 0x118
     5ec:	1ad2      	subs	r2, r2, r3
     5ee:	f897 311f 	ldrb.w	r3, [r7, #287]	; 0x11f
     5f2:	4293      	cmp	r3, r2
     5f4:	bf28      	it	cs
     5f6:	4613      	movcs	r3, r2
     5f8:	f8c7 3114 	str.w	r3, [r7, #276]	; 0x114

    if (len > 0)  // check again if there is room to send more data
     5fc:	f8d7 3114 	ldr.w	r3, [r7, #276]	; 0x114
     600:	2b00      	cmp	r3, #0
     602:	d06d      	beq.n	6e0 <am_devices_em9304_block_write+0x158>
    {
      if (hci_type_sent == 0)
     604:	f897 311e 	ldrb.w	r3, [r7, #286]	; 0x11e
     608:	2b00      	cmp	r3, #0
     60a:	d11c      	bne.n	646 <am_devices_em9304_block_write+0xbe>
      {
        sData.bytes[0] = type;
     60c:	f107 0310 	add.w	r3, r7, #16
     610:	f107 020b 	add.w	r2, r7, #11
     614:	7812      	ldrb	r2, [r2, #0]
     616:	701a      	strb	r2, [r3, #0]
        memcpy(&(sData.bytes[1]), pui8Values, len - 1);
     618:	f8d7 3114 	ldr.w	r3, [r7, #276]	; 0x114
     61c:	1e59      	subs	r1, r3, #1
     61e:	1d3b      	adds	r3, r7, #4
     620:	f107 0210 	add.w	r2, r7, #16
     624:	1c50      	adds	r0, r2, #1
     626:	460a      	mov	r2, r1
     628:	6819      	ldr	r1, [r3, #0]
     62a:	f004 fa6d 	bl	4b08 <memcpy>
        i += len -1;
     62e:	f8d7 2114 	ldr.w	r2, [r7, #276]	; 0x114
     632:	f8d7 3118 	ldr.w	r3, [r7, #280]	; 0x118
     636:	4413      	add	r3, r2
     638:	3b01      	subs	r3, #1
     63a:	f8c7 3118 	str.w	r3, [r7, #280]	; 0x118
        hci_type_sent = 1;
     63e:	2301      	movs	r3, #1
     640:	f887 311e 	strb.w	r3, [r7, #286]	; 0x11e
     644:	e012      	b.n	66c <am_devices_em9304_block_write+0xe4>
      }
      else
      {
        memcpy(&(sData.bytes[0]), pui8Values + i, len);
     646:	1d3b      	adds	r3, r7, #4
     648:	681a      	ldr	r2, [r3, #0]
     64a:	f8d7 3118 	ldr.w	r3, [r7, #280]	; 0x118
     64e:	18d1      	adds	r1, r2, r3
     650:	f107 0310 	add.w	r3, r7, #16
     654:	f8d7 2114 	ldr.w	r2, [r7, #276]	; 0x114
     658:	4618      	mov	r0, r3
     65a:	f004 fa55 	bl	4b08 <memcpy>
        i += len;
     65e:	f8d7 2118 	ldr.w	r2, [r7, #280]	; 0x118
     662:	f8d7 3114 	ldr.w	r3, [r7, #276]	; 0x114
     666:	4413      	add	r3, r2
     668:	f8c7 3118 	str.w	r3, [r7, #280]	; 0x118
      }

      while ( !EM9304_RDY_INT() );
     66c:	bf00      	nop
     66e:	f001 fa07 	bl	1a80 <am_hal_gpio_input_read>
     672:	460a      	mov	r2, r1
     674:	4601      	mov	r1, r0
     676:	f04f 6380 	mov.w	r3, #67108864	; 0x4000000
     67a:	f04f 0400 	mov.w	r4, #0
     67e:	ea03 0301 	and.w	r3, r3, r1
     682:	ea04 0402 	and.w	r4, r4, r2
     686:	4323      	orrs	r3, r4
     688:	d0f1      	beq.n	66e <am_devices_em9304_block_write+0xe6>

#if defined(USE_IOM_NONBLOCKING)
      gIomDone = false;
     68a:	4b1d      	ldr	r3, [pc, #116]	; (700 <am_devices_em9304_block_write+0x178>)
     68c:	2200      	movs	r2, #0
     68e:	701a      	strb	r2, [r3, #0]
      am_hal_iom_spi_write_nb(psDevice->ui32IOMModule,
     690:	f107 030c 	add.w	r3, r7, #12
     694:	681b      	ldr	r3, [r3, #0]
     696:	6858      	ldr	r0, [r3, #4]
     698:	f107 0210 	add.w	r2, r7, #16
     69c:	4b19      	ldr	r3, [pc, #100]	; (704 <am_devices_em9304_block_write+0x17c>)
     69e:	9301      	str	r3, [sp, #4]
     6a0:	f04f 4380 	mov.w	r3, #1073741824	; 0x40000000
     6a4:	9300      	str	r3, [sp, #0]
     6a6:	f8d7 3114 	ldr.w	r3, [r7, #276]	; 0x114
     6aa:	2100      	movs	r1, #0
     6ac:	f003 fb56 	bl	3d5c <am_hal_iom_spi_write_nb>
      while(1)
      {
        //
        // Disable interrupt while we decide whether we're going to sleep.
        //
        uint32_t ui32IntStatus = am_hal_interrupt_master_disable();
     6b0:	f001 fa70 	bl	1b94 <am_hal_interrupt_master_disable>
     6b4:	f8c7 0110 	str.w	r0, [r7, #272]	; 0x110

        if (!gIomDone)
     6b8:	4b11      	ldr	r3, [pc, #68]	; (700 <am_devices_em9304_block_write+0x178>)
     6ba:	781b      	ldrb	r3, [r3, #0]
     6bc:	b2db      	uxtb	r3, r3
     6be:	f083 0301 	eor.w	r3, r3, #1
     6c2:	b2db      	uxtb	r3, r3
     6c4:	2b00      	cmp	r3, #0
     6c6:	d007      	beq.n	6d8 <am_devices_em9304_block_write+0x150>
        {
          //
          // Sleep while waiting for the IOM transaction to finish.
          //
          am_hal_sysctrl_sleep(AM_HAL_SYSCTRL_SLEEP_DEEP);
     6c8:	2001      	movs	r0, #1
     6ca:	f003 fef5 	bl	44b8 <am_hal_sysctrl_sleep>
          //
          // Enable interrupts
          //
          am_hal_interrupt_master_set(ui32IntStatus);
     6ce:	f8d7 0110 	ldr.w	r0, [r7, #272]	; 0x110
     6d2:	f001 fa63 	bl	1b9c <am_hal_interrupt_master_set>
     6d6:	e7eb      	b.n	6b0 <am_devices_em9304_block_write+0x128>
        else
        {
          //
          // Enable interrupts
          //
          am_hal_interrupt_master_set(ui32IntStatus);
     6d8:	f8d7 0110 	ldr.w	r0, [r7, #272]	; 0x110
     6dc:	f001 fa5e 	bl	1b9c <am_hal_interrupt_master_set>
                           0, sData.words, len,
                           AM_HAL_IOM_RAW);
#endif
    }

    am_devices_em9304_tx_ends();
     6e0:	f7ff ff3e 	bl	560 <am_devices_em9304_tx_ends>
  for ( uint32_t i = 0; i < ui32NumBytes; )
     6e4:	463b      	mov	r3, r7
     6e6:	f8d7 2118 	ldr.w	r2, [r7, #280]	; 0x118
     6ea:	681b      	ldr	r3, [r3, #0]
     6ec:	429a      	cmp	r2, r3
     6ee:	f4ff af6b 	bcc.w	5c8 <am_devices_em9304_block_write+0x40>
     6f2:	e000      	b.n	6f6 <am_devices_em9304_block_write+0x16e>
    return;
     6f4:	bf00      	nop

  }
}
     6f6:	f507 7792 	add.w	r7, r7, #292	; 0x124
     6fa:	46bd      	mov	sp, r7
     6fc:	bd90      	pop	{r4, r7, pc}
     6fe:	bf00      	nop
     700:	1000084d 	.word	0x1000084d
     704:	00000441 	.word	0x00000441

00000708 <am_devices_em9304_block_read>:
//*****************************************************************************
uint32_t
am_devices_em9304_block_read(const am_devices_em9304_t *psDevice,
                             uint32_t *pui32Values,
                             uint32_t ui32NumBytes)
{
     708:	b590      	push	{r4, r7, lr}
     70a:	b08d      	sub	sp, #52	; 0x34
     70c:	af02      	add	r7, sp, #8
     70e:	60f8      	str	r0, [r7, #12]
     710:	60b9      	str	r1, [r7, #8]
     712:	607a      	str	r2, [r7, #4]
  am_hal_iom_buffer(2) sCommand;
  am_hal_iom_buffer(2) sStas;
  uint8_t ui8RxBytes;
  uint8_t spiRxTotalBytesCount = 0;
     714:	2300      	movs	r3, #0
     716:	f887 3026 	strb.w	r3, [r7, #38]	; 0x26


  sCommand.bytes[0] = EM9304_SPI_HEADER_RX;
     71a:	2381      	movs	r3, #129	; 0x81
     71c:	763b      	strb	r3, [r7, #24]
  sCommand.bytes[1] = 0x0;
     71e:	2300      	movs	r3, #0
     720:	767b      	strb	r3, [r7, #25]

  //
  // Check if the SPI is free
  //
  if ( spiTxInProgress )
     722:	4b56      	ldr	r3, [pc, #344]	; (87c <am_devices_em9304_block_read+0x174>)
     724:	781b      	ldrb	r3, [r3, #0]
     726:	2b00      	cmp	r3, #0
     728:	d001      	beq.n	72e <am_devices_em9304_block_read+0x26>
  {
    //
    // TX in progress -> Ignore RDY interrupt
    //
    am_util_debug_printf("HCI TX in progress\n");
    return 0;
     72a:	2300      	movs	r3, #0
     72c:	e0a2      	b.n	874 <am_devices_em9304_block_read+0x16c>
  }

  //
  // Check if they are still data to read
  //
  if ( !EM9304_RDY_INT() )
     72e:	f001 f9a7 	bl	1a80 <am_hal_gpio_input_read>
     732:	460a      	mov	r2, r1
     734:	4601      	mov	r1, r0
     736:	f04f 6380 	mov.w	r3, #67108864	; 0x4000000
     73a:	f04f 0400 	mov.w	r4, #0
     73e:	ea03 0301 	and.w	r3, r3, r1
     742:	ea04 0402 	and.w	r4, r4, r2
     746:	4323      	orrs	r3, r4
     748:	d101      	bne.n	74e <am_devices_em9304_block_read+0x46>
  {
    // No data
    //am_util_debug_printf("HCI No data\n");
    return 0;
     74a:	2300      	movs	r3, #0
     74c:	e092      	b.n	874 <am_devices_em9304_block_read+0x16c>
  }

  //
  // Select the EM9304
  //
  EM9304_SPISLAVESELECT();
     74e:	4b4c      	ldr	r3, [pc, #304]	; (880 <am_devices_em9304_block_read+0x178>)
     750:	f44f 5200 	mov.w	r2, #8192	; 0x2000
     754:	601a      	str	r2, [r3, #0]

#if defined(AM_PART_APOLLO2)
  //
  // Full-Duplex operation is only supported for Apollo2 B2 Silicon.
  //
  if (isRevB2())
     756:	f7ff fe93 	bl	480 <isRevB2>
     75a:	4603      	mov	r3, r0
     75c:	2b00      	cmp	r3, #0
     75e:	d01b      	beq.n	798 <am_devices_em9304_block_read+0x90>
  {
    //
    // Write to the IOM.
    //
    am_hal_iom_spi_fullduplex(psDevice->ui32IOMModule,
     760:	68fb      	ldr	r3, [r7, #12]
     762:	6858      	ldr	r0, [r3, #4]
     764:	f107 0114 	add.w	r1, r7, #20
     768:	f107 0218 	add.w	r2, r7, #24
     76c:	f04f 4380 	mov.w	r3, #1073741824	; 0x40000000
     770:	9301      	str	r3, [sp, #4]
     772:	2302      	movs	r3, #2
     774:	9300      	str	r3, [sp, #0]
     776:	460b      	mov	r3, r1
     778:	2100      	movs	r1, #0
     77a:	f003 fac7 	bl	3d0c <am_hal_iom_spi_fullduplex>
                              AM_HAL_IOM_RAW);

    //
    // Check that the EM9304 is ready.
    //
    if ( sStas.bytes[0] != EM9304_STS1_READY_VALUE )
     77e:	7d3b      	ldrb	r3, [r7, #20]
     780:	2bc0      	cmp	r3, #192	; 0xc0
     782:	d005      	beq.n	790 <am_devices_em9304_block_read+0x88>
    {
      // Error
      EM9304_SPISLAVEDESELECT();
     784:	4b3f      	ldr	r3, [pc, #252]	; (884 <am_devices_em9304_block_read+0x17c>)
     786:	f44f 5200 	mov.w	r2, #8192	; 0x2000
     78a:	601a      	str	r2, [r3, #0]
      am_util_debug_printf("HCI RX Error (STATUS ERROR) EM9304 Not Ready\n");
      am_util_debug_printf("%d, %d\n", sStas.bytes[0], sStas.bytes[1]);
      return 0;
     78c:	2300      	movs	r3, #0
     78e:	e071      	b.n	874 <am_devices_em9304_block_read+0x16c>
    }

    //
    // Set the number of bytes to receive.
    //
    ui8RxBytes = sStas.bytes[1];
     790:	7d7b      	ldrb	r3, [r7, #21]
     792:	f887 3027 	strb.w	r3, [r7, #39]	; 0x27
     796:	e04f      	b.n	838 <am_devices_em9304_block_read+0x130>
#endif
  {
    //
    // Write to the IOM.
    //
    am_hal_iom_spi_write(psDevice->ui32IOMModule,
     798:	68fb      	ldr	r3, [r7, #12]
     79a:	6858      	ldr	r0, [r3, #4]
     79c:	f107 0218 	add.w	r2, r7, #24
     7a0:	f04f 4380 	mov.w	r3, #1073741824	; 0x40000000
     7a4:	9300      	str	r3, [sp, #0]
     7a6:	2301      	movs	r3, #1
     7a8:	2100      	movs	r1, #0
     7aa:	f002 fd61 	bl	3270 <am_hal_iom_spi_write>
                         AM_HAL_IOM_RAW);

    //
    // Read from the IOM.
    //
    am_hal_iom_spi_read(psDevice->ui32IOMModule,
     7ae:	68fb      	ldr	r3, [r7, #12]
     7b0:	6858      	ldr	r0, [r3, #4]
     7b2:	f107 0214 	add.w	r2, r7, #20
     7b6:	f04f 4380 	mov.w	r3, #1073741824	; 0x40000000
     7ba:	9300      	str	r3, [sp, #0]
     7bc:	2301      	movs	r3, #1
     7be:	2100      	movs	r1, #0
     7c0:	f002 ffa8 	bl	3714 <am_hal_iom_spi_read>
                        AM_HAL_IOM_RAW);

    //
    // Set the number of bytes to receive.
    //
    ui8RxBytes = sStas.bytes[0];
     7c4:	7d3b      	ldrb	r3, [r7, #20]
     7c6:	f887 3027 	strb.w	r3, [r7, #39]	; 0x27
  }

  while ( EM9304_RDY_INT() && (spiRxTotalBytesCount < ui8RxBytes) && (ui8RxBytes != 0))
     7ca:	e035      	b.n	838 <am_devices_em9304_block_read+0x130>
  {
    uint32_t len = 1;
     7cc:	2301      	movs	r3, #1
     7ce:	623b      	str	r3, [r7, #32]

    if ( (ui8RxBytes - spiRxTotalBytesCount) >= EM9304_BUFFER_SIZE )
     7d0:	f897 2027 	ldrb.w	r2, [r7, #39]	; 0x27
     7d4:	f897 3026 	ldrb.w	r3, [r7, #38]	; 0x26
     7d8:	1ad3      	subs	r3, r2, r3
     7da:	2bff      	cmp	r3, #255	; 0xff
     7dc:	dd01      	ble.n	7e2 <am_devices_em9304_block_read+0xda>
      //
      // Error. Packet too large.
      //
      am_util_debug_printf("HCI RX Error (STATUS ERROR) Packet Too Large\n");
      am_util_debug_printf("%d, %d\n", sStas.bytes[0], sStas.bytes[1]);
      return 0;
     7de:	2300      	movs	r3, #0
     7e0:	e048      	b.n	874 <am_devices_em9304_block_read+0x16c>
    }
    else
    {
      len = ui8RxBytes;
     7e2:	f897 3027 	ldrb.w	r3, [r7, #39]	; 0x27
     7e6:	623b      	str	r3, [r7, #32]
    }

#if defined(USE_IOM_NONBLOCKING)
    gIomDone = false;
     7e8:	4b27      	ldr	r3, [pc, #156]	; (888 <am_devices_em9304_block_read+0x180>)
     7ea:	2200      	movs	r2, #0
     7ec:	701a      	strb	r2, [r3, #0]
    am_hal_iom_spi_read_nb(psDevice->ui32IOMModule,
     7ee:	68fb      	ldr	r3, [r7, #12]
     7f0:	6858      	ldr	r0, [r3, #4]
     7f2:	4b26      	ldr	r3, [pc, #152]	; (88c <am_devices_em9304_block_read+0x184>)
     7f4:	9301      	str	r3, [sp, #4]
     7f6:	f04f 4380 	mov.w	r3, #1073741824	; 0x40000000
     7fa:	9300      	str	r3, [sp, #0]
     7fc:	6a3b      	ldr	r3, [r7, #32]
     7fe:	68ba      	ldr	r2, [r7, #8]
     800:	2100      	movs	r1, #0
     802:	f003 fad1 	bl	3da8 <am_hal_iom_spi_read_nb>
    while(1)
    {
      //
      // Disable interrupt while we decide whether we're going to sleep.
      //
      uint32_t ui32IntStatus = am_hal_interrupt_master_disable();
     806:	f001 f9c5 	bl	1b94 <am_hal_interrupt_master_disable>
     80a:	61f8      	str	r0, [r7, #28]

      if (!gIomDone)
     80c:	4b1e      	ldr	r3, [pc, #120]	; (888 <am_devices_em9304_block_read+0x180>)
     80e:	781b      	ldrb	r3, [r3, #0]
     810:	b2db      	uxtb	r3, r3
     812:	f083 0301 	eor.w	r3, r3, #1
     816:	b2db      	uxtb	r3, r3
     818:	2b00      	cmp	r3, #0
     81a:	d006      	beq.n	82a <am_devices_em9304_block_read+0x122>
      {
        //
        // Sleep while waiting for the IOM transaction to finish.
        //
        am_hal_sysctrl_sleep(AM_HAL_SYSCTRL_SLEEP_DEEP);
     81c:	2001      	movs	r0, #1
     81e:	f003 fe4b 	bl	44b8 <am_hal_sysctrl_sleep>
        //
        // Enable interrupts
        //
        am_hal_interrupt_master_set(ui32IntStatus);
     822:	69f8      	ldr	r0, [r7, #28]
     824:	f001 f9ba 	bl	1b9c <am_hal_interrupt_master_set>
     828:	e7ed      	b.n	806 <am_devices_em9304_block_read+0xfe>
      else
      {
        //
        // Enable interrupts
        //
        am_hal_interrupt_master_set(ui32IntStatus);
     82a:	69f8      	ldr	r0, [r7, #28]
     82c:	f001 f9b6 	bl	1b9c <am_hal_interrupt_master_set>
        break;
     830:	bf00      	nop
    am_hal_iom_spi_read(psDevice->ui32IOMModule,
                        0, pui32Values,
                        len, AM_HAL_IOM_RAW);
#endif

    spiRxTotalBytesCount = len;
     832:	6a3b      	ldr	r3, [r7, #32]
     834:	f887 3026 	strb.w	r3, [r7, #38]	; 0x26
  while ( EM9304_RDY_INT() && (spiRxTotalBytesCount < ui8RxBytes) && (ui8RxBytes != 0))
     838:	f001 f922 	bl	1a80 <am_hal_gpio_input_read>
     83c:	460a      	mov	r2, r1
     83e:	4601      	mov	r1, r0
     840:	f04f 6380 	mov.w	r3, #67108864	; 0x4000000
     844:	f04f 0400 	mov.w	r4, #0
     848:	ea03 0301 	and.w	r3, r3, r1
     84c:	ea04 0402 	and.w	r4, r4, r2
     850:	4323      	orrs	r3, r4
     852:	d009      	beq.n	868 <am_devices_em9304_block_read+0x160>
     854:	f897 2026 	ldrb.w	r2, [r7, #38]	; 0x26
     858:	f897 3027 	ldrb.w	r3, [r7, #39]	; 0x27
     85c:	429a      	cmp	r2, r3
     85e:	d203      	bcs.n	868 <am_devices_em9304_block_read+0x160>
     860:	f897 3027 	ldrb.w	r3, [r7, #39]	; 0x27
     864:	2b00      	cmp	r3, #0
     866:	d1b1      	bne.n	7cc <am_devices_em9304_block_read+0xc4>
  }

  // Deselect the EM9304
  EM9304_SPISLAVEDESELECT();
     868:	4b06      	ldr	r3, [pc, #24]	; (884 <am_devices_em9304_block_read+0x17c>)
     86a:	f44f 5200 	mov.w	r2, #8192	; 0x2000
     86e:	601a      	str	r2, [r3, #0]

  return spiRxTotalBytesCount;
     870:	f897 3026 	ldrb.w	r3, [r7, #38]	; 0x26
}
     874:	4618      	mov	r0, r3
     876:	372c      	adds	r7, #44	; 0x2c
     878:	46bd      	mov	sp, r7
     87a:	bd90      	pop	{r4, r7, pc}
     87c:	1000084c 	.word	0x1000084c
     880:	4001009c 	.word	0x4001009c
     884:	40010094 	.word	0x40010094
     888:	1000084d 	.word	0x1000084d
     88c:	00000441 	.word	0x00000441

00000890 <am_devices_em9304_spi_init>:
//! @return None.
//
//*****************************************************************************
void
am_devices_em9304_spi_init(uint32_t ui32Module, const am_hal_iom_config_t *psIomConfig)
{
     890:	b580      	push	{r7, lr}
     892:	b082      	sub	sp, #8
     894:	af00      	add	r7, sp, #0
     896:	6078      	str	r0, [r7, #4]
     898:	6039      	str	r1, [r7, #0]
    if ( AM_REGn(IOMSTR, ui32Module, CFG) & AM_REG_IOMSTR_CFG_IFCEN_M )
     89a:	687b      	ldr	r3, [r7, #4]
     89c:	f503 23a0 	add.w	r3, r3, #327680	; 0x50000
     8a0:	3304      	adds	r3, #4
     8a2:	031b      	lsls	r3, r3, #12
     8a4:	f503 738e 	add.w	r3, r3, #284	; 0x11c
     8a8:	681b      	ldr	r3, [r3, #0]
     8aa:	2b00      	cmp	r3, #0
     8ac:	db1b      	blt.n	8e6 <am_devices_em9304_spi_init+0x56>
    {
        return;
    }

#if defined(AM_PART_APOLLO2)
    am_hal_iom_pwrctrl_enable(ui32Module);
     8ae:	6878      	ldr	r0, [r7, #4]
     8b0:	f001 fc38 	bl	2124 <am_hal_iom_pwrctrl_enable>
#endif
    //
    // Setup the pins for SPI mode.
    //
    am_bsp_iom_spi_pins_enable(ui32Module);
     8b4:	6878      	ldr	r0, [r7, #4]
     8b6:	f000 fc81 	bl	11bc <am_bsp_iom_spi_pins_enable>

    //
    // Set the required configuration settings for the IOM.
    //
    am_hal_iom_config(ui32Module, psIomConfig);
     8ba:	6839      	ldr	r1, [r7, #0]
     8bc:	6878      	ldr	r0, [r7, #4]
     8be:	f001 fccd 	bl	225c <am_hal_iom_config>

    // Enable spi
    am_hal_iom_enable(ui32Module);
     8c2:	6878      	ldr	r0, [r7, #4]
     8c4:	f001 fc42 	bl	214c <am_hal_iom_enable>

#if defined(USE_IOM_NONBLOCKING)
    //
    // Enable interrupts.
    //
    am_hal_iom_int_clear(ui32Module, AM_HAL_IOM_INT_CMDCMP | AM_HAL_IOM_INT_THR);
     8c8:	2103      	movs	r1, #3
     8ca:	6878      	ldr	r0, [r7, #4]
     8cc:	f003 faae 	bl	3e2c <am_hal_iom_int_clear>
    am_hal_iom_int_enable(ui32Module, AM_HAL_IOM_INT_CMDCMP | AM_HAL_IOM_INT_THR);
     8d0:	2103      	movs	r1, #3
     8d2:	6878      	ldr	r0, [r7, #4]
     8d4:	f003 fa9e 	bl	3e14 <am_hal_iom_int_enable>
#elif (3 == AM_BSP_EM9304_IOM)
      am_hal_interrupt_enable(AM_HAL_INTERRUPT_IOMASTER3);
#elif (4 == AM_BSP_EM9304_IOM)
      am_hal_interrupt_enable(AM_HAL_INTERRUPT_IOMASTER4);
#elif (5 == AM_BSP_EM9304_IOM)
      am_hal_interrupt_enable(AM_HAL_INTERRUPT_IOMASTER5);
     8d8:	201b      	movs	r0, #27
     8da:	f001 f92f 	bl	1b3c <am_hal_interrupt_enable>
#endif

    //
    // Reset the IOM Done flag.
    //
    gIomDone = false;
     8de:	4b04      	ldr	r3, [pc, #16]	; (8f0 <am_devices_em9304_spi_init+0x60>)
     8e0:	2200      	movs	r2, #0
     8e2:	701a      	strb	r2, [r3, #0]
     8e4:	e000      	b.n	8e8 <am_devices_em9304_spi_init+0x58>
        return;
     8e6:	bf00      	nop
#endif

}
     8e8:	3708      	adds	r7, #8
     8ea:	46bd      	mov	sp, r7
     8ec:	bd80      	pop	{r7, pc}
     8ee:	bf00      	nop
     8f0:	1000084d 	.word	0x1000084d

000008f4 <am_devices_em9304_spi_awake>:
//! @return None.
//
//*****************************************************************************
void
am_devices_em9304_spi_awake(uint32_t ui32Module)
{
     8f4:	b580      	push	{r7, lr}
     8f6:	b082      	sub	sp, #8
     8f8:	af00      	add	r7, sp, #0
     8fa:	6078      	str	r0, [r7, #4]

    if ( AM_REGn(IOMSTR, ui32Module, CFG) & AM_REG_IOMSTR_CFG_IFCEN_M )
     8fc:	687b      	ldr	r3, [r7, #4]
     8fe:	f503 23a0 	add.w	r3, r3, #327680	; 0x50000
     902:	3304      	adds	r3, #4
     904:	031b      	lsls	r3, r3, #12
     906:	f503 738e 	add.w	r3, r3, #284	; 0x11c
     90a:	681b      	ldr	r3, [r3, #0]
     90c:	2b00      	cmp	r3, #0
     90e:	db09      	blt.n	924 <am_devices_em9304_spi_awake+0x30>
    {
        return;
    }

#if defined(AM_PART_APOLLO2)
    am_hal_iom_power_on_restore(ui32Module);
     910:	6878      	ldr	r0, [r7, #4]
     912:	f001 fc45 	bl	21a0 <am_hal_iom_power_on_restore>
#endif

    //
    // Setup the pins for SPI mode.
    //
    am_bsp_iom_spi_pins_enable(ui32Module);
     916:	6878      	ldr	r0, [r7, #4]
     918:	f000 fc50 	bl	11bc <am_bsp_iom_spi_pins_enable>

    // Enable spi
    am_hal_iom_enable(ui32Module);
     91c:	6878      	ldr	r0, [r7, #4]
     91e:	f001 fc15 	bl	214c <am_hal_iom_enable>
     922:	e000      	b.n	926 <am_devices_em9304_spi_awake+0x32>
        return;
     924:	bf00      	nop
}
     926:	3708      	adds	r7, #8
     928:	46bd      	mov	sp, r7
     92a:	bd80      	pop	{r7, pc}

0000092c <am_devices_em9304_configure_spi_sleep>:

void
am_devices_em9304_configure_spi_sleep(void)
{
     92c:	b580      	push	{r7, lr}
     92e:	b084      	sub	sp, #16
     930:	af00      	add	r7, sp, #0

  am_hal_gpio_out_bit_clear(AM_BSP_GPIO_IOM4_SCK);
  am_hal_gpio_out_bit_clear(AM_BSP_GPIO_IOM4_MISO);
  am_hal_gpio_out_bit_clear(AM_BSP_GPIO_IOM4_MOSI);
#elif (5 == AM_BSP_EM9304_IOM)
  am_hal_gpio_pin_config(AM_BSP_GPIO_IOM5_SCK, AM_HAL_PIN_OUTPUT);
     932:	f001 f92f 	bl	1b94 <am_hal_interrupt_master_disable>
     936:	4603      	mov	r3, r0
     938:	60fb      	str	r3, [r7, #12]
     93a:	4b3c      	ldr	r3, [pc, #240]	; (a2c <am_devices_em9304_configure_spi_sleep+0x100>)
     93c:	2273      	movs	r2, #115	; 0x73
     93e:	601a      	str	r2, [r3, #0]
     940:	4a3b      	ldr	r2, [pc, #236]	; (a30 <am_devices_em9304_configure_spi_sleep+0x104>)
     942:	4b3b      	ldr	r3, [pc, #236]	; (a30 <am_devices_em9304_configure_spi_sleep+0x104>)
     944:	681b      	ldr	r3, [r3, #0]
     946:	f023 0307 	bic.w	r3, r3, #7
     94a:	f043 0302 	orr.w	r3, r3, #2
     94e:	6013      	str	r3, [r2, #0]
     950:	4a38      	ldr	r2, [pc, #224]	; (a34 <am_devices_em9304_configure_spi_sleep+0x108>)
     952:	4b38      	ldr	r3, [pc, #224]	; (a34 <am_devices_em9304_configure_spi_sleep+0x108>)
     954:	681b      	ldr	r3, [r3, #0]
     956:	f023 03ff 	bic.w	r3, r3, #255	; 0xff
     95a:	f043 0318 	orr.w	r3, r3, #24
     95e:	6013      	str	r3, [r2, #0]
     960:	4a35      	ldr	r2, [pc, #212]	; (a38 <am_devices_em9304_configure_spi_sleep+0x10c>)
     962:	4b35      	ldr	r3, [pc, #212]	; (a38 <am_devices_em9304_configure_spi_sleep+0x10c>)
     964:	681b      	ldr	r3, [r3, #0]
     966:	f023 03ff 	bic.w	r3, r3, #255	; 0xff
     96a:	6013      	str	r3, [r2, #0]
     96c:	4b2f      	ldr	r3, [pc, #188]	; (a2c <am_devices_em9304_configure_spi_sleep+0x100>)
     96e:	2200      	movs	r2, #0
     970:	601a      	str	r2, [r3, #0]
     972:	68fb      	ldr	r3, [r7, #12]
     974:	4618      	mov	r0, r3
     976:	f001 f911 	bl	1b9c <am_hal_interrupt_master_set>
  am_hal_gpio_pin_config(AM_BSP_GPIO_IOM5_MISO, AM_HAL_PIN_OUTPUT);
     97a:	f001 f90b 	bl	1b94 <am_hal_interrupt_master_disable>
     97e:	4603      	mov	r3, r0
     980:	60bb      	str	r3, [r7, #8]
     982:	4b2a      	ldr	r3, [pc, #168]	; (a2c <am_devices_em9304_configure_spi_sleep+0x100>)
     984:	2273      	movs	r2, #115	; 0x73
     986:	601a      	str	r2, [r3, #0]
     988:	4a29      	ldr	r2, [pc, #164]	; (a30 <am_devices_em9304_configure_spi_sleep+0x104>)
     98a:	4b29      	ldr	r3, [pc, #164]	; (a30 <am_devices_em9304_configure_spi_sleep+0x104>)
     98c:	681b      	ldr	r3, [r3, #0]
     98e:	f023 0370 	bic.w	r3, r3, #112	; 0x70
     992:	f043 0320 	orr.w	r3, r3, #32
     996:	6013      	str	r3, [r2, #0]
     998:	4a26      	ldr	r2, [pc, #152]	; (a34 <am_devices_em9304_configure_spi_sleep+0x108>)
     99a:	4b26      	ldr	r3, [pc, #152]	; (a34 <am_devices_em9304_configure_spi_sleep+0x108>)
     99c:	681b      	ldr	r3, [r3, #0]
     99e:	f423 437f 	bic.w	r3, r3, #65280	; 0xff00
     9a2:	f443 53c0 	orr.w	r3, r3, #6144	; 0x1800
     9a6:	6013      	str	r3, [r2, #0]
     9a8:	4a23      	ldr	r2, [pc, #140]	; (a38 <am_devices_em9304_configure_spi_sleep+0x10c>)
     9aa:	4b23      	ldr	r3, [pc, #140]	; (a38 <am_devices_em9304_configure_spi_sleep+0x10c>)
     9ac:	681b      	ldr	r3, [r3, #0]
     9ae:	f423 437f 	bic.w	r3, r3, #65280	; 0xff00
     9b2:	6013      	str	r3, [r2, #0]
     9b4:	4b1d      	ldr	r3, [pc, #116]	; (a2c <am_devices_em9304_configure_spi_sleep+0x100>)
     9b6:	2200      	movs	r2, #0
     9b8:	601a      	str	r2, [r3, #0]
     9ba:	68bb      	ldr	r3, [r7, #8]
     9bc:	4618      	mov	r0, r3
     9be:	f001 f8ed 	bl	1b9c <am_hal_interrupt_master_set>
  am_hal_gpio_pin_config(AM_BSP_GPIO_IOM5_MOSI, AM_HAL_PIN_OUTPUT);
     9c2:	f001 f8e7 	bl	1b94 <am_hal_interrupt_master_disable>
     9c6:	4603      	mov	r3, r0
     9c8:	607b      	str	r3, [r7, #4]
     9ca:	4b18      	ldr	r3, [pc, #96]	; (a2c <am_devices_em9304_configure_spi_sleep+0x100>)
     9cc:	2273      	movs	r2, #115	; 0x73
     9ce:	601a      	str	r2, [r3, #0]
     9d0:	4a1a      	ldr	r2, [pc, #104]	; (a3c <am_devices_em9304_configure_spi_sleep+0x110>)
     9d2:	4b1a      	ldr	r3, [pc, #104]	; (a3c <am_devices_em9304_configure_spi_sleep+0x110>)
     9d4:	681b      	ldr	r3, [r3, #0]
     9d6:	f023 43e0 	bic.w	r3, r3, #1879048192	; 0x70000000
     9da:	f043 5300 	orr.w	r3, r3, #536870912	; 0x20000000
     9de:	6013      	str	r3, [r2, #0]
     9e0:	4a17      	ldr	r2, [pc, #92]	; (a40 <am_devices_em9304_configure_spi_sleep+0x114>)
     9e2:	4b17      	ldr	r3, [pc, #92]	; (a40 <am_devices_em9304_configure_spi_sleep+0x114>)
     9e4:	681b      	ldr	r3, [r3, #0]
     9e6:	f023 437f 	bic.w	r3, r3, #4278190080	; 0xff000000
     9ea:	f043 53c0 	orr.w	r3, r3, #402653184	; 0x18000000
     9ee:	6013      	str	r3, [r2, #0]
     9f0:	4a14      	ldr	r2, [pc, #80]	; (a44 <am_devices_em9304_configure_spi_sleep+0x118>)
     9f2:	4b14      	ldr	r3, [pc, #80]	; (a44 <am_devices_em9304_configure_spi_sleep+0x118>)
     9f4:	681b      	ldr	r3, [r3, #0]
     9f6:	f023 437f 	bic.w	r3, r3, #4278190080	; 0xff000000
     9fa:	6013      	str	r3, [r2, #0]
     9fc:	4b0b      	ldr	r3, [pc, #44]	; (a2c <am_devices_em9304_configure_spi_sleep+0x100>)
     9fe:	2200      	movs	r2, #0
     a00:	601a      	str	r2, [r3, #0]
     a02:	687b      	ldr	r3, [r7, #4]
     a04:	4618      	mov	r0, r3
     a06:	f001 f8c9 	bl	1b9c <am_hal_interrupt_master_set>

  am_hal_gpio_out_bit_clear(AM_BSP_GPIO_IOM5_SCK);
     a0a:	4b0f      	ldr	r3, [pc, #60]	; (a48 <am_devices_em9304_configure_spi_sleep+0x11c>)
     a0c:	f44f 3280 	mov.w	r2, #65536	; 0x10000
     a10:	601a      	str	r2, [r3, #0]
  am_hal_gpio_out_bit_clear(AM_BSP_GPIO_IOM5_MISO);
     a12:	4b0d      	ldr	r3, [pc, #52]	; (a48 <am_devices_em9304_configure_spi_sleep+0x11c>)
     a14:	f44f 3200 	mov.w	r2, #131072	; 0x20000
     a18:	601a      	str	r2, [r3, #0]
  am_hal_gpio_out_bit_clear(AM_BSP_GPIO_IOM5_MOSI);
     a1a:	4b0b      	ldr	r3, [pc, #44]	; (a48 <am_devices_em9304_configure_spi_sleep+0x11c>)
     a1c:	f44f 4200 	mov.w	r2, #32768	; 0x8000
     a20:	601a      	str	r2, [r3, #0]
#endif
#endif // AM_APOLLO3_GPIO

}
     a22:	bf00      	nop
     a24:	3710      	adds	r7, #16
     a26:	46bd      	mov	sp, r7
     a28:	bd80      	pop	{r7, pc}
     a2a:	bf00      	nop
     a2c:	40010060 	.word	0x40010060
     a30:	40010058 	.word	0x40010058
     a34:	40010030 	.word	0x40010030
     a38:	40010110 	.word	0x40010110
     a3c:	40010054 	.word	0x40010054
     a40:	4001002c 	.word	0x4001002c
     a44:	4001010c 	.word	0x4001010c
     a48:	4001009c 	.word	0x4001009c

00000a4c <am_devices_em9304_spi_sleep>:
//! @return None.
//
//*****************************************************************************
void
am_devices_em9304_spi_sleep(uint32_t ui32Module)
{
     a4c:	b580      	push	{r7, lr}
     a4e:	b082      	sub	sp, #8
     a50:	af00      	add	r7, sp, #0
     a52:	6078      	str	r0, [r7, #4]
    if ( !(AM_REGn(IOMSTR, ui32Module, CFG) & AM_REG_IOMSTR_CFG_IFCEN_M) )
     a54:	687b      	ldr	r3, [r7, #4]
     a56:	f503 23a0 	add.w	r3, r3, #327680	; 0x50000
     a5a:	3304      	adds	r3, #4
     a5c:	031b      	lsls	r3, r3, #12
     a5e:	f503 738e 	add.w	r3, r3, #284	; 0x11c
     a62:	681b      	ldr	r3, [r3, #0]
     a64:	2b00      	cmp	r3, #0
     a66:	da08      	bge.n	a7a <am_devices_em9304_spi_sleep+0x2e>
    {
        return;
    }

    am_hal_iom_disable(ui32Module);
     a68:	6878      	ldr	r0, [r7, #4]
     a6a:	f001 fb85 	bl	2178 <am_hal_iom_disable>

#if defined(AM_PART_APOLLO)
    am_bsp_iom_spi_pins_disable(ui32Module);
#else
    am_hal_iom_power_off_save(ui32Module);
     a6e:	6878      	ldr	r0, [r7, #4]
     a70:	f001 fbc6 	bl	2200 <am_hal_iom_power_off_save>
    am_devices_em9304_configure_spi_sleep();
     a74:	f7ff ff5a 	bl	92c <am_devices_em9304_configure_spi_sleep>
     a78:	e000      	b.n	a7c <am_devices_em9304_spi_sleep+0x30>
        return;
     a7a:	bf00      	nop
#endif
}
     a7c:	3708      	adds	r7, #8
     a7e:	46bd      	mov	sp, r7
     a80:	bd80      	pop	{r7, pc}
	...

00000a84 <am_devices_em9304_config_pins>:
//! @return None.
//
//*****************************************************************************
void
am_devices_em9304_config_pins(void)
{
     a84:	b580      	push	{r7, lr}
     a86:	b084      	sub	sp, #16
     a88:	af00      	add	r7, sp, #0
    am_hal_gpio_state_write(AM_BSP_GPIO_EM9304_CS, AM_HAL_GPIO_OUTPUT_SET);

    // Note - interrupt polarity is handled by the pin configuration.
    am_hal_gpio_interrupt_clear(AM_HAL_GPIO_BIT(AM_BSP_GPIO_EM9304_INT));
#else
    am_bsp_pin_enable(EM9304_CS);
     a8a:	f001 f883 	bl	1b94 <am_hal_interrupt_master_disable>
     a8e:	4603      	mov	r3, r0
     a90:	60fb      	str	r3, [r7, #12]
     a92:	4b32      	ldr	r3, [pc, #200]	; (b5c <am_devices_em9304_config_pins+0xd8>)
     a94:	2273      	movs	r2, #115	; 0x73
     a96:	601a      	str	r2, [r3, #0]
     a98:	4a31      	ldr	r2, [pc, #196]	; (b60 <am_devices_em9304_config_pins+0xdc>)
     a9a:	4b31      	ldr	r3, [pc, #196]	; (b60 <am_devices_em9304_config_pins+0xdc>)
     a9c:	681b      	ldr	r3, [r3, #0]
     a9e:	f423 03e0 	bic.w	r3, r3, #7340032	; 0x700000
     aa2:	f443 1300 	orr.w	r3, r3, #2097152	; 0x200000
     aa6:	6013      	str	r3, [r2, #0]
     aa8:	4a2e      	ldr	r2, [pc, #184]	; (b64 <am_devices_em9304_config_pins+0xe0>)
     aaa:	4b2e      	ldr	r3, [pc, #184]	; (b64 <am_devices_em9304_config_pins+0xe0>)
     aac:	681b      	ldr	r3, [r3, #0]
     aae:	f423 437f 	bic.w	r3, r3, #65280	; 0xff00
     ab2:	f443 53c0 	orr.w	r3, r3, #6144	; 0x1800
     ab6:	6013      	str	r3, [r2, #0]
     ab8:	4a2b      	ldr	r2, [pc, #172]	; (b68 <am_devices_em9304_config_pins+0xe4>)
     aba:	4b2b      	ldr	r3, [pc, #172]	; (b68 <am_devices_em9304_config_pins+0xe4>)
     abc:	681b      	ldr	r3, [r3, #0]
     abe:	f423 437f 	bic.w	r3, r3, #65280	; 0xff00
     ac2:	6013      	str	r3, [r2, #0]
     ac4:	4b25      	ldr	r3, [pc, #148]	; (b5c <am_devices_em9304_config_pins+0xd8>)
     ac6:	2200      	movs	r2, #0
     ac8:	601a      	str	r2, [r3, #0]
     aca:	68fb      	ldr	r3, [r7, #12]
     acc:	4618      	mov	r0, r3
     ace:	f001 f865 	bl	1b9c <am_hal_interrupt_master_set>
    am_bsp_pin_enable(EM9304_INT);
     ad2:	f001 f85f 	bl	1b94 <am_hal_interrupt_master_disable>
     ad6:	4603      	mov	r3, r0
     ad8:	60bb      	str	r3, [r7, #8]
     ada:	4b20      	ldr	r3, [pc, #128]	; (b5c <am_devices_em9304_config_pins+0xd8>)
     adc:	2273      	movs	r2, #115	; 0x73
     ade:	601a      	str	r2, [r3, #0]
     ae0:	4a22      	ldr	r2, [pc, #136]	; (b6c <am_devices_em9304_config_pins+0xe8>)
     ae2:	4b22      	ldr	r3, [pc, #136]	; (b6c <am_devices_em9304_config_pins+0xe8>)
     ae4:	681b      	ldr	r3, [r3, #0]
     ae6:	f423 63e0 	bic.w	r3, r3, #1792	; 0x700
     aea:	6013      	str	r3, [r2, #0]
     aec:	4a20      	ldr	r2, [pc, #128]	; (b70 <am_devices_em9304_config_pins+0xec>)
     aee:	4b20      	ldr	r3, [pc, #128]	; (b70 <am_devices_em9304_config_pins+0xec>)
     af0:	681b      	ldr	r3, [r3, #0]
     af2:	f423 037f 	bic.w	r3, r3, #16711680	; 0xff0000
     af6:	f443 13d0 	orr.w	r3, r3, #1703936	; 0x1a0000
     afa:	6013      	str	r3, [r2, #0]
     afc:	4a1d      	ldr	r2, [pc, #116]	; (b74 <am_devices_em9304_config_pins+0xf0>)
     afe:	4b1d      	ldr	r3, [pc, #116]	; (b74 <am_devices_em9304_config_pins+0xf0>)
     b00:	681b      	ldr	r3, [r3, #0]
     b02:	f423 037f 	bic.w	r3, r3, #16711680	; 0xff0000
     b06:	6013      	str	r3, [r2, #0]
     b08:	4b14      	ldr	r3, [pc, #80]	; (b5c <am_devices_em9304_config_pins+0xd8>)
     b0a:	2200      	movs	r2, #0
     b0c:	601a      	str	r2, [r3, #0]
     b0e:	68bb      	ldr	r3, [r7, #8]
     b10:	4618      	mov	r0, r3
     b12:	f001 f843 	bl	1b9c <am_hal_interrupt_master_set>

    am_hal_gpio_out_bit_set(AM_BSP_GPIO_EM9304_CS);
     b16:	4b18      	ldr	r3, [pc, #96]	; (b78 <am_devices_em9304_config_pins+0xf4>)
     b18:	f44f 5200 	mov.w	r2, #8192	; 0x2000
     b1c:	601a      	str	r2, [r3, #0]

    am_hal_gpio_int_polarity_bit_set(AM_BSP_GPIO_EM9304_INT, AM_HAL_GPIO_RISING);
     b1e:	f001 f839 	bl	1b94 <am_hal_interrupt_master_disable>
     b22:	4603      	mov	r3, r0
     b24:	607b      	str	r3, [r7, #4]
     b26:	4b0d      	ldr	r3, [pc, #52]	; (b5c <am_devices_em9304_config_pins+0xd8>)
     b28:	2273      	movs	r2, #115	; 0x73
     b2a:	601a      	str	r2, [r3, #0]
     b2c:	4a0f      	ldr	r2, [pc, #60]	; (b6c <am_devices_em9304_config_pins+0xe8>)
     b2e:	4b0f      	ldr	r3, [pc, #60]	; (b6c <am_devices_em9304_config_pins+0xe8>)
     b30:	681b      	ldr	r3, [r3, #0]
     b32:	f423 6300 	bic.w	r3, r3, #2048	; 0x800
     b36:	6013      	str	r3, [r2, #0]
     b38:	4b08      	ldr	r3, [pc, #32]	; (b5c <am_devices_em9304_config_pins+0xd8>)
     b3a:	2200      	movs	r2, #0
     b3c:	601a      	str	r2, [r3, #0]
     b3e:	687b      	ldr	r3, [r7, #4]
     b40:	4618      	mov	r0, r3
     b42:	f001 f82b 	bl	1b9c <am_hal_interrupt_master_set>
    am_hal_gpio_int_clear(AM_HAL_GPIO_BIT(AM_BSP_GPIO_EM9304_INT));
     b46:	f04f 6080 	mov.w	r0, #67108864	; 0x4000000
     b4a:	f04f 0100 	mov.w	r1, #0
     b4e:	f000 ffb7 	bl	1ac0 <am_hal_gpio_int_clear>
#endif // AM_APOLLO3_GPIO
}
     b52:	bf00      	nop
     b54:	3710      	adds	r7, #16
     b56:	46bd      	mov	sp, r7
     b58:	bd80      	pop	{r7, pc}
     b5a:	bf00      	nop
     b5c:	40010060 	.word	0x40010060
     b60:	40010054 	.word	0x40010054
     b64:	4001002c 	.word	0x4001002c
     b68:	4001010c 	.word	0x4001010c
     b6c:	4001004c 	.word	0x4001004c
     b70:	40010018 	.word	0x40010018
     b74:	400100f8 	.word	0x400100f8
     b78:	40010094 	.word	0x40010094

00000b7c <am_devices_em9304_enable_interrupt>:

    return true;
}

void am_devices_em9304_enable_interrupt(void)
{
     b7c:	b580      	push	{r7, lr}
     b7e:	af00      	add	r7, sp, #0
#if AM_APOLLO3_GPIO
    am_hal_gpio_interrupt_enable(AM_HAL_GPIO_BIT(AM_BSP_GPIO_EM9304_INT));
#else
    am_hal_gpio_int_enable(AM_HAL_GPIO_BIT(AM_BSP_GPIO_EM9304_INT));
     b80:	f04f 6080 	mov.w	r0, #67108864	; 0x4000000
     b84:	f04f 0100 	mov.w	r1, #0
     b88:	f000 ff8a 	bl	1aa0 <am_hal_gpio_int_enable>
#endif
}
     b8c:	bf00      	nop
     b8e:	bd80      	pop	{r7, pc}

00000b90 <timer_init>:
// Set up a CTIMER at 32KHz
//
//*****************************************************************************
void
timer_init(void)
{
     b90:	b580      	push	{r7, lr}
     b92:	af00      	add	r7, sp, #0
    am_hal_ctimer_config_single(0, AM_HAL_CTIMER_TIMERA,
     b94:	f44f 7211 	mov.w	r2, #580	; 0x244
     b98:	f64f 71ff 	movw	r1, #65535	; 0xffff
     b9c:	2000      	movs	r0, #0
     b9e:	f000 fd95 	bl	16cc <am_hal_ctimer_config_single>
                                   AM_HAL_CTIMER_HFRC_3MHZ |
                                   AM_HAL_CTIMER_FN_REPEAT |
                                   AM_HAL_CTIMER_INT_ENABLE);

    am_hal_ctimer_int_enable(AM_HAL_CTIMER_INT_TIMERA0);
     ba2:	2001      	movs	r0, #1
     ba4:	f000 fe92 	bl	18cc <am_hal_ctimer_int_enable>

    am_hal_ctimer_period_set(0, AM_HAL_CTIMER_TIMERA, 49, 25);
     ba8:	2319      	movs	r3, #25
     baa:	2231      	movs	r2, #49	; 0x31
     bac:	f64f 71ff 	movw	r1, #65535	; 0xffff
     bb0:	2000      	movs	r0, #0
     bb2:	f000 fe31 	bl	1818 <am_hal_ctimer_period_set>


    //
    // Start the timer.
    //
    am_hal_ctimer_start(0, AM_HAL_CTIMER_TIMERA);
     bb6:	f64f 71ff 	movw	r1, #65535	; 0xffff
     bba:	2000      	movs	r0, #0
     bbc:	f000 fe00 	bl	17c0 <am_hal_ctimer_start>

    //
    // Enable the timer interrupt.
    //
    am_hal_ctimer_int_enable(AM_HAL_CTIMER_INT_TIMERA0);
     bc0:	2001      	movs	r0, #1
     bc2:	f000 fe83 	bl	18cc <am_hal_ctimer_int_enable>
    am_hal_interrupt_enable(AM_HAL_INTERRUPT_CTIMER);
     bc6:	201d      	movs	r0, #29
     bc8:	f000 ffb8 	bl	1b3c <am_hal_interrupt_enable>
}
     bcc:	bf00      	nop
     bce:	bd80      	pop	{r7, pc}

00000bd0 <em9304_init>:
// Initialize the EM9304 BLE Controller
//
//*****************************************************************************
void
em9304_init(void)
{
     bd0:	b580      	push	{r7, lr}
     bd2:	b082      	sub	sp, #8
     bd4:	af00      	add	r7, sp, #0
    //
    // Configurre the EM9303 pins.
    //
    am_hal_gpio_pin_config(HCI_APOLLO_RESET_PIN, AM_HAL_GPIO_OUTPUT);
     bd6:	f000 ffdd 	bl	1b94 <am_hal_interrupt_master_disable>
     bda:	4603      	mov	r3, r0
     bdc:	607b      	str	r3, [r7, #4]
     bde:	4b30      	ldr	r3, [pc, #192]	; (ca0 <em9304_init+0xd0>)
     be0:	2273      	movs	r2, #115	; 0x73
     be2:	601a      	str	r2, [r3, #0]
     be4:	4a2f      	ldr	r2, [pc, #188]	; (ca4 <em9304_init+0xd4>)
     be6:	4b2f      	ldr	r3, [pc, #188]	; (ca4 <em9304_init+0xd4>)
     be8:	681b      	ldr	r3, [r3, #0]
     bea:	f423 63e0 	bic.w	r3, r3, #1792	; 0x700
     bee:	f443 7300 	orr.w	r3, r3, #512	; 0x200
     bf2:	6013      	str	r3, [r2, #0]
     bf4:	4a2c      	ldr	r2, [pc, #176]	; (ca8 <em9304_init+0xd8>)
     bf6:	4b2c      	ldr	r3, [pc, #176]	; (ca8 <em9304_init+0xd8>)
     bf8:	681b      	ldr	r3, [r3, #0]
     bfa:	f423 037f 	bic.w	r3, r3, #16711680	; 0xff0000
     bfe:	f443 13c0 	orr.w	r3, r3, #1572864	; 0x180000
     c02:	6013      	str	r3, [r2, #0]
     c04:	4a29      	ldr	r2, [pc, #164]	; (cac <em9304_init+0xdc>)
     c06:	4b29      	ldr	r3, [pc, #164]	; (cac <em9304_init+0xdc>)
     c08:	681b      	ldr	r3, [r3, #0]
     c0a:	f423 037f 	bic.w	r3, r3, #16711680	; 0xff0000
     c0e:	6013      	str	r3, [r2, #0]
     c10:	4b23      	ldr	r3, [pc, #140]	; (ca0 <em9304_init+0xd0>)
     c12:	2200      	movs	r2, #0
     c14:	601a      	str	r2, [r3, #0]
     c16:	687b      	ldr	r3, [r7, #4]
     c18:	4618      	mov	r0, r3
     c1a:	f000 ffbf 	bl	1b9c <am_hal_interrupt_master_set>
    am_hal_gpio_pin_config(AM_BSP_GPIO_EM9304_PTM, AM_HAL_GPIO_OUTPUT);
     c1e:	f000 ffb9 	bl	1b94 <am_hal_interrupt_master_disable>
     c22:	4603      	mov	r3, r0
     c24:	603b      	str	r3, [r7, #0]
     c26:	4b1e      	ldr	r3, [pc, #120]	; (ca0 <em9304_init+0xd0>)
     c28:	2273      	movs	r2, #115	; 0x73
     c2a:	601a      	str	r2, [r3, #0]
     c2c:	4a20      	ldr	r2, [pc, #128]	; (cb0 <em9304_init+0xe0>)
     c2e:	4b20      	ldr	r3, [pc, #128]	; (cb0 <em9304_init+0xe0>)
     c30:	681b      	ldr	r3, [r3, #0]
     c32:	f023 63e0 	bic.w	r3, r3, #117440512	; 0x7000000
     c36:	f043 7300 	orr.w	r3, r3, #33554432	; 0x2000000
     c3a:	6013      	str	r3, [r2, #0]
     c3c:	4a1d      	ldr	r2, [pc, #116]	; (cb4 <em9304_init+0xe4>)
     c3e:	4b1d      	ldr	r3, [pc, #116]	; (cb4 <em9304_init+0xe4>)
     c40:	681b      	ldr	r3, [r3, #0]
     c42:	f423 037f 	bic.w	r3, r3, #16711680	; 0xff0000
     c46:	f443 13c0 	orr.w	r3, r3, #1572864	; 0x180000
     c4a:	6013      	str	r3, [r2, #0]
     c4c:	4a1a      	ldr	r2, [pc, #104]	; (cb8 <em9304_init+0xe8>)
     c4e:	4b1a      	ldr	r3, [pc, #104]	; (cb8 <em9304_init+0xe8>)
     c50:	681b      	ldr	r3, [r3, #0]
     c52:	f423 037f 	bic.w	r3, r3, #16711680	; 0xff0000
     c56:	6013      	str	r3, [r2, #0]
     c58:	4b11      	ldr	r3, [pc, #68]	; (ca0 <em9304_init+0xd0>)
     c5a:	2200      	movs	r2, #0
     c5c:	601a      	str	r2, [r3, #0]
     c5e:	683b      	ldr	r3, [r7, #0]
     c60:	4618      	mov	r0, r3
     c62:	f000 ff9b 	bl	1b9c <am_hal_interrupt_master_set>

    //
    // Assert RESET to the EM9304.
    //
    am_hal_gpio_out_bit_clear(HCI_APOLLO_RESET_PIN);
     c66:	4b15      	ldr	r3, [pc, #84]	; (cbc <em9304_init+0xec>)
     c68:	f44f 6280 	mov.w	r2, #1024	; 0x400
     c6c:	601a      	str	r2, [r3, #0]

    //
    // Setup SPI interface for EM9304
    //
    am_devices_em9304_config_pins();
     c6e:	f7ff ff09 	bl	a84 <am_devices_em9304_config_pins>
    am_devices_em9304_spi_init(g_sEm9304.ui32IOMModule, &g_sEm9304IOMConfigSPI);
     c72:	4b13      	ldr	r3, [pc, #76]	; (cc0 <em9304_init+0xf0>)
     c74:	685b      	ldr	r3, [r3, #4]
     c76:	4913      	ldr	r1, [pc, #76]	; (cc4 <em9304_init+0xf4>)
     c78:	4618      	mov	r0, r3
     c7a:	f7ff fe09 	bl	890 <am_devices_em9304_spi_init>

    // enable interrupt.
    am_devices_em9304_enable_interrupt();
     c7e:	f7ff ff7d 	bl	b7c <am_devices_em9304_enable_interrupt>
    //
    // Delay for 20ms to make sure the em device gets ready for commands.
    //
    am_util_delay_ms(5);
     c82:	2005      	movs	r0, #5
     c84:	f000 f9f0 	bl	1068 <am_util_delay_ms>

    //
    // Enable the IOM and GPIO interrupt handlers.
    //
    am_hal_gpio_out_bit_set(HCI_APOLLO_RESET_PIN);
     c88:	4b0f      	ldr	r3, [pc, #60]	; (cc8 <em9304_init+0xf8>)
     c8a:	f44f 6280 	mov.w	r2, #1024	; 0x400
     c8e:	601a      	str	r2, [r3, #0]

    //am_hal_interrupt_enable(AM_HAL_INTERRUPT_GPIO);

    am_util_debug_printf("HciDrvRadioBoot complete\n");

    am_util_delay_ms(20);
     c90:	2014      	movs	r0, #20
     c92:	f000 f9e9 	bl	1068 <am_util_delay_ms>
}
     c96:	bf00      	nop
     c98:	3708      	adds	r7, #8
     c9a:	46bd      	mov	sp, r7
     c9c:	bd80      	pop	{r7, pc}
     c9e:	bf00      	nop
     ca0:	40010060 	.word	0x40010060
     ca4:	40010054 	.word	0x40010054
     ca8:	40010028 	.word	0x40010028
     cac:	40010108 	.word	0x40010108
     cb0:	4001004c 	.word	0x4001004c
     cb4:	4001001c 	.word	0x4001001c
     cb8:	400100fc 	.word	0x400100fc
     cbc:	4001009c 	.word	0x4001009c
     cc0:	00004b2c 	.word	0x00004b2c
     cc4:	00004b20 	.word	0x00004b20
     cc8:	40010094 	.word	0x40010094

00000ccc <uart_init>:
// Initialize the UART
//
//*****************************************************************************
void
uart_init(uint32_t ui32Module)
{
     ccc:	b580      	push	{r7, lr}
     cce:	b086      	sub	sp, #24
     cd0:	af02      	add	r7, sp, #8
     cd2:	6078      	str	r0, [r7, #4]
    //
    // Make sure the UART RX and TX pins are enabled.
    //
    am_bsp_pin_enable(COM_UART_TX);
     cd4:	f000 ff5e 	bl	1b94 <am_hal_interrupt_master_disable>
     cd8:	4603      	mov	r3, r0
     cda:	60fb      	str	r3, [r7, #12]
     cdc:	4b33      	ldr	r3, [pc, #204]	; (dac <uart_init+0xe0>)
     cde:	2273      	movs	r2, #115	; 0x73
     ce0:	601a      	str	r2, [r3, #0]
     ce2:	4a33      	ldr	r2, [pc, #204]	; (db0 <uart_init+0xe4>)
     ce4:	4b32      	ldr	r3, [pc, #200]	; (db0 <uart_init+0xe4>)
     ce6:	681b      	ldr	r3, [r3, #0]
     ce8:	f023 63e0 	bic.w	r3, r3, #117440512	; 0x7000000
     cec:	6013      	str	r3, [r2, #0]
     cee:	4a31      	ldr	r2, [pc, #196]	; (db4 <uart_init+0xe8>)
     cf0:	4b30      	ldr	r3, [pc, #192]	; (db4 <uart_init+0xe8>)
     cf2:	681b      	ldr	r3, [r3, #0]
     cf4:	f423 037f 	bic.w	r3, r3, #16711680	; 0xff0000
     cf8:	6013      	str	r3, [r2, #0]
     cfa:	4a2f      	ldr	r2, [pc, #188]	; (db8 <uart_init+0xec>)
     cfc:	4b2e      	ldr	r3, [pc, #184]	; (db8 <uart_init+0xec>)
     cfe:	681b      	ldr	r3, [r3, #0]
     d00:	f423 037f 	bic.w	r3, r3, #16711680	; 0xff0000
     d04:	6013      	str	r3, [r2, #0]
     d06:	4b29      	ldr	r3, [pc, #164]	; (dac <uart_init+0xe0>)
     d08:	2200      	movs	r2, #0
     d0a:	601a      	str	r2, [r3, #0]
     d0c:	68fb      	ldr	r3, [r7, #12]
     d0e:	4618      	mov	r0, r3
     d10:	f000 ff44 	bl	1b9c <am_hal_interrupt_master_set>
    am_bsp_pin_enable(COM_UART_RX);
     d14:	f000 ff3e 	bl	1b94 <am_hal_interrupt_master_disable>
     d18:	4603      	mov	r3, r0
     d1a:	60bb      	str	r3, [r7, #8]
     d1c:	4b23      	ldr	r3, [pc, #140]	; (dac <uart_init+0xe0>)
     d1e:	2273      	movs	r2, #115	; 0x73
     d20:	601a      	str	r2, [r3, #0]
     d22:	4a23      	ldr	r2, [pc, #140]	; (db0 <uart_init+0xe4>)
     d24:	4b22      	ldr	r3, [pc, #136]	; (db0 <uart_init+0xe4>)
     d26:	681b      	ldr	r3, [r3, #0]
     d28:	f023 43e0 	bic.w	r3, r3, #1879048192	; 0x70000000
     d2c:	6013      	str	r3, [r2, #0]
     d2e:	4a21      	ldr	r2, [pc, #132]	; (db4 <uart_init+0xe8>)
     d30:	4b20      	ldr	r3, [pc, #128]	; (db4 <uart_init+0xe8>)
     d32:	681b      	ldr	r3, [r3, #0]
     d34:	f023 437f 	bic.w	r3, r3, #4278190080	; 0xff000000
     d38:	f043 7300 	orr.w	r3, r3, #33554432	; 0x2000000
     d3c:	6013      	str	r3, [r2, #0]
     d3e:	4a1e      	ldr	r2, [pc, #120]	; (db8 <uart_init+0xec>)
     d40:	4b1d      	ldr	r3, [pc, #116]	; (db8 <uart_init+0xec>)
     d42:	681b      	ldr	r3, [r3, #0]
     d44:	f023 437f 	bic.w	r3, r3, #4278190080	; 0xff000000
     d48:	6013      	str	r3, [r2, #0]
     d4a:	4b18      	ldr	r3, [pc, #96]	; (dac <uart_init+0xe0>)
     d4c:	2200      	movs	r2, #0
     d4e:	601a      	str	r2, [r3, #0]
     d50:	68bb      	ldr	r3, [r7, #8]
     d52:	4618      	mov	r0, r3
     d54:	f000 ff22 	bl	1b9c <am_hal_interrupt_master_set>

    //
    // Power on the selected UART
    //
    am_hal_uart_pwrctrl_enable(ui32Module);
     d58:	6878      	ldr	r0, [r7, #4]
     d5a:	f003 fcc5 	bl	46e8 <am_hal_uart_pwrctrl_enable>

    //
    // Start the UART interface, apply the desired configuration settings, and
    // enable the FIFOs.
    //
    am_hal_uart_clock_enable(ui32Module);
     d5e:	6878      	ldr	r0, [r7, #4]
     d60:	f003 fcd6 	bl	4710 <am_hal_uart_clock_enable>

    //
    // Disable the UART before configuring it.
    //
    am_hal_uart_disable(ui32Module);
     d64:	6878      	ldr	r0, [r7, #4]
     d66:	f003 fca9 	bl	46bc <am_hal_uart_disable>

    //
    // Configure the UART.
    //
    am_hal_uart_config(ui32Module, &g_sUartConfig);
     d6a:	4914      	ldr	r1, [pc, #80]	; (dbc <uart_init+0xf0>)
     d6c:	6878      	ldr	r0, [r7, #4]
     d6e:	f003 fc41 	bl	45f4 <am_hal_uart_config>

    //
    // Enable the UART FIFO.
    //
    am_hal_uart_fifo_config(ui32Module, AM_HAL_UART_TX_FIFO_1_2 |
     d72:	2112      	movs	r1, #18
     d74:	6878      	ldr	r0, [r7, #4]
     d76:	f003 fcdd 	bl	4734 <am_hal_uart_fifo_config>
                                        AM_HAL_UART_RX_FIFO_1_2);

    //
    // Enable the UART.
    //
    am_hal_uart_enable(ui32Module);
     d7a:	6878      	ldr	r0, [r7, #4]
     d7c:	f003 fc88 	bl	4690 <am_hal_uart_enable>

#if AM_PART_APOLLO
    am_hal_uart_int_enable(ui32Module, AM_HAL_UART_INT_RX_TMOUT |
                                       AM_HAL_UART_INT_RX);
#else
    am_hal_uart_int_enable(ui32Module, AM_HAL_UART_INT_RX_TMOUT |
     d80:	2151      	movs	r1, #81	; 0x51
     d82:	6878      	ldr	r0, [r7, #4]
     d84:	f003 fc7c 	bl	4680 <am_hal_uart_int_enable>
#endif

    //
    // Initialize the buffered UART.
    //
    am_hal_uart_init_buffered(ui32Module, g_pui8UARTRXBuffer,
     d88:	2380      	movs	r3, #128	; 0x80
     d8a:	9300      	str	r3, [sp, #0]
     d8c:	4b0c      	ldr	r3, [pc, #48]	; (dc0 <uart_init+0xf4>)
     d8e:	2280      	movs	r2, #128	; 0x80
     d90:	490c      	ldr	r1, [pc, #48]	; (dc4 <uart_init+0xf8>)
     d92:	6878      	ldr	r0, [r7, #4]
     d94:	f003 fcec 	bl	4770 <am_hal_uart_init_buffered>
                              g_pui8UARTTXBuffer, MAX_UART_PACKET_SIZE);

    //
    // Enable the UART interrupt handler.
    //
    am_hal_interrupt_enable(AM_HAL_INTERRUPT_UART + ui32Module);
     d98:	687b      	ldr	r3, [r7, #4]
     d9a:	331e      	adds	r3, #30
     d9c:	4618      	mov	r0, r3
     d9e:	f000 fecd 	bl	1b3c <am_hal_interrupt_enable>
}
     da2:	bf00      	nop
     da4:	3710      	adds	r7, #16
     da6:	46bd      	mov	sp, r7
     da8:	bd80      	pop	{r7, pc}
     daa:	bf00      	nop
     dac:	40010060 	.word	0x40010060
     db0:	40010048 	.word	0x40010048
     db4:	40010014 	.word	0x40010014
     db8:	400100f4 	.word	0x400100f4
     dbc:	10000800 	.word	0x10000800
     dc0:	1000086c 	.word	0x1000086c
     dc4:	1000096c 	.word	0x1000096c

00000dc8 <am_ctimer_isr>:
// Interrupt handler for the CTIMERs
//
//*****************************************************************************
void
am_ctimer_isr(void)
{
     dc8:	b580      	push	{r7, lr}
     dca:	b082      	sub	sp, #8
     dcc:	af00      	add	r7, sp, #0
    uint32_t ui32Status;

    //
    // Check and clear any active CTIMER interrupts.
    //
    ui32Status = am_hal_ctimer_int_status_get(true);
     dce:	2001      	movs	r0, #1
     dd0:	f000 fd94 	bl	18fc <am_hal_ctimer_int_status_get>
     dd4:	6078      	str	r0, [r7, #4]
    am_hal_ctimer_int_clear(ui32Status);
     dd6:	6878      	ldr	r0, [r7, #4]
     dd8:	f000 fd8a 	bl	18f0 <am_hal_ctimer_int_clear>

    //
    // If indicated, toggle the GPIO5 pin.
    //
    if (g_bPTMToggleFlag)
     ddc:	4b0b      	ldr	r3, [pc, #44]	; (e0c <am_ctimer_isr+0x44>)
     dde:	781b      	ldrb	r3, [r3, #0]
     de0:	b2db      	uxtb	r3, r3
     de2:	2b00      	cmp	r3, #0
     de4:	d00d      	beq.n	e02 <am_ctimer_isr+0x3a>
    {
      am_hal_gpio_out_bit_toggle(AM_BSP_GPIO_EM9304_PTM);
     de6:	f000 fed5 	bl	1b94 <am_hal_interrupt_master_disable>
     dea:	4603      	mov	r3, r0
     dec:	603b      	str	r3, [r7, #0]
     dee:	4a08      	ldr	r2, [pc, #32]	; (e10 <am_ctimer_isr+0x48>)
     df0:	4b07      	ldr	r3, [pc, #28]	; (e10 <am_ctimer_isr+0x48>)
     df2:	681b      	ldr	r3, [r3, #0]
     df4:	f083 4380 	eor.w	r3, r3, #1073741824	; 0x40000000
     df8:	6013      	str	r3, [r2, #0]
     dfa:	683b      	ldr	r3, [r7, #0]
     dfc:	4618      	mov	r0, r3
     dfe:	f000 fecd 	bl	1b9c <am_hal_interrupt_master_set>
    }
}
     e02:	bf00      	nop
     e04:	3708      	adds	r7, #8
     e06:	46bd      	mov	sp, r7
     e08:	bd80      	pop	{r7, pc}
     e0a:	bf00      	nop
     e0c:	10000850 	.word	0x10000850
     e10:	40010088 	.word	0x40010088

00000e14 <am_gpio_isr>:
// Interrupt handler for the GPIO module
//
//*****************************************************************************
void
am_gpio_isr(void)
{
     e14:	b590      	push	{r4, r7, lr}
     e16:	b083      	sub	sp, #12
     e18:	af00      	add	r7, sp, #0
    uint64_t ui64Status;

    //
    // Check and clear the GPIO interrupt status
    //
    ui64Status = am_hal_gpio_int_status_get(true);
     e1a:	2001      	movs	r0, #1
     e1c:	f000 fe64 	bl	1ae8 <am_hal_gpio_int_status_get>
     e20:	e9c7 0100 	strd	r0, r1, [r7]
    am_hal_gpio_int_clear(ui64Status);
     e24:	e9d7 0100 	ldrd	r0, r1, [r7]
     e28:	f000 fe4a 	bl	1ac0 <am_hal_gpio_int_clear>

    //
    // Check to see if this was a wakeup event from the BLE radio.
    //
    if ( ui64Status & AM_HAL_GPIO_BIT(AM_BSP_GPIO_EM9304_INT) )
     e2c:	e897 0018 	ldmia.w	r7, {r3, r4}
     e30:	f04f 6180 	mov.w	r1, #67108864	; 0x4000000
     e34:	f04f 0200 	mov.w	r2, #0
     e38:	ea03 0301 	and.w	r3, r3, r1
     e3c:	ea04 0402 	and.w	r4, r4, r2
     e40:	4323      	orrs	r3, r4
     e42:	d002      	beq.n	e4a <am_gpio_isr+0x36>
    {
        //
        // Indicate that HCI packet is ready from EM9304.
        //
        g_bEM9304HCIReady = true;
     e44:	4b03      	ldr	r3, [pc, #12]	; (e54 <am_gpio_isr+0x40>)
     e46:	2201      	movs	r2, #1
     e48:	701a      	strb	r2, [r3, #0]
    }
}
     e4a:	bf00      	nop
     e4c:	370c      	adds	r7, #12
     e4e:	46bd      	mov	sp, r7
     e50:	bd90      	pop	{r4, r7, pc}
     e52:	bf00      	nop
     e54:	1000084e 	.word	0x1000084e

00000e58 <am_uart_isr>:
// Interrupt handler for the UART
//
//*****************************************************************************
void
am_uart_isr(void)
{
     e58:	b580      	push	{r7, lr}
     e5a:	b082      	sub	sp, #8
     e5c:	af00      	add	r7, sp, #0
    uint32_t ui32Status;

    //
    // Read the masked interrupt status from the UART.
    //
    ui32Status = am_hal_uart_int_status_get(HCI_BRIDGE_UART, true);
     e5e:	2101      	movs	r1, #1
     e60:	2000      	movs	r0, #0
     e62:	f003 fbfd 	bl	4660 <am_hal_uart_int_status_get>
     e66:	6078      	str	r0, [r7, #4]

    //
    // Clear the UART interrupts.
    //
    am_hal_uart_int_clear(HCI_BRIDGE_UART, ui32Status);
     e68:	6879      	ldr	r1, [r7, #4]
     e6a:	2000      	movs	r0, #0
     e6c:	f003 fc02 	bl	4674 <am_hal_uart_int_clear>

    //
    // If there are TMOUT, RX or TX interrupts then service them.
    //
    if (ui32Status & (AM_HAL_UART_INT_RX_TMOUT | AM_HAL_UART_INT_TX | AM_HAL_UART_INT_RX))
     e70:	687b      	ldr	r3, [r7, #4]
     e72:	f003 0370 	and.w	r3, r3, #112	; 0x70
     e76:	2b00      	cmp	r3, #0
     e78:	d003      	beq.n	e82 <am_uart_isr+0x2a>
    {
#ifdef AM_PART_APOLLO
      am_hal_uart_service_buffered(HCI_BRIDGE_UART, ui32Status);
#else
      am_hal_uart_service_buffered_timeout_save(HCI_BRIDGE_UART, ui32Status);
     e7a:	6879      	ldr	r1, [r7, #4]
     e7c:	2000      	movs	r0, #0
     e7e:	f003 fcad 	bl	47dc <am_hal_uart_service_buffered_timeout_save>
    }

    //
    // If there is a TMOUT interrupt, then indicate that to the main routine.
    //
    if (ui32Status & (AM_HAL_UART_INT_RX_TMOUT))
     e82:	687b      	ldr	r3, [r7, #4]
     e84:	f003 0340 	and.w	r3, r3, #64	; 0x40
     e88:	2b00      	cmp	r3, #0
     e8a:	d002      	beq.n	e92 <am_uart_isr+0x3a>
    {
        g_bRxTimeoutFlag = true;
     e8c:	4b03      	ldr	r3, [pc, #12]	; (e9c <am_uart_isr+0x44>)
     e8e:	2201      	movs	r2, #1
     e90:	701a      	strb	r2, [r3, #0]
    }
}
     e92:	bf00      	nop
     e94:	3708      	adds	r7, #8
     e96:	46bd      	mov	sp, r7
     e98:	bd80      	pop	{r7, pc}
     e9a:	bf00      	nop
     e9c:	1000084f 	.word	0x1000084f

00000ea0 <main>:
// Main function.
//
//*****************************************************************************
int
main(void)
{
     ea0:	b580      	push	{r7, lr}
     ea2:	b082      	sub	sp, #8
     ea4:	af00      	add	r7, sp, #0
    uint32_t      ui32NumChars;

    //
    // Set the clock frequency.
    //
    am_hal_clkgen_sysclk_select(AM_HAL_CLKGEN_SYSCLK_MAX);
     ea6:	2000      	movs	r0, #0
     ea8:	f000 fbba 	bl	1620 <am_hal_clkgen_sysclk_select>

    //
    // Set the default cache configuration
    //
    am_hal_cachectrl_enable(&am_hal_cachectrl_defaults);
     eac:	4844      	ldr	r0, [pc, #272]	; (fc0 <main+0x120>)
     eae:	f000 fb21 	bl	14f4 <am_hal_cachectrl_enable>

    //
    // Configure the board for low power operation.
    //
    am_bsp_low_power_init();
     eb2:	f000 fb09 	bl	14c8 <am_bsp_low_power_init>

    //
    // Enable the buttons for user interaction.
    //
    am_devices_button_array_init(am_bsp_psButtons, AM_BSP_NUM_BUTTONS);
     eb6:	2103      	movs	r1, #3
     eb8:	4842      	ldr	r0, [pc, #264]	; (fc4 <main+0x124>)
     eba:	f7ff f983 	bl	1c4 <am_devices_button_array_init>

    // Initialize the CTIMERA0.
    timer_init();
     ebe:	f7ff fe67 	bl	b90 <timer_init>

    //
    // Initialize the EM9304 interface.
    //
    em9304_init();
     ec2:	f7ff fe85 	bl	bd0 <em9304_init>

    //
    // Initialize the UART, and set it as the default print interface.
    //
    uart_init(HCI_BRIDGE_UART);
     ec6:	2000      	movs	r0, #0
     ec8:	f7ff ff00 	bl	ccc <uart_init>

    //
    // Initialize the ITM debug interface.
    //
    am_util_stdio_printf_init((am_util_stdio_print_char_t) am_bsp_uart_string_print);
     ecc:	483e      	ldr	r0, [pc, #248]	; (fc8 <main+0x128>)
     ece:	f000 f965 	bl	119c <am_util_stdio_printf_init>

    //
    // Enable BLE data ready interrupt
    //
    am_hal_interrupt_enable(AM_HAL_INTERRUPT_GPIO);
     ed2:	201c      	movs	r0, #28
     ed4:	f000 fe32 	bl	1b3c <am_hal_interrupt_enable>

    am_hal_interrupt_master_enable();
     ed8:	f000 fe58 	bl	1b8c <am_hal_interrupt_master_enable>
    while (1)
    {
        //
        // Check for any packets from the EM9304
        //
        if (g_bEM9304HCIReady)
     edc:	4b3b      	ldr	r3, [pc, #236]	; (fcc <main+0x12c>)
     ede:	781b      	ldrb	r3, [r3, #0]
     ee0:	b2db      	uxtb	r3, r3
     ee2:	2b00      	cmp	r3, #0
     ee4:	d025      	beq.n	f32 <main+0x92>
        {
            //
            // Reset the GPIO flag
            //
            g_bEM9304HCIReady = false;
     ee6:	4b39      	ldr	r3, [pc, #228]	; (fcc <main+0x12c>)
     ee8:	2200      	movs	r2, #0
     eea:	701a      	strb	r2, [r3, #0]

            //
            // Turn on the IOM for this operation.
            //
            //am_devices_em9304_spi_init(g_sEm9304.ui32IOMModule, &g_sEm9304IOMConfigSPI);
            am_devices_em9304_spi_awake(g_sEm9304.ui32IOMModule);
     eec:	4b38      	ldr	r3, [pc, #224]	; (fd0 <main+0x130>)
     eee:	685b      	ldr	r3, [r3, #4]
     ef0:	4618      	mov	r0, r3
     ef2:	f7ff fcff 	bl	8f4 <am_devices_em9304_spi_awake>

            ui32NumChars = am_devices_em9304_block_read(&g_sEm9304, g_pui32TxArray, 0);
     ef6:	2200      	movs	r2, #0
     ef8:	4936      	ldr	r1, [pc, #216]	; (fd4 <main+0x134>)
     efa:	4835      	ldr	r0, [pc, #212]	; (fd0 <main+0x130>)
     efc:	f7ff fc04 	bl	708 <am_devices_em9304_block_read>
     f00:	6038      	str	r0, [r7, #0]

            //
            // Disable IOM SPI pins and turn off the IOM after operation
            //
            am_devices_em9304_spi_sleep(g_sEm9304.ui32IOMModule);
     f02:	4b33      	ldr	r3, [pc, #204]	; (fd0 <main+0x130>)
     f04:	685b      	ldr	r3, [r3, #4]
     f06:	4618      	mov	r0, r3
     f08:	f7ff fda0 	bl	a4c <am_devices_em9304_spi_sleep>

            //
            // Transmit the received SPI packet over the UART.
            //
            for (uint32_t i = 0; i < ui32NumChars; i++)
     f0c:	2300      	movs	r3, #0
     f0e:	607b      	str	r3, [r7, #4]
     f10:	e00b      	b.n	f2a <main+0x8a>
            {
                am_hal_uart_char_transmit_buffered(AM_BSP_UART_BTLE_INST,
                                                   (char)g_pui8TxArray[i]);
     f12:	4b31      	ldr	r3, [pc, #196]	; (fd8 <main+0x138>)
     f14:	681a      	ldr	r2, [r3, #0]
     f16:	687b      	ldr	r3, [r7, #4]
     f18:	4413      	add	r3, r2
                am_hal_uart_char_transmit_buffered(AM_BSP_UART_BTLE_INST,
     f1a:	781b      	ldrb	r3, [r3, #0]
     f1c:	4619      	mov	r1, r3
     f1e:	2000      	movs	r0, #0
     f20:	f003 fd4e 	bl	49c0 <am_hal_uart_char_transmit_buffered>
            for (uint32_t i = 0; i < ui32NumChars; i++)
     f24:	687b      	ldr	r3, [r7, #4]
     f26:	3301      	adds	r3, #1
     f28:	607b      	str	r3, [r7, #4]
     f2a:	687a      	ldr	r2, [r7, #4]
     f2c:	683b      	ldr	r3, [r7, #0]
     f2e:	429a      	cmp	r2, r3
     f30:	d3ef      	bcc.n	f12 <main+0x72>
            }
        }

        // Check for the completion of a UART receive operation.
        if (g_bRxTimeoutFlag)
     f32:	4b2a      	ldr	r3, [pc, #168]	; (fdc <main+0x13c>)
     f34:	781b      	ldrb	r3, [r3, #0]
     f36:	b2db      	uxtb	r3, r3
     f38:	2b00      	cmp	r3, #0
     f3a:	d020      	beq.n	f7e <main+0xde>
        {
            //
            // Reset the RX timeout flag.
            //
            g_bRxTimeoutFlag = false;
     f3c:	4b27      	ldr	r3, [pc, #156]	; (fdc <main+0x13c>)
     f3e:	2200      	movs	r2, #0
     f40:	701a      	strb	r2, [r3, #0]

            //
            // Check the UART RX Buffer for any received HCI packets.
            //
            ui32NumChars = am_hal_uart_char_receive_buffered(AM_BSP_UART_BTLE_INST,
     f42:	2280      	movs	r2, #128	; 0x80
     f44:	4926      	ldr	r1, [pc, #152]	; (fe0 <main+0x140>)
     f46:	2000      	movs	r0, #0
     f48:	f003 fd5e 	bl	4a08 <am_hal_uart_char_receive_buffered>
     f4c:	6038      	str	r0, [r7, #0]
                                                             (char *)g_pui8RxArray,
                                                             MAX_UART_PACKET_SIZE);
            if ( ui32NumChars > 0 )
     f4e:	683b      	ldr	r3, [r7, #0]
     f50:	2b00      	cmp	r3, #0
     f52:	d014      	beq.n	f7e <main+0xde>
            {
                //
                // Turn on the IOM for this operation.
                //
                am_devices_em9304_spi_awake(g_sEm9304.ui32IOMModule);
     f54:	4b1e      	ldr	r3, [pc, #120]	; (fd0 <main+0x130>)
     f56:	685b      	ldr	r3, [r3, #4]
     f58:	4618      	mov	r0, r3
     f5a:	f7ff fccb 	bl	8f4 <am_devices_em9304_spi_awake>

                //
                // Write the HCI packet to the EM9304.
                //
                am_devices_em9304_block_write(&g_sEm9304, g_pui8RxArray[0], &g_pui8RxArray[1], ui32NumChars - 1);
     f5e:	4b20      	ldr	r3, [pc, #128]	; (fe0 <main+0x140>)
     f60:	7819      	ldrb	r1, [r3, #0]
     f62:	683b      	ldr	r3, [r7, #0]
     f64:	3b01      	subs	r3, #1
     f66:	4a1f      	ldr	r2, [pc, #124]	; (fe4 <main+0x144>)
     f68:	4819      	ldr	r0, [pc, #100]	; (fd0 <main+0x130>)
     f6a:	f7ff fb0d 	bl	588 <am_devices_em9304_block_write>

                //
                // Disable IOM SPI pins and turn off the IOM after operation
                //
                am_devices_em9304_spi_sleep(g_sEm9304.ui32IOMModule);
     f6e:	4b18      	ldr	r3, [pc, #96]	; (fd0 <main+0x130>)
     f70:	685b      	ldr	r3, [r3, #4]
     f72:	4618      	mov	r0, r3
     f74:	f7ff fd6a 	bl	a4c <am_devices_em9304_spi_sleep>

                g_bEM9304HCIReady = true;
     f78:	4b14      	ldr	r3, [pc, #80]	; (fcc <main+0x12c>)
     f7a:	2201      	movs	r2, #1
     f7c:	701a      	strb	r2, [r3, #0]
            }
        }

        // Check if Button #0 has been pressed, indicating reset EM9304 into Production Test Mode (PTM).
        am_devices_button_tick(&am_bsp_psButtons[0]);
     f7e:	4811      	ldr	r0, [pc, #68]	; (fc4 <main+0x124>)
     f80:	f7ff f93a 	bl	1f8 <am_devices_button_tick>
        if (am_devices_button_pressed(am_bsp_psButtons[0]))
     f84:	4b0f      	ldr	r3, [pc, #60]	; (fc4 <main+0x124>)
     f86:	7b1b      	ldrb	r3, [r3, #12]
     f88:	2b00      	cmp	r3, #0
     f8a:	d0a7      	beq.n	edc <main+0x3c>
     f8c:	4b0d      	ldr	r3, [pc, #52]	; (fc4 <main+0x124>)
     f8e:	7b5b      	ldrb	r3, [r3, #13]
     f90:	2b00      	cmp	r3, #0
     f92:	d0a3      	beq.n	edc <main+0x3c>
        {
          // Start toggling the GPIO5 in the CTIMER ISR
          g_bPTMToggleFlag = true;
     f94:	4b14      	ldr	r3, [pc, #80]	; (fe8 <main+0x148>)
     f96:	2201      	movs	r2, #1
     f98:	701a      	strb	r2, [r3, #0]

          // Assert RESET to the EM9304.
          am_hal_gpio_out_bit_clear(HCI_APOLLO_RESET_PIN);
     f9a:	4b14      	ldr	r3, [pc, #80]	; (fec <main+0x14c>)
     f9c:	f44f 6280 	mov.w	r2, #1024	; 0x400
     fa0:	601a      	str	r2, [r3, #0]

          // Delay for 5ms to make sure the EM9304 is in PTM.
          am_util_delay_ms(5);
     fa2:	2005      	movs	r0, #5
     fa4:	f000 f860 	bl	1068 <am_util_delay_ms>

          // Deassert RESET to the EM9304.
          am_hal_gpio_out_bit_set(HCI_APOLLO_RESET_PIN);
     fa8:	4b11      	ldr	r3, [pc, #68]	; (ff0 <main+0x150>)
     faa:	f44f 6280 	mov.w	r2, #1024	; 0x400
     fae:	601a      	str	r2, [r3, #0]

          // Delay for 5ms to make sure the EM9304 is in PTM.
          am_util_delay_ms(5);
     fb0:	2005      	movs	r0, #5
     fb2:	f000 f859 	bl	1068 <am_util_delay_ms>

          // Stop toggling the GPIO5 in the CTIMER ISR
          g_bPTMToggleFlag = false;
     fb6:	4b0c      	ldr	r3, [pc, #48]	; (fe8 <main+0x148>)
     fb8:	2200      	movs	r2, #0
     fba:	701a      	strb	r2, [r3, #0]
        if (g_bEM9304HCIReady)
     fbc:	e78e      	b.n	edc <main+0x3c>
     fbe:	bf00      	nop
     fc0:	00004b3c 	.word	0x00004b3c
     fc4:	10000818 	.word	0x10000818
     fc8:	000014ed 	.word	0x000014ed
     fcc:	1000084e 	.word	0x1000084e
     fd0:	00004b2c 	.word	0x00004b2c
     fd4:	100008ec 	.word	0x100008ec
     fd8:	10000814 	.word	0x10000814
     fdc:	1000084f 	.word	0x1000084f
     fe0:	100009ec 	.word	0x100009ec
     fe4:	100009ed 	.word	0x100009ed
     fe8:	10000850 	.word	0x10000850
     fec:	4001009c 	.word	0x4001009c
     ff0:	40010094 	.word	0x40010094

00000ff4 <am_reset_isr>:
am_reset_isr(void)
{
    //
    // Set the vector table pointer.
    //
    __asm("    ldr    r0, =0xE000ED08\n"
     ff4:	4811      	ldr	r0, [pc, #68]	; (103c <zero_loop+0x12>)
     ff6:	4912      	ldr	r1, [pc, #72]	; (1040 <zero_loop+0x16>)
     ff8:	6001      	str	r1, [r0, #0]
          "    str    r1, [r0]");

    //
    // Set the stack pointer.
    //
    __asm("    ldr    sp, [r1]");
     ffa:	f8d1 d000 	ldr.w	sp, [r1]
#ifndef NOFPU
    //
    // Enable the FPU.
    //
    __asm("ldr  r0, =0xE000ED88\n"
     ffe:	4811      	ldr	r0, [pc, #68]	; (1044 <zero_loop+0x1a>)
    1000:	6801      	ldr	r1, [r0, #0]
    1002:	f441 0170 	orr.w	r1, r1, #15728640	; 0xf00000
    1006:	6001      	str	r1, [r0, #0]
    1008:	f3bf 8f4f 	dsb	sy
    100c:	f3bf 8f6f 	isb	sy
          "isb\n");
#endif
    //
    // Copy the data segment initializers from flash to SRAM.
    //
    __asm("    ldr     r0, =_init_data\n"
    1010:	480d      	ldr	r0, [pc, #52]	; (1048 <zero_loop+0x1e>)
    1012:	490e      	ldr	r1, [pc, #56]	; (104c <zero_loop+0x22>)
    1014:	4a0e      	ldr	r2, [pc, #56]	; (1050 <zero_loop+0x26>)

00001016 <copy_loop>:
    1016:	f850 3b04 	ldr.w	r3, [r0], #4
    101a:	f841 3b04 	str.w	r3, [r1], #4
    101e:	4291      	cmp	r1, r2
    1020:	dbf9      	blt.n	1016 <copy_loop>
          "        cmp     r1, r2\n"
          "        blt     copy_loop\n");
    //
    // Zero fill the bss segment.
    //
    __asm("    ldr     r0, =_sbss\n"
    1022:	480c      	ldr	r0, [pc, #48]	; (1054 <zero_loop+0x2a>)
    1024:	490c      	ldr	r1, [pc, #48]	; (1058 <zero_loop+0x2e>)
    1026:	f04f 0200 	mov.w	r2, #0

0000102a <zero_loop>:
    102a:	4288      	cmp	r0, r1
    102c:	bfb8      	it	lt
    102e:	f840 2b04 	strlt.w	r2, [r0], #4
    1032:	dbfa      	blt.n	102a <zero_loop>
          "        blt     zero_loop");

    //
    // Call the application's entry point.
    //
    main();
    1034:	f7ff ff34 	bl	ea0 <main>

    //
    // If main returns then execute a break point instruction
    //
    __asm("    bkpt     ");
    1038:	be00      	bkpt	0x0000
}
    103a:	bf00      	nop
    103c:	e000ed08 	.word	0xe000ed08
    1040:	00000000 	.word	0x00000000
    1044:	e000ed88 	.word	0xe000ed88
    1048:	00004dc8 	.word	0x00004dc8
    104c:	10000800 	.word	0x10000800
    1050:	1000084c 	.word	0x1000084c
    1054:	1000084c 	.word	0x1000084c
    1058:	10000cb0 	.word	0x10000cb0

0000105c <am_nmi_isr>:
// by a debugger.
//
//*****************************************************************************
void
am_nmi_isr(void)
{
    105c:	b480      	push	{r7}
    105e:	af00      	add	r7, sp, #0
    //
    // Go into an infinite loop.
    //
    while(1)
    1060:	e7fe      	b.n	1060 <am_nmi_isr+0x4>

00001062 <am_adc_isr>:
// for examination by a debugger.
//
//*****************************************************************************
void
am_default_isr(void)
{
    1062:	b480      	push	{r7}
    1064:	af00      	add	r7, sp, #0
    //
    // Go into an infinite loop.
    //
    while(1)
    1066:	e7fe      	b.n	1066 <am_adc_isr+0x4>

00001068 <am_util_delay_ms>:
//! @returns None
//
//*****************************************************************************
void
am_util_delay_ms(uint32_t ui32MilliSeconds)
{
    1068:	b580      	push	{r7, lr}
    106a:	b084      	sub	sp, #16
    106c:	af00      	add	r7, sp, #0
    106e:	6078      	str	r0, [r7, #4]
#if AM_APOLLO3_CLKGEN
    am_hal_clkgen_status_t sClkgenStatus;
    am_hal_clkgen_status_get(&sClkgenStatus);
    ui32HFRC = sClkgenStatus.ui32SysclkFreq;
#else
    ui32HFRC = am_hal_clkgen_sysclk_get();
    1070:	f000 faee 	bl	1650 <am_hal_clkgen_sysclk_get>
    1074:	60f8      	str	r0, [r7, #12]
#endif
    ui32Loops = ui32MilliSeconds * (ui32HFRC / 3000);
    1076:	68fb      	ldr	r3, [r7, #12]
    1078:	4a07      	ldr	r2, [pc, #28]	; (1098 <am_util_delay_ms+0x30>)
    107a:	fba2 2303 	umull	r2, r3, r2, r3
    107e:	099b      	lsrs	r3, r3, #6
    1080:	687a      	ldr	r2, [r7, #4]
    1082:	fb02 f303 	mul.w	r3, r2, r3
    1086:	60bb      	str	r3, [r7, #8]

    //
    // Call the BOOTROM cycle delay function
    //
    am_hal_flash_delay(ui32Loops);
    1088:	68b8      	ldr	r0, [r7, #8]
    108a:	f000 fc53 	bl	1934 <am_hal_flash_delay>
}
    108e:	bf00      	nop
    1090:	3710      	adds	r7, #16
    1092:	46bd      	mov	sp, r7
    1094:	bd80      	pop	{r7, pc}
    1096:	bf00      	nop
    1098:	057619f1 	.word	0x057619f1

0000109c <am_fault_isr>:
}
#elif defined(__GNUC_STDC_INLINE__)
uint32_t __attribute__((naked))
am_fault_isr(void)
{
    __asm("    push    {r7,lr}");
    109c:	b580      	push	{r7, lr}
    __asm("    mov     r0, sp");
    109e:	4668      	mov	r0, sp
    __asm("    adds    r0, #(2*4)");
    10a0:	3008      	adds	r0, #8
    __asm("    bl      am_util_faultisr_collect_data");
    10a2:	f000 f809 	bl	10b8 <am_util_faultisr_collect_data>
    __asm("    pop     {r0,pc}");
    10a6:	bd01      	pop	{r0, pc}
}
    10a8:	bf00      	nop
    10aa:	4618      	mov	r0, r3

000010ac <getStackedReg>:

uint32_t __attribute__((naked))
getStackedReg(uint32_t regnum, uint32_t u32SP)
{
    __asm("    lsls    r0, r0, #2");
    10ac:	0080      	lsls	r0, r0, #2
    __asm("    adds    r0, r1");
    10ae:	1840      	adds	r0, r0, r1
    __asm("    ldr     r0, [r0]");
    10b0:	6800      	ldr	r0, [r0, #0]
    __asm("    bx      lr");
    10b2:	4770      	bx	lr
}
    10b4:	bf00      	nop
    10b6:	4618      	mov	r0, r3

000010b8 <am_util_faultisr_collect_data>:
// am_fault_isr() was called.
//
//*****************************************************************************
void
am_util_faultisr_collect_data(uint32_t u32IsrSP)
{
    10b8:	b580      	push	{r7, lr}
    10ba:	b096      	sub	sp, #88	; 0x58
    10bc:	af00      	add	r7, sp, #0
    10be:	6078      	str	r0, [r7, #4]
    volatile am_fault_t sFaultData;
    am_hal_mcuctrl_fault_t sHalFaultData = {0};
    10c0:	f107 030c 	add.w	r3, r7, #12
    10c4:	2200      	movs	r2, #0
    10c6:	601a      	str	r2, [r3, #0]
    10c8:	605a      	str	r2, [r3, #4]
    10ca:	609a      	str	r2, [r3, #8]
    10cc:	60da      	str	r2, [r3, #12]
    10ce:	611a      	str	r2, [r3, #16]
    10d0:	615a      	str	r2, [r3, #20]

    uint32_t u32Mask = 0;
    10d2:	2300      	movs	r3, #0
    10d4:	657b      	str	r3, [r7, #84]	; 0x54
    // u32Mask is used for 2 things: 1) in the print loop, 2) as a spot to set
    // a breakpoint at the end of the routine.  If the printing is not used,
    // we'll get a compiler warning; so to avoid that warning, we'll use it
    // in a dummy assignment here.
    //
    sFaultData.u32CFSR = u32Mask;       // Avoid compiler warning
    10d6:	6d7b      	ldr	r3, [r7, #84]	; 0x54
    10d8:	64fb      	str	r3, [r7, #76]	; 0x4c
    sFaultData.u32CFSR = AM_REGVAL(AM_REG_SYSCTRL_CFSR_O);
    10da:	4b2e      	ldr	r3, [pc, #184]	; (1194 <am_util_faultisr_collect_data+0xdc>)
    10dc:	681b      	ldr	r3, [r3, #0]
    10de:	64fb      	str	r3, [r7, #76]	; 0x4c
    sFaultData.u8MMSR  = (sFaultData.u32CFSR >> 0)  & 0xff;
    10e0:	6cfb      	ldr	r3, [r7, #76]	; 0x4c
    10e2:	b2db      	uxtb	r3, r3
    10e4:	f887 3050 	strb.w	r3, [r7, #80]	; 0x50
    sFaultData.u8BFSR  = (sFaultData.u32CFSR >> 8)  & 0xff;
    10e8:	6cfb      	ldr	r3, [r7, #76]	; 0x4c
    10ea:	0a1b      	lsrs	r3, r3, #8
    10ec:	b2db      	uxtb	r3, r3
    10ee:	f887 3051 	strb.w	r3, [r7, #81]	; 0x51
    sFaultData.u16UFSR = (sFaultData.u32CFSR >> 16) & 0xffff;
    10f2:	6cfb      	ldr	r3, [r7, #76]	; 0x4c
    10f4:	0c1b      	lsrs	r3, r3, #16
    10f6:	b29b      	uxth	r3, r3
    10f8:	f8a7 3052 	strh.w	r3, [r7, #82]	; 0x52

    //
    // The address of the location that caused the fault.  e.g. if accessing an
    // invalid data location caused the fault, that address will appear here.
    //
    sFaultData.u32BFAR = AM_REGVAL(AM_REG_SYSCTRL_BFAR_O);
    10fc:	4b26      	ldr	r3, [pc, #152]	; (1198 <am_util_faultisr_collect_data+0xe0>)
    10fe:	681b      	ldr	r3, [r3, #0]
    1100:	64bb      	str	r3, [r7, #72]	; 0x48

    //
    // The address of the instruction that caused the fault is the stacked PC
    // if BFSR bit1 is set.
    //
    sFaultData.u32FaultAddr = (sFaultData.u8BFSR & 0x02) ? getStackedReg(6, u32IsrSP) : 0xffffffff;
    1102:	f897 3051 	ldrb.w	r3, [r7, #81]	; 0x51
    1106:	b2db      	uxtb	r3, r3
    1108:	f003 0302 	and.w	r3, r3, #2
    110c:	2b00      	cmp	r3, #0
    110e:	d005      	beq.n	111c <am_util_faultisr_collect_data+0x64>
    1110:	6879      	ldr	r1, [r7, #4]
    1112:	2006      	movs	r0, #6
    1114:	f7ff ffca 	bl	10ac <getStackedReg>
    1118:	4603      	mov	r3, r0
    111a:	e001      	b.n	1120 <am_util_faultisr_collect_data+0x68>
    111c:	f04f 33ff 	mov.w	r3, #4294967295
    1120:	647b      	str	r3, [r7, #68]	; 0x44

    //
    // Get the stacked registers.
    // Note - the address of the instruction that caused the fault is u32PC.
    //
    sFaultData.u32R0  = getStackedReg(0, u32IsrSP);
    1122:	6879      	ldr	r1, [r7, #4]
    1124:	2000      	movs	r0, #0
    1126:	f7ff ffc1 	bl	10ac <getStackedReg>
    112a:	4603      	mov	r3, r0
    112c:	627b      	str	r3, [r7, #36]	; 0x24
    sFaultData.u32R1  = getStackedReg(1, u32IsrSP);
    112e:	6879      	ldr	r1, [r7, #4]
    1130:	2001      	movs	r0, #1
    1132:	f7ff ffbb 	bl	10ac <getStackedReg>
    1136:	4603      	mov	r3, r0
    1138:	62bb      	str	r3, [r7, #40]	; 0x28
    sFaultData.u32R2  = getStackedReg(2, u32IsrSP);
    113a:	6879      	ldr	r1, [r7, #4]
    113c:	2002      	movs	r0, #2
    113e:	f7ff ffb5 	bl	10ac <getStackedReg>
    1142:	4603      	mov	r3, r0
    1144:	62fb      	str	r3, [r7, #44]	; 0x2c
    sFaultData.u32R3  = getStackedReg(3, u32IsrSP);
    1146:	6879      	ldr	r1, [r7, #4]
    1148:	2003      	movs	r0, #3
    114a:	f7ff ffaf 	bl	10ac <getStackedReg>
    114e:	4603      	mov	r3, r0
    1150:	633b      	str	r3, [r7, #48]	; 0x30
    sFaultData.u32R12 = getStackedReg(4, u32IsrSP);
    1152:	6879      	ldr	r1, [r7, #4]
    1154:	2004      	movs	r0, #4
    1156:	f7ff ffa9 	bl	10ac <getStackedReg>
    115a:	4603      	mov	r3, r0
    115c:	637b      	str	r3, [r7, #52]	; 0x34
    sFaultData.u32LR  = getStackedReg(5, u32IsrSP);
    115e:	6879      	ldr	r1, [r7, #4]
    1160:	2005      	movs	r0, #5
    1162:	f7ff ffa3 	bl	10ac <getStackedReg>
    1166:	4603      	mov	r3, r0
    1168:	63bb      	str	r3, [r7, #56]	; 0x38
    sFaultData.u32PC  = getStackedReg(6, u32IsrSP);
    116a:	6879      	ldr	r1, [r7, #4]
    116c:	2006      	movs	r0, #6
    116e:	f7ff ff9d 	bl	10ac <getStackedReg>
    1172:	4603      	mov	r3, r0
    1174:	63fb      	str	r3, [r7, #60]	; 0x3c
    sFaultData.u32PSR = getStackedReg(7, u32IsrSP);
    1176:	6879      	ldr	r1, [r7, #4]
    1178:	2007      	movs	r0, #7
    117a:	f7ff ff97 	bl	10ac <getStackedReg>
    117e:	4603      	mov	r3, r0
    1180:	643b      	str	r3, [r7, #64]	; 0x40
    // Use the HAL MCUCTRL functions to read the fault data.
    //
#ifdef AM_APOLLO3_MCUCTRL
    am_hal_mcuctrl_info_get(AM_HAL_MCUCTRL_INFO_FAULT_STATUS, &sHalFaultData);
#else
    am_hal_mcuctrl_fault_status(&sHalFaultData);
    1182:	f107 030c 	add.w	r3, r7, #12
    1186:	4618      	mov	r0, r3
    1188:	f002 fe6c 	bl	3e64 <am_hal_mcuctrl_fault_status>
    }


#endif

    u32Mask = 0;
    118c:	2300      	movs	r3, #0
    118e:	657b      	str	r3, [r7, #84]	; 0x54
    //
    // Spin in an infinite loop.
    // We need to spin here inside the function so that we have access to
    // local data, i.e. sFaultData.
    //
    while(1)
    1190:	e7fe      	b.n	1190 <am_util_faultisr_collect_data+0xd8>
    1192:	bf00      	nop
    1194:	e000ed28 	.word	0xe000ed28
    1198:	e000ed38 	.word	0xe000ed38

0000119c <am_util_stdio_printf_init>:
//! @return None.
//
//*****************************************************************************
void
am_util_stdio_printf_init(am_util_stdio_print_char_t pfnCharPrint)
{
    119c:	b480      	push	{r7}
    119e:	b083      	sub	sp, #12
    11a0:	af00      	add	r7, sp, #0
    11a2:	6078      	str	r0, [r7, #4]
    g_pfnCharPrint = pfnCharPrint;
    11a4:	4a04      	ldr	r2, [pc, #16]	; (11b8 <am_util_stdio_printf_init+0x1c>)
    11a6:	687b      	ldr	r3, [r7, #4]
    11a8:	6013      	str	r3, [r2, #0]
}
    11aa:	bf00      	nop
    11ac:	370c      	adds	r7, #12
    11ae:	46bd      	mov	sp, r7
    11b0:	f85d 7b04 	ldr.w	r7, [sp], #4
    11b4:	4770      	bx	lr
    11b6:	bf00      	nop
    11b8:	10000a6c 	.word	0x10000a6c

000011bc <am_bsp_iom_spi_pins_enable>:
//! @return None.
//
//*****************************************************************************
void
am_bsp_iom_spi_pins_enable(uint32_t ui32Module)
{
    11bc:	e92d 43f0 	stmdb	sp!, {r4, r5, r6, r7, r8, r9, lr}
    11c0:	b08d      	sub	sp, #52	; 0x34
    switch(ui32Module)
    11c2:	2805      	cmp	r0, #5
    11c4:	f200 815d 	bhi.w	1482 <am_bsp_iom_spi_pins_enable+0x2c6>
    11c8:	e8df f010 	tbh	[pc, r0, lsl #1]
    11cc:	00b30106 	.word	0x00b30106
    11d0:	015b005e 	.word	0x015b005e
    11d4:	0006015b 	.word	0x0006015b
            break;
#endif

#ifdef AM_BSP_GPIO_IOM5_SCK
        case 5:
            am_bsp_pin_enable(IOM5_SCK);
    11d8:	f000 fcdc 	bl	1b94 <am_hal_interrupt_master_disable>
    11dc:	4ca9      	ldr	r4, [pc, #676]	; (1484 <am_bsp_iom_spi_pins_enable+0x2c8>)
    11de:	f8df 92e4 	ldr.w	r9, [pc, #740]	; 14c4 <am_bsp_iom_spi_pins_enable+0x308>
    11e2:	9009      	str	r0, [sp, #36]	; 0x24
    11e4:	f04f 0873 	mov.w	r8, #115	; 0x73
    11e8:	f8c4 8000 	str.w	r8, [r4]
    11ec:	f8d9 3000 	ldr.w	r3, [r9]
    11f0:	4ea5      	ldr	r6, [pc, #660]	; (1488 <am_bsp_iom_spi_pins_enable+0x2cc>)
    11f2:	4da6      	ldr	r5, [pc, #664]	; (148c <am_bsp_iom_spi_pins_enable+0x2d0>)
    11f4:	f023 0007 	bic.w	r0, r3, #7
    11f8:	f8c9 0000 	str.w	r0, [r9]
    11fc:	6831      	ldr	r1, [r6, #0]
    11fe:	f021 02ff 	bic.w	r2, r1, #255	; 0xff
    1202:	f042 072a 	orr.w	r7, r2, #42	; 0x2a
    1206:	6037      	str	r7, [r6, #0]
    1208:	682b      	ldr	r3, [r5, #0]
    120a:	2700      	movs	r7, #0
    120c:	f023 00ff 	bic.w	r0, r3, #255	; 0xff
    1210:	6028      	str	r0, [r5, #0]
    1212:	6027      	str	r7, [r4, #0]
    1214:	9809      	ldr	r0, [sp, #36]	; 0x24
    1216:	f000 fcc1 	bl	1b9c <am_hal_interrupt_master_set>
            am_bsp_pin_enable(IOM5_MISO);
    121a:	f000 fcbb 	bl	1b94 <am_hal_interrupt_master_disable>
    121e:	900a      	str	r0, [sp, #40]	; 0x28
    1220:	f8c4 8000 	str.w	r8, [r4]
    1224:	f8d9 1000 	ldr.w	r1, [r9]
    1228:	f021 0270 	bic.w	r2, r1, #112	; 0x70
    122c:	f8c9 2000 	str.w	r2, [r9]
    1230:	6833      	ldr	r3, [r6, #0]
    1232:	f423 407f 	bic.w	r0, r3, #65280	; 0xff00
    1236:	f440 5128 	orr.w	r1, r0, #10752	; 0x2a00
    123a:	6031      	str	r1, [r6, #0]
    123c:	682e      	ldr	r6, [r5, #0]
    123e:	f426 427f 	bic.w	r2, r6, #65280	; 0xff00
    1242:	602a      	str	r2, [r5, #0]
    1244:	6027      	str	r7, [r4, #0]
    1246:	980a      	ldr	r0, [sp, #40]	; 0x28
    1248:	f000 fca8 	bl	1b9c <am_hal_interrupt_master_set>
            am_bsp_pin_enable(IOM5_MOSI);
    124c:	f000 fca2 	bl	1b94 <am_hal_interrupt_master_disable>
    1250:	900b      	str	r0, [sp, #44]	; 0x2c
    1252:	f8c4 8000 	str.w	r8, [r4]
    1256:	f855 3cbc 	ldr.w	r3, [r5, #-188]
    125a:	488d      	ldr	r0, [pc, #564]	; (1490 <am_bsp_iom_spi_pins_enable+0x2d4>)
    125c:	498d      	ldr	r1, [pc, #564]	; (1494 <am_bsp_iom_spi_pins_enable+0x2d8>)
    125e:	f023 46e0 	bic.w	r6, r3, #1879048192	; 0x70000000
    1262:	f845 6cbc 	str.w	r6, [r5, #-188]
    1266:	6805      	ldr	r5, [r0, #0]
    1268:	f025 427f 	bic.w	r2, r5, #4278190080	; 0xff000000
    126c:	f042 5320 	orr.w	r3, r2, #671088640	; 0x28000000
    1270:	6003      	str	r3, [r0, #0]
    1272:	6808      	ldr	r0, [r1, #0]
    1274:	f020 467f 	bic.w	r6, r0, #4278190080	; 0xff000000
    1278:	600e      	str	r6, [r1, #0]
    127a:	6027      	str	r7, [r4, #0]
    127c:	980b      	ldr	r0, [sp, #44]	; 0x2c
    127e:	f000 fc8d 	bl	1b9c <am_hal_interrupt_master_set>
        // debugging.
        //
        default:
            while(1);
    }
}
    1282:	b00d      	add	sp, #52	; 0x34
    1284:	e8bd 83f0 	ldmia.w	sp!, {r4, r5, r6, r7, r8, r9, pc}
            am_bsp_pin_enable(IOM2_SCK);
    1288:	f000 fc84 	bl	1b94 <am_hal_interrupt_master_disable>
    128c:	4c7d      	ldr	r4, [pc, #500]	; (1484 <am_bsp_iom_spi_pins_enable+0x2c8>)
    128e:	4d82      	ldr	r5, [pc, #520]	; (1498 <am_bsp_iom_spi_pins_enable+0x2dc>)
    1290:	9006      	str	r0, [sp, #24]
    1292:	f04f 0973 	mov.w	r9, #115	; 0x73
    1296:	f8c4 9000 	str.w	r9, [r4]
    129a:	6829      	ldr	r1, [r5, #0]
    129c:	4f7f      	ldr	r7, [pc, #508]	; (149c <am_bsp_iom_spi_pins_enable+0x2e0>)
    129e:	4e80      	ldr	r6, [pc, #512]	; (14a0 <am_bsp_iom_spi_pins_enable+0x2e4>)
    12a0:	f421 42e0 	bic.w	r2, r1, #28672	; 0x7000
    12a4:	602a      	str	r2, [r5, #0]
    12a6:	683b      	ldr	r3, [r7, #0]
    12a8:	f023 407f 	bic.w	r0, r3, #4278190080	; 0xff000000
    12ac:	f040 5138 	orr.w	r1, r0, #771751936	; 0x2e000000
    12b0:	6039      	str	r1, [r7, #0]
    12b2:	6832      	ldr	r2, [r6, #0]
    12b4:	f04f 0800 	mov.w	r8, #0
    12b8:	f022 437f 	bic.w	r3, r2, #4278190080	; 0xff000000
    12bc:	6033      	str	r3, [r6, #0]
    12be:	f8c4 8000 	str.w	r8, [r4]
    12c2:	9806      	ldr	r0, [sp, #24]
    12c4:	f000 fc6a 	bl	1b9c <am_hal_interrupt_master_set>
            am_bsp_pin_enable(IOM2_MISO);
    12c8:	f000 fc64 	bl	1b94 <am_hal_interrupt_master_disable>
    12cc:	9007      	str	r0, [sp, #28]
    12ce:	f8c4 9000 	str.w	r9, [r4]
    12d2:	6828      	ldr	r0, [r5, #0]
    12d4:	f020 0170 	bic.w	r1, r0, #112	; 0x70
    12d8:	6029      	str	r1, [r5, #0]
    12da:	683a      	ldr	r2, [r7, #0]
    12dc:	f422 4c7f 	bic.w	ip, r2, #65280	; 0xff00
    12e0:	f44c 5328 	orr.w	r3, ip, #10752	; 0x2a00
    12e4:	603b      	str	r3, [r7, #0]
    12e6:	6837      	ldr	r7, [r6, #0]
    12e8:	f427 407f 	bic.w	r0, r7, #65280	; 0xff00
    12ec:	6030      	str	r0, [r6, #0]
    12ee:	f8c4 8000 	str.w	r8, [r4]
    12f2:	9807      	ldr	r0, [sp, #28]
    12f4:	f000 fc52 	bl	1b9c <am_hal_interrupt_master_set>
            am_bsp_pin_enable(IOM2_MOSI);
    12f8:	f000 fc4c 	bl	1b94 <am_hal_interrupt_master_disable>
    12fc:	9008      	str	r0, [sp, #32]
    12fe:	f8c4 9000 	str.w	r9, [r4]
    1302:	682e      	ldr	r6, [r5, #0]
    1304:	4967      	ldr	r1, [pc, #412]	; (14a4 <am_bsp_iom_spi_pins_enable+0x2e8>)
    1306:	4a68      	ldr	r2, [pc, #416]	; (14a8 <am_bsp_iom_spi_pins_enable+0x2ec>)
    1308:	f426 23e0 	bic.w	r3, r6, #458752	; 0x70000
    130c:	602b      	str	r3, [r5, #0]
    130e:	680d      	ldr	r5, [r1, #0]
    1310:	f025 07ff 	bic.w	r7, r5, #255	; 0xff
    1314:	f047 0028 	orr.w	r0, r7, #40	; 0x28
    1318:	6008      	str	r0, [r1, #0]
    131a:	6816      	ldr	r6, [r2, #0]
    131c:	f026 01ff 	bic.w	r1, r6, #255	; 0xff
    1320:	6011      	str	r1, [r2, #0]
    1322:	f8c4 8000 	str.w	r8, [r4]
    1326:	9808      	ldr	r0, [sp, #32]
    1328:	f000 fc38 	bl	1b9c <am_hal_interrupt_master_set>
}
    132c:	b00d      	add	sp, #52	; 0x34
    132e:	e8bd 83f0 	ldmia.w	sp!, {r4, r5, r6, r7, r8, r9, pc}
            am_bsp_pin_enable(IOM1_SCK);
    1332:	f000 fc2f 	bl	1b94 <am_hal_interrupt_master_disable>
    1336:	4c53      	ldr	r4, [pc, #332]	; (1484 <am_bsp_iom_spi_pins_enable+0x2c8>)
    1338:	4f5c      	ldr	r7, [pc, #368]	; (14ac <am_bsp_iom_spi_pins_enable+0x2f0>)
    133a:	9003      	str	r0, [sp, #12]
    133c:	f04f 0973 	mov.w	r9, #115	; 0x73
    1340:	f8c4 9000 	str.w	r9, [r4]
    1344:	683a      	ldr	r2, [r7, #0]
    1346:	4e5a      	ldr	r6, [pc, #360]	; (14b0 <am_bsp_iom_spi_pins_enable+0x2f4>)
    1348:	4d5a      	ldr	r5, [pc, #360]	; (14b4 <am_bsp_iom_spi_pins_enable+0x2f8>)
    134a:	f022 0307 	bic.w	r3, r2, #7
    134e:	603b      	str	r3, [r7, #0]
    1350:	6830      	ldr	r0, [r6, #0]
    1352:	f020 01ff 	bic.w	r1, r0, #255	; 0xff
    1356:	f041 020e 	orr.w	r2, r1, #14
    135a:	6032      	str	r2, [r6, #0]
    135c:	682b      	ldr	r3, [r5, #0]
    135e:	f04f 0800 	mov.w	r8, #0
    1362:	f023 00ff 	bic.w	r0, r3, #255	; 0xff
    1366:	6028      	str	r0, [r5, #0]
    1368:	f8c4 8000 	str.w	r8, [r4]
    136c:	9803      	ldr	r0, [sp, #12]
    136e:	f000 fc15 	bl	1b9c <am_hal_interrupt_master_set>
            am_bsp_pin_enable(IOM1_MISO);
    1372:	f000 fc0f 	bl	1b94 <am_hal_interrupt_master_disable>
    1376:	9004      	str	r0, [sp, #16]
    1378:	f8c4 9000 	str.w	r9, [r4]
    137c:	6839      	ldr	r1, [r7, #0]
    137e:	f021 0270 	bic.w	r2, r1, #112	; 0x70
    1382:	603a      	str	r2, [r7, #0]
    1384:	6833      	ldr	r3, [r6, #0]
    1386:	f423 407f 	bic.w	r0, r3, #65280	; 0xff00
    138a:	f440 6120 	orr.w	r1, r0, #2560	; 0xa00
    138e:	6031      	str	r1, [r6, #0]
    1390:	682a      	ldr	r2, [r5, #0]
    1392:	f422 437f 	bic.w	r3, r2, #65280	; 0xff00
    1396:	602b      	str	r3, [r5, #0]
    1398:	f8c4 8000 	str.w	r8, [r4]
    139c:	9804      	ldr	r0, [sp, #16]
    139e:	f000 fbfd 	bl	1b9c <am_hal_interrupt_master_set>
            am_bsp_pin_enable(IOM1_MOSI);
    13a2:	f000 fbf7 	bl	1b94 <am_hal_interrupt_master_disable>
    13a6:	9005      	str	r0, [sp, #20]
    13a8:	f8c4 9000 	str.w	r9, [r4]
    13ac:	6838      	ldr	r0, [r7, #0]
    13ae:	f420 61e0 	bic.w	r1, r0, #1792	; 0x700
    13b2:	6039      	str	r1, [r7, #0]
    13b4:	6837      	ldr	r7, [r6, #0]
    13b6:	f427 027f 	bic.w	r2, r7, #16711680	; 0xff0000
    13ba:	f442 2300 	orr.w	r3, r2, #524288	; 0x80000
    13be:	6033      	str	r3, [r6, #0]
    13c0:	682e      	ldr	r6, [r5, #0]
    13c2:	f426 007f 	bic.w	r0, r6, #16711680	; 0xff0000
    13c6:	6028      	str	r0, [r5, #0]
    13c8:	f8c4 8000 	str.w	r8, [r4]
    13cc:	9805      	ldr	r0, [sp, #20]
    13ce:	f000 fbe5 	bl	1b9c <am_hal_interrupt_master_set>
}
    13d2:	b00d      	add	sp, #52	; 0x34
    13d4:	e8bd 83f0 	ldmia.w	sp!, {r4, r5, r6, r7, r8, r9, pc}
            am_bsp_pin_enable(IOM0_SCK);
    13d8:	f000 fbdc 	bl	1b94 <am_hal_interrupt_master_disable>
    13dc:	4c29      	ldr	r4, [pc, #164]	; (1484 <am_bsp_iom_spi_pins_enable+0x2c8>)
    13de:	4f36      	ldr	r7, [pc, #216]	; (14b8 <am_bsp_iom_spi_pins_enable+0x2fc>)
    13e0:	9000      	str	r0, [sp, #0]
    13e2:	f04f 0973 	mov.w	r9, #115	; 0x73
    13e6:	f8c4 9000 	str.w	r9, [r4]
    13ea:	6839      	ldr	r1, [r7, #0]
    13ec:	4e33      	ldr	r6, [pc, #204]	; (14bc <am_bsp_iom_spi_pins_enable+0x300>)
    13ee:	4d34      	ldr	r5, [pc, #208]	; (14c0 <am_bsp_iom_spi_pins_enable+0x304>)
    13f0:	f421 02e0 	bic.w	r2, r1, #7340032	; 0x700000
    13f4:	f442 1300 	orr.w	r3, r2, #2097152	; 0x200000
    13f8:	603b      	str	r3, [r7, #0]
    13fa:	6830      	ldr	r0, [r6, #0]
    13fc:	f420 417f 	bic.w	r1, r0, #65280	; 0xff00
    1400:	f441 6260 	orr.w	r2, r1, #3584	; 0xe00
    1404:	6032      	str	r2, [r6, #0]
    1406:	682b      	ldr	r3, [r5, #0]
    1408:	f04f 0800 	mov.w	r8, #0
    140c:	f423 407f 	bic.w	r0, r3, #65280	; 0xff00
    1410:	6028      	str	r0, [r5, #0]
    1412:	f8c4 8000 	str.w	r8, [r4]
    1416:	9800      	ldr	r0, [sp, #0]
    1418:	f000 fbc0 	bl	1b9c <am_hal_interrupt_master_set>
            am_bsp_pin_enable(IOM0_MISO);
    141c:	f000 fbba 	bl	1b94 <am_hal_interrupt_master_disable>
    1420:	9001      	str	r0, [sp, #4]
    1422:	f8c4 9000 	str.w	r9, [r4]
    1426:	6839      	ldr	r1, [r7, #0]
    1428:	f021 62e0 	bic.w	r2, r1, #117440512	; 0x7000000
    142c:	603a      	str	r2, [r7, #0]
    142e:	6833      	ldr	r3, [r6, #0]
    1430:	f423 007f 	bic.w	r0, r3, #16711680	; 0xff0000
    1434:	f440 2120 	orr.w	r1, r0, #655360	; 0xa0000
    1438:	6031      	str	r1, [r6, #0]
    143a:	682a      	ldr	r2, [r5, #0]
    143c:	f422 037f 	bic.w	r3, r2, #16711680	; 0xff0000
    1440:	602b      	str	r3, [r5, #0]
    1442:	f8c4 8000 	str.w	r8, [r4]
    1446:	9801      	ldr	r0, [sp, #4]
    1448:	f000 fba8 	bl	1b9c <am_hal_interrupt_master_set>
            am_bsp_pin_enable(IOM0_MOSI);
    144c:	f000 fba2 	bl	1b94 <am_hal_interrupt_master_disable>
    1450:	9002      	str	r0, [sp, #8]
    1452:	f8c4 9000 	str.w	r9, [r4]
    1456:	6838      	ldr	r0, [r7, #0]
    1458:	f020 41e0 	bic.w	r1, r0, #1879048192	; 0x70000000
    145c:	6039      	str	r1, [r7, #0]
    145e:	6837      	ldr	r7, [r6, #0]
    1460:	f027 427f 	bic.w	r2, r7, #4278190080	; 0xff000000
    1464:	f042 6300 	orr.w	r3, r2, #134217728	; 0x8000000
    1468:	6033      	str	r3, [r6, #0]
    146a:	682e      	ldr	r6, [r5, #0]
    146c:	f026 407f 	bic.w	r0, r6, #4278190080	; 0xff000000
    1470:	6028      	str	r0, [r5, #0]
    1472:	f8c4 8000 	str.w	r8, [r4]
    1476:	9802      	ldr	r0, [sp, #8]
    1478:	f000 fb90 	bl	1b9c <am_hal_interrupt_master_set>
}
    147c:	b00d      	add	sp, #52	; 0x34
    147e:	e8bd 83f0 	ldmia.w	sp!, {r4, r5, r6, r7, r8, r9, pc}
    1482:	e7fe      	b.n	1482 <am_bsp_iom_spi_pins_enable+0x2c6>
    1484:	40010060 	.word	0x40010060
    1488:	40010030 	.word	0x40010030
    148c:	40010110 	.word	0x40010110
    1490:	4001002c 	.word	0x4001002c
    1494:	4001010c 	.word	0x4001010c
    1498:	4001004c 	.word	0x4001004c
    149c:	40010018 	.word	0x40010018
    14a0:	400100f8 	.word	0x400100f8
    14a4:	4001001c 	.word	0x4001001c
    14a8:	400100fc 	.word	0x400100fc
    14ac:	40010044 	.word	0x40010044
    14b0:	40010008 	.word	0x40010008
    14b4:	400100e8 	.word	0x400100e8
    14b8:	40010040 	.word	0x40010040
    14bc:	40010004 	.word	0x40010004
    14c0:	400100e4 	.word	0x400100e4
    14c4:	40010058 	.word	0x40010058

000014c8 <am_bsp_low_power_init>:
//! @return None.
//
//*****************************************************************************
void
am_bsp_low_power_init(void)
{
    14c8:	b508      	push	{r3, lr}
    //
    // Enable internal buck converters.
    //
    am_hal_pwrctrl_bucks_enable();
    14ca:	f002 fe59 	bl	4180 <am_hal_pwrctrl_bucks_enable>

    //
    // Initialize for low power in the power control block
    //
    am_hal_pwrctrl_low_power_init();
    14ce:	f002 fea1 	bl	4214 <am_hal_pwrctrl_low_power_init>

    //
    // Turn off the voltage comparator as this is enabled on reset.
    //
    am_hal_vcomp_disable();
    14d2:	f003 fb13 	bl	4afc <am_hal_vcomp_disable>

    //
    // Run the RTC off the LFRC.
    //
    am_hal_rtc_osc_select(AM_HAL_RTC_OSC_LFRC);
    14d6:	2001      	movs	r0, #1
    14d8:	f002 ffd8 	bl	448c <am_hal_rtc_osc_select>

    //
    // Stop the XTAL.
    //
    am_hal_clkgen_osc_stop(AM_HAL_CLKGEN_OSC_XT);
    14dc:	2001      	movs	r0, #1
    14de:	f000 f8c7 	bl	1670 <am_hal_clkgen_osc_stop>

    //
    // Disable the RTC.
    //
    am_hal_rtc_osc_disable();
}
    14e2:	e8bd 4008 	ldmia.w	sp!, {r3, lr}
    am_hal_rtc_osc_disable();
    14e6:	f002 bfdf 	b.w	44a8 <am_hal_rtc_osc_disable>
    14ea:	bf00      	nop

000014ec <am_bsp_uart_string_print>:
//
//*****************************************************************************
void
am_bsp_uart_string_print(char *pcString)
{
    am_hal_uart_string_transmit_polled(AM_BSP_UART_PRINT_INST, pcString);
    14ec:	4601      	mov	r1, r0
    14ee:	2000      	movs	r0, #0
    14f0:	f003 b92a 	b.w	4748 <am_hal_uart_string_transmit_polled>

000014f4 <am_hal_cachectrl_enable>:
//! @return None.
//
//*****************************************************************************
void
am_hal_cachectrl_enable(const am_hal_cachectrl_config_t *psConfig)
{
    14f4:	b5f8      	push	{r3, r4, r5, r6, r7, lr}
    14f6:	4605      	mov	r5, r0
                       AM_REG_CACHECTRL_CACHECFG_ENABLE_MONITOR(psConfig->ui32EnableCacheMonitoring) );

    //
    // Make sure the cache is enabled in the power control block.
    //
    am_hal_pwrctrl_memory_enable(AM_HAL_PWRCTRL_MEMEN_CACHE);
    14f8:	f04f 4020 	mov.w	r0, #2684354560	; 0xa0000000
                       AM_REG_CACHECTRL_CACHECFG_ENABLE_NC0( (psConfig->ui32EnableNCregions & 0x1) >> 0 )   |
    14fc:	78ab      	ldrb	r3, [r5, #2]
                       AM_REG_CACHECTRL_CACHECFG_LRU( psConfig->ui32LRU )                                   |
    14fe:	786c      	ldrb	r4, [r5, #1]
    ui32ConfigValue = (AM_REG_CACHECTRL_CACHECFG_ENABLE( 1 )                                                |
    1500:	78ef      	ldrb	r7, [r5, #3]
                       AM_REG_CACHECTRL_CACHECFG_SERIAL(psConfig->ui32SerialCacheMode)                      |
    1502:	792e      	ldrb	r6, [r5, #4]
                       AM_REG_CACHECTRL_CACHECFG_CACHE_CLKGATE( psConfig->ui32EnableCacheClockGating )      |
    1504:	79a9      	ldrb	r1, [r5, #6]
                       AM_REG_CACHECTRL_CACHECFG_ENABLE_NC0( (psConfig->ui32EnableNCregions & 0x1) >> 0 )   |
    1506:	009a      	lsls	r2, r3, #2
                       AM_REG_CACHECTRL_CACHECFG_LRU( psConfig->ui32LRU )                                   |
    1508:	0064      	lsls	r4, r4, #1
                       AM_REG_CACHECTRL_CACHECFG_ENABLE_NC0( (psConfig->ui32EnableNCregions & 0x1) >> 0 )   |
    150a:	f002 0204 	and.w	r2, r2, #4
                       AM_REG_CACHECTRL_CACHECFG_LRU( psConfig->ui32LRU )                                   |
    150e:	f004 0402 	and.w	r4, r4, #2
    ui32ConfigValue = (AM_REG_CACHECTRL_CACHECFG_ENABLE( 1 )                                                |
    1512:	4314      	orrs	r4, r2
    1514:	f047 0701 	orr.w	r7, r7, #1
                       AM_REG_CACHECTRL_CACHECFG_CACHE_LS(psConfig->ui32EnableLightSleep )                  |
    1518:	79ea      	ldrb	r2, [r5, #7]
                       AM_REG_CACHECTRL_CACHECFG_SERIAL(psConfig->ui32SerialCacheMode)                      |
    151a:	01f6      	lsls	r6, r6, #7
    ui32ConfigValue = (AM_REG_CACHECTRL_CACHECFG_ENABLE( 1 )                                                |
    151c:	433c      	orrs	r4, r7
                       AM_REG_CACHECTRL_CACHECFG_SERIAL(psConfig->ui32SerialCacheMode)                      |
    151e:	b2f6      	uxtb	r6, r6
                       AM_REG_CACHECTRL_CACHECFG_DLY( psConfig->ui32Dly )                                   |
    1520:	7a2f      	ldrb	r7, [r5, #8]
                       AM_REG_CACHECTRL_CACHECFG_CACHE_CLKGATE( psConfig->ui32EnableCacheClockGating )      |
    1522:	0289      	lsls	r1, r1, #10
    ui32ConfigValue = (AM_REG_CACHECTRL_CACHECFG_ENABLE( 1 )                                                |
    1524:	4334      	orrs	r4, r6
                       AM_REG_CACHECTRL_CACHECFG_CACHE_CLKGATE( psConfig->ui32EnableCacheClockGating )      |
    1526:	f401 6180 	and.w	r1, r1, #1024	; 0x400
                       AM_REG_CACHECTRL_CACHECFG_SMDLY( psConfig->ui32SMDly )                               |
    152a:	7a6e      	ldrb	r6, [r5, #9]
                       AM_REG_CACHECTRL_CACHECFG_CACHE_LS(psConfig->ui32EnableLightSleep )                  |
    152c:	02d2      	lsls	r2, r2, #11
    ui32ConfigValue = (AM_REG_CACHECTRL_CACHECFG_ENABLE( 1 )                                                |
    152e:	430c      	orrs	r4, r1
                       AM_REG_CACHECTRL_CACHECFG_CACHE_LS(psConfig->ui32EnableLightSleep )                  |
    1530:	f402 6200 	and.w	r2, r2, #2048	; 0x800
                       AM_REG_CACHECTRL_CACHECFG_DATA_CLKGATE(psConfig->ui32EnableDataClockGating)          |
    1534:	7aa9      	ldrb	r1, [r5, #10]
                       AM_REG_CACHECTRL_CACHECFG_DLY( psConfig->ui32Dly )                                   |
    1536:	033f      	lsls	r7, r7, #12
    ui32ConfigValue = (AM_REG_CACHECTRL_CACHECFG_ENABLE( 1 )                                                |
    1538:	4314      	orrs	r4, r2
                       AM_REG_CACHECTRL_CACHECFG_DLY( psConfig->ui32Dly )                                   |
    153a:	b2bf      	uxth	r7, r7
                       AM_REG_CACHECTRL_CACHECFG_SMDLY( psConfig->ui32SMDly )                               |
    153c:	0436      	lsls	r6, r6, #16
                       AM_REG_CACHECTRL_CACHECFG_ENABLE_MONITOR(psConfig->ui32EnableCacheMonitoring) );
    153e:	7aea      	ldrb	r2, [r5, #11]
    ui32ConfigValue = (AM_REG_CACHECTRL_CACHECFG_ENABLE( 1 )                                                |
    1540:	433c      	orrs	r4, r7
                       AM_REG_CACHECTRL_CACHECFG_DATA_CLKGATE(psConfig->ui32EnableDataClockGating)          |
    1542:	0509      	lsls	r1, r1, #20
                       AM_REG_CACHECTRL_CACHECFG_SMDLY( psConfig->ui32SMDly )                               |
    1544:	f406 2770 	and.w	r7, r6, #983040	; 0xf0000
                       AM_REG_CACHECTRL_CACHECFG_ENABLE_MONITOR(psConfig->ui32EnableCacheMonitoring) );
    1548:	0612      	lsls	r2, r2, #24
    ui32ConfigValue = (AM_REG_CACHECTRL_CACHECFG_ENABLE( 1 )                                                |
    154a:	433c      	orrs	r4, r7
                       AM_REG_CACHECTRL_CACHECFG_DATA_CLKGATE(psConfig->ui32EnableDataClockGating)          |
    154c:	f401 1680 	and.w	r6, r1, #1048576	; 0x100000
                       AM_REG_CACHECTRL_CACHECFG_ENABLE_NC1( (psConfig->ui32EnableNCregions & 0x2) >> 1 )   |
    1550:	009b      	lsls	r3, r3, #2
                       AM_REG_CACHECTRL_CACHECFG_ENABLE_MONITOR(psConfig->ui32EnableCacheMonitoring) );
    1552:	f002 7780 	and.w	r7, r2, #16777216	; 0x1000000
    ui32ConfigValue = (AM_REG_CACHECTRL_CACHECFG_ENABLE( 1 )                                                |
    1556:	4334      	orrs	r4, r6
                       AM_REG_CACHECTRL_CACHECFG_ENABLE_NC1( (psConfig->ui32EnableNCregions & 0x2) >> 1 )   |
    1558:	f003 0108 	and.w	r1, r3, #8
    ui32ConfigValue = (AM_REG_CACHECTRL_CACHECFG_ENABLE( 1 )                                                |
    155c:	433c      	orrs	r4, r7
    155e:	430c      	orrs	r4, r1
    am_hal_pwrctrl_memory_enable(AM_HAL_PWRCTRL_MEMEN_CACHE);
    1560:	f002 fd08 	bl	3f74 <am_hal_pwrctrl_memory_enable>

    //
    // Set the initial cache settings.
    //
    AM_REG(CACHECTRL, CACHECFG) = ui32ConfigValue;
    1564:	482c      	ldr	r0, [pc, #176]	; (1618 <am_hal_cachectrl_enable+0x124>)
    //
    // Wait for the cache ready signal.
    //
    for (ui32Timeout = 0; ui32Timeout < 50; ui32Timeout++)
    {
        if (AM_BFM(CACHECTRL, CACHECTRL, CACHE_READY))
    1566:	4b2d      	ldr	r3, [pc, #180]	; (161c <am_hal_cachectrl_enable+0x128>)
    AM_REG(CACHECTRL, CACHECFG) = ui32ConfigValue;
    1568:	6004      	str	r4, [r0, #0]
    156a:	2232      	movs	r2, #50	; 0x32
        if (AM_BFM(CACHECTRL, CACHECTRL, CACHE_READY))
    156c:	681e      	ldr	r6, [r3, #0]
    156e:	0777      	lsls	r7, r6, #29
    1570:	d41e      	bmi.n	15b0 <am_hal_cachectrl_enable+0xbc>
    1572:	681f      	ldr	r7, [r3, #0]
    1574:	077e      	lsls	r6, r7, #29
    1576:	f102 32ff 	add.w	r2, r2, #4294967295
    157a:	d419      	bmi.n	15b0 <am_hal_cachectrl_enable+0xbc>
    157c:	6819      	ldr	r1, [r3, #0]
    157e:	074f      	lsls	r7, r1, #29
    1580:	d416      	bmi.n	15b0 <am_hal_cachectrl_enable+0xbc>
    1582:	6818      	ldr	r0, [r3, #0]
    1584:	0746      	lsls	r6, r0, #29
    1586:	d413      	bmi.n	15b0 <am_hal_cachectrl_enable+0xbc>
    1588:	681e      	ldr	r6, [r3, #0]
    158a:	0770      	lsls	r0, r6, #29
    158c:	d410      	bmi.n	15b0 <am_hal_cachectrl_enable+0xbc>
    158e:	681f      	ldr	r7, [r3, #0]
    1590:	0779      	lsls	r1, r7, #29
    1592:	d40d      	bmi.n	15b0 <am_hal_cachectrl_enable+0xbc>
    1594:	6819      	ldr	r1, [r3, #0]
    1596:	074f      	lsls	r7, r1, #29
    1598:	d40a      	bmi.n	15b0 <am_hal_cachectrl_enable+0xbc>
    159a:	6818      	ldr	r0, [r3, #0]
    159c:	0746      	lsls	r6, r0, #29
    159e:	d407      	bmi.n	15b0 <am_hal_cachectrl_enable+0xbc>
    15a0:	681e      	ldr	r6, [r3, #0]
    15a2:	0770      	lsls	r0, r6, #29
    15a4:	d404      	bmi.n	15b0 <am_hal_cachectrl_enable+0xbc>
    15a6:	681f      	ldr	r7, [r3, #0]
    15a8:	0779      	lsls	r1, r7, #29
    15aa:	d401      	bmi.n	15b0 <am_hal_cachectrl_enable+0xbc>
    for (ui32Timeout = 0; ui32Timeout < 50; ui32Timeout++)
    15ac:	3a09      	subs	r2, #9
    15ae:	d1dd      	bne.n	156c <am_hal_cachectrl_enable+0x78>
    }

    //
    // Manually invalidate the cache (workaround for the issue described above.)
    //
    AM_BFW(CACHECTRL, CACHECTRL, INVALIDATE, 1);
    15b0:	4b1a      	ldr	r3, [pc, #104]	; (161c <am_hal_cachectrl_enable+0x128>)
    15b2:	681a      	ldr	r2, [r3, #0]
    15b4:	f042 0101 	orr.w	r1, r2, #1
    15b8:	6019      	str	r1, [r3, #0]
    15ba:	2232      	movs	r2, #50	; 0x32
    //
    // Wait for the cache ready signal again.
    //
    for (ui32Timeout = 0; ui32Timeout < 50; ui32Timeout++)
    {
        if (AM_BFM(CACHECTRL, CACHECTRL, CACHE_READY))
    15bc:	6818      	ldr	r0, [r3, #0]
    15be:	0740      	lsls	r0, r0, #29
    15c0:	d41e      	bmi.n	1600 <am_hal_cachectrl_enable+0x10c>
    15c2:	681e      	ldr	r6, [r3, #0]
    15c4:	0771      	lsls	r1, r6, #29
    15c6:	f102 32ff 	add.w	r2, r2, #4294967295
    15ca:	d419      	bmi.n	1600 <am_hal_cachectrl_enable+0x10c>
    15cc:	681f      	ldr	r7, [r3, #0]
    15ce:	077f      	lsls	r7, r7, #29
    15d0:	d416      	bmi.n	1600 <am_hal_cachectrl_enable+0x10c>
    15d2:	6819      	ldr	r1, [r3, #0]
    15d4:	074e      	lsls	r6, r1, #29
    15d6:	d413      	bmi.n	1600 <am_hal_cachectrl_enable+0x10c>
    15d8:	6818      	ldr	r0, [r3, #0]
    15da:	0740      	lsls	r0, r0, #29
    15dc:	d410      	bmi.n	1600 <am_hal_cachectrl_enable+0x10c>
    15de:	681e      	ldr	r6, [r3, #0]
    15e0:	0771      	lsls	r1, r6, #29
    15e2:	d40d      	bmi.n	1600 <am_hal_cachectrl_enable+0x10c>
    15e4:	681f      	ldr	r7, [r3, #0]
    15e6:	077f      	lsls	r7, r7, #29
    15e8:	d40a      	bmi.n	1600 <am_hal_cachectrl_enable+0x10c>
    15ea:	6819      	ldr	r1, [r3, #0]
    15ec:	074e      	lsls	r6, r1, #29
    15ee:	d407      	bmi.n	1600 <am_hal_cachectrl_enable+0x10c>
    15f0:	6818      	ldr	r0, [r3, #0]
    15f2:	0740      	lsls	r0, r0, #29
    15f4:	d404      	bmi.n	1600 <am_hal_cachectrl_enable+0x10c>
    15f6:	681e      	ldr	r6, [r3, #0]
    15f8:	0771      	lsls	r1, r6, #29
    15fa:	d401      	bmi.n	1600 <am_hal_cachectrl_enable+0x10c>
    for (ui32Timeout = 0; ui32Timeout < 50; ui32Timeout++)
    15fc:	3a09      	subs	r2, #9
    15fe:	d1dd      	bne.n	15bc <am_hal_cachectrl_enable+0xc8>

    //
    // Now that the cache is running, and correctly marked invalid, we can OR in
    // the ICACHE and DCACHE settings.
    //
    ui32ConfigValue |= (AM_REG_CACHECTRL_CACHECFG_ICACHE_ENABLE( (psConfig->ui32FlashCachingEnables & 0x1) >> 0 )   |
    1600:	796d      	ldrb	r5, [r5, #5]
                        AM_REG_CACHECTRL_CACHECFG_DCACHE_ENABLE( (psConfig->ui32FlashCachingEnables & 0x2) >> 1 ) );

    //
    // Write the final configuration settings to the CACHECTRL register.
    //
    AM_REG(CACHECTRL, CACHECFG) = ui32ConfigValue;
    1602:	4f05      	ldr	r7, [pc, #20]	; (1618 <am_hal_cachectrl_enable+0x124>)
                        AM_REG_CACHECTRL_CACHECFG_DCACHE_ENABLE( (psConfig->ui32FlashCachingEnables & 0x2) >> 1 ) );
    1604:	022b      	lsls	r3, r5, #8
    1606:	f403 7100 	and.w	r1, r3, #512	; 0x200
    ui32ConfigValue |= (AM_REG_CACHECTRL_CACHECFG_ICACHE_ENABLE( (psConfig->ui32FlashCachingEnables & 0x1) >> 0 )   |
    160a:	f403 7280 	and.w	r2, r3, #256	; 0x100
    160e:	4311      	orrs	r1, r2
    1610:	430c      	orrs	r4, r1
    AM_REG(CACHECTRL, CACHECFG) = ui32ConfigValue;
    1612:	603c      	str	r4, [r7, #0]
    1614:	bdf8      	pop	{r3, r4, r5, r6, r7, pc}
    1616:	bf00      	nop
    1618:	40018000 	.word	0x40018000
    161c:	40018008 	.word	0x40018008

00001620 <am_hal_clkgen_sysclk_select>:
//! @return None.
//
//*****************************************************************************
void
am_hal_clkgen_sysclk_select(uint32_t ui32ClockSetting)
{
    1620:	b510      	push	{r4, lr}
    am_hal_debug_assert_msg(ui32ClockSetting == AM_HAL_CLKGEN_SYSCLK_48MHZ,
    1622:	4604      	mov	r4, r0
    1624:	b120      	cbz	r0, 1630 <am_hal_clkgen_sysclk_select+0x10>
    1626:	4a06      	ldr	r2, [pc, #24]	; (1640 <am_hal_clkgen_sysclk_select+0x20>)
    1628:	4806      	ldr	r0, [pc, #24]	; (1644 <am_hal_clkgen_sysclk_select+0x24>)
    162a:	2153      	movs	r1, #83	; 0x53
    162c:	f000 f980 	bl	1930 <am_hal_debug_error>
        "am_hal_clkgen_sysclk_select(): invalid clock setting.");

    //
    // Unlock the clock control register.
    //
    AM_REG(CLKGEN, CLKKEY) = AM_REG_CLKGEN_CLKKEY_KEYVAL;
    1630:	4b05      	ldr	r3, [pc, #20]	; (1648 <am_hal_clkgen_sysclk_select+0x28>)

    //
    // Set the HFRC divisor to the required operating value.
    //
    AM_REG(CLKGEN, CCTRL) = ui32ClockSetting;
    1632:	4906      	ldr	r1, [pc, #24]	; (164c <am_hal_clkgen_sysclk_select+0x2c>)
    AM_REG(CLKGEN, CLKKEY) = AM_REG_CLKGEN_CLKKEY_KEYVAL;
    1634:	2047      	movs	r0, #71	; 0x47

    //
    // Lock the clock configuration registers.
    //
    AM_REG(CLKGEN, CLKKEY) = 0;
    1636:	2200      	movs	r2, #0
    AM_REG(CLKGEN, CLKKEY) = AM_REG_CLKGEN_CLKKEY_KEYVAL;
    1638:	6018      	str	r0, [r3, #0]
    AM_REG(CLKGEN, CCTRL) = ui32ClockSetting;
    163a:	600c      	str	r4, [r1, #0]
    AM_REG(CLKGEN, CLKKEY) = 0;
    163c:	601a      	str	r2, [r3, #0]
    163e:	bd10      	pop	{r4, pc}
    1640:	00004b48 	.word	0x00004b48
    1644:	00004b80 	.word	0x00004b80
    1648:	40004014 	.word	0x40004014
    164c:	40004018 	.word	0x40004018

00001650 <am_hal_clkgen_sysclk_get>:
    uint32_t ui32ClockSetting;

    //
    // Read the value of the clock divider.
    //
    ui32ClockSetting = AM_REG(CLKGEN, CCTRL) & AM_REG_CLKGEN_CCTRL_CORESEL_M;
    1650:	4b04      	ldr	r3, [pc, #16]	; (1664 <am_hal_clkgen_sysclk_get+0x14>)

    switch ( ui32ClockSetting )
    {
        case AM_REG_CLKGEN_CCTRL_CORESEL_HFRC:
            return 48000000;
    1652:	4905      	ldr	r1, [pc, #20]	; (1668 <am_hal_clkgen_sysclk_get+0x18>)
    ui32ClockSetting = AM_REG(CLKGEN, CCTRL) & AM_REG_CLKGEN_CCTRL_CORESEL_M;
    1654:	681a      	ldr	r2, [r3, #0]
            return 48000000;
    1656:	4805      	ldr	r0, [pc, #20]	; (166c <am_hal_clkgen_sysclk_get+0x1c>)
    switch ( ui32ClockSetting )
    1658:	f012 0f01 	tst.w	r2, #1
        case AM_REG_CLKGEN_CCTRL_CORESEL_HFRC_DIV2:
            return 24000000;
        default:
            return 0xFFFFFFFF;
    }
}
    165c:	bf08      	it	eq
    165e:	4608      	moveq	r0, r1
    1660:	4770      	bx	lr
    1662:	bf00      	nop
    1664:	40004018 	.word	0x40004018
    1668:	02dc6c00 	.word	0x02dc6c00
    166c:	016e3600 	.word	0x016e3600

00001670 <am_hal_clkgen_osc_stop>:
//
//*****************************************************************************
void
am_hal_clkgen_osc_stop(uint32_t ui32OscFlags)
{
    if ( ui32OscFlags & (AM_HAL_CLKGEN_OSC_LFRC | AM_HAL_CLKGEN_OSC_XT) )
    1670:	0783      	lsls	r3, r0, #30
    1672:	d003      	beq.n	167c <am_hal_clkgen_osc_stop+0xc>
    {
        //
        // Stop the oscillator(s).
        // Note that these bits are set in order to stop the oscillator.
        //
        AM_REG(CLKGEN, OCTRL) |= ui32OscFlags;
    1674:	4b02      	ldr	r3, [pc, #8]	; (1680 <am_hal_clkgen_osc_stop+0x10>)
    1676:	681a      	ldr	r2, [r3, #0]
    1678:	4310      	orrs	r0, r2
    167a:	6018      	str	r0, [r3, #0]
    167c:	4770      	bx	lr
    167e:	bf00      	nop
    1680:	4000400c 	.word	0x4000400c

00001684 <am_hal_clkgen_uarten_set>:
void
am_hal_clkgen_uarten_set(uint32_t ui32Module, uint32_t ui32UartEn)
{
    uint32_t ui32Mask;

    if ( (ui32Module >= AM_REG_UART_NUM_MODULES)        ||
    1684:	2801      	cmp	r0, #1
    1686:	d900      	bls.n	168a <am_hal_clkgen_uarten_set+0x6>
    1688:	4770      	bx	lr
    168a:	2903      	cmp	r1, #3
    168c:	d8fc      	bhi.n	1688 <am_hal_clkgen_uarten_set+0x4>
{
    168e:	b530      	push	{r4, r5, lr}
         (ui32UartEn > AM_HAL_CLKGEN_UARTEN_EN_POWER_SAV) )
    {
        return;
    }

    ui32UartEn <<= (ui32Module * AM_HAL_CLKGEN_UARTEN_UARTENn_S(ui32Module));
    1690:	fb00 f500 	mul.w	r5, r0, r0
{
    1694:	b083      	sub	sp, #12
    1696:	4604      	mov	r4, r0
    ui32UartEn <<= (ui32Module * AM_HAL_CLKGEN_UARTEN_UARTENn_S(ui32Module));
    1698:	00e8      	lsls	r0, r5, #3
    169a:	fa01 f500 	lsl.w	r5, r1, r0
    ui32Mask = ~(AM_HAL_CLKGEN_UARTEN_UARTENn_M(ui32Module));

    //
    // Begin critical section.
    //
    AM_CRITICAL_BEGIN_ASM
    169e:	f000 fa79 	bl	1b94 <am_hal_interrupt_master_disable>

    //
    // Set the UART clock
    //
    AM_REG(CLKGEN, UARTEN) &= ui32Mask;
    16a2:	4b09      	ldr	r3, [pc, #36]	; (16c8 <am_hal_clkgen_uarten_set+0x44>)
    AM_CRITICAL_BEGIN_ASM
    16a4:	9001      	str	r0, [sp, #4]
    AM_REG(CLKGEN, UARTEN) &= ui32Mask;
    16a6:	681a      	ldr	r2, [r3, #0]
    ui32Mask = ~(AM_HAL_CLKGEN_UARTEN_UARTENn_M(ui32Module));
    16a8:	f04f 0c03 	mov.w	ip, #3
    16ac:	00e1      	lsls	r1, r4, #3
    16ae:	fa0c f401 	lsl.w	r4, ip, r1
    AM_REG(CLKGEN, UARTEN) &= ui32Mask;
    16b2:	ea22 0004 	bic.w	r0, r2, r4
    16b6:	6018      	str	r0, [r3, #0]
    AM_REG(CLKGEN, UARTEN) |= ui32UartEn;
    16b8:	6819      	ldr	r1, [r3, #0]
    16ba:	430d      	orrs	r5, r1
    16bc:	601d      	str	r5, [r3, #0]

    //
    // Begin critical section.
    //
    AM_CRITICAL_END_ASM
    16be:	9801      	ldr	r0, [sp, #4]
    16c0:	f000 fa6c 	bl	1b9c <am_hal_interrupt_master_set>
}
    16c4:	b003      	add	sp, #12
    16c6:	bd30      	pop	{r4, r5, pc}
    16c8:	40004034 	.word	0x40004034

000016cc <am_hal_ctimer_config_single>:
//*****************************************************************************
void
am_hal_ctimer_config_single(uint32_t ui32TimerNumber,
                            uint32_t ui32TimerSegment,
                            uint32_t ui32ConfigVal)
{
    16cc:	b5f0      	push	{r4, r5, r6, r7, lr}
    16ce:	b083      	sub	sp, #12
    16d0:	460d      	mov	r5, r1
    16d2:	4614      	mov	r4, r2

    //
    // Find the correct register to write based on the timer number.
    //
    pui32ConfigReg = (uint32_t *)(AM_REG_CTIMERn(0) + AM_REG_CTIMER_CTRL0_O +
                                  (ui32TimerNumber * TIMER_OFFSET));
    16d4:	0107      	lsls	r7, r0, #4

    //
    // Begin critical section while config registers are read and modified.
    //
    AM_CRITICAL_BEGIN_ASM
    16d6:	f000 fa5d 	bl	1b94 <am_hal_interrupt_master_disable>
    pui32ConfigReg = (uint32_t *)(AM_REG_CTIMERn(0) + AM_REG_CTIMER_CTRL0_O +
    16da:	4e33      	ldr	r6, [pc, #204]	; (17a8 <am_hal_ctimer_config_single+0xdc>)
    AM_CRITICAL_BEGIN_ASM
    16dc:	9001      	str	r0, [sp, #4]
    //
    // If we're working with TIMERB, we need to shift our configuration value
    // up by 16 bits.
    //

    if ( ui32TimerSegment == AM_HAL_CTIMER_TIMERB )
    16de:	f515 3f80 	cmn.w	r5, #65536	; 0x10000
    ui32WriteVal = AM_REGVAL(pui32ConfigReg);
    16e2:	59ba      	ldr	r2, [r7, r6]
    if ( ui32TimerSegment == AM_HAL_CTIMER_TIMERB )
    16e4:	d05b      	beq.n	179e <am_hal_ctimer_config_single+0xd2>

    //
    // Replace part of the saved register value with the configuration value
    // from the caller.
    //
    ui32WriteVal = (ui32WriteVal & ~(ui32TimerSegment)) | ui32ConfigVal;
    16e6:	ea22 0005 	bic.w	r0, r2, r5
    16ea:	4320      	orrs	r0, r4

    //
    // If we're configuring both timers, we need to set the "link" bit.
    //
    if ( ui32TimerSegment == AM_HAL_CTIMER_BOTH )
    16ec:	3501      	adds	r5, #1
    {
        ui32WriteVal |= AM_HAL_CTIMER_LINK;
    16ee:	bf08      	it	eq
    16f0:	f040 4000 	orreq.w	r0, r0, #2147483648	; 0x80000000
    }

    //
    // Write our completed configuration value.
    //
    AM_REGVAL(pui32ConfigReg) = ui32WriteVal;
    16f4:	51b8      	str	r0, [r7, r6]
    ui32TimerASrc = AM_BFR(CTIMER, STCFG, CLKSEL);
    16f6:	4b2d      	ldr	r3, [pc, #180]	; (17ac <am_hal_ctimer_config_single+0xe0>)
    16f8:	681d      	ldr	r5, [r3, #0]
    16fa:	f005 0c0f 	and.w	ip, r5, #15
    if ( (ui32TimerASrc == AM_REG_CTIMER_STCFG_CLKSEL_HFRC_DIV16)   ||
    16fe:	f10c 34ff 	add.w	r4, ip, #4294967295
    1702:	2c01      	cmp	r4, #1
    1704:	d941      	bls.n	178a <am_hal_ctimer_config_single+0xbe>
    ui32TimerASrc = AM_BFX(CTIMER, CTRL0, TMRA0CLK, *pui32ConfigReg) -
    1706:	4f28      	ldr	r7, [pc, #160]	; (17a8 <am_hal_ctimer_config_single+0xdc>)
    1708:	683e      	ldr	r6, [r7, #0]
    170a:	f3c6 0e44 	ubfx	lr, r6, #1, #5
    170e:	f10e 32ff 	add.w	r2, lr, #4294967295
    ui32TimerBSrc = AM_BFX(CTIMER, CTRL0, TMRB0CLK, *pui32ConfigReg) -
    1712:	f3c6 4044 	ubfx	r0, r6, #17, #5
    if ( (ui32TimerASrc <= (AM_ENUMX(CTIMER, CTRL0, TMRA0CLK, HFRC_DIV4K) -
    1716:	2a04      	cmp	r2, #4
    ui32TimerBSrc = AM_BFX(CTIMER, CTRL0, TMRB0CLK, *pui32ConfigReg) -
    1718:	f100 31ff 	add.w	r1, r0, #4294967295
    if ( (ui32TimerASrc <= (AM_ENUMX(CTIMER, CTRL0, TMRA0CLK, HFRC_DIV4K) -
    171c:	d935      	bls.n	178a <am_hal_ctimer_config_single+0xbe>
                            AM_ENUMX(CTIMER, CTRL0, TMRA0CLK, HFRC_DIV4)))  ||
    171e:	2904      	cmp	r1, #4
    1720:	d933      	bls.n	178a <am_hal_ctimer_config_single+0xbe>
    ui32TimerASrc = AM_BFX(CTIMER, CTRL0, TMRA0CLK, *pui32ConfigReg) -
    1722:	4b23      	ldr	r3, [pc, #140]	; (17b0 <am_hal_ctimer_config_single+0xe4>)
    1724:	681d      	ldr	r5, [r3, #0]
    1726:	f3c5 0c44 	ubfx	ip, r5, #1, #5
    172a:	f10c 34ff 	add.w	r4, ip, #4294967295
    ui32TimerBSrc = AM_BFX(CTIMER, CTRL0, TMRB0CLK, *pui32ConfigReg) -
    172e:	f3c5 4744 	ubfx	r7, r5, #17, #5
    if ( (ui32TimerASrc <= (AM_ENUMX(CTIMER, CTRL0, TMRA0CLK, HFRC_DIV4K) -
    1732:	2c04      	cmp	r4, #4
    ui32TimerBSrc = AM_BFX(CTIMER, CTRL0, TMRB0CLK, *pui32ConfigReg) -
    1734:	f107 36ff 	add.w	r6, r7, #4294967295
    if ( (ui32TimerASrc <= (AM_ENUMX(CTIMER, CTRL0, TMRA0CLK, HFRC_DIV4K) -
    1738:	d927      	bls.n	178a <am_hal_ctimer_config_single+0xbe>
                            AM_ENUMX(CTIMER, CTRL0, TMRA0CLK, HFRC_DIV4)))  ||
    173a:	2e04      	cmp	r6, #4
    173c:	d925      	bls.n	178a <am_hal_ctimer_config_single+0xbe>
    ui32TimerASrc = AM_BFX(CTIMER, CTRL0, TMRA0CLK, *pui32ConfigReg) -
    173e:	4a1d      	ldr	r2, [pc, #116]	; (17b4 <am_hal_ctimer_config_single+0xe8>)
    1740:	6810      	ldr	r0, [r2, #0]
    1742:	f3c0 0e44 	ubfx	lr, r0, #1, #5
    1746:	f10e 31ff 	add.w	r1, lr, #4294967295
    ui32TimerBSrc = AM_BFX(CTIMER, CTRL0, TMRB0CLK, *pui32ConfigReg) -
    174a:	f3c0 4344 	ubfx	r3, r0, #17, #5
    if ( (ui32TimerASrc <= (AM_ENUMX(CTIMER, CTRL0, TMRA0CLK, HFRC_DIV4K) -
    174e:	2904      	cmp	r1, #4
    ui32TimerBSrc = AM_BFX(CTIMER, CTRL0, TMRB0CLK, *pui32ConfigReg) -
    1750:	f103 35ff 	add.w	r5, r3, #4294967295
    if ( (ui32TimerASrc <= (AM_ENUMX(CTIMER, CTRL0, TMRA0CLK, HFRC_DIV4K) -
    1754:	d919      	bls.n	178a <am_hal_ctimer_config_single+0xbe>
                            AM_ENUMX(CTIMER, CTRL0, TMRA0CLK, HFRC_DIV4)))  ||
    1756:	2d04      	cmp	r5, #4
    1758:	d917      	bls.n	178a <am_hal_ctimer_config_single+0xbe>
    ui32TimerASrc = AM_BFX(CTIMER, CTRL0, TMRA0CLK, *pui32ConfigReg) -
    175a:	4c17      	ldr	r4, [pc, #92]	; (17b8 <am_hal_ctimer_config_single+0xec>)
    175c:	6827      	ldr	r7, [r4, #0]
    175e:	f3c7 0c44 	ubfx	ip, r7, #1, #5
    1762:	f10c 36ff 	add.w	r6, ip, #4294967295
    ui32TimerBSrc = AM_BFX(CTIMER, CTRL0, TMRB0CLK, *pui32ConfigReg) -
    1766:	f3c7 4244 	ubfx	r2, r7, #17, #5
    if ( (ui32TimerASrc <= (AM_ENUMX(CTIMER, CTRL0, TMRA0CLK, HFRC_DIV4K) -
    176a:	2e04      	cmp	r6, #4
    ui32TimerBSrc = AM_BFX(CTIMER, CTRL0, TMRB0CLK, *pui32ConfigReg) -
    176c:	f102 30ff 	add.w	r0, r2, #4294967295
    if ( (ui32TimerASrc <= (AM_ENUMX(CTIMER, CTRL0, TMRA0CLK, HFRC_DIV4K) -
    1770:	d90b      	bls.n	178a <am_hal_ctimer_config_single+0xbe>
                            AM_ENUMX(CTIMER, CTRL0, TMRA0CLK, HFRC_DIV4)))  ||
    1772:	2804      	cmp	r0, #4
    1774:	d909      	bls.n	178a <am_hal_ctimer_config_single+0xbe>
    {
        AM_BFW(PWRCTRL, MISCOPT, DIS_LDOLPMODE_TIMERS, 0);
    }
    else
    {
        AM_BFW(PWRCTRL, MISCOPT, DIS_LDOLPMODE_TIMERS, 1);
    1776:	4911      	ldr	r1, [pc, #68]	; (17bc <am_hal_ctimer_config_single+0xf0>)
    1778:	680b      	ldr	r3, [r1, #0]
    177a:	f043 0504 	orr.w	r5, r3, #4
    177e:	600d      	str	r5, [r1, #0]
    }

    //
    // Done with critical section.
    //
    AM_CRITICAL_END_ASM
    1780:	9801      	ldr	r0, [sp, #4]
    1782:	f000 fa0b 	bl	1b9c <am_hal_interrupt_master_set>

} // am_hal_ctimer_config_single()
    1786:	b003      	add	sp, #12
    1788:	bdf0      	pop	{r4, r5, r6, r7, pc}
        AM_BFW(PWRCTRL, MISCOPT, DIS_LDOLPMODE_TIMERS, 0);
    178a:	4c0c      	ldr	r4, [pc, #48]	; (17bc <am_hal_ctimer_config_single+0xf0>)
    178c:	6827      	ldr	r7, [r4, #0]
    178e:	f027 0604 	bic.w	r6, r7, #4
    1792:	6026      	str	r6, [r4, #0]
    AM_CRITICAL_END_ASM
    1794:	9801      	ldr	r0, [sp, #4]
    1796:	f000 fa01 	bl	1b9c <am_hal_interrupt_master_set>
} // am_hal_ctimer_config_single()
    179a:	b003      	add	sp, #12
    179c:	bdf0      	pop	{r4, r5, r6, r7, pc}
    ui32WriteVal = (ui32WriteVal & ~(ui32TimerSegment)) | ui32ConfigVal;
    179e:	b291      	uxth	r1, r2
    17a0:	ea41 4004 	orr.w	r0, r1, r4, lsl #16
    17a4:	e7a6      	b.n	16f4 <am_hal_ctimer_config_single+0x28>
    17a6:	bf00      	nop
    17a8:	4000800c 	.word	0x4000800c
    17ac:	40008100 	.word	0x40008100
    17b0:	4000801c 	.word	0x4000801c
    17b4:	4000802c 	.word	0x4000802c
    17b8:	4000803c 	.word	0x4000803c
    17bc:	40021020 	.word	0x40021020

000017c0 <am_hal_ctimer_start>:
//! @return None.
//
//*****************************************************************************
void
am_hal_ctimer_start(uint32_t ui32TimerNumber, uint32_t ui32TimerSegment)
{
    17c0:	b570      	push	{r4, r5, r6, lr}
    17c2:	b082      	sub	sp, #8
    17c4:	460c      	mov	r4, r1

    //
    // Find the correct control register.
    //
    pui32ConfigReg = (uint32_t *)(AM_REG_CTIMERn(0) + AM_REG_CTIMER_CTRL0_O +
                                  (ui32TimerNumber * TIMER_OFFSET));
    17c6:	0106      	lsls	r6, r0, #4

    //
    // Begin critical section while config registers are read and modified.
    //
    AM_CRITICAL_BEGIN_ASM
    17c8:	f000 f9e4 	bl	1b94 <am_hal_interrupt_master_disable>
    pui32ConfigReg = (uint32_t *)(AM_REG_CTIMERn(0) + AM_REG_CTIMER_CTRL0_O +
    17cc:	4d07      	ldr	r5, [pc, #28]	; (17ec <am_hal_ctimer_start+0x2c>)
    AM_CRITICAL_BEGIN_ASM
    17ce:	9001      	str	r0, [sp, #4]

    //
    // Read the current value.
    //
    ui32ConfigVal = *pui32ConfigReg;
    17d0:	5971      	ldr	r1, [r6, r5]

    //
    // Clear out the "clear" bit.
    //
    ui32ConfigVal &= ~(ui32TimerSegment & (AM_REG_CTIMER_CTRL0_TMRA0CLR_M |
    17d2:	f004 2308 	and.w	r3, r4, #134219776	; 0x8000800
    17d6:	ea21 0003 	bic.w	r0, r1, r3
                                           AM_REG_CTIMER_CTRL0_TMRB0CLR_M));

    //
    // Set the "enable bit"
    //
    ui32ConfigVal |= (ui32TimerSegment & (AM_REG_CTIMER_CTRL0_TMRA0EN_M |
    17da:	f004 1201 	and.w	r2, r4, #65537	; 0x10001
    17de:	4302      	orrs	r2, r0
                                          AM_REG_CTIMER_CTRL0_TMRB0EN_M));

    //
    // Write the value back to the register.
    //
    AM_REGVAL(pui32ConfigReg) = ui32ConfigVal;
    17e0:	5172      	str	r2, [r6, r5]

    //
    // Done with critical section.
    //
    AM_CRITICAL_END_ASM
    17e2:	9801      	ldr	r0, [sp, #4]
    17e4:	f000 f9da 	bl	1b9c <am_hal_interrupt_master_set>
} // am_hal_ctimer_start()
    17e8:	b002      	add	sp, #8
    17ea:	bd70      	pop	{r4, r5, r6, pc}
    17ec:	4000800c 	.word	0x4000800c

000017f0 <am_hal_ctimer_clear>:
//! @return None.
//
//*****************************************************************************
void
am_hal_ctimer_clear(uint32_t ui32TimerNumber, uint32_t ui32TimerSegment)
{
    17f0:	b570      	push	{r4, r5, r6, lr}
    17f2:	b082      	sub	sp, #8
    17f4:	460c      	mov	r4, r1

    //
    // Find the correct control register.
    //
    pui32ConfigReg = (uint32_t *)(AM_REG_CTIMERn(0) + AM_REG_CTIMER_CTRL0_O +
                                  (ui32TimerNumber * TIMER_OFFSET));
    17f6:	0106      	lsls	r6, r0, #4

    //
    // Begin critical section.
    //
    AM_CRITICAL_BEGIN_ASM
    17f8:	f000 f9cc 	bl	1b94 <am_hal_interrupt_master_disable>
    pui32ConfigReg = (uint32_t *)(AM_REG_CTIMERn(0) + AM_REG_CTIMER_CTRL0_O +
    17fc:	4d05      	ldr	r5, [pc, #20]	; (1814 <am_hal_ctimer_clear+0x24>)
    AM_CRITICAL_BEGIN_ASM
    17fe:	9001      	str	r0, [sp, #4]

    //
    // Set the "clear" bit
    //
    AM_REGVAL(pui32ConfigReg) |= (ui32TimerSegment &
    1800:	5971      	ldr	r1, [r6, r5]
    1802:	f004 2008 	and.w	r0, r4, #134219776	; 0x8000800
    1806:	4308      	orrs	r0, r1
    1808:	5170      	str	r0, [r6, r5]
                                   AM_REG_CTIMER_CTRL0_TMRB0CLR_M));

    //
    // Done with critical section.
    //
    AM_CRITICAL_END_ASM
    180a:	9801      	ldr	r0, [sp, #4]
    180c:	f000 f9c6 	bl	1b9c <am_hal_interrupt_master_set>
} // am_hal_ctimer_clear()
    1810:	b002      	add	sp, #8
    1812:	bd70      	pop	{r4, r5, r6, pc}
    1814:	4000800c 	.word	0x4000800c

00001818 <am_hal_ctimer_period_set>:
//
//*****************************************************************************
void
am_hal_ctimer_period_set(uint32_t ui32TimerNumber, uint32_t ui32TimerSegment,
                         uint32_t ui32Period, uint32_t ui32OnTime)
{
    1818:	e92d 47f0 	stmdb	sp!, {r4, r5, r6, r7, r8, r9, sl, lr}
    181c:	b082      	sub	sp, #8
    181e:	4688      	mov	r8, r1
    1820:	461f      	mov	r7, r3
    //
    // Find the correct control register to pull the function select field
    // from.
    //
    pui32ControlReg = (uint32_t *)(AM_REG_CTIMERn(0) + AM_REG_CTIMER_CTRL0_O +
                                   (ui32TimerNumber * TIMER_OFFSET));
    1822:	ea4f 1900 	mov.w	r9, r0, lsl #4
{
    1826:	4614      	mov	r4, r2
                                    (ui32TimerNumber * TIMER_OFFSET));

    //
    // Begin critical section.
    //
    AM_CRITICAL_BEGIN_ASM
    1828:	f000 f9b4 	bl	1b94 <am_hal_interrupt_master_disable>
    pui32ControlReg = (uint32_t *)(AM_REG_CTIMERn(0) + AM_REG_CTIMER_CTRL0_O +
    182c:	f8df a098 	ldr.w	sl, [pc, #152]	; 18c8 <am_hal_ctimer_period_set+0xb0>
    AM_CRITICAL_BEGIN_ASM
    1830:	9001      	str	r0, [sp, #4]
    //
    // Extract the timer mode from the register based on the ui32TimerSegment
    // selected by the user.
    //
    ui32Mode = *pui32ControlReg;
    if ( ui32TimerSegment == AM_HAL_CTIMER_TIMERB )
    1832:	f518 3f80 	cmn.w	r8, #65536	; 0x10000
                                    AM_REG_CTIMER_CMPRA0_O +
    1836:	4d21      	ldr	r5, [pc, #132]	; (18bc <am_hal_ctimer_period_set+0xa4>)
                                    AM_REG_CTIMER_CMPRB0_O +
    1838:	4e21      	ldr	r6, [pc, #132]	; (18c0 <am_hal_ctimer_period_set+0xa8>)
    ui32Mode = *pui32ControlReg;
    183a:	f859 300a 	ldr.w	r3, [r9, sl]
    if ( ui32TimerSegment == AM_HAL_CTIMER_TIMERB )
    183e:	d01b      	beq.n	1878 <am_hal_ctimer_period_set+0x60>

    //
    // If the mode is a PWM mode, we'll need to calculate the correct CMPR0 and
    // CMPR1 values here.
    //
    if (ui32Mode == AM_HAL_CTIMER_FN_PWM_ONCE   ||
    1840:	f403 70c0 	and.w	r0, r3, #384	; 0x180
    1844:	2880      	cmp	r0, #128	; 0x80
    1846:	d01c      	beq.n	1882 <am_hal_ctimer_period_set+0x6a>

    //
    // Based on the timer segment argument, write the calculated Compare 0 and
    // Compare 1 values to the correct halves of the correct registers.
    //
    if ( ui32TimerSegment == AM_HAL_CTIMER_TIMERA )
    1848:	f64f 77ff 	movw	r7, #65535	; 0xffff
    184c:	2300      	movs	r3, #0
    184e:	45b8      	cmp	r8, r7
        ui32Comp1 = 0;
    1850:	461a      	mov	r2, r3
    if ( ui32TimerSegment == AM_HAL_CTIMER_TIMERA )
    1852:	d01d      	beq.n	1890 <am_hal_ctimer_period_set+0x78>
        // For timer A, write the values to the TIMERA compare register.
        //
        *pui32CompareRegA = (AM_REG_CTIMER_CMPRA0_CMPR0A0(ui32Comp0) |
                             AM_REG_CTIMER_CMPRA0_CMPR1A0(ui32Comp1));
    }
    else if ( ui32TimerSegment == AM_HAL_CTIMER_TIMERB )
    1854:	491b      	ldr	r1, [pc, #108]	; (18c4 <am_hal_ctimer_period_set+0xac>)
    1856:	4588      	cmp	r8, r1
    1858:	d025      	beq.n	18a6 <am_hal_ctimer_period_set+0x8e>
        //
        *pui32CompareRegA = (AM_REG_CTIMER_CMPRA0_CMPR0A0(ui32Comp0) |
                             AM_REG_CTIMER_CMPRA0_CMPR1A0(ui32Comp1));

        *pui32CompareRegB = (AM_REG_CTIMER_CMPRA0_CMPR0A0(ui32Comp0 >> 16) |
                             AM_REG_CTIMER_CMPRA0_CMPR1A0(ui32Comp1 >> 16));
    185a:	400a      	ands	r2, r1
        *pui32CompareRegA = (AM_REG_CTIMER_CMPRA0_CMPR0A0(ui32Comp0) |
    185c:	b2a0      	uxth	r0, r4
    185e:	4303      	orrs	r3, r0
        *pui32CompareRegB = (AM_REG_CTIMER_CMPRA0_CMPR0A0(ui32Comp0 >> 16) |
    1860:	ea42 4414 	orr.w	r4, r2, r4, lsr #16
        *pui32CompareRegA = (AM_REG_CTIMER_CMPRA0_CMPR0A0(ui32Comp0) |
    1864:	f849 3005 	str.w	r3, [r9, r5]
        *pui32CompareRegB = (AM_REG_CTIMER_CMPRA0_CMPR0A0(ui32Comp0 >> 16) |
    1868:	f849 4006 	str.w	r4, [r9, r6]
    }

    //
    // Done with critical section.
    //
    AM_CRITICAL_END_ASM
    186c:	9801      	ldr	r0, [sp, #4]
    186e:	f000 f995 	bl	1b9c <am_hal_interrupt_master_set>
} // am_hal_ctimer_period_set()
    1872:	b002      	add	sp, #8
    1874:	e8bd 87f0 	ldmia.w	sp!, {r4, r5, r6, r7, r8, r9, sl, pc}
        ui32Mode = ui32Mode >> 16;
    1878:	0c19      	lsrs	r1, r3, #16
    if (ui32Mode == AM_HAL_CTIMER_FN_PWM_ONCE   ||
    187a:	f401 70c0 	and.w	r0, r1, #384	; 0x180
    187e:	2880      	cmp	r0, #128	; 0x80
    1880:	d110      	bne.n	18a4 <am_hal_ctimer_period_set+0x8c>
    1882:	0423      	lsls	r3, r4, #16
        ui32Comp1 = ui32Period;
    1884:	4622      	mov	r2, r4
        ui32Comp0 = ui32Period - ui32OnTime;
    1886:	1be4      	subs	r4, r4, r7
    if ( ui32TimerSegment == AM_HAL_CTIMER_TIMERA )
    1888:	f64f 77ff 	movw	r7, #65535	; 0xffff
    188c:	45b8      	cmp	r8, r7
    188e:	d1e1      	bne.n	1854 <am_hal_ctimer_period_set+0x3c>
        *pui32CompareRegA = (AM_REG_CTIMER_CMPRA0_CMPR0A0(ui32Comp0) |
    1890:	b2a6      	uxth	r6, r4
    1892:	4333      	orrs	r3, r6
    1894:	f849 3005 	str.w	r3, [r9, r5]
    AM_CRITICAL_END_ASM
    1898:	9801      	ldr	r0, [sp, #4]
    189a:	f000 f97f 	bl	1b9c <am_hal_interrupt_master_set>
} // am_hal_ctimer_period_set()
    189e:	b002      	add	sp, #8
    18a0:	e8bd 87f0 	ldmia.w	sp!, {r4, r5, r6, r7, r8, r9, sl, pc}
    if (ui32Mode == AM_HAL_CTIMER_FN_PWM_ONCE   ||
    18a4:	2300      	movs	r3, #0
        *pui32CompareRegB = (AM_REG_CTIMER_CMPRA0_CMPR0A0(ui32Comp0) |
    18a6:	b2a5      	uxth	r5, r4
    18a8:	432b      	orrs	r3, r5
    18aa:	f849 3006 	str.w	r3, [r9, r6]
    AM_CRITICAL_END_ASM
    18ae:	9801      	ldr	r0, [sp, #4]
    18b0:	f000 f974 	bl	1b9c <am_hal_interrupt_master_set>
} // am_hal_ctimer_period_set()
    18b4:	b002      	add	sp, #8
    18b6:	e8bd 87f0 	ldmia.w	sp!, {r4, r5, r6, r7, r8, r9, sl, pc}
    18ba:	bf00      	nop
    18bc:	40008004 	.word	0x40008004
    18c0:	40008008 	.word	0x40008008
    18c4:	ffff0000 	.word	0xffff0000
    18c8:	4000800c 	.word	0x4000800c

000018cc <am_hal_ctimer_int_enable>:
//! @return None.
//
//*****************************************************************************
void
am_hal_ctimer_int_enable(uint32_t ui32Interrupt)
{
    18cc:	b510      	push	{r4, lr}
    18ce:	b082      	sub	sp, #8
    18d0:	4604      	mov	r4, r0
    //
    // Begin critical section.
    //
    AM_CRITICAL_BEGIN_ASM
    18d2:	f000 f95f 	bl	1b94 <am_hal_interrupt_master_disable>

    //
    // Enable the interrupt at the module level.
    //
    AM_REGn(CTIMER, 0, INTEN) |= ui32Interrupt;
    18d6:	4b05      	ldr	r3, [pc, #20]	; (18ec <am_hal_ctimer_int_enable+0x20>)
    AM_CRITICAL_BEGIN_ASM
    18d8:	9001      	str	r0, [sp, #4]
    AM_REGn(CTIMER, 0, INTEN) |= ui32Interrupt;
    18da:	6818      	ldr	r0, [r3, #0]
    18dc:	4320      	orrs	r0, r4
    18de:	6018      	str	r0, [r3, #0]

    //
    // Done with critical section.
    //
    AM_CRITICAL_END_ASM
    18e0:	9801      	ldr	r0, [sp, #4]
    18e2:	f000 f95b 	bl	1b9c <am_hal_interrupt_master_set>
} // am_hal_ctimer_int_enable()
    18e6:	b002      	add	sp, #8
    18e8:	bd10      	pop	{r4, pc}
    18ea:	bf00      	nop
    18ec:	40008200 	.word	0x40008200

000018f0 <am_hal_ctimer_int_clear>:
am_hal_ctimer_int_clear(uint32_t ui32Interrupt)
{
    //
    // Disable the interrupt at the module level.
    //
    AM_REGn(CTIMER, 0, INTCLR) = ui32Interrupt;
    18f0:	4b01      	ldr	r3, [pc, #4]	; (18f8 <am_hal_ctimer_int_clear+0x8>)
    18f2:	6018      	str	r0, [r3, #0]
    18f4:	4770      	bx	lr
    18f6:	bf00      	nop
    18f8:	40008208 	.word	0x40008208

000018fc <am_hal_ctimer_int_status_get>:
//! @return Returns either the timer interrupt status.
//
//*****************************************************************************
uint32_t
am_hal_ctimer_int_status_get(bool bEnabledOnly)
{
    18fc:	b510      	push	{r4, lr}
    18fe:	b082      	sub	sp, #8
    //
    // Return the desired status.
    //

    if ( bEnabledOnly )
    1900:	b920      	cbnz	r0, 190c <am_hal_ctimer_int_status_get+0x10>

        return u32RetVal;
    }
    else
    {
        return AM_REGn(CTIMER, 0, INTSTAT);
    1902:	4b09      	ldr	r3, [pc, #36]	; (1928 <am_hal_ctimer_int_status_get+0x2c>)
    1904:	681c      	ldr	r4, [r3, #0]
    }
} // am_hal_ctimer_int_status_get()
    1906:	4620      	mov	r0, r4
    1908:	b002      	add	sp, #8
    190a:	bd10      	pop	{r4, pc}
        AM_CRITICAL_BEGIN_ASM
    190c:	f000 f942 	bl	1b94 <am_hal_interrupt_master_disable>
        u32RetVal  = AM_REGn(CTIMER, 0, INTSTAT);
    1910:	4a05      	ldr	r2, [pc, #20]	; (1928 <am_hal_ctimer_int_status_get+0x2c>)
        u32RetVal &= AM_REGn(CTIMER, 0, INTEN);
    1912:	4906      	ldr	r1, [pc, #24]	; (192c <am_hal_ctimer_int_status_get+0x30>)
        AM_CRITICAL_BEGIN_ASM
    1914:	9001      	str	r0, [sp, #4]
        u32RetVal  = AM_REGn(CTIMER, 0, INTSTAT);
    1916:	6814      	ldr	r4, [r2, #0]
        u32RetVal &= AM_REGn(CTIMER, 0, INTEN);
    1918:	680b      	ldr	r3, [r1, #0]
        AM_CRITICAL_END_ASM
    191a:	9801      	ldr	r0, [sp, #4]
        u32RetVal &= AM_REGn(CTIMER, 0, INTEN);
    191c:	401c      	ands	r4, r3
        AM_CRITICAL_END_ASM
    191e:	f000 f93d 	bl	1b9c <am_hal_interrupt_master_set>
} // am_hal_ctimer_int_status_get()
    1922:	4620      	mov	r0, r4
    1924:	b002      	add	sp, #8
    1926:	bd10      	pop	{r4, pc}
    1928:	40008204 	.word	0x40008204
    192c:	40008200 	.word	0x40008200

00001930 <am_hal_debug_error>:
__weak void
#else
void __attribute__((weak))
#endif
am_hal_debug_error(const char *pcFile, uint32_t ui32Line, const char *pcMessage)
{
    1930:	e7fe      	b.n	1930 <am_hal_debug_error>
    1932:	bf00      	nop

00001934 <am_hal_flash_delay>:
//
//*****************************************************************************
void
am_hal_flash_delay(uint32_t ui32Iterations)
{
    g_am_hal_flash.delay_cycles(ui32Iterations);
    1934:	4b00      	ldr	r3, [pc, #0]	; (1938 <am_hal_flash_delay+0x4>)
    1936:	4718      	bx	r3
    1938:	0800009d 	.word	0x0800009d

0000193c <am_hal_flash_delay_status_change>:
//*****************************************************************************
uint32_t
am_hal_flash_delay_status_change(uint32_t ui32usMaxDelay, uint32_t ui32Address,
                                 uint32_t ui32Mask, uint32_t ui32Value)
{
    while ( ui32usMaxDelay-- )
    193c:	2800      	cmp	r0, #0
    193e:	f000 809a 	beq.w	1a76 <am_hal_flash_delay_status_change+0x13a>
{
    1942:	e92d 43f8 	stmdb	sp!, {r3, r4, r5, r6, r7, r8, r9, lr}
    1946:	1e44      	subs	r4, r0, #1
    {
        //
        // Check the status
        //
        if ( ( AM_REGVAL(ui32Address) & ui32Mask ) == ui32Value )
    1948:	6808      	ldr	r0, [r1, #0]
    194a:	4010      	ands	r0, r2
    194c:	4283      	cmp	r3, r0
    194e:	f000 808c 	beq.w	1a6a <am_hal_flash_delay_status_change+0x12e>
    1952:	f014 0907 	ands.w	r9, r4, #7
    1956:	461d      	mov	r5, r3
    1958:	4616      	mov	r6, r2
    195a:	460f      	mov	r7, r1
    g_am_hal_flash.delay_cycles(ui32Iterations);
    195c:	f8df 811c 	ldr.w	r8, [pc, #284]	; 1a7c <am_hal_flash_delay_status_change+0x140>
    1960:	d049      	beq.n	19f6 <am_hal_flash_delay_status_change+0xba>
    1962:	200c      	movs	r0, #12
    1964:	47c0      	blx	r8
        if ( ( AM_REGVAL(ui32Address) & ui32Mask ) == ui32Value )
    1966:	683b      	ldr	r3, [r7, #0]
    1968:	4033      	ands	r3, r6
    196a:	42ab      	cmp	r3, r5
    while ( ui32usMaxDelay-- )
    196c:	f104 34ff 	add.w	r4, r4, #4294967295
        if ( ( AM_REGVAL(ui32Address) & ui32Mask ) == ui32Value )
    1970:	d07b      	beq.n	1a6a <am_hal_flash_delay_status_change+0x12e>
    1972:	f1b9 0f01 	cmp.w	r9, #1
    1976:	d03e      	beq.n	19f6 <am_hal_flash_delay_status_change+0xba>
    1978:	f1b9 0f02 	cmp.w	r9, #2
    197c:	d033      	beq.n	19e6 <am_hal_flash_delay_status_change+0xaa>
    197e:	f1b9 0f03 	cmp.w	r9, #3
    1982:	d028      	beq.n	19d6 <am_hal_flash_delay_status_change+0x9a>
    1984:	f1b9 0f04 	cmp.w	r9, #4
    1988:	d01d      	beq.n	19c6 <am_hal_flash_delay_status_change+0x8a>
    198a:	f1b9 0f05 	cmp.w	r9, #5
    198e:	d012      	beq.n	19b6 <am_hal_flash_delay_status_change+0x7a>
    1990:	f1b9 0f06 	cmp.w	r9, #6
    1994:	d007      	beq.n	19a6 <am_hal_flash_delay_status_change+0x6a>
    g_am_hal_flash.delay_cycles(ui32Iterations);
    1996:	200c      	movs	r0, #12
    1998:	47c0      	blx	r8
        if ( ( AM_REGVAL(ui32Address) & ui32Mask ) == ui32Value )
    199a:	6839      	ldr	r1, [r7, #0]
    199c:	4031      	ands	r1, r6
    199e:	42a9      	cmp	r1, r5
    while ( ui32usMaxDelay-- )
    19a0:	f104 34ff 	add.w	r4, r4, #4294967295
        if ( ( AM_REGVAL(ui32Address) & ui32Mask ) == ui32Value )
    19a4:	d061      	beq.n	1a6a <am_hal_flash_delay_status_change+0x12e>
    g_am_hal_flash.delay_cycles(ui32Iterations);
    19a6:	200c      	movs	r0, #12
    19a8:	47c0      	blx	r8
        if ( ( AM_REGVAL(ui32Address) & ui32Mask ) == ui32Value )
    19aa:	683a      	ldr	r2, [r7, #0]
    19ac:	4032      	ands	r2, r6
    19ae:	42aa      	cmp	r2, r5
    while ( ui32usMaxDelay-- )
    19b0:	f104 34ff 	add.w	r4, r4, #4294967295
        if ( ( AM_REGVAL(ui32Address) & ui32Mask ) == ui32Value )
    19b4:	d059      	beq.n	1a6a <am_hal_flash_delay_status_change+0x12e>
    g_am_hal_flash.delay_cycles(ui32Iterations);
    19b6:	200c      	movs	r0, #12
    19b8:	47c0      	blx	r8
        if ( ( AM_REGVAL(ui32Address) & ui32Mask ) == ui32Value )
    19ba:	6838      	ldr	r0, [r7, #0]
    19bc:	4030      	ands	r0, r6
    19be:	42a8      	cmp	r0, r5
    while ( ui32usMaxDelay-- )
    19c0:	f104 34ff 	add.w	r4, r4, #4294967295
        if ( ( AM_REGVAL(ui32Address) & ui32Mask ) == ui32Value )
    19c4:	d051      	beq.n	1a6a <am_hal_flash_delay_status_change+0x12e>
    g_am_hal_flash.delay_cycles(ui32Iterations);
    19c6:	200c      	movs	r0, #12
    19c8:	47c0      	blx	r8
        if ( ( AM_REGVAL(ui32Address) & ui32Mask ) == ui32Value )
    19ca:	683b      	ldr	r3, [r7, #0]
    19cc:	4033      	ands	r3, r6
    19ce:	42ab      	cmp	r3, r5
    while ( ui32usMaxDelay-- )
    19d0:	f104 34ff 	add.w	r4, r4, #4294967295
        if ( ( AM_REGVAL(ui32Address) & ui32Mask ) == ui32Value )
    19d4:	d049      	beq.n	1a6a <am_hal_flash_delay_status_change+0x12e>
    g_am_hal_flash.delay_cycles(ui32Iterations);
    19d6:	200c      	movs	r0, #12
    19d8:	47c0      	blx	r8
        if ( ( AM_REGVAL(ui32Address) & ui32Mask ) == ui32Value )
    19da:	6839      	ldr	r1, [r7, #0]
    19dc:	4031      	ands	r1, r6
    19de:	42a9      	cmp	r1, r5
    while ( ui32usMaxDelay-- )
    19e0:	f104 34ff 	add.w	r4, r4, #4294967295
        if ( ( AM_REGVAL(ui32Address) & ui32Mask ) == ui32Value )
    19e4:	d041      	beq.n	1a6a <am_hal_flash_delay_status_change+0x12e>
    g_am_hal_flash.delay_cycles(ui32Iterations);
    19e6:	200c      	movs	r0, #12
    19e8:	47c0      	blx	r8
        if ( ( AM_REGVAL(ui32Address) & ui32Mask ) == ui32Value )
    19ea:	683a      	ldr	r2, [r7, #0]
    19ec:	4032      	ands	r2, r6
    19ee:	42aa      	cmp	r2, r5
    while ( ui32usMaxDelay-- )
    19f0:	f104 34ff 	add.w	r4, r4, #4294967295
        if ( ( AM_REGVAL(ui32Address) & ui32Mask ) == ui32Value )
    19f4:	d039      	beq.n	1a6a <am_hal_flash_delay_status_change+0x12e>
    g_am_hal_flash.delay_cycles(ui32Iterations);
    19f6:	200c      	movs	r0, #12
    19f8:	47c0      	blx	r8
    19fa:	200c      	movs	r0, #12
    while ( ui32usMaxDelay-- )
    19fc:	2c00      	cmp	r4, #0
    19fe:	d037      	beq.n	1a70 <am_hal_flash_delay_status_change+0x134>
        if ( ( AM_REGVAL(ui32Address) & ui32Mask ) == ui32Value )
    1a00:	683b      	ldr	r3, [r7, #0]
    1a02:	4033      	ands	r3, r6
    1a04:	42ab      	cmp	r3, r5
    while ( ui32usMaxDelay-- )
    1a06:	f1a4 0408 	sub.w	r4, r4, #8
        if ( ( AM_REGVAL(ui32Address) & ui32Mask ) == ui32Value )
    1a0a:	d02e      	beq.n	1a6a <am_hal_flash_delay_status_change+0x12e>
    g_am_hal_flash.delay_cycles(ui32Iterations);
    1a0c:	47c0      	blx	r8
        if ( ( AM_REGVAL(ui32Address) & ui32Mask ) == ui32Value )
    1a0e:	6839      	ldr	r1, [r7, #0]
    1a10:	4031      	ands	r1, r6
    1a12:	42a9      	cmp	r1, r5
    g_am_hal_flash.delay_cycles(ui32Iterations);
    1a14:	f04f 000c 	mov.w	r0, #12
        if ( ( AM_REGVAL(ui32Address) & ui32Mask ) == ui32Value )
    1a18:	d027      	beq.n	1a6a <am_hal_flash_delay_status_change+0x12e>
    g_am_hal_flash.delay_cycles(ui32Iterations);
    1a1a:	47c0      	blx	r8
        if ( ( AM_REGVAL(ui32Address) & ui32Mask ) == ui32Value )
    1a1c:	683a      	ldr	r2, [r7, #0]
    1a1e:	4032      	ands	r2, r6
    1a20:	42aa      	cmp	r2, r5
    g_am_hal_flash.delay_cycles(ui32Iterations);
    1a22:	f04f 000c 	mov.w	r0, #12
        if ( ( AM_REGVAL(ui32Address) & ui32Mask ) == ui32Value )
    1a26:	d020      	beq.n	1a6a <am_hal_flash_delay_status_change+0x12e>
    g_am_hal_flash.delay_cycles(ui32Iterations);
    1a28:	47c0      	blx	r8
        if ( ( AM_REGVAL(ui32Address) & ui32Mask ) == ui32Value )
    1a2a:	683b      	ldr	r3, [r7, #0]
    1a2c:	4033      	ands	r3, r6
    1a2e:	42ab      	cmp	r3, r5
    g_am_hal_flash.delay_cycles(ui32Iterations);
    1a30:	f04f 000c 	mov.w	r0, #12
        if ( ( AM_REGVAL(ui32Address) & ui32Mask ) == ui32Value )
    1a34:	d019      	beq.n	1a6a <am_hal_flash_delay_status_change+0x12e>
    g_am_hal_flash.delay_cycles(ui32Iterations);
    1a36:	47c0      	blx	r8
        if ( ( AM_REGVAL(ui32Address) & ui32Mask ) == ui32Value )
    1a38:	6839      	ldr	r1, [r7, #0]
    1a3a:	4031      	ands	r1, r6
    1a3c:	42a9      	cmp	r1, r5
    g_am_hal_flash.delay_cycles(ui32Iterations);
    1a3e:	f04f 000c 	mov.w	r0, #12
        if ( ( AM_REGVAL(ui32Address) & ui32Mask ) == ui32Value )
    1a42:	d012      	beq.n	1a6a <am_hal_flash_delay_status_change+0x12e>
    g_am_hal_flash.delay_cycles(ui32Iterations);
    1a44:	47c0      	blx	r8
        if ( ( AM_REGVAL(ui32Address) & ui32Mask ) == ui32Value )
    1a46:	683a      	ldr	r2, [r7, #0]
    1a48:	4032      	ands	r2, r6
    1a4a:	42aa      	cmp	r2, r5
    g_am_hal_flash.delay_cycles(ui32Iterations);
    1a4c:	f04f 000c 	mov.w	r0, #12
        if ( ( AM_REGVAL(ui32Address) & ui32Mask ) == ui32Value )
    1a50:	d00b      	beq.n	1a6a <am_hal_flash_delay_status_change+0x12e>
    g_am_hal_flash.delay_cycles(ui32Iterations);
    1a52:	47c0      	blx	r8
        if ( ( AM_REGVAL(ui32Address) & ui32Mask ) == ui32Value )
    1a54:	683b      	ldr	r3, [r7, #0]
    1a56:	4033      	ands	r3, r6
    1a58:	42ab      	cmp	r3, r5
    g_am_hal_flash.delay_cycles(ui32Iterations);
    1a5a:	f04f 000c 	mov.w	r0, #12
        if ( ( AM_REGVAL(ui32Address) & ui32Mask ) == ui32Value )
    1a5e:	d004      	beq.n	1a6a <am_hal_flash_delay_status_change+0x12e>
    g_am_hal_flash.delay_cycles(ui32Iterations);
    1a60:	47c0      	blx	r8
        if ( ( AM_REGVAL(ui32Address) & ui32Mask ) == ui32Value )
    1a62:	6838      	ldr	r0, [r7, #0]
    1a64:	4030      	ands	r0, r6
    1a66:	42a8      	cmp	r0, r5
    1a68:	d1c5      	bne.n	19f6 <am_hal_flash_delay_status_change+0xba>
        {
            return 1;
    1a6a:	2001      	movs	r0, #1
    1a6c:	e8bd 83f8 	ldmia.w	sp!, {r3, r4, r5, r6, r7, r8, r9, pc}
        // Call the BOOTROM cycle function to delay for about 1 microsecond.
        //
        am_hal_flash_delay( FLASH_CYCLES_US(1) );
    }

    return 0;
    1a70:	2000      	movs	r0, #0
    1a72:	e8bd 83f8 	ldmia.w	sp!, {r3, r4, r5, r6, r7, r8, r9, pc}
    1a76:	2000      	movs	r0, #0
} // am_hal_flash_delay_status_change()
    1a78:	4770      	bx	lr
    1a7a:	bf00      	nop
    1a7c:	0800009d 	.word	0x0800009d

00001a80 <am_hal_gpio_input_read>:
    //
    // Combine upper or lower GPIO words into one 64 bit return value.
    //
    uint64_t ui64RetVal;

    ui64RetVal  = ((uint64_t) AM_REGn(GPIO, 0, RDB)) << 32;
    1a80:	4a05      	ldr	r2, [pc, #20]	; (1a98 <am_hal_gpio_input_read+0x18>)
    ui64RetVal |= ((uint64_t) AM_REGn(GPIO, 0, RDA)) << 0;
    1a82:	4b06      	ldr	r3, [pc, #24]	; (1a9c <am_hal_gpio_input_read+0x1c>)
    ui64RetVal  = ((uint64_t) AM_REGn(GPIO, 0, RDB)) << 32;
    1a84:	6811      	ldr	r1, [r2, #0]
    ui64RetVal |= ((uint64_t) AM_REGn(GPIO, 0, RDA)) << 0;
    1a86:	6818      	ldr	r0, [r3, #0]
    ui64RetVal  = ((uint64_t) AM_REGn(GPIO, 0, RDB)) << 32;
    1a88:	2200      	movs	r2, #0
    1a8a:	460b      	mov	r3, r1

    return ui64RetVal;
}
    1a8c:	ea42 0200 	orr.w	r2, r2, r0
    1a90:	4610      	mov	r0, r2
    1a92:	4619      	mov	r1, r3
    1a94:	4770      	bx	lr
    1a96:	bf00      	nop
    1a98:	40010084 	.word	0x40010084
    1a9c:	40010080 	.word	0x40010080

00001aa0 <am_hal_gpio_int_enable>:
//! @return None
//
//*****************************************************************************
void
am_hal_gpio_int_enable(uint64_t ui64InterruptMask)
{
    1aa0:	b410      	push	{r4}
    //
    // Enable the interrupts.
    //
    AM_REG(GPIO, INT1EN) |= (ui64InterruptMask >> 32);
    1aa2:	4c05      	ldr	r4, [pc, #20]	; (1ab8 <am_hal_gpio_int_enable+0x18>)
    AM_REG(GPIO, INT0EN) |= (ui64InterruptMask & 0xFFFFFFFF);
    1aa4:	4a05      	ldr	r2, [pc, #20]	; (1abc <am_hal_gpio_int_enable+0x1c>)
    AM_REG(GPIO, INT1EN) |= (ui64InterruptMask >> 32);
    1aa6:	6823      	ldr	r3, [r4, #0]
    1aa8:	4319      	orrs	r1, r3
    1aaa:	6021      	str	r1, [r4, #0]
    AM_REG(GPIO, INT0EN) |= (ui64InterruptMask & 0xFFFFFFFF);
    1aac:	6811      	ldr	r1, [r2, #0]
}
    1aae:	f85d 4b04 	ldr.w	r4, [sp], #4
    AM_REG(GPIO, INT0EN) |= (ui64InterruptMask & 0xFFFFFFFF);
    1ab2:	4308      	orrs	r0, r1
    1ab4:	6010      	str	r0, [r2, #0]
}
    1ab6:	4770      	bx	lr
    1ab8:	40010210 	.word	0x40010210
    1abc:	40010200 	.word	0x40010200

00001ac0 <am_hal_gpio_int_clear>:
//! @return None
//
//*****************************************************************************
void
am_hal_gpio_int_clear(uint64_t ui64InterruptMask)
{
    1ac0:	b530      	push	{r4, r5, lr}
    1ac2:	b083      	sub	sp, #12
    1ac4:	460d      	mov	r5, r1
    1ac6:	4604      	mov	r4, r0
    //
    // Clear the interrupts.
    //
    AM_CRITICAL_BEGIN_ASM
    1ac8:	f000 f864 	bl	1b94 <am_hal_interrupt_master_disable>
    AM_REG(GPIO, INT1CLR) = (ui64InterruptMask >> 32);
    1acc:	4a04      	ldr	r2, [pc, #16]	; (1ae0 <am_hal_gpio_int_clear+0x20>)
    AM_REG(GPIO, INT0CLR) = (ui64InterruptMask & 0xFFFFFFFF);
    1ace:	4b05      	ldr	r3, [pc, #20]	; (1ae4 <am_hal_gpio_int_clear+0x24>)
    AM_CRITICAL_BEGIN_ASM
    1ad0:	9001      	str	r0, [sp, #4]
    AM_REG(GPIO, INT1CLR) = (ui64InterruptMask >> 32);
    1ad2:	6015      	str	r5, [r2, #0]
    AM_REG(GPIO, INT0CLR) = (ui64InterruptMask & 0xFFFFFFFF);
    1ad4:	601c      	str	r4, [r3, #0]
    AM_CRITICAL_END_ASM
    1ad6:	9801      	ldr	r0, [sp, #4]
    1ad8:	f000 f860 	bl	1b9c <am_hal_interrupt_master_set>
}
    1adc:	b003      	add	sp, #12
    1ade:	bd30      	pop	{r4, r5, pc}
    1ae0:	40010218 	.word	0x40010218
    1ae4:	40010208 	.word	0x40010208

00001ae8 <am_hal_gpio_int_status_get>:
//! @return None
//
//*****************************************************************************
uint64_t
am_hal_gpio_int_status_get(bool bEnabledOnly)
{
    1ae8:	b570      	push	{r4, r5, r6, lr}
    1aea:	b082      	sub	sp, #8
    1aec:	4606      	mov	r6, r0
    //
    // Combine upper or lower GPIO words into one 64 bit return value.
    //
    ui64Mask   = 0xFFFFFFFFFFFFFFFF;

    AM_CRITICAL_BEGIN_ASM
    1aee:	f000 f851 	bl	1b94 <am_hal_interrupt_master_disable>
    ui64RetVal  = ((uint64_t) AM_REGn(GPIO, 0, INT1STAT)) << 32;
    1af2:	4b0f      	ldr	r3, [pc, #60]	; (1b30 <am_hal_gpio_int_status_get+0x48>)
    AM_CRITICAL_BEGIN_ASM
    1af4:	9001      	str	r0, [sp, #4]
    ui64RetVal |= ((uint64_t) AM_REGn(GPIO, 0, INT0STAT)) << 0;
    1af6:	f1a3 0110 	sub.w	r1, r3, #16
    ui64RetVal  = ((uint64_t) AM_REGn(GPIO, 0, INT1STAT)) << 32;
    1afa:	681d      	ldr	r5, [r3, #0]
    ui64RetVal |= ((uint64_t) AM_REGn(GPIO, 0, INT0STAT)) << 0;
    1afc:	680a      	ldr	r2, [r1, #0]
    ui64RetVal  = ((uint64_t) AM_REGn(GPIO, 0, INT1STAT)) << 32;
    1afe:	2000      	movs	r0, #0
    ui64RetVal |= ((uint64_t) AM_REGn(GPIO, 0, INT0STAT)) << 0;
    1b00:	ea40 0402 	orr.w	r4, r0, r2

    if ( bEnabledOnly )
    1b04:	b176      	cbz	r6, 1b24 <am_hal_gpio_int_status_get+0x3c>
    {
        ui64Mask    = ((uint64_t) AM_REGn(GPIO, 0, INT1EN)) << 32;
    1b06:	490b      	ldr	r1, [pc, #44]	; (1b34 <am_hal_gpio_int_status_get+0x4c>)
        ui64Mask   |= ((uint64_t) AM_REGn(GPIO, 0, INT0EN)) << 0;
    1b08:	4a0b      	ldr	r2, [pc, #44]	; (1b38 <am_hal_gpio_int_status_get+0x50>)
        ui64Mask    = ((uint64_t) AM_REGn(GPIO, 0, INT1EN)) << 32;
    1b0a:	680b      	ldr	r3, [r1, #0]
        ui64Mask   |= ((uint64_t) AM_REGn(GPIO, 0, INT0EN)) << 0;
    1b0c:	6811      	ldr	r1, [r2, #0]
        ui64Mask    = ((uint64_t) AM_REGn(GPIO, 0, INT1EN)) << 32;
    1b0e:	4606      	mov	r6, r0
        ui64Mask   |= ((uint64_t) AM_REGn(GPIO, 0, INT0EN)) << 0;
    1b10:	430e      	orrs	r6, r1
    }

    ui64RetVal &= ui64Mask;
    AM_CRITICAL_END_ASM
    1b12:	9801      	ldr	r0, [sp, #4]
    ui64RetVal &= ui64Mask;
    1b14:	401d      	ands	r5, r3
    AM_CRITICAL_END_ASM
    1b16:	f000 f841 	bl	1b9c <am_hal_interrupt_master_set>
    ui64RetVal &= ui64Mask;
    1b1a:	4034      	ands	r4, r6

    return ui64RetVal;
}
    1b1c:	4620      	mov	r0, r4
    1b1e:	4629      	mov	r1, r5
    1b20:	b002      	add	sp, #8
    1b22:	bd70      	pop	{r4, r5, r6, pc}
    ui64Mask   = 0xFFFFFFFFFFFFFFFF;
    1b24:	f04f 36ff 	mov.w	r6, #4294967295
    1b28:	f04f 33ff 	mov.w	r3, #4294967295
    1b2c:	e7f1      	b.n	1b12 <am_hal_gpio_int_status_get+0x2a>
    1b2e:	bf00      	nop
    1b30:	40010214 	.word	0x40010214
    1b34:	40010210 	.word	0x40010210
    1b38:	40010200 	.word	0x40010200

00001b3c <am_hal_interrupt_enable>:
am_hal_interrupt_enable(uint32_t ui32Interrupt)
{
    //
    // Check to see what type of interrupt this is.
    //
    if ( ui32Interrupt > 15 )
    1b3c:	280f      	cmp	r0, #15
    1b3e:	d80b      	bhi.n	1b58 <am_hal_interrupt_enable+0x1c>
    {
        //
        // If this is an ARM internal interrupt number, route it to the
        // appropriate enable register.
        //
        switch(ui32Interrupt)
    1b40:	2805      	cmp	r0, #5
    1b42:	d013      	beq.n	1b6c <am_hal_interrupt_enable+0x30>
    1b44:	2806      	cmp	r0, #6
    1b46:	d017      	beq.n	1b78 <am_hal_interrupt_enable+0x3c>
    1b48:	2804      	cmp	r0, #4
    1b4a:	d104      	bne.n	1b56 <am_hal_interrupt_enable+0x1a>
            case AM_HAL_INTERRUPT_USAGEFAULT:
                AM_BFW(SYSCTRL, SHCSR, USAGEFAULTENA, 1);
            break;

            case AM_HAL_INTERRUPT_MPUFAULT:
                AM_BFW(SYSCTRL, SHCSR, MEMFAULTENA, 1);
    1b4c:	4a0d      	ldr	r2, [pc, #52]	; (1b84 <am_hal_interrupt_enable+0x48>)
    1b4e:	6813      	ldr	r3, [r2, #0]
    1b50:	f443 3080 	orr.w	r0, r3, #65536	; 0x10000
    1b54:	6010      	str	r0, [r2, #0]
    1b56:	4770      	bx	lr
        AM_REG(NVIC, ISER0) = 0x1 << ((ui32Interrupt - 16) & 0x1F);
    1b58:	f1a0 0310 	sub.w	r3, r0, #16
    1b5c:	f003 0c1f 	and.w	ip, r3, #31
    1b60:	2001      	movs	r0, #1
    1b62:	4909      	ldr	r1, [pc, #36]	; (1b88 <am_hal_interrupt_enable+0x4c>)
    1b64:	fa00 f20c 	lsl.w	r2, r0, ip
    1b68:	600a      	str	r2, [r1, #0]
    1b6a:	4770      	bx	lr
                AM_BFW(SYSCTRL, SHCSR, BUSFAULTENA, 1);
    1b6c:	4805      	ldr	r0, [pc, #20]	; (1b84 <am_hal_interrupt_enable+0x48>)
    1b6e:	6801      	ldr	r1, [r0, #0]
    1b70:	f441 3200 	orr.w	r2, r1, #131072	; 0x20000
    1b74:	6002      	str	r2, [r0, #0]
            break;
    1b76:	4770      	bx	lr
                AM_BFW(SYSCTRL, SHCSR, USAGEFAULTENA, 1);
    1b78:	4902      	ldr	r1, [pc, #8]	; (1b84 <am_hal_interrupt_enable+0x48>)
    1b7a:	680a      	ldr	r2, [r1, #0]
    1b7c:	f442 2380 	orr.w	r3, r2, #262144	; 0x40000
    1b80:	600b      	str	r3, [r1, #0]
            break;
    1b82:	4770      	bx	lr
    1b84:	e000ed24 	.word	0xe000ed24
    1b88:	e000e100 	.word	0xe000e100

00001b8c <am_hal_interrupt_master_enable>:
}
#elif defined(__GNUC_STDC_INLINE__)
uint32_t __attribute__((naked))
am_hal_interrupt_master_enable(void)
{
    __asm("    mrs     r0, PRIMASK");
    1b8c:	f3ef 8010 	mrs	r0, PRIMASK
    __asm("    cpsie i");
    1b90:	b662      	cpsie	i
    __asm("    bx lr");
    1b92:	4770      	bx	lr

00001b94 <am_hal_interrupt_master_disable>:
}
#elif defined(__GNUC_STDC_INLINE__)
uint32_t __attribute__((naked))
am_hal_interrupt_master_disable(void)
{
    __asm("    mrs     r0, PRIMASK");
    1b94:	f3ef 8010 	mrs	r0, PRIMASK
    __asm("    cpsid i");
    1b98:	b672      	cpsid	i
    __asm("    bx lr");
    1b9a:	4770      	bx	lr

00001b9c <am_hal_interrupt_master_set>:
//*****************************************************************************
#if defined(__GNUC_STDC_INLINE__)
void __attribute__((naked))
am_hal_interrupt_master_set(uint32_t ui32InterruptState)
{
    __asm("    msr     PRIMASK, r0");
    1b9c:	f380 8810 	msr	PRIMASK, r0
    __asm("    bx lr");
    1ba0:	4770      	bx	lr
    1ba2:	bf00      	nop

00001ba4 <iom_workaround_loop>:
                    bool bRising)
{
    //
    // Check to see if this is a "rising edge" or "falling edge" detector.
    //
    __asm("    cbz      r2, falling_edge");
    1ba4:	b132      	cbz	r2, 1bb4 <falling_edge>

00001ba6 <rising_edge>:

    //
    // Read GPIO pin 44, and loop until it's HIGH.
    //
    __asm("rising_edge:");
    __asm("    ldr      r2, =0x40010084");
    1ba6:	4a07      	ldr	r2, [pc, #28]	; (1bc4 <falling_check_mosi+0xe>)

00001ba8 <rising_check_mosi>:
    __asm("rising_check_mosi:");
    __asm("    ldr      r3, [r2]");
    1ba8:	6813      	ldr	r3, [r2, #0]
    __asm("    ands     r3, r3, #0x1000");
    1baa:	f413 5380 	ands.w	r3, r3, #4096	; 0x1000
    __asm("    beq      rising_check_mosi");
    1bae:	d0fb      	beq.n	1ba8 <rising_check_mosi>

    //
    // Write the PADREG Value to the PADREG register.
    //
    __asm("    str     r0, [r1]");
    1bb0:	6008      	str	r0, [r1, #0]
    __asm("    bx      lr");
    1bb2:	4770      	bx	lr

00001bb4 <falling_edge>:

    //
    // Read GPIO pin 44, and loop until it's LOW.
    //
    __asm("falling_edge:");
    __asm("    ldr      r2, =0x40010084");
    1bb4:	4a03      	ldr	r2, [pc, #12]	; (1bc4 <falling_check_mosi+0xe>)

00001bb6 <falling_check_mosi>:
    __asm("falling_check_mosi:");
    __asm("    ldr      r3, [r2]");
    1bb6:	6813      	ldr	r3, [r2, #0]
    __asm("    ands     r3, r3, #0x1000");
    1bb8:	f413 5380 	ands.w	r3, r3, #4096	; 0x1000
    __asm("    bne      falling_check_mosi");
    1bbc:	d1fb      	bne.n	1bb6 <falling_check_mosi>

    //
    // Write the PADREG Value to the PADREG register.
    //
    __asm("    str     r0, [r1]");
    1bbe:	6008      	str	r0, [r1, #0]
    __asm("    bx      lr");
    1bc0:	4770      	bx	lr
    1bc2:	0000      	.short	0x0000
    1bc4:	40010084 	.word	0x40010084

00001bc8 <am_hal_iom_sleeping_queue_flush>:
    uint32_t ui32Critical;

    //
    // Validate parameters
    //
    if ( ui32Module >= AM_REG_IOMSTR_NUM_MODULES )
    1bc8:	2805      	cmp	r0, #5
    1bca:	d819      	bhi.n	1c00 <am_hal_iom_sleeping_queue_flush+0x38>
{
    1bcc:	b5f8      	push	{r3, r4, r5, r6, r7, lr}
    1bce:	4f0d      	ldr	r7, [pc, #52]	; (1c04 <am_hal_iom_sleeping_queue_flush+0x3c>)
    1bd0:	4e0d      	ldr	r6, [pc, #52]	; (1c08 <am_hal_iom_sleeping_queue_flush+0x40>)

        //
        // Check the queue and the IOM itself.
        //
        if ( (g_bIomBusy[ui32Module] == false) &&
            am_hal_queue_empty(&g_psIOMQueue[ui32Module]) )
    1bd2:	eb00 0340 	add.w	r3, r0, r0, lsl #1
    1bd6:	4604      	mov	r4, r0
    1bd8:	eb07 07c3 	add.w	r7, r7, r3, lsl #3
        ui32Critical = am_hal_interrupt_master_disable();
    1bdc:	f7ff ffda 	bl	1b94 <am_hal_interrupt_master_disable>
        if ( (g_bIomBusy[ui32Module] == false) &&
    1be0:	5d31      	ldrb	r1, [r6, r4]
        ui32Critical = am_hal_interrupt_master_disable();
    1be2:	4605      	mov	r5, r0
        if ( (g_bIomBusy[ui32Module] == false) &&
    1be4:	b929      	cbnz	r1, 1bf2 <am_hal_iom_sleeping_queue_flush+0x2a>
    1be6:	68ba      	ldr	r2, [r7, #8]
    1be8:	b91a      	cbnz	r2, 1bf2 <am_hal_iom_sleeping_queue_flush+0x2a>
        //
        // End the critical section.
        //
        am_hal_interrupt_master_set(ui32Critical);
    }
}
    1bea:	e8bd 40f8 	ldmia.w	sp!, {r3, r4, r5, r6, r7, lr}
        am_hal_interrupt_master_set(ui32Critical);
    1bee:	f7ff bfd5 	b.w	1b9c <am_hal_interrupt_master_set>
            am_hal_sysctrl_sleep(AM_HAL_SYSCTRL_SLEEP_NORMAL);
    1bf2:	2000      	movs	r0, #0
    1bf4:	f002 fc60 	bl	44b8 <am_hal_sysctrl_sleep>
        am_hal_interrupt_master_set(ui32Critical);
    1bf8:	4628      	mov	r0, r5
    1bfa:	f7ff ffcf 	bl	1b9c <am_hal_interrupt_master_set>
    1bfe:	e7ed      	b.n	1bdc <am_hal_iom_sleeping_queue_flush+0x14>
    1c00:	4770      	bx	lr
    1c02:	bf00      	nop
    1c04:	10000b00 	.word	0x10000b00
    1c08:	10000854 	.word	0x10000854

00001c0c <am_hal_iom_int_service.part.20>:
am_hal_iom_int_service(uint32_t ui32Module, uint32_t ui32Status)
    1c0c:	e92d 4ff0 	stmdb	sp!, {r4, r5, r6, r7, r8, r9, sl, fp, lr}
    g_iom_error_status[ui32Module] |= ui32Status;
    1c10:	4da8      	ldr	r5, [pc, #672]	; (1eb4 <am_hal_iom_int_service.part.20+0x2a8>)
    1c12:	5c2b      	ldrb	r3, [r5, r0]
    1c14:	430b      	orrs	r3, r1
    1c16:	b2db      	uxtb	r3, r3
    if ( ui32Status & AM_HAL_IOM_INT_CMDCMP )
    1c18:	07ca      	lsls	r2, r1, #31
am_hal_iom_int_service(uint32_t ui32Module, uint32_t ui32Status)
    1c1a:	b085      	sub	sp, #20
    1c1c:	4604      	mov	r4, r0
    g_iom_error_status[ui32Module] |= ui32Status;
    1c1e:	542b      	strb	r3, [r5, r0]
    if ( ui32Status & AM_HAL_IOM_INT_CMDCMP )
    1c20:	f140 8094 	bpl.w	1d4c <am_hal_iom_int_service.part.20+0x140>
        if ( psBuffer->ui32State == BUFFER_IDLE )
    1c24:	0086      	lsls	r6, r0, #2
    1c26:	1830      	adds	r0, r6, r0
    1c28:	0082      	lsls	r2, r0, #2
    1c2a:	4fa3      	ldr	r7, [pc, #652]	; (1eb8 <am_hal_iom_int_service.part.20+0x2ac>)
        g_bIomBusy[ui32Module] = false;
    1c2c:	48a3      	ldr	r0, [pc, #652]	; (1ebc <am_hal_iom_int_service.part.20+0x2b0>)
        if ( psBuffer->ui32State == BUFFER_IDLE )
    1c2e:	58b9      	ldr	r1, [r7, r2]
        g_bIomBusy[ui32Module] = false;
    1c30:	f04f 0e00 	mov.w	lr, #0
        if ( psBuffer->ui32State == BUFFER_IDLE )
    1c34:	443a      	add	r2, r7
        g_bIomBusy[ui32Module] = false;
    1c36:	f800 e004 	strb.w	lr, [r0, r4]
        if ( psBuffer->ui32State == BUFFER_IDLE )
    1c3a:	2900      	cmp	r1, #0
    1c3c:	f000 8083 	beq.w	1d46 <am_hal_iom_int_service.part.20+0x13a>
    return AM_BFRn(IOMSTR, ui32Module, FIFOPTR, FIFOSIZ);
    1c40:	f504 28a0 	add.w	r8, r4, #327680	; 0x50000
    1c44:	f108 0004 	add.w	r0, r8, #4
        if ( psBuffer->ui32State == BUFFER_RECEIVING )
    1c48:	2902      	cmp	r1, #2
    return AM_BFRn(IOMSTR, ui32Module, FIFOPTR, FIFOSIZ);
    1c4a:	ea4f 3800 	mov.w	r8, r0, lsl #12
        if ( psBuffer->ui32State == BUFFER_RECEIVING )
    1c4e:	f000 81e3 	beq.w	2018 <am_hal_iom_int_service.part.20+0x40c>
        psBuffer->ui32State = BUFFER_IDLE;
    1c52:	1932      	adds	r2, r6, r4
    1c54:	0090      	lsls	r0, r2, #2
    1c56:	2100      	movs	r1, #0
    1c58:	5039      	str	r1, [r7, r0]
        uint32_t u32RetVal = AM_REGn(IOMSTR, ui32Module, INTSTAT);
        return u32RetVal & AM_REGn(IOMSTR, ui32Module, INTEN);
    }
    else
    {
        return AM_REGn(IOMSTR, ui32Module, INTSTAT);
    1c5a:	f8d8 2204 	ldr.w	r2, [r8, #516]	; 0x204
    ui32IntStatus |= am_hal_iom_int_status_get(ui32Module, false);
    1c5e:	4313      	orrs	r3, r2
    if (ui32IntStatus & AM_HAL_IOM_INT_SWERR)
    1c60:	f013 0fcc 	tst.w	r3, #204	; 0xcc
    1c64:	f040 8098 	bne.w	1d98 <am_hal_iom_int_service.part.20+0x18c>
    else if (ui32IntStatus & AM_HAL_IOM_INT_I2CARBERR)
    1c68:	f413 6fe0 	tst.w	r3, #1792	; 0x700
    1c6c:	f040 8096 	bne.w	1d9c <am_hal_iom_int_service.part.20+0x190>
    am_hal_iom_status_e ui32Status = AM_HAL_IOM_SUCCESS;
    1c70:	f013 0f10 	tst.w	r3, #16
    1c74:	bf14      	ite	ne
    1c76:	2306      	movne	r3, #6
    1c78:	460b      	moveq	r3, r1
        if ( psBuffer->pfnCallback )
    1c7a:	4426      	add	r6, r4
    1c7c:	eb07 0686 	add.w	r6, r7, r6, lsl #2
        g_iom_error_status[ui32Module] = internal_iom_get_int_err(ui32Module, g_iom_error_status[ui32Module]);
    1c80:	552b      	strb	r3, [r5, r4]
        if ( psBuffer->pfnCallback )
    1c82:	6930      	ldr	r0, [r6, #16]
    1c84:	2800      	cmp	r0, #0
    1c86:	d05e      	beq.n	1d46 <am_hal_iom_int_service.part.20+0x13a>
}
    1c88:	b005      	add	sp, #20
    1c8a:	e8bd 4ff0 	ldmia.w	sp!, {r4, r5, r6, r7, r8, r9, sl, fp, lr}
            psBuffer->pfnCallback();
    1c8e:	4700      	bx	r0
                    am_hal_iom_fifo_read(ui32Module, psBuffer->pui32Data,
    1c90:	eb03 0c8b 	add.w	ip, r3, fp, lsl #2
    if ( AM_REG_IOMSTR_CFG_FULLDUP_NORMAL == (AM_REGn(IOMSTR, ui32Module, CFG) & AM_REG_IOMSTR_CFG_FULLDUP_M) )
    1c94:	f8d8 311c 	ldr.w	r3, [r8, #284]	; 0x11c
                    am_hal_iom_fifo_read(ui32Module, psBuffer->pui32Data,
    1c98:	f8dc 5004 	ldr.w	r5, [ip, #4]
    if ( AM_REG_IOMSTR_CFG_FULLDUP_NORMAL == (AM_REGn(IOMSTR, ui32Module, CFG) & AM_REG_IOMSTR_CFG_FULLDUP_M) )
    1c9c:	0719      	lsls	r1, r3, #28
    1c9e:	d40a      	bmi.n	1cb6 <am_hal_iom_int_service.part.20+0xaa>
    return AM_BFRn(IOMSTR, ui32Module, FIFOPTR, FIFOSIZ);
    1ca0:	f8d8 6100 	ldr.w	r6, [r8, #256]	; 0x100
        am_hal_debug_assert_msg((am_hal_iom_fifo_full_slots(ui32Module) >= ui32NumBytes),
    1ca4:	b2f0      	uxtb	r0, r6
    1ca6:	4284      	cmp	r4, r0
    1ca8:	d905      	bls.n	1cb6 <am_hal_iom_int_service.part.20+0xaa>
    1caa:	4a85      	ldr	r2, [pc, #532]	; (1ec0 <am_hal_iom_int_service.part.20+0x2b4>)
    1cac:	4885      	ldr	r0, [pc, #532]	; (1ec4 <am_hal_iom_int_service.part.20+0x2b8>)
    1cae:	f44f 6178 	mov.w	r1, #3968	; 0xf80
    1cb2:	f7ff fe3d 	bl	1930 <am_hal_debug_error>
    for ( i = 0; i < ui32NumWords; i++ )
    1cb6:	ea5f 0994 	movs.w	r9, r4, lsr #2
    1cba:	f007 0203 	and.w	r2, r7, #3
    1cbe:	d038      	beq.n	1d32 <am_hal_iom_int_service.part.20+0x126>
        pui32Data[i] = AM_REGn(IOMSTR, ui32Module, FIFO);
    1cc0:	462f      	mov	r7, r5
    1cc2:	f8d8 1000 	ldr.w	r1, [r8]
    1cc6:	f847 1b04 	str.w	r1, [r7], #4
    1cca:	eb05 0389 	add.w	r3, r5, r9, lsl #2
    1cce:	1b5c      	subs	r4, r3, r5
    1cd0:	1f26      	subs	r6, r4, #4
    for ( i = 0; i < ui32NumWords; i++ )
    1cd2:	429f      	cmp	r7, r3
    1cd4:	f3c6 0182 	ubfx	r1, r6, #2, #3
    1cd8:	d02b      	beq.n	1d32 <am_hal_iom_int_service.part.20+0x126>
    1cda:	2900      	cmp	r1, #0
    1cdc:	d060      	beq.n	1da0 <am_hal_iom_int_service.part.20+0x194>
    1cde:	2901      	cmp	r1, #1
    1ce0:	d021      	beq.n	1d26 <am_hal_iom_int_service.part.20+0x11a>
    1ce2:	2902      	cmp	r1, #2
    1ce4:	d01b      	beq.n	1d1e <am_hal_iom_int_service.part.20+0x112>
    1ce6:	2903      	cmp	r1, #3
    1ce8:	d015      	beq.n	1d16 <am_hal_iom_int_service.part.20+0x10a>
    1cea:	2904      	cmp	r1, #4
    1cec:	d00f      	beq.n	1d0e <am_hal_iom_int_service.part.20+0x102>
    1cee:	2905      	cmp	r1, #5
    1cf0:	d009      	beq.n	1d06 <am_hal_iom_int_service.part.20+0xfa>
    1cf2:	2906      	cmp	r1, #6
        pui32Data[i] = AM_REGn(IOMSTR, ui32Module, FIFO);
    1cf4:	bf1c      	itt	ne
    1cf6:	f8d8 1000 	ldrne.w	r1, [r8]
    1cfa:	f847 1b04 	strne.w	r1, [r7], #4
    1cfe:	f8d8 4000 	ldr.w	r4, [r8]
    1d02:	f847 4b04 	str.w	r4, [r7], #4
    1d06:	f8d8 6000 	ldr.w	r6, [r8]
    1d0a:	f847 6b04 	str.w	r6, [r7], #4
    1d0e:	f8d8 1000 	ldr.w	r1, [r8]
    1d12:	f847 1b04 	str.w	r1, [r7], #4
    1d16:	f8d8 4000 	ldr.w	r4, [r8]
    1d1a:	f847 4b04 	str.w	r4, [r7], #4
    1d1e:	f8d8 6000 	ldr.w	r6, [r8]
    1d22:	f847 6b04 	str.w	r6, [r7], #4
    1d26:	f8d8 1000 	ldr.w	r1, [r8]
    1d2a:	f847 1b04 	str.w	r1, [r7], #4
    for ( i = 0; i < ui32NumWords; i++ )
    1d2e:	429f      	cmp	r7, r3
    1d30:	d136      	bne.n	1da0 <am_hal_iom_int_service.part.20+0x194>
    if ( ui32Leftovers )
    1d32:	b142      	cbz	r2, 1d46 <am_hal_iom_int_service.part.20+0x13a>
        sTempBuffer.words[0] = AM_REGn(IOMSTR, ui32Module, FIFO);
    1d34:	a904      	add	r1, sp, #16
    1d36:	f8d8 7000 	ldr.w	r7, [r8]
    1d3a:	f841 7d04 	str.w	r7, [r1, #-4]!
    1d3e:	eb05 0089 	add.w	r0, r5, r9, lsl #2
    1d42:	f002 fee1 	bl	4b08 <memcpy>
}
    1d46:	b005      	add	sp, #20
    1d48:	e8bd 8ff0 	ldmia.w	sp!, {r4, r5, r6, r7, r8, r9, sl, fp, pc}
    else if ( ui32Status & AM_HAL_IOM_INT_THR )
    1d4c:	0788      	lsls	r0, r1, #30
    1d4e:	d5fa      	bpl.n	1d46 <am_hal_iom_int_service.part.20+0x13a>
        if ( psBuffer->ui32State == BUFFER_IDLE )
    1d50:	eb04 0b84 	add.w	fp, r4, r4, lsl #2
    1d54:	ea4f 068b 	mov.w	r6, fp, lsl #2
    1d58:	4b57      	ldr	r3, [pc, #348]	; (1eb8 <am_hal_iom_int_service.part.20+0x2ac>)
    1d5a:	599a      	ldr	r2, [r3, r6]
    1d5c:	441e      	add	r6, r3
    1d5e:	2a00      	cmp	r2, #0
    1d60:	d0f1      	beq.n	1d46 <am_hal_iom_int_service.part.20+0x13a>
            thresh = AM_BFRn(IOMSTR, ui32Module, FIFOTHR, FIFOWTHR);
    1d62:	f504 24a0 	add.w	r4, r4, #327680	; 0x50000
        if ( psBuffer->ui32State == BUFFER_SENDING )
    1d66:	2a01      	cmp	r2, #1
            thresh = AM_BFRn(IOMSTR, ui32Module, FIFOTHR, FIFOWTHR);
    1d68:	f104 0404 	add.w	r4, r4, #4
        if ( psBuffer->ui32State == BUFFER_SENDING )
    1d6c:	f000 80ac 	beq.w	1ec8 <am_hal_iom_int_service.part.20+0x2bc>
            thresh = AM_BFRn(IOMSTR, ui32Module, FIFOTHR, FIFORTHR);
    1d70:	ea4f 3804 	mov.w	r8, r4, lsl #12
    1d74:	f508 7a80 	add.w	sl, r8, #256	; 0x100
    1d78:	f8d8 0108 	ldr.w	r0, [r8, #264]	; 0x108
    1d7c:	f000 097f 	and.w	r9, r0, #127	; 0x7f
    1d80:	e004      	b.n	1d8c <am_hal_iom_int_service.part.20+0x180>
                if ( ui32NumBytes == psBuffer->ui32BytesLeft )
    1d82:	68b4      	ldr	r4, [r6, #8]
    1d84:	42ac      	cmp	r4, r5
    1d86:	d083      	beq.n	1c90 <am_hal_iom_int_service.part.20+0x84>
                else if ( ui32NumBytes >= 4 )
    1d88:	2d03      	cmp	r5, #3
    1d8a:	d828      	bhi.n	1dde <am_hal_iom_int_service.part.20+0x1d2>
    return AM_BFRn(IOMSTR, ui32Module, FIFOPTR, FIFOSIZ);
    1d8c:	f8da 7000 	ldr.w	r7, [sl]
    1d90:	b2fd      	uxtb	r5, r7
            while ( (ui32NumBytes = am_hal_iom_fifo_full_slots(ui32Module)) >= thresh )
    1d92:	45a9      	cmp	r9, r5
    1d94:	d9f5      	bls.n	1d82 <am_hal_iom_int_service.part.20+0x176>
    1d96:	e7d6      	b.n	1d46 <am_hal_iom_int_service.part.20+0x13a>
        ui32Status = AM_HAL_IOM_ERR_INVALID_OPER;
    1d98:	2305      	movs	r3, #5
    1d9a:	e76e      	b.n	1c7a <am_hal_iom_int_service.part.20+0x6e>
        ui32Status = AM_HAL_IOM_ERR_I2C_ARB;
    1d9c:	2307      	movs	r3, #7
    1d9e:	e76c      	b.n	1c7a <am_hal_iom_int_service.part.20+0x6e>
        pui32Data[i] = AM_REGn(IOMSTR, ui32Module, FIFO);
    1da0:	46ba      	mov	sl, r7
    1da2:	f8d8 0000 	ldr.w	r0, [r8]
    1da6:	f84a 0b04 	str.w	r0, [sl], #4
    1daa:	f8d8 4000 	ldr.w	r4, [r8]
    1dae:	607c      	str	r4, [r7, #4]
    1db0:	f8d8 6000 	ldr.w	r6, [r8]
    1db4:	f8ca 6004 	str.w	r6, [sl, #4]
    1db8:	f8d8 1000 	ldr.w	r1, [r8]
    1dbc:	60f9      	str	r1, [r7, #12]
    1dbe:	f8d8 0000 	ldr.w	r0, [r8]
    1dc2:	6138      	str	r0, [r7, #16]
    1dc4:	f8d8 4000 	ldr.w	r4, [r8]
    1dc8:	617c      	str	r4, [r7, #20]
    1dca:	f8d8 6000 	ldr.w	r6, [r8]
    1dce:	61be      	str	r6, [r7, #24]
    1dd0:	f8d8 1000 	ldr.w	r1, [r8]
    1dd4:	61f9      	str	r1, [r7, #28]
    1dd6:	3720      	adds	r7, #32
    for ( i = 0; i < ui32NumWords; i++ )
    1dd8:	429f      	cmp	r7, r3
    1dda:	d1e1      	bne.n	1da0 <am_hal_iom_int_service.part.20+0x194>
    1ddc:	e7a9      	b.n	1d32 <am_hal_iom_int_service.part.20+0x126>
    if ( AM_REG_IOMSTR_CFG_FULLDUP_NORMAL == (AM_REGn(IOMSTR, ui32Module, CFG) & AM_REG_IOMSTR_CFG_FULLDUP_M) )
    1dde:	f8d8 111c 	ldr.w	r1, [r8, #284]	; 0x11c
                    am_hal_iom_fifo_read(ui32Module, psBuffer->pui32Data, ui32NumBytes);
    1de2:	6874      	ldr	r4, [r6, #4]
    if ( AM_REG_IOMSTR_CFG_FULLDUP_NORMAL == (AM_REGn(IOMSTR, ui32Module, CFG) & AM_REG_IOMSTR_CFG_FULLDUP_M) )
    1de4:	070a      	lsls	r2, r1, #28
                    ui32NumBytes = (ui32NumBytes & (~0x3));
    1de6:	f007 07fc 	and.w	r7, r7, #252	; 0xfc
    if ( AM_REG_IOMSTR_CFG_FULLDUP_NORMAL == (AM_REGn(IOMSTR, ui32Module, CFG) & AM_REG_IOMSTR_CFG_FULLDUP_M) )
    1dea:	f140 8106 	bpl.w	1ffa <am_hal_iom_int_service.part.20+0x3ee>
        pui32Data[i] = AM_REGn(IOMSTR, ui32Module, FIFO);
    1dee:	4622      	mov	r2, r4
    1df0:	f8d8 1000 	ldr.w	r1, [r8]
    1df4:	f842 1b04 	str.w	r1, [r2], #4
    1df8:	f005 0cfc 	and.w	ip, r5, #252	; 0xfc
    1dfc:	f1ac 0504 	sub.w	r5, ip, #4
    1e00:	44a4      	add	ip, r4
    for ( i = 0; i < ui32NumWords; i++ )
    1e02:	4594      	cmp	ip, r2
    1e04:	f3c5 0082 	ubfx	r0, r5, #2, #3
    1e08:	d047      	beq.n	1e9a <am_hal_iom_int_service.part.20+0x28e>
    1e0a:	b348      	cbz	r0, 1e60 <am_hal_iom_int_service.part.20+0x254>
    1e0c:	2801      	cmp	r0, #1
    1e0e:	d021      	beq.n	1e54 <am_hal_iom_int_service.part.20+0x248>
    1e10:	2802      	cmp	r0, #2
    1e12:	d01b      	beq.n	1e4c <am_hal_iom_int_service.part.20+0x240>
    1e14:	2803      	cmp	r0, #3
    1e16:	d015      	beq.n	1e44 <am_hal_iom_int_service.part.20+0x238>
    1e18:	2804      	cmp	r0, #4
    1e1a:	d00f      	beq.n	1e3c <am_hal_iom_int_service.part.20+0x230>
    1e1c:	2805      	cmp	r0, #5
    1e1e:	d009      	beq.n	1e34 <am_hal_iom_int_service.part.20+0x228>
    1e20:	2806      	cmp	r0, #6
    1e22:	d003      	beq.n	1e2c <am_hal_iom_int_service.part.20+0x220>
        pui32Data[i] = AM_REGn(IOMSTR, ui32Module, FIFO);
    1e24:	f8d8 1000 	ldr.w	r1, [r8]
    1e28:	6061      	str	r1, [r4, #4]
    1e2a:	3204      	adds	r2, #4
    1e2c:	f8d8 4000 	ldr.w	r4, [r8]
    1e30:	f842 4b04 	str.w	r4, [r2], #4
    1e34:	f8d8 5000 	ldr.w	r5, [r8]
    1e38:	f842 5b04 	str.w	r5, [r2], #4
    1e3c:	f8d8 0000 	ldr.w	r0, [r8]
    1e40:	f842 0b04 	str.w	r0, [r2], #4
    1e44:	f8d8 1000 	ldr.w	r1, [r8]
    1e48:	f842 1b04 	str.w	r1, [r2], #4
    1e4c:	f8d8 4000 	ldr.w	r4, [r8]
    1e50:	f842 4b04 	str.w	r4, [r2], #4
    1e54:	f8d8 5000 	ldr.w	r5, [r8]
    1e58:	f842 5b04 	str.w	r5, [r2], #4
    for ( i = 0; i < ui32NumWords; i++ )
    1e5c:	4594      	cmp	ip, r2
    1e5e:	d01c      	beq.n	1e9a <am_hal_iom_int_service.part.20+0x28e>
        pui32Data[i] = AM_REGn(IOMSTR, ui32Module, FIFO);
    1e60:	4610      	mov	r0, r2
    1e62:	f8d8 1000 	ldr.w	r1, [r8]
    1e66:	f840 1b04 	str.w	r1, [r0], #4
    1e6a:	f8d8 4000 	ldr.w	r4, [r8]
    1e6e:	6054      	str	r4, [r2, #4]
    1e70:	f8d8 5000 	ldr.w	r5, [r8]
    1e74:	6045      	str	r5, [r0, #4]
    1e76:	f8d8 0000 	ldr.w	r0, [r8]
    1e7a:	60d0      	str	r0, [r2, #12]
    1e7c:	f8d8 1000 	ldr.w	r1, [r8]
    1e80:	6111      	str	r1, [r2, #16]
    1e82:	f8d8 4000 	ldr.w	r4, [r8]
    1e86:	6154      	str	r4, [r2, #20]
    1e88:	f8d8 5000 	ldr.w	r5, [r8]
    1e8c:	6195      	str	r5, [r2, #24]
    1e8e:	f8d8 0000 	ldr.w	r0, [r8]
    1e92:	61d0      	str	r0, [r2, #28]
    1e94:	3220      	adds	r2, #32
    for ( i = 0; i < ui32NumWords; i++ )
    1e96:	4594      	cmp	ip, r2
    1e98:	d1e2      	bne.n	1e60 <am_hal_iom_int_service.part.20+0x254>
                    psBuffer->ui32BytesLeft -= ui32NumBytes;
    1e9a:	68b1      	ldr	r1, [r6, #8]
                    psBuffer->pui32Data += (ui32NumBytes / 4);
    1e9c:	6872      	ldr	r2, [r6, #4]
                    psBuffer->ui32BytesLeft -= ui32NumBytes;
    1e9e:	1bcc      	subs	r4, r1, r7
                    psBuffer->pui32Data += (ui32NumBytes / 4);
    1ea0:	4417      	add	r7, r2
                    psBuffer->ui32BytesLeft -= ui32NumBytes;
    1ea2:	60b4      	str	r4, [r6, #8]
                    psBuffer->pui32Data += (ui32NumBytes / 4);
    1ea4:	6077      	str	r7, [r6, #4]
                    AM_BFWn(IOMSTR, ui32Module, INTCLR, THR, 1);
    1ea6:	f8d8 7208 	ldr.w	r7, [r8, #520]	; 0x208
    1eaa:	f047 0502 	orr.w	r5, r7, #2
    1eae:	f8c8 5208 	str.w	r5, [r8, #520]	; 0x208
    1eb2:	e76b      	b.n	1d8c <am_hal_iom_int_service.part.20+0x180>
    1eb4:	1000085c 	.word	0x1000085c
    1eb8:	10000a88 	.word	0x10000a88
    1ebc:	10000854 	.word	0x10000854
    1ec0:	00004be0 	.word	0x00004be0
    1ec4:	00004bcc 	.word	0x00004bcc
            thresh = AM_BFRn(IOMSTR, ui32Module, FIFOTHR, FIFOWTHR);
    1ec8:	0324      	lsls	r4, r4, #12
    1eca:	6877      	ldr	r7, [r6, #4]
    1ecc:	f8d4 2108 	ldr.w	r2, [r4, #264]	; 0x108
    1ed0:	f504 7a02 	add.w	sl, r4, #520	; 0x208
    1ed4:	f3c2 2b06 	ubfx	fp, r2, #8, #7
    1ed8:	f504 798e 	add.w	r9, r4, #284	; 0x11c
    1edc:	f504 7880 	add.w	r8, r4, #256	; 0x100
    ui32MaxFifoSize = ((0 == AM_BFRn(IOMSTR, ui32Module, CFG, FULLDUP)) ? AM_HAL_IOM_MAX_FIFO_SIZE : AM_HAL_IOM_MAX_FIFO_SIZE / 2);
    1ee0:	f8d9 3000 	ldr.w	r3, [r9]
    return (ui32MaxFifoSize - AM_BFRn(IOMSTR, ui32Module, FIFOPTR, FIFOSIZ)) & (~0x3);
    1ee4:	f8d8 5000 	ldr.w	r5, [r8]
    1ee8:	68b2      	ldr	r2, [r6, #8]
    ui32MaxFifoSize = ((0 == AM_BFRn(IOMSTR, ui32Module, CFG, FULLDUP)) ? AM_HAL_IOM_MAX_FIFO_SIZE : AM_HAL_IOM_MAX_FIFO_SIZE / 2);
    1eea:	f8d9 1000 	ldr.w	r1, [r9]
    1eee:	f013 0f08 	tst.w	r3, #8
    1ef2:	bf14      	ite	ne
    1ef4:	2340      	movne	r3, #64	; 0x40
    1ef6:	2380      	moveq	r3, #128	; 0x80
    return (ui32MaxFifoSize - AM_BFRn(IOMSTR, ui32Module, FIFOPTR, FIFOSIZ)) & (~0x3);
    1ef8:	1b58      	subs	r0, r3, r5
                ui32SpaceInFifo = am_hal_iom_fifo_empty_slots(ui32Module);
    1efa:	f000 05fc 	and.w	r5, r0, #252	; 0xfc
    1efe:	4295      	cmp	r5, r2
    1f00:	bf28      	it	cs
    1f02:	4615      	movcs	r5, r2
    return (ui32MaxFifoSize - AM_BFRn(IOMSTR, ui32Module, FIFOPTR, FIFOSIZ)) & (~0x3);
    1f04:	f8d8 3000 	ldr.w	r3, [r8]
    ui32MaxFifoSize = ((0 == AM_BFRn(IOMSTR, ui32Module, CFG, FULLDUP)) ? AM_HAL_IOM_MAX_FIFO_SIZE : AM_HAL_IOM_MAX_FIFO_SIZE / 2);
    1f08:	f011 0f08 	tst.w	r1, #8
    1f0c:	bf14      	ite	ne
    1f0e:	2240      	movne	r2, #64	; 0x40
    1f10:	2280      	moveq	r2, #128	; 0x80
    return (ui32MaxFifoSize - AM_BFRn(IOMSTR, ui32Module, FIFOPTR, FIFOSIZ)) & (~0x3);
    1f12:	1ad2      	subs	r2, r2, r3
    am_hal_debug_assert_msg((am_hal_iom_fifo_empty_slots(ui32Module) >= ui32NumBytes),
    1f14:	f002 01fc 	and.w	r1, r2, #252	; 0xfc
    1f18:	428d      	cmp	r5, r1
    1f1a:	d867      	bhi.n	1fec <am_hal_iom_int_service.part.20+0x3e0>
    for ( ui32Index = 0; (4 * ui32Index) < ui32NumBytes; ui32Index++ )
    1f1c:	2d00      	cmp	r5, #0
    1f1e:	d04d      	beq.n	1fbc <am_hal_iom_int_service.part.20+0x3b0>
        AM_REGn(IOMSTR, ui32Module, FIFO) = pui32Data[ui32Index];
    1f20:	463b      	mov	r3, r7
    1f22:	43fa      	mvns	r2, r7
    1f24:	f853 0b04 	ldr.w	r0, [r3], #4
    1f28:	6020      	str	r0, [r4, #0]
    1f2a:	443a      	add	r2, r7
    for ( ui32Index = 0; (4 * ui32Index) < ui32NumBytes; ui32Index++ )
    1f2c:	1bd8      	subs	r0, r3, r7
    1f2e:	442a      	add	r2, r5
    1f30:	4285      	cmp	r5, r0
    1f32:	f3c2 0182 	ubfx	r1, r2, #2, #3
    1f36:	d941      	bls.n	1fbc <am_hal_iom_int_service.part.20+0x3b0>
    1f38:	b319      	cbz	r1, 1f82 <am_hal_iom_int_service.part.20+0x376>
    1f3a:	2901      	cmp	r1, #1
    1f3c:	d01b      	beq.n	1f76 <am_hal_iom_int_service.part.20+0x36a>
    1f3e:	2902      	cmp	r1, #2
    1f40:	d016      	beq.n	1f70 <am_hal_iom_int_service.part.20+0x364>
    1f42:	2903      	cmp	r1, #3
    1f44:	d011      	beq.n	1f6a <am_hal_iom_int_service.part.20+0x35e>
    1f46:	2904      	cmp	r1, #4
    1f48:	d00c      	beq.n	1f64 <am_hal_iom_int_service.part.20+0x358>
    1f4a:	2905      	cmp	r1, #5
    1f4c:	d007      	beq.n	1f5e <am_hal_iom_int_service.part.20+0x352>
    1f4e:	2906      	cmp	r1, #6
        AM_REGn(IOMSTR, ui32Module, FIFO) = pui32Data[ui32Index];
    1f50:	bf1c      	itt	ne
    1f52:	f853 1b04 	ldrne.w	r1, [r3], #4
    1f56:	6021      	strne	r1, [r4, #0]
    1f58:	f853 2b04 	ldr.w	r2, [r3], #4
    1f5c:	6022      	str	r2, [r4, #0]
    1f5e:	f853 0b04 	ldr.w	r0, [r3], #4
    1f62:	6020      	str	r0, [r4, #0]
    1f64:	f853 1b04 	ldr.w	r1, [r3], #4
    1f68:	6021      	str	r1, [r4, #0]
    1f6a:	f853 2b04 	ldr.w	r2, [r3], #4
    1f6e:	6022      	str	r2, [r4, #0]
    1f70:	f853 0b04 	ldr.w	r0, [r3], #4
    1f74:	6020      	str	r0, [r4, #0]
    1f76:	f853 1b04 	ldr.w	r1, [r3], #4
    1f7a:	6021      	str	r1, [r4, #0]
    for ( ui32Index = 0; (4 * ui32Index) < ui32NumBytes; ui32Index++ )
    1f7c:	1bda      	subs	r2, r3, r7
    1f7e:	4295      	cmp	r5, r2
    1f80:	d91c      	bls.n	1fbc <am_hal_iom_int_service.part.20+0x3b0>
        AM_REGn(IOMSTR, ui32Module, FIFO) = pui32Data[ui32Index];
    1f82:	469c      	mov	ip, r3
    1f84:	3320      	adds	r3, #32
    1f86:	f85c 0b04 	ldr.w	r0, [ip], #4
    1f8a:	6020      	str	r0, [r4, #0]
    1f8c:	f853 1c1c 	ldr.w	r1, [r3, #-28]
    1f90:	6021      	str	r1, [r4, #0]
    1f92:	f8dc 2004 	ldr.w	r2, [ip, #4]
    1f96:	6022      	str	r2, [r4, #0]
    1f98:	f853 0c14 	ldr.w	r0, [r3, #-20]
    1f9c:	6020      	str	r0, [r4, #0]
    1f9e:	f853 1c10 	ldr.w	r1, [r3, #-16]
    1fa2:	6021      	str	r1, [r4, #0]
    1fa4:	f853 2c0c 	ldr.w	r2, [r3, #-12]
    1fa8:	6022      	str	r2, [r4, #0]
    1faa:	f853 0c08 	ldr.w	r0, [r3, #-8]
    1fae:	6020      	str	r0, [r4, #0]
    1fb0:	f853 1c04 	ldr.w	r1, [r3, #-4]
    1fb4:	6021      	str	r1, [r4, #0]
    for ( ui32Index = 0; (4 * ui32Index) < ui32NumBytes; ui32Index++ )
    1fb6:	1bda      	subs	r2, r3, r7
    1fb8:	4295      	cmp	r5, r2
    1fba:	d8e2      	bhi.n	1f82 <am_hal_iom_int_service.part.20+0x376>
                AM_BFWn(IOMSTR, ui32Module, INTCLR, THR, 1);
    1fbc:	f8da 7000 	ldr.w	r7, [sl]
    1fc0:	f047 0302 	orr.w	r3, r7, #2
    1fc4:	f8ca 3000 	str.w	r3, [sl]
                psBuffer->ui32BytesLeft -= ui32NumBytes;
    1fc8:	68b0      	ldr	r0, [r6, #8]
                psBuffer->pui32Data += (ui32NumBytes / 4);
    1fca:	6877      	ldr	r7, [r6, #4]
    1fcc:	f025 0c03 	bic.w	ip, r5, #3
    1fd0:	4467      	add	r7, ip
                psBuffer->ui32BytesLeft -= ui32NumBytes;
    1fd2:	1b45      	subs	r5, r0, r5
    1fd4:	60b5      	str	r5, [r6, #8]
                psBuffer->pui32Data += (ui32NumBytes / 4);
    1fd6:	6077      	str	r7, [r6, #4]
                if ( 0 == psBuffer->ui32BytesLeft )
    1fd8:	2d00      	cmp	r5, #0
    1fda:	f43f aeb4 	beq.w	1d46 <am_hal_iom_int_service.part.20+0x13a>
    return AM_BFRn(IOMSTR, ui32Module, FIFOPTR, FIFOSIZ);
    1fde:	f8d8 1000 	ldr.w	r1, [r8]
            } while ( am_hal_iom_fifo_full_slots(ui32Module) <= thresh );
    1fe2:	b2ca      	uxtb	r2, r1
    1fe4:	4593      	cmp	fp, r2
    1fe6:	f4bf af7b 	bcs.w	1ee0 <am_hal_iom_int_service.part.20+0x2d4>
    1fea:	e6ac      	b.n	1d46 <am_hal_iom_int_service.part.20+0x13a>
    am_hal_debug_assert_msg((am_hal_iom_fifo_empty_slots(ui32Module) >= ui32NumBytes),
    1fec:	4a4a      	ldr	r2, [pc, #296]	; (2118 <am_hal_iom_int_service.part.20+0x50c>)
    1fee:	484b      	ldr	r0, [pc, #300]	; (211c <am_hal_iom_int_service.part.20+0x510>)
    1ff0:	f640 7145 	movw	r1, #3909	; 0xf45
    1ff4:	f7ff fc9c 	bl	1930 <am_hal_debug_error>
    1ff8:	e792      	b.n	1f20 <am_hal_iom_int_service.part.20+0x314>
    return AM_BFRn(IOMSTR, ui32Module, FIFOPTR, FIFOSIZ);
    1ffa:	f8da 2000 	ldr.w	r2, [sl]
        am_hal_debug_assert_msg((am_hal_iom_fifo_full_slots(ui32Module) >= ui32NumBytes),
    1ffe:	b2d0      	uxtb	r0, r2
    2000:	4287      	cmp	r7, r0
    2002:	f67f aef4 	bls.w	1dee <am_hal_iom_int_service.part.20+0x1e2>
    2006:	4a46      	ldr	r2, [pc, #280]	; (2120 <am_hal_iom_int_service.part.20+0x514>)
    2008:	4844      	ldr	r0, [pc, #272]	; (211c <am_hal_iom_int_service.part.20+0x510>)
    200a:	9301      	str	r3, [sp, #4]
    200c:	f44f 6178 	mov.w	r1, #3968	; 0xf80
    2010:	f7ff fc8e 	bl	1930 <am_hal_debug_error>
    2014:	9b01      	ldr	r3, [sp, #4]
    2016:	e6ea      	b.n	1dee <am_hal_iom_int_service.part.20+0x1e2>
    return AM_BFRn(IOMSTR, ui32Module, FIFOPTR, FIFOSIZ);
    2018:	f8d8 b100 	ldr.w	fp, [r8, #256]	; 0x100
    if ( AM_REG_IOMSTR_CFG_FULLDUP_NORMAL == (AM_REGn(IOMSTR, ui32Module, CFG) & AM_REG_IOMSTR_CFG_FULLDUP_M) )
    201c:	f8d8 311c 	ldr.w	r3, [r8, #284]	; 0x11c
            am_hal_iom_fifo_read(ui32Module, psBuffer->pui32Data, ui32NumBytes);
    2020:	f8d2 9004 	ldr.w	r9, [r2, #4]
    if ( AM_REG_IOMSTR_CFG_FULLDUP_NORMAL == (AM_REGn(IOMSTR, ui32Module, CFG) & AM_REG_IOMSTR_CFG_FULLDUP_M) )
    2024:	071b      	lsls	r3, r3, #28
    2026:	fa5f fa8b 	uxtb.w	sl, fp
    202a:	d569      	bpl.n	2100 <am_hal_iom_int_service.part.20+0x4f4>
    for ( i = 0; i < ui32NumWords; i++ )
    202c:	ea5f 009a 	movs.w	r0, sl, lsr #2
    2030:	f00b 0203 	and.w	r2, fp, #3
    2034:	d058      	beq.n	20e8 <am_hal_iom_int_service.part.20+0x4dc>
        pui32Data[i] = AM_REGn(IOMSTR, ui32Module, FIFO);
    2036:	464b      	mov	r3, r9
    2038:	f8d8 1000 	ldr.w	r1, [r8]
    203c:	f843 1b04 	str.w	r1, [r3], #4
    2040:	eb09 0e80 	add.w	lr, r9, r0, lsl #2
    2044:	ebae 0c09 	sub.w	ip, lr, r9
    2048:	f1ac 0b04 	sub.w	fp, ip, #4
    for ( i = 0; i < ui32NumWords; i++ )
    204c:	4573      	cmp	r3, lr
    204e:	f3cb 0182 	ubfx	r1, fp, #2, #3
    2052:	d049      	beq.n	20e8 <am_hal_iom_int_service.part.20+0x4dc>
    2054:	b349      	cbz	r1, 20aa <am_hal_iom_int_service.part.20+0x49e>
    2056:	2901      	cmp	r1, #1
    2058:	d021      	beq.n	209e <am_hal_iom_int_service.part.20+0x492>
    205a:	2902      	cmp	r1, #2
    205c:	d01b      	beq.n	2096 <am_hal_iom_int_service.part.20+0x48a>
    205e:	2903      	cmp	r1, #3
    2060:	d015      	beq.n	208e <am_hal_iom_int_service.part.20+0x482>
    2062:	2904      	cmp	r1, #4
    2064:	d00f      	beq.n	2086 <am_hal_iom_int_service.part.20+0x47a>
    2066:	2905      	cmp	r1, #5
    2068:	d009      	beq.n	207e <am_hal_iom_int_service.part.20+0x472>
    206a:	2906      	cmp	r1, #6
        pui32Data[i] = AM_REGn(IOMSTR, ui32Module, FIFO);
    206c:	bf1c      	itt	ne
    206e:	f8d8 1000 	ldrne.w	r1, [r8]
    2072:	f843 1b04 	strne.w	r1, [r3], #4
    2076:	f8d8 1000 	ldr.w	r1, [r8]
    207a:	f843 1b04 	str.w	r1, [r3], #4
    207e:	f8d8 1000 	ldr.w	r1, [r8]
    2082:	f843 1b04 	str.w	r1, [r3], #4
    2086:	f8d8 1000 	ldr.w	r1, [r8]
    208a:	f843 1b04 	str.w	r1, [r3], #4
    208e:	f8d8 1000 	ldr.w	r1, [r8]
    2092:	f843 1b04 	str.w	r1, [r3], #4
    2096:	f8d8 1000 	ldr.w	r1, [r8]
    209a:	f843 1b04 	str.w	r1, [r3], #4
    209e:	f8d8 1000 	ldr.w	r1, [r8]
    20a2:	f843 1b04 	str.w	r1, [r3], #4
    for ( i = 0; i < ui32NumWords; i++ )
    20a6:	4573      	cmp	r3, lr
    20a8:	d01e      	beq.n	20e8 <am_hal_iom_int_service.part.20+0x4dc>
        pui32Data[i] = AM_REGn(IOMSTR, ui32Module, FIFO);
    20aa:	469a      	mov	sl, r3
    20ac:	f8d8 c000 	ldr.w	ip, [r8]
    20b0:	f84a cb04 	str.w	ip, [sl], #4
    20b4:	f8d8 b000 	ldr.w	fp, [r8]
    20b8:	f8c3 b004 	str.w	fp, [r3, #4]
    20bc:	f8d8 c000 	ldr.w	ip, [r8]
    20c0:	f8ca c004 	str.w	ip, [sl, #4]
    20c4:	f8d8 1000 	ldr.w	r1, [r8]
    20c8:	60d9      	str	r1, [r3, #12]
    20ca:	f8d8 1000 	ldr.w	r1, [r8]
    20ce:	6119      	str	r1, [r3, #16]
    20d0:	f8d8 1000 	ldr.w	r1, [r8]
    20d4:	6159      	str	r1, [r3, #20]
    20d6:	f8d8 1000 	ldr.w	r1, [r8]
    20da:	6199      	str	r1, [r3, #24]
    20dc:	f8d8 1000 	ldr.w	r1, [r8]
    20e0:	61d9      	str	r1, [r3, #28]
    20e2:	3320      	adds	r3, #32
    for ( i = 0; i < ui32NumWords; i++ )
    20e4:	4573      	cmp	r3, lr
    20e6:	d1e0      	bne.n	20aa <am_hal_iom_int_service.part.20+0x49e>
    if ( ui32Leftovers )
    20e8:	b142      	cbz	r2, 20fc <am_hal_iom_int_service.part.20+0x4f0>
        sTempBuffer.words[0] = AM_REGn(IOMSTR, ui32Module, FIFO);
    20ea:	a904      	add	r1, sp, #16
    20ec:	f8d8 3000 	ldr.w	r3, [r8]
    20f0:	f841 3d04 	str.w	r3, [r1, #-4]!
    20f4:	eb09 0080 	add.w	r0, r9, r0, lsl #2
    20f8:	f002 fd06 	bl	4b08 <memcpy>
    20fc:	5d2b      	ldrb	r3, [r5, r4]
    20fe:	e5a8      	b.n	1c52 <am_hal_iom_int_service.part.20+0x46>
    return AM_BFRn(IOMSTR, ui32Module, FIFOPTR, FIFOSIZ);
    2100:	f8d8 2100 	ldr.w	r2, [r8, #256]	; 0x100
        am_hal_debug_assert_msg((am_hal_iom_fifo_full_slots(ui32Module) >= ui32NumBytes),
    2104:	b2d1      	uxtb	r1, r2
    2106:	458a      	cmp	sl, r1
    2108:	d990      	bls.n	202c <am_hal_iom_int_service.part.20+0x420>
    210a:	4a05      	ldr	r2, [pc, #20]	; (2120 <am_hal_iom_int_service.part.20+0x514>)
    210c:	4803      	ldr	r0, [pc, #12]	; (211c <am_hal_iom_int_service.part.20+0x510>)
    210e:	f44f 6178 	mov.w	r1, #3968	; 0xf80
    2112:	f7ff fc0d 	bl	1930 <am_hal_debug_error>
    2116:	e789      	b.n	202c <am_hal_iom_int_service.part.20+0x420>
    2118:	00004b98 	.word	0x00004b98
    211c:	00004bcc 	.word	0x00004bcc
    2120:	00004be0 	.word	0x00004be0

00002124 <am_hal_iom_pwrctrl_enable>:
    am_hal_debug_assert_msg(ui32Module < AM_REG_IOMSTR_NUM_MODULES,
    2124:	2805      	cmp	r0, #5
{
    2126:	b510      	push	{r4, lr}
    2128:	4604      	mov	r4, r0
    am_hal_debug_assert_msg(ui32Module < AM_REG_IOMSTR_NUM_MODULES,
    212a:	d905      	bls.n	2138 <am_hal_iom_pwrctrl_enable+0x14>
    212c:	4a05      	ldr	r2, [pc, #20]	; (2144 <am_hal_iom_pwrctrl_enable+0x20>)
    212e:	4806      	ldr	r0, [pc, #24]	; (2148 <am_hal_iom_pwrctrl_enable+0x24>)
    2130:	f240 21d5 	movw	r1, #725	; 0x2d5
    2134:	f7ff fbfc 	bl	1930 <am_hal_debug_error>
    am_hal_pwrctrl_periph_enable(AM_HAL_PWRCTRL_IOM0 << ui32Module);
    2138:	2002      	movs	r0, #2
    213a:	40a0      	lsls	r0, r4
}
    213c:	e8bd 4010 	ldmia.w	sp!, {r4, lr}
    am_hal_pwrctrl_periph_enable(AM_HAL_PWRCTRL_IOM0 << ui32Module);
    2140:	f001 beb4 	b.w	3eac <am_hal_pwrctrl_periph_enable>
    2144:	00004c4c 	.word	0x00004c4c
    2148:	00004bcc 	.word	0x00004bcc

0000214c <am_hal_iom_enable>:
    if ( ui32Module < AM_REG_IOMSTR_NUM_MODULES )
    214c:	2805      	cmp	r0, #5
    214e:	d80f      	bhi.n	2170 <am_hal_iom_enable+0x24>
        AM_REGn(IOMSTR, ui32Module, CFG) |= AM_REG_IOMSTR_CFG_IFCEN(1);
    2150:	f500 23a0 	add.w	r3, r0, #327680	; 0x50000
    2154:	3304      	adds	r3, #4
    2156:	031b      	lsls	r3, r3, #12
        g_bIomBusy[ui32Module] = false;
    2158:	4906      	ldr	r1, [pc, #24]	; (2174 <am_hal_iom_enable+0x28>)
        AM_REGn(IOMSTR, ui32Module, CFG) |= AM_REG_IOMSTR_CFG_IFCEN(1);
    215a:	f8d3 211c 	ldr.w	r2, [r3, #284]	; 0x11c
{
    215e:	b410      	push	{r4}
        AM_REGn(IOMSTR, ui32Module, CFG) |= AM_REG_IOMSTR_CFG_IFCEN(1);
    2160:	f042 4200 	orr.w	r2, r2, #2147483648	; 0x80000000
        g_bIomBusy[ui32Module] = false;
    2164:	2400      	movs	r4, #0
        AM_REGn(IOMSTR, ui32Module, CFG) |= AM_REG_IOMSTR_CFG_IFCEN(1);
    2166:	f8c3 211c 	str.w	r2, [r3, #284]	; 0x11c
        g_bIomBusy[ui32Module] = false;
    216a:	540c      	strb	r4, [r1, r0]
}
    216c:	f85d 4b04 	ldr.w	r4, [sp], #4
    2170:	4770      	bx	lr
    2172:	bf00      	nop
    2174:	10000854 	.word	0x10000854

00002178 <am_hal_iom_disable>:
    if ( ui32Module < AM_REG_IOMSTR_NUM_MODULES )
    2178:	2805      	cmp	r0, #5
    217a:	d80d      	bhi.n	2198 <am_hal_iom_disable+0x20>
    217c:	4a07      	ldr	r2, [pc, #28]	; (219c <am_hal_iom_disable+0x24>)
    while ( g_bIomBusy[ui32Module] );
    217e:	5c13      	ldrb	r3, [r2, r0]
    2180:	2b00      	cmp	r3, #0
    2182:	d1fc      	bne.n	217e <am_hal_iom_disable+0x6>
        AM_REGn(IOMSTR, ui32Module, CFG) &= ~(AM_REG_IOMSTR_CFG_IFCEN(1));
    2184:	f500 20a0 	add.w	r0, r0, #327680	; 0x50000
    2188:	3004      	adds	r0, #4
    218a:	0301      	lsls	r1, r0, #12
    218c:	f8d1 211c 	ldr.w	r2, [r1, #284]	; 0x11c
    2190:	f022 4300 	bic.w	r3, r2, #2147483648	; 0x80000000
    2194:	f8c1 311c 	str.w	r3, [r1, #284]	; 0x11c
    2198:	4770      	bx	lr
    219a:	bf00      	nop
    219c:	10000854 	.word	0x10000854

000021a0 <am_hal_iom_power_on_restore>:
    am_hal_debug_assert_msg(ui32Module < AM_REG_IOMSTR_NUM_MODULES,
    21a0:	2805      	cmp	r0, #5
{
    21a2:	b5f8      	push	{r3, r4, r5, r6, r7, lr}
    21a4:	4604      	mov	r4, r0
    am_hal_debug_assert_msg(ui32Module < AM_REG_IOMSTR_NUM_MODULES,
    21a6:	d81d      	bhi.n	21e4 <am_hal_iom_power_on_restore+0x44>
    if ( am_hal_iom_pwrsave[ui32Module].bValid == 0 )
    21a8:	eb04 0584 	add.w	r5, r4, r4, lsl #2
    21ac:	4f11      	ldr	r7, [pc, #68]	; (21f4 <am_hal_iom_power_on_restore+0x54>)
    21ae:	00ad      	lsls	r5, r5, #2
    21b0:	197e      	adds	r6, r7, r5
    21b2:	6933      	ldr	r3, [r6, #16]
    21b4:	b1ab      	cbz	r3, 21e2 <am_hal_iom_power_on_restore+0x42>
    am_hal_pwrctrl_periph_enable(AM_HAL_PWRCTRL_IOM0 << ui32Module);
    21b6:	2002      	movs	r0, #2
    21b8:	40a0      	lsls	r0, r4
    21ba:	f001 fe77 	bl	3eac <am_hal_pwrctrl_periph_enable>
    AM_REGn(IOMSTR, ui32Module, FIFOTHR) = am_hal_iom_pwrsave[ui32Module].FIFOTHR;
    21be:	f504 20a0 	add.w	r0, r4, #327680	; 0x50000
    21c2:	3004      	adds	r0, #4
    21c4:	0301      	lsls	r1, r0, #12
    21c6:	597a      	ldr	r2, [r7, r5]
    21c8:	f8c1 2108 	str.w	r2, [r1, #264]	; 0x108
    AM_REGn(IOMSTR, ui32Module, CLKCFG) = am_hal_iom_pwrsave[ui32Module].CLKCFG;
    21cc:	6874      	ldr	r4, [r6, #4]
    21ce:	f8c1 410c 	str.w	r4, [r1, #268]	; 0x10c
    AM_REGn(IOMSTR, ui32Module, CFG) = am_hal_iom_pwrsave[ui32Module].CFG;
    21d2:	68b7      	ldr	r7, [r6, #8]
    21d4:	f8c1 711c 	str.w	r7, [r1, #284]	; 0x11c
    AM_REGn(IOMSTR, ui32Module, INTEN) = am_hal_iom_pwrsave[ui32Module].INTEN;
    21d8:	68f5      	ldr	r5, [r6, #12]
    21da:	f8c1 5200 	str.w	r5, [r1, #512]	; 0x200
    am_hal_iom_pwrsave[ui32Module].bValid = 0;
    21de:	2300      	movs	r3, #0
    21e0:	6133      	str	r3, [r6, #16]
    21e2:	bdf8      	pop	{r3, r4, r5, r6, r7, pc}
    am_hal_debug_assert_msg(ui32Module < AM_REG_IOMSTR_NUM_MODULES,
    21e4:	4a04      	ldr	r2, [pc, #16]	; (21f8 <am_hal_iom_power_on_restore+0x58>)
    21e6:	4805      	ldr	r0, [pc, #20]	; (21fc <am_hal_iom_power_on_restore+0x5c>)
    21e8:	f240 3136 	movw	r1, #822	; 0x336
    21ec:	f7ff fba0 	bl	1930 <am_hal_debug_error>
    21f0:	e7da      	b.n	21a8 <am_hal_iom_power_on_restore+0x8>
    21f2:	bf00      	nop
    21f4:	10000b90 	.word	0x10000b90
    21f8:	00004c4c 	.word	0x00004c4c
    21fc:	00004bcc 	.word	0x00004bcc

00002200 <am_hal_iom_power_off_save>:
    am_hal_debug_assert_msg(ui32Module < AM_REG_IOMSTR_NUM_MODULES,
    2200:	2805      	cmp	r0, #5
{
    2202:	b510      	push	{r4, lr}
    2204:	4604      	mov	r4, r0
    am_hal_debug_assert_msg(ui32Module < AM_REG_IOMSTR_NUM_MODULES,
    2206:	d905      	bls.n	2214 <am_hal_iom_power_off_save+0x14>
    2208:	4a11      	ldr	r2, [pc, #68]	; (2250 <am_hal_iom_power_off_save+0x50>)
    220a:	4812      	ldr	r0, [pc, #72]	; (2254 <am_hal_iom_power_off_save+0x54>)
    220c:	f240 316a 	movw	r1, #874	; 0x36a
    2210:	f7ff fb8e 	bl	1930 <am_hal_debug_error>
    am_hal_iom_pwrsave[ui32Module].FIFOTHR = AM_REGn(IOMSTR, ui32Module, FIFOTHR);
    2214:	f504 23a0 	add.w	r3, r4, #327680	; 0x50000
    2218:	3304      	adds	r3, #4
    221a:	031b      	lsls	r3, r3, #12
    221c:	eb04 0284 	add.w	r2, r4, r4, lsl #2
    2220:	0091      	lsls	r1, r2, #2
    2222:	4a0d      	ldr	r2, [pc, #52]	; (2258 <am_hal_iom_power_off_save+0x58>)
    2224:	f8d3 0108 	ldr.w	r0, [r3, #264]	; 0x108
    2228:	5050      	str	r0, [r2, r1]
    222a:	440a      	add	r2, r1
    am_hal_iom_pwrsave[ui32Module].CLKCFG = AM_REGn(IOMSTR, ui32Module, CLKCFG);
    222c:	f8d3 110c 	ldr.w	r1, [r3, #268]	; 0x10c
    2230:	6051      	str	r1, [r2, #4]
    am_hal_iom_pwrsave[ui32Module].CFG = AM_REGn(IOMSTR, ui32Module, CFG);
    2232:	f8d3 011c 	ldr.w	r0, [r3, #284]	; 0x11c
    2236:	6090      	str	r0, [r2, #8]
    am_hal_iom_pwrsave[ui32Module].INTEN = AM_REGn(IOMSTR, ui32Module, INTEN);
    2238:	f8d3 3200 	ldr.w	r3, [r3, #512]	; 0x200
    223c:	60d3      	str	r3, [r2, #12]
    am_hal_pwrctrl_periph_disable(AM_HAL_PWRCTRL_IOM0 << ui32Module);
    223e:	2002      	movs	r0, #2
    am_hal_iom_pwrsave[ui32Module].bValid = 1;
    2240:	2101      	movs	r1, #1
    am_hal_pwrctrl_periph_disable(AM_HAL_PWRCTRL_IOM0 << ui32Module);
    2242:	40a0      	lsls	r0, r4
    am_hal_iom_pwrsave[ui32Module].bValid = 1;
    2244:	6111      	str	r1, [r2, #16]
}
    2246:	e8bd 4010 	ldmia.w	sp!, {r4, lr}
    am_hal_pwrctrl_periph_disable(AM_HAL_PWRCTRL_IOM0 << ui32Module);
    224a:	f001 be71 	b.w	3f30 <am_hal_pwrctrl_periph_disable>
    224e:	bf00      	nop
    2250:	00004c18 	.word	0x00004c18
    2254:	00004bcc 	.word	0x00004bcc
    2258:	10000b90 	.word	0x10000b90

0000225c <am_hal_iom_config>:
    if ( ui32Module >= AM_REG_IOMSTR_NUM_MODULES )
    225c:	2805      	cmp	r0, #5
    225e:	f200 80e0 	bhi.w	2422 <am_hal_iom_config+0x1c6>
{
    2262:	e92d 4ff8 	stmdb	sp!, {r3, r4, r5, r6, r7, r8, r9, sl, fp, lr}
    if ( psConfig->bSPHA )
    2266:	7a0d      	ldrb	r5, [r1, #8]
    ui32Config = psConfig->ui32InterfaceMode;
    2268:	680b      	ldr	r3, [r1, #0]
    if ( psConfig->bSPHA )
    226a:	b10d      	cbz	r5, 2270 <am_hal_iom_config+0x14>
        ui32Config |= AM_REG_IOMSTR_CFG_SPHA(1);
    226c:	f043 0304 	orr.w	r3, r3, #4
    if ( psConfig->bSPOL )
    2270:	7a4a      	ldrb	r2, [r1, #9]
    2272:	b10a      	cbz	r2, 2278 <am_hal_iom_config+0x1c>
        ui32Config |= AM_REG_IOMSTR_CFG_SPOL(1);
    2274:	f043 0302 	orr.w	r3, r3, #2
    if ( psConfig->ui32ClockFrequency >= 16000000UL)
    2278:	684c      	ldr	r4, [r1, #4]
    227a:	4e83      	ldr	r6, [pc, #524]	; (2488 <am_hal_iom_config+0x22c>)
    AM_REGn(IOMSTR, ui32Module, CFG) = ui32Config;
    227c:	f500 27a0 	add.w	r7, r0, #327680	; 0x50000
    2280:	3704      	adds	r7, #4
    if ( psConfig->ui32ClockFrequency >= 16000000UL)
    2282:	42b4      	cmp	r4, r6
    AM_REGn(IOMSTR, ui32Module, CFG) = ui32Config;
    2284:	ea4f 3407 	mov.w	r4, r7, lsl #12
        ui32Config |= AM_REG_IOMSTR_CFG_STARTRD(2);
    2288:	bf88      	it	hi
    228a:	f043 0320 	orrhi.w	r3, r3, #32
    AM_REGn(IOMSTR, ui32Module, CFG) = ui32Config;
    228e:	f8c4 311c 	str.w	r3, [r4, #284]	; 0x11c
        (AM_REG_IOMSTR_FIFOTHR_FIFOWTHR(check_iom_threshold(psConfig->ui8WriteThreshold)) |
    2292:	7a8a      	ldrb	r2, [r1, #10]
         AM_REG_IOMSTR_FIFOTHR_FIFORTHR(check_iom_threshold(psConfig->ui8ReadThreshold)));
    2294:	7acb      	ldrb	r3, [r1, #11]
        (AM_REG_IOMSTR_FIFOTHR_FIFOWTHR(check_iom_threshold(psConfig->ui8WriteThreshold)) |
    2296:	2a7c      	cmp	r2, #124	; 0x7c
    2298:	bf28      	it	cs
    229a:	227c      	movcs	r2, #124	; 0x7c
    229c:	2a04      	cmp	r2, #4
    229e:	bf38      	it	cc
    22a0:	2204      	movcc	r2, #4
    22a2:	0216      	lsls	r6, r2, #8
         AM_REG_IOMSTR_FIFOTHR_FIFORTHR(check_iom_threshold(psConfig->ui8ReadThreshold)));
    22a4:	2b7c      	cmp	r3, #124	; 0x7c
    22a6:	bf28      	it	cs
    22a8:	237c      	movcs	r3, #124	; 0x7c
        (AM_REG_IOMSTR_FIFOTHR_FIFOWTHR(check_iom_threshold(psConfig->ui8WriteThreshold)) |
    22aa:	f406 47fe 	and.w	r7, r6, #32512	; 0x7f00
    22ae:	2b04      	cmp	r3, #4
    22b0:	bf2c      	ite	cs
    22b2:	ea47 0203 	orrcs.w	r2, r7, r3
    22b6:	f047 0204 	orrcc.w	r2, r7, #4
    if ((0 != ui32Module) && (4 != ui32Module) && (6 != ui32Module) &&
    22ba:	f030 0304 	bics.w	r3, r0, #4
    AM_REGn(IOMSTR, ui32Module, FIFOTHR) =
    22be:	f8c4 2108 	str.w	r2, [r4, #264]	; 0x108
    if ((0 != ui32Module) && (4 != ui32Module) && (6 != ui32Module) &&
    22c2:	d005      	beq.n	22d0 <am_hal_iom_config+0x74>
    if ( (AM_REG(MCUCTRL, CHIPREV) & 0xFF) ==
    22c4:	4b71      	ldr	r3, [pc, #452]	; (248c <am_hal_iom_config+0x230>)
    22c6:	681e      	ldr	r6, [r3, #0]
    22c8:	b2f7      	uxtb	r7, r6
    22ca:	2f22      	cmp	r7, #34	; 0x22
    22cc:	f000 80ae 	beq.w	242c <am_hal_iom_config+0x1d0>
      ui32ClkCfg = iom_get_interface_clock_cfg(psConfig->ui32ClockFrequency,
    22d0:	f8d1 e004 	ldr.w	lr, [r1, #4]
    if ( ui32FreqHz == 0 )
    22d4:	f1be 0f00 	cmp.w	lr, #0
    22d8:	f000 8093 	beq.w	2402 <am_hal_iom_config+0x1a6>
    i32Div = (ui32HFRCfreqHz / ui32FreqHz) + ((ui32HFRCfreqHz % ui32FreqHz) ? 1 : 0);    // Round up (ceiling)
    22dc:	4b6c      	ldr	r3, [pc, #432]	; (2490 <am_hal_iom_config+0x234>)
    22de:	fbb3 f7fe 	udiv	r7, r3, lr
    22e2:	fb0e 3617 	mls	r6, lr, r7, r3
    22e6:	2e00      	cmp	r6, #0
    22e8:	bf18      	it	ne
    22ea:	3701      	addne	r7, #1
    i32N = 31 - AM_INSTR_CLZ((i32Div & (-i32Div)));
    22ec:	427a      	negs	r2, r7
    22ee:	403a      	ands	r2, r7
    22f0:	fab2 f882 	clz	r8, r2
    22f4:	f1c8 031f 	rsb	r3, r8, #31
    22f8:	2b06      	cmp	r3, #6
    22fa:	bfa8      	it	ge
    22fc:	2306      	movge	r3, #6
                    (ui32FreqHz <= ((ui32HFRCfreqHz / 2) - 1)) ) ) ) ? 1 : 0;
    22fe:	f5be 6f37 	cmp.w	lr, #2928	; 0xb70
    2302:	f240 808f 	bls.w	2424 <am_hal_iom_config+0x1c8>
    2306:	f5ae 0974 	sub.w	r9, lr, #15990784	; 0xf40000
    230a:	4e62      	ldr	r6, [pc, #392]	; (2494 <am_hal_iom_config+0x238>)
    230c:	f5a9 5210 	sub.w	r2, r9, #9216	; 0x2400
    2310:	42b2      	cmp	r2, r6
    2312:	bf8b      	itete	hi
    2314:	f04f 0c00 	movhi.w	ip, #0
    2318:	f44f 6c00 	movls.w	ip, #2048	; 0x800
    231c:	2201      	movhi	r2, #1
    231e:	2203      	movls	r2, #3
    ui32Denom = ( 1 << i32N ) * ( 1 + (ui32Div3 * 2) );
    2320:	fa02 fa03 	lsl.w	sl, r2, r3
    ui32TotPer = i32Div / ui32Denom;
    2324:	fbb7 f6fa 	udiv	r6, r7, sl
    ui32TotPer += (i32Div % ui32Denom) ? 1 : 0;
    2328:	fb0a 7b16 	mls	fp, sl, r6, r7
    232c:	f1bb 0f00 	cmp.w	fp, #0
    2330:	bf18      	it	ne
    2332:	3601      	addne	r6, #1
    ui32v1 = 31 - AM_INSTR_CLZ(ui32TotPer);     // v1 = log2(TotPer)
    2334:	fab6 f886 	clz	r8, r6
    2338:	f1c8 091f 	rsb	r9, r8, #31
    ui32Fsel = (ui32v1 > 7) ? ui32v1 + i32N - 7 : i32N;
    233c:	f1b9 0f07 	cmp.w	r9, #7
    2340:	f240 808f 	bls.w	2462 <am_hal_iom_config+0x206>
    2344:	3b07      	subs	r3, #7
    2346:	444b      	add	r3, r9
    ui32Fsel++;
    2348:	f103 0b01 	add.w	fp, r3, #1
    if ( ui32Fsel > 7 )
    234c:	f1bb 0f07 	cmp.w	fp, #7
    2350:	d857      	bhi.n	2402 <am_hal_iom_config+0x1a6>
        ui32TotPer = ui32TotPer>>(ui32v1-7);
    2352:	f1a9 0807 	sub.w	r8, r9, #7
        ui32TotPer += ((ui32DivEn) % (1 << (ui32v1 - 7))) ? 1 : 0;
    2356:	f04f 0a01 	mov.w	sl, #1
    235a:	fa0a f908 	lsl.w	r9, sl, r8
    235e:	f109 3aff 	add.w	sl, r9, #4294967295
    2362:	ea0a 0906 	and.w	r9, sl, r6
        ui32TotPer = ui32TotPer>>(ui32v1-7);
    2366:	fa26 f608 	lsr.w	r6, r6, r8
                  ((1 << (ui32Fsel - 1)) == i32Div) ) ? 0 : 1;
    236a:	f8df 814c 	ldr.w	r8, [pc, #332]	; 24b8 <am_hal_iom_config+0x25c>
        ui32TotPer += ((ui32DivEn) % (1 << (ui32v1 - 7))) ? 1 : 0;
    236e:	f1b9 0f00 	cmp.w	r9, #0
    2372:	bf18      	it	ne
    2374:	3601      	addne	r6, #1
                  ((1 << (ui32Fsel - 1)) == i32Div) ) ? 0 : 1;
    2376:	45c6      	cmp	lr, r8
    2378:	d879      	bhi.n	246e <am_hal_iom_config+0x212>
    237a:	f04f 0e01 	mov.w	lr, #1
    237e:	fa0e fa03 	lsl.w	sl, lr, r3
    2382:	4557      	cmp	r7, sl
    2384:	d073      	beq.n	246e <am_hal_iom_config+0x212>
    2386:	1e77      	subs	r7, r6, #1
    2388:	46b1      	mov	r9, r6
    238a:	f44f 5e80 	mov.w	lr, #4096	; 0x1000
    if (ui32Phase == 1)
    238e:	2d00      	cmp	r5, #0
    2390:	d173      	bne.n	247a <am_hal_iom_config+0x21e>
        ui32LowPer = (ui32TotPer - 1) / 2;          // Longer low phase
    2392:	087e      	lsrs	r6, r7, #1
    ui32Denomfinal = ((1 << (ui32Fsel - 1)) * (1 + ui32Div3 * 2) * (1 + ui32DivEn * (ui32TotPer)));
    2394:	409a      	lsls	r2, r3
    ui32ClkFreq = (ui32HFRCfreqHz) / ui32Denomfinal;                           // Compute the set frequency value
    2396:	4b3e      	ldr	r3, [pc, #248]	; (2490 <am_hal_iom_config+0x234>)
    if ( (ui32ClkFreq % 250000) == 0 )
    2398:	f8df 8120 	ldr.w	r8, [pc, #288]	; 24bc <am_hal_iom_config+0x260>
    ui32Denomfinal = ((1 << (ui32Fsel - 1)) * (1 + ui32Div3 * 2) * (1 + ui32DivEn * (ui32TotPer)));
    239c:	fb09 f202 	mul.w	r2, r9, r2
    ui32ClkCfg = AM_REG_IOMSTR_CLKCFG_FSEL(ui32Fsel)                |
    23a0:	ea4f 250b 	mov.w	r5, fp, lsl #8
    ui32ClkFreq = (ui32HFRCfreqHz) / ui32Denomfinal;                           // Compute the set frequency value
    23a4:	fbb3 fbf2 	udiv	fp, r3, r2
    ui32ClkFreq +=  (((ui32HFRCfreqHz) % ui32Denomfinal) > (ui32Denomfinal / 2)) ? 1 : 0;
    23a8:	fb02 331b 	mls	r3, r2, fp, r3
    23ac:	0852      	lsrs	r2, r2, #1
    23ae:	429a      	cmp	r2, r3
    23b0:	bf2c      	ite	cs
    23b2:	465b      	movcs	r3, fp
    23b4:	f10b 0301 	addcc.w	r3, fp, #1
    ui32ClkCfg = AM_REG_IOMSTR_CLKCFG_FSEL(ui32Fsel)                |
    23b8:	f405 65e0 	and.w	r5, r5, #1792	; 0x700
    23bc:	ea45 020c 	orr.w	r2, r5, ip
    if ( (ui32ClkFreq % 250000) == 0 )
    23c0:	f8df 90fc 	ldr.w	r9, [pc, #252]	; 24c0 <am_hal_iom_config+0x264>
    23c4:	fba8 ba03 	umull	fp, sl, r8, r3
    ui32ClkCfg = AM_REG_IOMSTR_CLKCFG_FSEL(ui32Fsel)                |
    23c8:	ea42 020e 	orr.w	r2, r2, lr
                 AM_REG_IOMSTR_CLKCFG_LOWPER(ui32LowPer)            |
    23cc:	0436      	lsls	r6, r6, #16
    if ( (ui32ClkFreq % 250000) == 0 )
    23ce:	ea4f 4e1a 	mov.w	lr, sl, lsr #16
    ui32ClkCfg = AM_REG_IOMSTR_CLKCFG_FSEL(ui32Fsel)                |
    23d2:	ea42 6207 	orr.w	r2, r2, r7, lsl #24
                 AM_REG_IOMSTR_CLKCFG_LOWPER(ui32LowPer)            |
    23d6:	f406 0c7f 	and.w	ip, r6, #16711680	; 0xff0000
    if ( (ui32ClkFreq % 250000) == 0 )
    23da:	fb09 371e 	mls	r7, r9, lr, r3
    ui32ClkCfg = AM_REG_IOMSTR_CLKCFG_FSEL(ui32Fsel)                |
    23de:	ea42 020c 	orr.w	r2, r2, ip
    if ( (ui32ClkFreq % 250000) == 0 )
    23e2:	b93f      	cbnz	r7, 23f4 <am_hal_iom_config+0x198>
    return ui32Value  &&  !(ui32Value & (ui32Value - 1));
    23e4:	f1be 0f00 	cmp.w	lr, #0
    23e8:	d004      	beq.n	23f4 <am_hal_iom_config+0x198>
    23ea:	f10e 33ff 	add.w	r3, lr, #4294967295
    23ee:	ea13 0f0e 	tst.w	r3, lr
    23f2:	d033      	beq.n	245c <am_hal_iom_config+0x200>
    return ( ((uint64_t)ui32ClkFreq) << 32) | (uint64_t)ui32ClkCfg;
    23f4:	2500      	movs	r5, #0
    23f6:	ea45 0602 	orr.w	r6, r5, r2
      ui32ClkCfg = iom_get_interface_clock_cfg(psConfig->ui32ClockFrequency,
    23fa:	4637      	mov	r7, r6
    if ( ui32ClkCfg )
    23fc:	b10e      	cbz	r6, 2402 <am_hal_iom_config+0x1a6>
        AM_REGn(IOMSTR, ui32Module, CLKCFG) = (uint32_t)ui32ClkCfg;
    23fe:	f8c4 710c 	str.w	r7, [r4, #268]	; 0x10c
    2402:	468b      	mov	fp, r1
    2404:	4604      	mov	r4, r0
    ui32HFRC = am_hal_clkgen_sysclk_get();
    2406:	f7ff f923 	bl	1650 <am_hal_clkgen_sysclk_get>
    ui32StatusTimeout[ui32Module] = MAX_IOM_BITS * AM_HAL_IOM_MAX_FIFO_SIZE *
    240a:	4f23      	ldr	r7, [pc, #140]	; (2498 <am_hal_iom_config+0x23c>)
      IOM_OVERHEAD_FACTOR * (ui32HFRC / psConfig->ui32ClockFrequency);
    240c:	f8db 1004 	ldr.w	r1, [fp, #4]
    2410:	fbb0 f0f1 	udiv	r0, r0, r1
    2414:	eb00 02c0 	add.w	r2, r0, r0, lsl #3
    2418:	0216      	lsls	r6, r2, #8
    ui32StatusTimeout[ui32Module] = MAX_IOM_BITS * AM_HAL_IOM_MAX_FIFO_SIZE *
    241a:	f847 6024 	str.w	r6, [r7, r4, lsl #2]
    241e:	e8bd 8ff8 	ldmia.w	sp!, {r3, r4, r5, r6, r7, r8, r9, sl, fp, pc}
    2422:	4770      	bx	lr
                    (ui32FreqHz <= ((ui32HFRCfreqHz / 2) - 1)) ) ) ) ? 1 : 0;
    2424:	f44f 6c00 	mov.w	ip, #2048	; 0x800
    2428:	2203      	movs	r2, #3
    242a:	e779      	b.n	2320 <am_hal_iom_config+0xc4>
            isRevB2() && (AM_HAL_IOM_I2CMODE == psConfig->ui32InterfaceMode))
    242c:	680a      	ldr	r2, [r1, #0]
    242e:	2a00      	cmp	r2, #0
    2430:	f47f af4e 	bne.w	22d0 <am_hal_iom_config+0x74>
      AM_REGn(IOMSTR, ui32Module, CFG) |= AM_REG_IOMSTR_CFG_SPHA_M;
    2434:	f8d4 311c 	ldr.w	r3, [r4, #284]	; 0x11c
  if (ui32FreqHz == AM_HAL_IOM_800KHZ)
    2438:	4d18      	ldr	r5, [pc, #96]	; (249c <am_hal_iom_config+0x240>)
      AM_REGn(IOMSTR, ui32Module, CFG) |= AM_REG_IOMSTR_CFG_SPHA_M;
    243a:	f043 0204 	orr.w	r2, r3, #4
    243e:	f8c4 211c 	str.w	r2, [r4, #284]	; 0x11c
      ui32ClkCfg = iom_get_i2c_workaround_clock_cfg(psConfig->ui32ClockFrequency);
    2442:	684a      	ldr	r2, [r1, #4]
  if (ui32FreqHz == AM_HAL_IOM_800KHZ)
    2444:	42aa      	cmp	r2, r5
    2446:	d01b      	beq.n	2480 <am_hal_iom_config+0x224>
  else if (ui32FreqHz == AM_HAL_IOM_400KHZ)
    2448:	4e15      	ldr	r6, [pc, #84]	; (24a0 <am_hal_iom_config+0x244>)
    244a:	42b2      	cmp	r2, r6
    244c:	d01a      	beq.n	2484 <am_hal_iom_config+0x228>
  else if (ui32FreqHz == AM_HAL_IOM_200KHZ)
    244e:	4b15      	ldr	r3, [pc, #84]	; (24a4 <am_hal_iom_config+0x248>)
    2450:	4f15      	ldr	r7, [pc, #84]	; (24a8 <am_hal_iom_config+0x24c>)
    2452:	4d16      	ldr	r5, [pc, #88]	; (24ac <am_hal_iom_config+0x250>)
    2454:	429a      	cmp	r2, r3
    2456:	bf08      	it	eq
    2458:	462f      	moveq	r7, r5
    245a:	e7d0      	b.n	23fe <am_hal_iom_config+0x1a2>
            ui32ClkCfg = AM_REG_IOMSTR_CLKCFG_FSEL(ui32Fsel)    |
    245c:	f445 6200 	orr.w	r2, r5, #2048	; 0x800
    2460:	e7c8      	b.n	23f4 <am_hal_iom_config+0x198>
                  ((1 << (ui32Fsel - 1)) == i32Div) ) ? 0 : 1;
    2462:	f8df 8054 	ldr.w	r8, [pc, #84]	; 24b8 <am_hal_iom_config+0x25c>
    2466:	45c6      	cmp	lr, r8
    ui32Fsel++;
    2468:	f103 0b01 	add.w	fp, r3, #1
                  ((1 << (ui32Fsel - 1)) == i32Div) ) ? 0 : 1;
    246c:	d985      	bls.n	237a <am_hal_iom_config+0x11e>
    246e:	1e77      	subs	r7, r6, #1
    2470:	f04f 0901 	mov.w	r9, #1
    2474:	f04f 0e00 	mov.w	lr, #0
    2478:	e789      	b.n	238e <am_hal_iom_config+0x132>
        ui32LowPer = (ui32TotPer - 2) / 2;          // Longer high phase
    247a:	1eb5      	subs	r5, r6, #2
    247c:	086e      	lsrs	r6, r5, #1
    247e:	e789      	b.n	2394 <am_hal_iom_config+0x138>
  if (ui32FreqHz == AM_HAL_IOM_800KHZ)
    2480:	4f0b      	ldr	r7, [pc, #44]	; (24b0 <am_hal_iom_config+0x254>)
    2482:	e7bc      	b.n	23fe <am_hal_iom_config+0x1a2>
  else if (ui32FreqHz == AM_HAL_IOM_400KHZ)
    2484:	4f0b      	ldr	r7, [pc, #44]	; (24b4 <am_hal_iom_config+0x258>)
    2486:	e7ba      	b.n	23fe <am_hal_iom_config+0x1a2>
    2488:	00f423ff 	.word	0x00f423ff
    248c:	4002000c 	.word	0x4002000c
    2490:	02dc6c00 	.word	0x02dc6c00
    2494:	007a11ff 	.word	0x007a11ff
    2498:	10000a70 	.word	0x10000a70
    249c:	000c3500 	.word	0x000c3500
    24a0:	00061a80 	.word	0x00061a80
    24a4:	00030d40 	.word	0x00030d40
    24a8:	1d0e1500 	.word	0x1d0e1500
    24ac:	1d0e1400 	.word	0x1d0e1400
    24b0:	1d0e1200 	.word	0x1d0e1200
    24b4:	1d0e1300 	.word	0x1d0e1300
    24b8:	00b71aff 	.word	0x00b71aff
    24bc:	431bde83 	.word	0x431bde83
    24c0:	0003d090 	.word	0x0003d090

000024c4 <am_hal_iom_workaround_word_write>:
{
    24c4:	e92d 4ff0 	stmdb	sp!, {r4, r5, r6, r7, r8, r9, sl, fp, lr}
    uint32_t ui32MaxFifoSize = ((0 == AM_BFRn(IOMSTR, WORKAROUND_IOM, CFG, FULLDUP)) ?
    24c8:	4cc9      	ldr	r4, [pc, #804]	; (27f0 <am_hal_iom_workaround_word_write+0x32c>)
    24ca:	6825      	ldr	r5, [r4, #0]
{
    24cc:	4691      	mov	r9, r2
                               AM_HAL_IOM_MAX_FIFO_SIZE : AM_HAL_IOM_MAX_FIFO_SIZE / 2);
    24ce:	f015 0f08 	tst.w	r5, #8
{
    24d2:	b08d      	sub	sp, #52	; 0x34
    am_hal_debug_assert_msg(ui32NumBytes <= 4091, "SPI transfer too big.");
    24d4:	f640 72fb 	movw	r2, #4091	; 0xffb
                               AM_HAL_IOM_MAX_FIFO_SIZE : AM_HAL_IOM_MAX_FIFO_SIZE / 2);
    24d8:	bf14      	ite	ne
    24da:	2640      	movne	r6, #64	; 0x40
    24dc:	2680      	moveq	r6, #128	; 0x80
    am_hal_debug_assert_msg(ui32NumBytes <= 4091, "SPI transfer too big.");
    24de:	4591      	cmp	r9, r2
{
    24e0:	4604      	mov	r4, r0
    24e2:	4688      	mov	r8, r1
    24e4:	9301      	str	r3, [sp, #4]
    am_hal_debug_assert_msg(ui32NumBytes <= 4091, "SPI transfer too big.");
    24e6:	f200 832b 	bhi.w	2b40 <am_hal_iom_workaround_word_write+0x67c>
    ui32ClkCfg = AM_REGn(IOMSTR, WORKAROUND_IOM, CLKCFG);
    24ea:	4bc2      	ldr	r3, [pc, #776]	; (27f4 <am_hal_iom_workaround_word_write+0x330>)
    ui32ClkFreq = (ui32HFRCfreqHz) / ui32Denomfinal;                           // Compute the set frequency value
    24ec:	4fc2      	ldr	r7, [pc, #776]	; (27f8 <am_hal_iom_workaround_word_write+0x334>)
    ui32ClkCfg = AM_REGn(IOMSTR, WORKAROUND_IOM, CLKCFG);
    24ee:	681d      	ldr	r5, [r3, #0]
    uint32_t ui32ClkCfg = AM_REGn(IOMSTR, 4, CLKCFG);
    24f0:	681a      	ldr	r2, [r3, #0]
        if ( ui32Freq <= maxFreq && ui32Freq != 0 )
    24f2:	49c2      	ldr	r1, [pc, #776]	; (27fc <am_hal_iom_workaround_word_write+0x338>)
    24f4:	f3c2 3e00 	ubfx	lr, r2, #12, #1
    24f8:	f3c2 20c0 	ubfx	r0, r2, #11, #1
    24fc:	0e13      	lsrs	r3, r2, #24
    24fe:	fb03 f30e 	mul.w	r3, r3, lr
    2502:	0040      	lsls	r0, r0, #1
    2504:	3001      	adds	r0, #1
    2506:	3301      	adds	r3, #1
    ui32Denomfinal = ((1 << (ui32Fsel - 1)) * (1 + ui32Div3 * 2) * (1 + ui32DivEn * (ui32TotPer)));
    2508:	fb03 fa00 	mul.w	sl, r3, r0
    ui32ClkFreq +=  (((ui32HFRCfreqHz) % ui32Denomfinal) > (ui32Denomfinal / 2)) ? 1 : 0;
    250c:	ea4f 0c5a 	mov.w	ip, sl, lsr #1
    ui32ClkFreq = (ui32HFRCfreqHz) / ui32Denomfinal;                           // Compute the set frequency value
    2510:	fbb7 fbfa 	udiv	fp, r7, sl
    ui32ClkFreq +=  (((ui32HFRCfreqHz) % ui32Denomfinal) > (ui32Denomfinal / 2)) ? 1 : 0;
    2514:	fb0a 721b 	mls	r2, sl, fp, r7
    2518:	4594      	cmp	ip, r2
    251a:	bf2c      	ite	cs
    251c:	46de      	movcs	lr, fp
    251e:	f10b 0e01 	addcc.w	lr, fp, #1
        if ( ui32Freq <= maxFreq && ui32Freq != 0 )
    2522:	458e      	cmp	lr, r1
    2524:	f240 835d 	bls.w	2be2 <am_hal_iom_workaround_word_write+0x71e>
    ui32Denomfinal = ((1 << (ui32Fsel - 1)) * (1 + ui32Div3 * 2) * (1 + ui32DivEn * (ui32TotPer)));
    2528:	0040      	lsls	r0, r0, #1
    252a:	fb03 f300 	mul.w	r3, r3, r0
    ui32ClkFreq = (ui32HFRCfreqHz) / ui32Denomfinal;                           // Compute the set frequency value
    252e:	fbb7 faf3 	udiv	sl, r7, r3
    ui32ClkFreq +=  (((ui32HFRCfreqHz) % ui32Denomfinal) > (ui32Denomfinal / 2)) ? 1 : 0;
    2532:	fb03 771a 	mls	r7, r3, sl, r7
    2536:	085b      	lsrs	r3, r3, #1
    2538:	42bb      	cmp	r3, r7
    253a:	bf2c      	ite	cs
    253c:	4652      	movcs	r2, sl
    253e:	f10a 0201 	addcc.w	r2, sl, #1
    for ( ui32Fsel = 1; ui32Fsel < 8; ui32Fsel++ )
    2542:	428a      	cmp	r2, r1
    2544:	bf8c      	ite	hi
    2546:	f04f 0c03 	movhi.w	ip, #3
    254a:	f04f 0c02 	movls.w	ip, #2
    ui32Freq = compute_freq(AM_HAL_CLKGEN_FREQ_MAX_HZ,
    254e:	f3c5 21c0 	ubfx	r1, r5, #11, #1
    ui32Denomfinal = ((1 << (ui32Fsel - 1)) * (1 + ui32Div3 * 2) * (1 + ui32DivEn * (ui32TotPer)));
    2552:	0048      	lsls	r0, r1, #1
    ui32Freq = compute_freq(AM_HAL_CLKGEN_FREQ_MAX_HZ,
    2554:	f3c5 2b02 	ubfx	fp, r5, #8, #3
    ui32Denomfinal = ((1 << (ui32Fsel - 1)) * (1 + ui32Div3 * 2) * (1 + ui32DivEn * (ui32TotPer)));
    2558:	f10b 33ff 	add.w	r3, fp, #4294967295
    255c:	1c47      	adds	r7, r0, #1
    ui32Freq = compute_freq(AM_HAL_CLKGEN_FREQ_MAX_HZ,
    255e:	f3c5 3200 	ubfx	r2, r5, #12, #1
    2562:	0e29      	lsrs	r1, r5, #24
    ui32ClkFreq = (ui32HFRCfreqHz) / ui32Denomfinal;                           // Compute the set frequency value
    2564:	f8df b290 	ldr.w	fp, [pc, #656]	; 27f8 <am_hal_iom_workaround_word_write+0x334>
    ui32Denomfinal = ((1 << (ui32Fsel - 1)) * (1 + ui32Div3 * 2) * (1 + ui32DivEn * (ui32TotPer)));
    2568:	fa07 f003 	lsl.w	r0, r7, r3
    256c:	fb01 f102 	mul.w	r1, r1, r2
    2570:	fb01 0300 	mla	r3, r1, r0, r0
    ui32ClkFreq +=  (((ui32HFRCfreqHz) % ui32Denomfinal) > (ui32Denomfinal / 2)) ? 1 : 0;
    2574:	0859      	lsrs	r1, r3, #1
    ui32ClkFreq = (ui32HFRCfreqHz) / ui32Denomfinal;                           // Compute the set frequency value
    2576:	fbbb fef3 	udiv	lr, fp, r3
    ui32ClkFreq +=  (((ui32HFRCfreqHz) % ui32Denomfinal) > (ui32Denomfinal / 2)) ? 1 : 0;
    257a:	fb03 b01e 	mls	r0, r3, lr, fp
    257e:	4281      	cmp	r1, r0
    2580:	bf2c      	ite	cs
    2582:	4677      	movcs	r7, lr
    2584:	f10e 0701 	addcc.w	r7, lr, #1
    AM_REGn(IOMSTR, WORKAROUND_IOM, CLKCFG) = ui32HiClkCfg;
    2588:	4a9a      	ldr	r2, [pc, #616]	; (27f4 <am_hal_iom_workaround_word_write+0x330>)
    ui32DelayTime = ((2 * AM_HAL_CLKGEN_FREQ_MAX_HZ) / (ui32NormalFreq * 3));
    258a:	499d      	ldr	r1, [pc, #628]	; (2800 <am_hal_iom_workaround_word_write+0x33c>)
    ui32HiClkCfg = ((ui32ClkCfg & (~AM_REG_IOMSTR_CLKCFG_FSEL_M)) |
    258c:	f425 6ae0 	bic.w	sl, r5, #1792	; 0x700
    ui32DelayTime = ((2 * AM_HAL_CLKGEN_FREQ_MAX_HZ) / (ui32NormalFreq * 3));
    2590:	eb07 0347 	add.w	r3, r7, r7, lsl #1
    ui32HiClkCfg = ((ui32ClkCfg & (~AM_REG_IOMSTR_CLKCFG_FSEL_M)) |
    2594:	ea4a 270c 	orr.w	r7, sl, ip, lsl #8
    ((void (*)(uint32_t)) 0x0800009d)(ui32DelayTime);
    2598:	fbb1 f0f3 	udiv	r0, r1, r3
    AM_REGn(IOMSTR, WORKAROUND_IOM, CLKCFG) = ui32HiClkCfg;
    259c:	6017      	str	r7, [r2, #0]
    ((void (*)(uint32_t)) 0x0800009d)(ui32DelayTime);
    259e:	4b99      	ldr	r3, [pc, #612]	; (2804 <am_hal_iom_workaround_word_write+0x340>)
    25a0:	4798      	blx	r3
    ui32Freq = compute_freq(AM_HAL_CLKGEN_FREQ_MAX_HZ,
    25a2:	f3c7 22c0 	ubfx	r2, r7, #11, #1
    ui32Denomfinal = ((1 << (ui32Fsel - 1)) * (1 + ui32Div3 * 2) * (1 + ui32DivEn * (ui32TotPer)));
    25a6:	0050      	lsls	r0, r2, #1
    ui32Freq = compute_freq(AM_HAL_CLKGEN_FREQ_MAX_HZ,
    25a8:	f3c7 2c01 	ubfx	ip, r7, #8, #2
    25ac:	f3c7 3100 	ubfx	r1, r7, #12, #1
    ui32Denomfinal = ((1 << (ui32Fsel - 1)) * (1 + ui32Div3 * 2) * (1 + ui32DivEn * (ui32TotPer)));
    25b0:	3001      	adds	r0, #1
    25b2:	f10c 33ff 	add.w	r3, ip, #4294967295
    ui32Freq = compute_freq(AM_HAL_CLKGEN_FREQ_MAX_HZ,
    25b6:	0e3f      	lsrs	r7, r7, #24
    ui32Denomfinal = ((1 << (ui32Fsel - 1)) * (1 + ui32Div3 * 2) * (1 + ui32DivEn * (ui32TotPer)));
    25b8:	fb07 f701 	mul.w	r7, r7, r1
    25bc:	4098      	lsls	r0, r3
    25be:	fb07 0000 	mla	r0, r7, r0, r0
    ui32ClkFreq +=  (((ui32HFRCfreqHz) % ui32Denomfinal) > (ui32Denomfinal / 2)) ? 1 : 0;
    25c2:	0842      	lsrs	r2, r0, #1
    ui32ClkFreq = (ui32HFRCfreqHz) / ui32Denomfinal;                           // Compute the set frequency value
    25c4:	fbbb f7f0 	udiv	r7, fp, r0
    ui32ClkFreq +=  (((ui32HFRCfreqHz) % ui32Denomfinal) > (ui32Denomfinal / 2)) ? 1 : 0;
    25c8:	fb00 bb17 	mls	fp, r0, r7, fp
    25cc:	455a      	cmp	r2, fp
    25ce:	bf38      	it	cc
    25d0:	3701      	addcc	r7, #1
    am_hal_debug_assert_msg(ui32HiFreq > 0, "Invalid Hi Frequency for IOM.");
    25d2:	2f00      	cmp	r7, #0
    25d4:	f000 82ad 	beq.w	2b32 <am_hal_iom_workaround_word_write+0x66e>
    uint32_t ui32ClkCfg = AM_REGn(IOMSTR, 4, CLKCFG);
    25d8:	4b86      	ldr	r3, [pc, #536]	; (27f4 <am_hal_iom_workaround_word_write+0x330>)
    ui32ClkFreq = (ui32HFRCfreqHz) / ui32Denomfinal;                           // Compute the set frequency value
    25da:	4a87      	ldr	r2, [pc, #540]	; (27f8 <am_hal_iom_workaround_word_write+0x334>)
    uint32_t ui32ClkCfg = AM_REGn(IOMSTR, 4, CLKCFG);
    25dc:	681b      	ldr	r3, [r3, #0]
        if ( ui32Freq <= maxFreq && ui32Freq != 0 )
    25de:	f8df e234 	ldr.w	lr, [pc, #564]	; 2814 <am_hal_iom_workaround_word_write+0x350>
    25e2:	f3c3 3000 	ubfx	r0, r3, #12, #1
    25e6:	f3c3 21c0 	ubfx	r1, r3, #11, #1
    25ea:	0e1b      	lsrs	r3, r3, #24
    25ec:	fb03 f300 	mul.w	r3, r3, r0
    25f0:	0049      	lsls	r1, r1, #1
    25f2:	3101      	adds	r1, #1
    25f4:	3301      	adds	r3, #1
    ui32Denomfinal = ((1 << (ui32Fsel - 1)) * (1 + ui32Div3 * 2) * (1 + ui32DivEn * (ui32TotPer)));
    25f6:	fb03 f001 	mul.w	r0, r3, r1
    ui32ClkFreq +=  (((ui32HFRCfreqHz) % ui32Denomfinal) > (ui32Denomfinal / 2)) ? 1 : 0;
    25fa:	ea4f 0b50 	mov.w	fp, r0, lsr #1
    ui32ClkFreq = (ui32HFRCfreqHz) / ui32Denomfinal;                           // Compute the set frequency value
    25fe:	fbb2 fcf0 	udiv	ip, r2, r0
    ui32ClkFreq +=  (((ui32HFRCfreqHz) % ui32Denomfinal) > (ui32Denomfinal / 2)) ? 1 : 0;
    2602:	fb00 201c 	mls	r0, r0, ip, r2
    2606:	4583      	cmp	fp, r0
    2608:	bf2c      	ite	cs
    260a:	46e3      	movcs	fp, ip
    260c:	f10c 0b01 	addcc.w	fp, ip, #1
        if ( ui32Freq <= maxFreq && ui32Freq != 0 )
    2610:	45f3      	cmp	fp, lr
    2612:	f240 82e4 	bls.w	2bde <am_hal_iom_workaround_word_write+0x71a>
    ui32Denomfinal = ((1 << (ui32Fsel - 1)) * (1 + ui32Div3 * 2) * (1 + ui32DivEn * (ui32TotPer)));
    2616:	0048      	lsls	r0, r1, #1
    2618:	fb03 f000 	mul.w	r0, r3, r0
    ui32ClkFreq +=  (((ui32HFRCfreqHz) % ui32Denomfinal) > (ui32Denomfinal / 2)) ? 1 : 0;
    261c:	ea4f 0b50 	mov.w	fp, r0, lsr #1
    ui32ClkFreq = (ui32HFRCfreqHz) / ui32Denomfinal;                           // Compute the set frequency value
    2620:	fbb2 fcf0 	udiv	ip, r2, r0
    ui32ClkFreq +=  (((ui32HFRCfreqHz) % ui32Denomfinal) > (ui32Denomfinal / 2)) ? 1 : 0;
    2624:	fb00 201c 	mls	r0, r0, ip, r2
    2628:	4583      	cmp	fp, r0
    262a:	bf2c      	ite	cs
    262c:	46e3      	movcs	fp, ip
    262e:	f10c 0b01 	addcc.w	fp, ip, #1
        if ( ui32Freq <= maxFreq && ui32Freq != 0 )
    2632:	45f3      	cmp	fp, lr
    2634:	f240 82d8 	bls.w	2be8 <am_hal_iom_workaround_word_write+0x724>
    ui32Denomfinal = ((1 << (ui32Fsel - 1)) * (1 + ui32Div3 * 2) * (1 + ui32DivEn * (ui32TotPer)));
    2638:	0088      	lsls	r0, r1, #2
    263a:	fb03 f000 	mul.w	r0, r3, r0
    ui32ClkFreq +=  (((ui32HFRCfreqHz) % ui32Denomfinal) > (ui32Denomfinal / 2)) ? 1 : 0;
    263e:	ea4f 0b50 	mov.w	fp, r0, lsr #1
    ui32ClkFreq = (ui32HFRCfreqHz) / ui32Denomfinal;                           // Compute the set frequency value
    2642:	fbb2 fcf0 	udiv	ip, r2, r0
    ui32ClkFreq +=  (((ui32HFRCfreqHz) % ui32Denomfinal) > (ui32Denomfinal / 2)) ? 1 : 0;
    2646:	fb00 201c 	mls	r0, r0, ip, r2
    264a:	4583      	cmp	fp, r0
    264c:	bf2c      	ite	cs
    264e:	46e3      	movcs	fp, ip
    2650:	f10c 0b01 	addcc.w	fp, ip, #1
        if ( ui32Freq <= maxFreq && ui32Freq != 0 )
    2654:	45f3      	cmp	fp, lr
    2656:	f240 82c9 	bls.w	2bec <am_hal_iom_workaround_word_write+0x728>
    ui32Denomfinal = ((1 << (ui32Fsel - 1)) * (1 + ui32Div3 * 2) * (1 + ui32DivEn * (ui32TotPer)));
    265a:	00c8      	lsls	r0, r1, #3
    265c:	fb03 f000 	mul.w	r0, r3, r0
    ui32ClkFreq +=  (((ui32HFRCfreqHz) % ui32Denomfinal) > (ui32Denomfinal / 2)) ? 1 : 0;
    2660:	ea4f 0b50 	mov.w	fp, r0, lsr #1
    ui32ClkFreq = (ui32HFRCfreqHz) / ui32Denomfinal;                           // Compute the set frequency value
    2664:	fbb2 fcf0 	udiv	ip, r2, r0
    ui32ClkFreq +=  (((ui32HFRCfreqHz) % ui32Denomfinal) > (ui32Denomfinal / 2)) ? 1 : 0;
    2668:	fb00 201c 	mls	r0, r0, ip, r2
    266c:	4583      	cmp	fp, r0
    266e:	bf2c      	ite	cs
    2670:	46e3      	movcs	fp, ip
    2672:	f10c 0b01 	addcc.w	fp, ip, #1
        if ( ui32Freq <= maxFreq && ui32Freq != 0 )
    2676:	45f3      	cmp	fp, lr
    2678:	f240 82ba 	bls.w	2bf0 <am_hal_iom_workaround_word_write+0x72c>
    ui32Denomfinal = ((1 << (ui32Fsel - 1)) * (1 + ui32Div3 * 2) * (1 + ui32DivEn * (ui32TotPer)));
    267c:	0108      	lsls	r0, r1, #4
    267e:	fb03 f000 	mul.w	r0, r3, r0
    ui32ClkFreq +=  (((ui32HFRCfreqHz) % ui32Denomfinal) > (ui32Denomfinal / 2)) ? 1 : 0;
    2682:	ea4f 0b50 	mov.w	fp, r0, lsr #1
    ui32ClkFreq = (ui32HFRCfreqHz) / ui32Denomfinal;                           // Compute the set frequency value
    2686:	fbb2 fcf0 	udiv	ip, r2, r0
    ui32ClkFreq +=  (((ui32HFRCfreqHz) % ui32Denomfinal) > (ui32Denomfinal / 2)) ? 1 : 0;
    268a:	fb00 201c 	mls	r0, r0, ip, r2
    268e:	4583      	cmp	fp, r0
    2690:	bf2c      	ite	cs
    2692:	46e3      	movcs	fp, ip
    2694:	f10c 0b01 	addcc.w	fp, ip, #1
        if ( ui32Freq <= maxFreq && ui32Freq != 0 )
    2698:	45f3      	cmp	fp, lr
    269a:	f240 82ab 	bls.w	2bf4 <am_hal_iom_workaround_word_write+0x730>
    ui32Denomfinal = ((1 << (ui32Fsel - 1)) * (1 + ui32Div3 * 2) * (1 + ui32DivEn * (ui32TotPer)));
    269e:	0149      	lsls	r1, r1, #5
    26a0:	fb03 f301 	mul.w	r3, r3, r1
    ui32ClkFreq = (ui32HFRCfreqHz) / ui32Denomfinal;                           // Compute the set frequency value
    26a4:	fbb2 f0f3 	udiv	r0, r2, r3
    ui32ClkFreq +=  (((ui32HFRCfreqHz) % ui32Denomfinal) > (ui32Denomfinal / 2)) ? 1 : 0;
    26a8:	fb03 2210 	mls	r2, r3, r0, r2
    26ac:	085b      	lsrs	r3, r3, #1
    26ae:	4293      	cmp	r3, r2
    26b0:	bf2c      	ite	cs
    26b2:	4601      	movcs	r1, r0
    26b4:	1c41      	addcc	r1, r0, #1
    for ( ui32Fsel = 1; ui32Fsel < 8; ui32Fsel++ )
    26b6:	4571      	cmp	r1, lr
    26b8:	bf8c      	ite	hi
    26ba:	2007      	movhi	r0, #7
    26bc:	2006      	movls	r0, #6
    if ( ui32Options & AM_HAL_IOM_RAW )
    26be:	9b01      	ldr	r3, [sp, #4]
    ui32LowClkCfg = ((ui32ClkCfg & (~AM_REG_IOMSTR_CLKCFG_FSEL_M)) |
    26c0:	ea4a 2200 	orr.w	r2, sl, r0, lsl #8
    if ( ui32Options & AM_HAL_IOM_RAW )
    26c4:	f013 4080 	ands.w	r0, r3, #1073741824	; 0x40000000
    ui32LowClkCfg = ((ui32ClkCfg & (~AM_REG_IOMSTR_CLKCFG_FSEL_M)) |
    26c8:	9203      	str	r2, [sp, #12]
    if ( ui32Options & AM_HAL_IOM_RAW )
    26ca:	f000 813d 	beq.w	2948 <am_hal_iom_workaround_word_write+0x484>
        if ( pui32Data[0] & 0x80 )
    26ce:	f8d8 1000 	ldr.w	r1, [r8]
        ui32DelayTime = ((27 * AM_HAL_CLKGEN_FREQ_MAX_HZ) / (ui32HiFreq * 3));
    26d2:	4a4d      	ldr	r2, [pc, #308]	; (2808 <am_hal_iom_workaround_word_write+0x344>)
        if ( pui32Data[0] & 0x80 )
    26d4:	f001 0380 	and.w	r3, r1, #128	; 0x80
            ui32FirstWord = 0x00000000;
    26d8:	2b00      	cmp	r3, #0
        ui32DelayTime = ((27 * AM_HAL_CLKGEN_FREQ_MAX_HZ) / (ui32HiFreq * 3));
    26da:	eb07 0047 	add.w	r0, r7, r7, lsl #1
    26de:	fbb2 f1f0 	udiv	r1, r2, r0
    26e2:	9107      	str	r1, [sp, #28]
            ui32FirstWord = 0x00000000;
    26e4:	bf0b      	itete	eq
    26e6:	2100      	moveq	r1, #0
    26e8:	2101      	movne	r1, #1
    26ea:	f06f 07ff 	mvneq.w	r7, #255	; 0xff
    26ee:	2700      	movne	r7, #0
    26f0:	9106      	str	r1, [sp, #24]
    ui32MaxFifoSize = ((0 == AM_BFRn(IOMSTR, ui32Module, CFG, FULLDUP)) ? AM_HAL_IOM_MAX_FIFO_SIZE : AM_HAL_IOM_MAX_FIFO_SIZE / 2);
    26f2:	4b3f      	ldr	r3, [pc, #252]	; (27f0 <am_hal_iom_workaround_word_write+0x32c>)
    return (ui32MaxFifoSize - AM_BFRn(IOMSTR, ui32Module, FIFOPTR, FIFOSIZ)) & (~0x3);
    26f4:	4a45      	ldr	r2, [pc, #276]	; (280c <am_hal_iom_workaround_word_write+0x348>)
    ui32MaxFifoSize = ((0 == AM_BFRn(IOMSTR, ui32Module, CFG, FULLDUP)) ? AM_HAL_IOM_MAX_FIFO_SIZE : AM_HAL_IOM_MAX_FIFO_SIZE / 2);
    26f6:	6818      	ldr	r0, [r3, #0]
    return (ui32MaxFifoSize - AM_BFRn(IOMSTR, ui32Module, FIFOPTR, FIFOSIZ)) & (~0x3);
    26f8:	6813      	ldr	r3, [r2, #0]
    ui32NumBytes += 4;
    26fa:	f109 0104 	add.w	r1, r9, #4
    ui32TransferSize = (ui32NumBytes <= ui32MaxFifoSize ? ui32NumBytes :
    26fe:	428e      	cmp	r6, r1
    2700:	bf28      	it	cs
    2702:	460e      	movcs	r6, r1
    ui32MaxFifoSize = ((0 == AM_BFRn(IOMSTR, ui32Module, CFG, FULLDUP)) ? AM_HAL_IOM_MAX_FIFO_SIZE : AM_HAL_IOM_MAX_FIFO_SIZE / 2);
    2704:	f010 0f08 	tst.w	r0, #8
    2708:	bf14      	ite	ne
    270a:	2040      	movne	r0, #64	; 0x40
    270c:	2080      	moveq	r0, #128	; 0x80
    return (ui32MaxFifoSize - AM_BFRn(IOMSTR, ui32Module, FIFOPTR, FIFOSIZ)) & (~0x3);
    270e:	1ac2      	subs	r2, r0, r3
    am_hal_debug_assert_msg((am_hal_iom_fifo_empty_slots(ui32Module) >= ui32NumBytes),
    2710:	f002 00fc 	and.w	r0, r2, #252	; 0xfc
    2714:	2803      	cmp	r0, #3
    ui32NumBytes += 4;
    2716:	9104      	str	r1, [sp, #16]
    am_hal_debug_assert_msg((am_hal_iom_fifo_empty_slots(ui32Module) >= ui32NumBytes),
    2718:	f240 8204 	bls.w	2b24 <am_hal_iom_workaround_word_write+0x660>
        AM_REGn(IOMSTR, ui32Module, FIFO) = pui32Data[ui32Index];
    271c:	493c      	ldr	r1, [pc, #240]	; (2810 <am_hal_iom_workaround_word_write+0x34c>)
    ui32MaxFifoSize = ((0 == AM_BFRn(IOMSTR, ui32Module, CFG, FULLDUP)) ? AM_HAL_IOM_MAX_FIFO_SIZE : AM_HAL_IOM_MAX_FIFO_SIZE / 2);
    271e:	4b34      	ldr	r3, [pc, #208]	; (27f0 <am_hal_iom_workaround_word_write+0x32c>)
        AM_REGn(IOMSTR, ui32Module, FIFO) = pui32Data[ui32Index];
    2720:	600f      	str	r7, [r1, #0]
    ui32MaxFifoSize = ((0 == AM_BFRn(IOMSTR, ui32Module, CFG, FULLDUP)) ? AM_HAL_IOM_MAX_FIFO_SIZE : AM_HAL_IOM_MAX_FIFO_SIZE / 2);
    2722:	681f      	ldr	r7, [r3, #0]
    return (ui32MaxFifoSize - AM_BFRn(IOMSTR, ui32Module, FIFOPTR, FIFOSIZ)) & (~0x3);
    2724:	f853 2c1c 	ldr.w	r2, [r3, #-28]
    ui32MaxFifoSize = ((0 == AM_BFRn(IOMSTR, ui32Module, CFG, FULLDUP)) ? AM_HAL_IOM_MAX_FIFO_SIZE : AM_HAL_IOM_MAX_FIFO_SIZE / 2);
    2728:	f017 0f08 	tst.w	r7, #8
    return (ui32MaxFifoSize - AM_BFRn(IOMSTR, ui32Module, FIFOPTR, FIFOSIZ)) & (~0x3);
    272c:	f1a3 001c 	sub.w	r0, r3, #28
    ui32MaxFifoSize = ((0 == AM_BFRn(IOMSTR, ui32Module, CFG, FULLDUP)) ? AM_HAL_IOM_MAX_FIFO_SIZE : AM_HAL_IOM_MAX_FIFO_SIZE / 2);
    2730:	bf14      	ite	ne
    2732:	2040      	movne	r0, #64	; 0x40
    2734:	2080      	moveq	r0, #128	; 0x80
    return (ui32MaxFifoSize - AM_BFRn(IOMSTR, ui32Module, FIFOPTR, FIFOSIZ)) & (~0x3);
    2736:	1a81      	subs	r1, r0, r2
    am_hal_iom_fifo_write(WORKAROUND_IOM, pui32Data, ui32TransferSize - 4);
    2738:	3e04      	subs	r6, #4
    am_hal_debug_assert_msg((am_hal_iom_fifo_empty_slots(ui32Module) >= ui32NumBytes),
    273a:	f001 09fc 	and.w	r9, r1, #252	; 0xfc
    273e:	454e      	cmp	r6, r9
    2740:	f200 81e9 	bhi.w	2b16 <am_hal_iom_workaround_word_write+0x652>
    for ( ui32Index = 0; (4 * ui32Index) < ui32NumBytes; ui32Index++ )
    2744:	2e00      	cmp	r6, #0
    2746:	d067      	beq.n	2818 <am_hal_iom_workaround_word_write+0x354>
        AM_REGn(IOMSTR, ui32Module, FIFO) = pui32Data[ui32Index];
    2748:	4643      	mov	r3, r8
    274a:	ea6f 0c08 	mvn.w	ip, r8
    274e:	f853 7b04 	ldr.w	r7, [r3], #4
    2752:	4a2f      	ldr	r2, [pc, #188]	; (2810 <am_hal_iom_workaround_word_write+0x34c>)
    2754:	44c4      	add	ip, r8
    for ( ui32Index = 0; (4 * ui32Index) < ui32NumBytes; ui32Index++ )
    2756:	eba3 0b08 	sub.w	fp, r3, r8
    275a:	44b4      	add	ip, r6
    275c:	455e      	cmp	r6, fp
    275e:	f3cc 0082 	ubfx	r0, ip, #2, #3
        AM_REGn(IOMSTR, ui32Module, FIFO) = pui32Data[ui32Index];
    2762:	6017      	str	r7, [r2, #0]
    for ( ui32Index = 0; (4 * ui32Index) < ui32NumBytes; ui32Index++ )
    2764:	d958      	bls.n	2818 <am_hal_iom_workaround_word_write+0x354>
    2766:	b320      	cbz	r0, 27b2 <am_hal_iom_workaround_word_write+0x2ee>
    2768:	2801      	cmp	r0, #1
    276a:	d01b      	beq.n	27a4 <am_hal_iom_workaround_word_write+0x2e0>
    276c:	2802      	cmp	r0, #2
    276e:	d016      	beq.n	279e <am_hal_iom_workaround_word_write+0x2da>
    2770:	2803      	cmp	r0, #3
    2772:	d011      	beq.n	2798 <am_hal_iom_workaround_word_write+0x2d4>
    2774:	2804      	cmp	r0, #4
    2776:	d00c      	beq.n	2792 <am_hal_iom_workaround_word_write+0x2ce>
    2778:	2805      	cmp	r0, #5
    277a:	d007      	beq.n	278c <am_hal_iom_workaround_word_write+0x2c8>
    277c:	2806      	cmp	r0, #6
        AM_REGn(IOMSTR, ui32Module, FIFO) = pui32Data[ui32Index];
    277e:	bf1c      	itt	ne
    2780:	f853 0b04 	ldrne.w	r0, [r3], #4
    2784:	6010      	strne	r0, [r2, #0]
    2786:	f853 1b04 	ldr.w	r1, [r3], #4
    278a:	6011      	str	r1, [r2, #0]
    278c:	f853 7b04 	ldr.w	r7, [r3], #4
    2790:	6017      	str	r7, [r2, #0]
    2792:	f853 0b04 	ldr.w	r0, [r3], #4
    2796:	6010      	str	r0, [r2, #0]
    2798:	f853 1b04 	ldr.w	r1, [r3], #4
    279c:	6011      	str	r1, [r2, #0]
    279e:	f853 7b04 	ldr.w	r7, [r3], #4
    27a2:	6017      	str	r7, [r2, #0]
    27a4:	f853 0b04 	ldr.w	r0, [r3], #4
    27a8:	6010      	str	r0, [r2, #0]
    for ( ui32Index = 0; (4 * ui32Index) < ui32NumBytes; ui32Index++ )
    27aa:	eba3 0a08 	sub.w	sl, r3, r8
    27ae:	4556      	cmp	r6, sl
    27b0:	d932      	bls.n	2818 <am_hal_iom_workaround_word_write+0x354>
        AM_REGn(IOMSTR, ui32Module, FIFO) = pui32Data[ui32Index];
    27b2:	469e      	mov	lr, r3
    27b4:	3320      	adds	r3, #32
    27b6:	f85e 1b04 	ldr.w	r1, [lr], #4
    27ba:	6011      	str	r1, [r2, #0]
    27bc:	f853 7c1c 	ldr.w	r7, [r3, #-28]
    27c0:	6017      	str	r7, [r2, #0]
    27c2:	f8de 0004 	ldr.w	r0, [lr, #4]
    27c6:	6010      	str	r0, [r2, #0]
    27c8:	f853 1c14 	ldr.w	r1, [r3, #-20]
    27cc:	6011      	str	r1, [r2, #0]
    27ce:	f853 7c10 	ldr.w	r7, [r3, #-16]
    27d2:	6017      	str	r7, [r2, #0]
    27d4:	f853 0c0c 	ldr.w	r0, [r3, #-12]
    27d8:	6010      	str	r0, [r2, #0]
    27da:	f853 1c08 	ldr.w	r1, [r3, #-8]
    27de:	6011      	str	r1, [r2, #0]
    27e0:	f853 7c04 	ldr.w	r7, [r3, #-4]
    27e4:	6017      	str	r7, [r2, #0]
    for ( ui32Index = 0; (4 * ui32Index) < ui32NumBytes; ui32Index++ )
    27e6:	eba3 0008 	sub.w	r0, r3, r8
    27ea:	4286      	cmp	r6, r0
    27ec:	d8e1      	bhi.n	27b2 <am_hal_iom_workaround_word_write+0x2ee>
    27ee:	e013      	b.n	2818 <am_hal_iom_workaround_word_write+0x354>
    27f0:	5000811c 	.word	0x5000811c
    27f4:	5000810c 	.word	0x5000810c
    27f8:	02dc6c00 	.word	0x02dc6c00
    27fc:	00f42400 	.word	0x00f42400
    2800:	05b8d800 	.word	0x05b8d800
    2804:	0800009d 	.word	0x0800009d
    2808:	4d3f6400 	.word	0x4d3f6400
    280c:	50008100 	.word	0x50008100
    2810:	50008000 	.word	0x50008000
    2814:	000f4240 	.word	0x000f4240
        if ( g_IOMPads[index].channel == ui32ChipSelect )
    2818:	2c00      	cmp	r4, #0
    281a:	f000 8198 	beq.w	2b4e <am_hal_iom_workaround_word_write+0x68a>
    281e:	2c01      	cmp	r4, #1
    2820:	f000 80a3 	beq.w	296a <am_hal_iom_workaround_word_write+0x4a6>
    2824:	2c02      	cmp	r4, #2
    2826:	f000 80b8 	beq.w	299a <am_hal_iom_workaround_word_write+0x4d6>
    282a:	2c03      	cmp	r4, #3
    282c:	f000 80c6 	beq.w	29bc <am_hal_iom_workaround_word_write+0x4f8>
    2830:	2c04      	cmp	r4, #4
    2832:	f000 811e 	beq.w	2a72 <am_hal_iom_workaround_word_write+0x5ae>
    2836:	2c05      	cmp	r4, #5
    2838:	f000 8133 	beq.w	2aa2 <am_hal_iom_workaround_word_write+0x5de>
    283c:	2c06      	cmp	r4, #6
    283e:	f000 8148 	beq.w	2ad2 <am_hal_iom_workaround_word_write+0x60e>
    2842:	2c07      	cmp	r4, #7
    2844:	f000 8156 	beq.w	2af4 <am_hal_iom_workaround_word_write+0x630>
    am_hal_debug_assert(0xDEADBEEF != ui32IOMGPIO);
    2848:	2200      	movs	r2, #0
    284a:	48cc      	ldr	r0, [pc, #816]	; (2b7c <am_hal_iom_workaround_word_write+0x6b8>)
    ui32CSPadregVal = *pui32CSPadreg;
    284c:	4fcc      	ldr	r7, [pc, #816]	; (2b80 <am_hal_iom_workaround_word_write+0x6bc>)
    am_hal_debug_assert(0xDEADBEEF != ui32IOMGPIO);
    284e:	f240 512d 	movw	r1, #1325	; 0x52d
    2852:	f7ff f86d 	bl	1930 <am_hal_debug_error>
    am_hal_gpio_out_bit_set(ui32IOMGPIO);
    2856:	48cb      	ldr	r0, [pc, #812]	; (2b84 <am_hal_iom_workaround_word_write+0x6c0>)
    ui32CSPadregVal = *pui32CSPadreg;
    2858:	683a      	ldr	r2, [r7, #0]
    285a:	9202      	str	r2, [sp, #8]
    am_hal_gpio_out_bit_set(ui32IOMGPIO);
    285c:	f44f 4300 	mov.w	r3, #32768	; 0x8000
    pui32CSPadreg = (volatile uint32_t *)AM_HAL_GPIO_PADREG(ui32IOMGPIO);
    2860:	46bb      	mov	fp, r7
    am_hal_gpio_out_bit_set(ui32IOMGPIO);
    2862:	6003      	str	r3, [r0, #0]
    am_hal_gpio_pin_config(WORKAROUND_IOM_MOSI_PIN, WORKAROUND_IOM_MOSI_CFG | AM_HAL_PIN_DIR_INPUT);
    2864:	f7ff f996 	bl	1b94 <am_hal_interrupt_master_disable>
    2868:	4ec7      	ldr	r6, [pc, #796]	; (2b88 <am_hal_iom_workaround_word_write+0x6c4>)
    286a:	f8df 9360 	ldr.w	r9, [pc, #864]	; 2bcc <am_hal_iom_workaround_word_write+0x708>
    286e:	900a      	str	r0, [sp, #40]	; 0x28
    2870:	2173      	movs	r1, #115	; 0x73
    2872:	6031      	str	r1, [r6, #0]
    2874:	f8d9 0000 	ldr.w	r0, [r9]
    2878:	f8df 8354 	ldr.w	r8, [pc, #852]	; 2bd0 <am_hal_iom_workaround_word_write+0x70c>
    287c:	9105      	str	r1, [sp, #20]
    287e:	f420 22e0 	bic.w	r2, r0, #458752	; 0x70000
    2882:	f8c9 2000 	str.w	r2, [r9]
    2886:	f8d8 3000 	ldr.w	r3, [r8]
    288a:	4fc0      	ldr	r7, [pc, #768]	; (2b8c <am_hal_iom_workaround_word_write+0x6c8>)
    288c:	f023 01ff 	bic.w	r1, r3, #255	; 0xff
    2890:	f041 002a 	orr.w	r0, r1, #42	; 0x2a
    2894:	f8c8 0000 	str.w	r0, [r8]
    2898:	683a      	ldr	r2, [r7, #0]
    289a:	f04f 0a00 	mov.w	sl, #0
    289e:	f022 03ff 	bic.w	r3, r2, #255	; 0xff
    28a2:	603b      	str	r3, [r7, #0]
    28a4:	f8c6 a000 	str.w	sl, [r6]
    28a8:	980a      	ldr	r0, [sp, #40]	; 0x28
    28aa:	f7ff f977 	bl	1b9c <am_hal_interrupt_master_set>
    ui32Command |= ui32Options & 0x5C00FF00;
    28ae:	9901      	ldr	r1, [sp, #4]
    ui32Command |= ((ui32ChipSelect << 16) & 0x00070000);
    28b0:	0424      	lsls	r4, r4, #16
    28b2:	f404 20e0 	and.w	r0, r4, #458752	; 0x70000
    ui32Command |= ui32Options & 0x5C00FF00;
    28b6:	f021 4323 	bic.w	r3, r1, #2734686208	; 0xa3000000
    ui32Command |= (ui32NumBytes & 0xFF);
    28ba:	9904      	ldr	r1, [sp, #16]
    ui32Command |= ui32Options & 0x5C00FF00;
    28bc:	f003 24ff 	and.w	r4, r3, #4278255360	; 0xff00ff00
    28c0:	f040 4280 	orr.w	r2, r0, #1073741824	; 0x40000000
    28c4:	4322      	orrs	r2, r4
    ui32Command |= (ui32NumBytes & 0xFF);
    28c6:	b2c8      	uxtb	r0, r1
    ui32Command |= ((ui32NumBytes & 0xF00) << 15);
    28c8:	03cc      	lsls	r4, r1, #15
    AM_REGn(GPIO, 0, PADKEY) = AM_REG_GPIO_PADKEY_KEYVAL;
    28ca:	9b05      	ldr	r3, [sp, #20]
    28cc:	6033      	str	r3, [r6, #0]
    ui32Command |= ((ui32NumBytes & 0xF00) << 15);
    28ce:	f004 61f0 	and.w	r1, r4, #125829120	; 0x7800000
    ui32Command |= ui32Options & 0x5C00FF00;
    28d2:	4302      	orrs	r2, r0
    28d4:	430a      	orrs	r2, r1
    AM_REGn(GPIO, 0, PADKEY) = AM_REG_GPIO_PADKEY_KEYVAL;
    28d6:	9305      	str	r3, [sp, #20]
    ui32Command |= ui32Options & 0x5C00FF00;
    28d8:	9204      	str	r2, [sp, #16]
    ui32Critical = am_hal_interrupt_master_disable();
    28da:	f7ff f95b 	bl	1b94 <am_hal_interrupt_master_disable>
    28de:	9001      	str	r0, [sp, #4]
    AM_REGn(IOMSTR, WORKAROUND_IOM, CMD) = ui32Command;
    28e0:	48ab      	ldr	r0, [pc, #684]	; (2b90 <am_hal_iom_workaround_word_write+0x6cc>)
    28e2:	9a04      	ldr	r2, [sp, #16]
    28e4:	6002      	str	r2, [r0, #0]
    ((void (*)(uint32_t)) 0x0800009d)(ui32DelayTime);
    28e6:	4cab      	ldr	r4, [pc, #684]	; (2b94 <am_hal_iom_workaround_word_write+0x6d0>)
    28e8:	9807      	ldr	r0, [sp, #28]
    28ea:	47a0      	blx	r4
    AM_REGn(IOMSTR, WORKAROUND_IOM, CLKCFG) = ui32LowClkCfg;
    28ec:	4baa      	ldr	r3, [pc, #680]	; (2b98 <am_hal_iom_workaround_word_write+0x6d4>)
    28ee:	9c03      	ldr	r4, [sp, #12]
    iom_workaround_loop(ui32CSPadregVal, pui32CSPadreg, bRising);
    28f0:	9a06      	ldr	r2, [sp, #24]
    28f2:	9802      	ldr	r0, [sp, #8]
    AM_REGn(IOMSTR, WORKAROUND_IOM, CLKCFG) = ui32LowClkCfg;
    28f4:	601c      	str	r4, [r3, #0]
    iom_workaround_loop(ui32CSPadregVal, pui32CSPadreg, bRising);
    28f6:	4659      	mov	r1, fp
    28f8:	f7ff f954 	bl	1ba4 <iom_workaround_loop>
    AM_REGn(IOMSTR, WORKAROUND_IOM, CLKCFG) = ui32ClkCfg;
    28fc:	49a6      	ldr	r1, [pc, #664]	; (2b98 <am_hal_iom_workaround_word_write+0x6d4>)
    28fe:	600d      	str	r5, [r1, #0]
    am_hal_gpio_pin_config(WORKAROUND_IOM_MOSI_PIN, WORKAROUND_IOM_MOSI_CFG);
    2900:	f7ff f948 	bl	1b94 <am_hal_interrupt_master_disable>
    2904:	9d05      	ldr	r5, [sp, #20]
    2906:	900b      	str	r0, [sp, #44]	; 0x2c
    2908:	6035      	str	r5, [r6, #0]
    290a:	f8d9 0000 	ldr.w	r0, [r9]
    290e:	f420 22e0 	bic.w	r2, r0, #458752	; 0x70000
    2912:	f8c9 2000 	str.w	r2, [r9]
    2916:	f8d8 3000 	ldr.w	r3, [r8]
    291a:	f023 04ff 	bic.w	r4, r3, #255	; 0xff
    291e:	f044 0128 	orr.w	r1, r4, #40	; 0x28
    2922:	f8c8 1000 	str.w	r1, [r8]
    2926:	683d      	ldr	r5, [r7, #0]
    2928:	f025 00ff 	bic.w	r0, r5, #255	; 0xff
    292c:	6038      	str	r0, [r7, #0]
    292e:	f8c6 a000 	str.w	sl, [r6]
    2932:	980b      	ldr	r0, [sp, #44]	; 0x2c
    2934:	f7ff f932 	bl	1b9c <am_hal_interrupt_master_set>
    am_hal_interrupt_master_set(ui32Critical);
    2938:	9801      	ldr	r0, [sp, #4]
    293a:	f7ff f92f 	bl	1b9c <am_hal_interrupt_master_set>
    AM_REGn(GPIO, 0, PADKEY) = 0;
    293e:	f8c6 a000 	str.w	sl, [r6]
}
    2942:	b00d      	add	sp, #52	; 0x34
    2944:	e8bd 8ff0 	ldmia.w	sp!, {r4, r5, r6, r7, r8, r9, sl, fp, pc}
        ui32FirstWord = ((ui32Options & 0xFF00) << 16);
    2948:	041a      	lsls	r2, r3, #16
        ui32DelayTime = ((19 * AM_HAL_CLKGEN_FREQ_MAX_HZ) / (ui32HiFreq * 3));
    294a:	eb07 0a47 	add.w	sl, r7, r7, lsl #1
    294e:	4f93      	ldr	r7, [pc, #588]	; (2b9c <am_hal_iom_workaround_word_write+0x6d8>)
    2950:	fbb7 f1fa 	udiv	r1, r7, sl
        if ( ui32FirstWord & 0x80000000 )
    2954:	f012 477f 	ands.w	r7, r2, #4278190080	; 0xff000000
        ui32DelayTime = ((19 * AM_HAL_CLKGEN_FREQ_MAX_HZ) / (ui32HiFreq * 3));
    2958:	9107      	str	r1, [sp, #28]
        if ( ui32FirstWord & 0x80000000 )
    295a:	f100 813d 	bmi.w	2bd8 <am_hal_iom_workaround_word_write+0x714>
            ui32FirstWord |= 0x00FFFF00;
    295e:	f447 037f 	orr.w	r3, r7, #16711680	; 0xff0000
    2962:	f443 477f 	orr.w	r7, r3, #65280	; 0xff00
            bRising = false;
    2966:	9006      	str	r0, [sp, #24]
    2968:	e6c3      	b.n	26f2 <am_hal_iom_workaround_word_write+0x22e>
            ui8PadRegVal = ((AM_REGVAL(AM_HAL_GPIO_PADREG(g_IOMPads[index].pad))) &
    296a:	4a8d      	ldr	r2, [pc, #564]	; (2ba0 <am_hal_iom_workaround_word_write+0x6dc>)
    296c:	6813      	ldr	r3, [r2, #0]
            if ( ui8FncSelVal == g_IOMPads[index].funcsel )
    296e:	f3c3 46c2 	ubfx	r6, r3, #19, #3
    2972:	2e04      	cmp	r6, #4
    2974:	f000 814a 	beq.w	2c0c <am_hal_iom_workaround_word_write+0x748>
            ui8PadRegVal = ((AM_REGVAL(AM_HAL_GPIO_PADREG(g_IOMPads[index].pad))) &
    2978:	3214      	adds	r2, #20
    297a:	6811      	ldr	r1, [r2, #0]
            if ( ui8FncSelVal == g_IOMPads[index].funcsel )
    297c:	f3c1 27c2 	ubfx	r7, r1, #11, #3
    2980:	2f05      	cmp	r7, #5
    2982:	f47f af61 	bne.w	2848 <am_hal_iom_workaround_word_write+0x384>
            ui8PadRegVal = ((AM_REGVAL(AM_HAL_GPIO_PADREG(g_IOMPads[index].pad))) &
    2986:	f04f 0825 	mov.w	r8, #37	; 0x25
    298a:	4693      	mov	fp, r2
    298c:	46c4      	mov	ip, r8
                             AM_HAL_GPIO_PADREG_M(g_IOMPads[index].pad)) >>
    298e:	f44f 497f 	mov.w	r9, #65280	; 0xff00
    2992:	f04f 0a08 	mov.w	sl, #8
            ui8PadRegVal = ((AM_REGVAL(AM_HAL_GPIO_PADREG(g_IOMPads[index].pad))) &
    2996:	2624      	movs	r6, #36	; 0x24
    2998:	e027      	b.n	29ea <am_hal_iom_workaround_word_write+0x526>
    299a:	4982      	ldr	r1, [pc, #520]	; (2ba4 <am_hal_iom_workaround_word_write+0x6e0>)
    299c:	680f      	ldr	r7, [r1, #0]
            if ( ui8FncSelVal == g_IOMPads[index].funcsel )
    299e:	f3c7 20c2 	ubfx	r0, r7, #11, #3
    29a2:	2806      	cmp	r0, #6
    29a4:	f47f af50 	bne.w	2848 <am_hal_iom_workaround_word_write+0x384>
            ui8PadRegVal = ((AM_REGVAL(AM_HAL_GPIO_PADREG(g_IOMPads[index].pad))) &
    29a8:	f04f 0829 	mov.w	r8, #41	; 0x29
    29ac:	468b      	mov	fp, r1
    29ae:	46c4      	mov	ip, r8
                             AM_HAL_GPIO_PADREG_M(g_IOMPads[index].pad)) >>
    29b0:	f44f 497f 	mov.w	r9, #65280	; 0xff00
    29b4:	f04f 0a08 	mov.w	sl, #8
            ui8PadRegVal = ((AM_REGVAL(AM_HAL_GPIO_PADREG(g_IOMPads[index].pad))) &
    29b8:	2628      	movs	r6, #40	; 0x28
    29ba:	e016      	b.n	29ea <am_hal_iom_workaround_word_write+0x526>
    29bc:	4f78      	ldr	r7, [pc, #480]	; (2ba0 <am_hal_iom_workaround_word_write+0x6dc>)
    29be:	6838      	ldr	r0, [r7, #0]
            if ( ui8FncSelVal == g_IOMPads[index].funcsel )
    29c0:	f3c0 22c2 	ubfx	r2, r0, #11, #3
    29c4:	2a04      	cmp	r2, #4
    29c6:	f000 812b 	beq.w	2c20 <am_hal_iom_workaround_word_write+0x75c>
            ui8PadRegVal = ((AM_REGVAL(AM_HAL_GPIO_PADREG(g_IOMPads[index].pad))) &
    29ca:	371c      	adds	r7, #28
    29cc:	683b      	ldr	r3, [r7, #0]
            if ( ui8FncSelVal == g_IOMPads[index].funcsel )
    29ce:	f3c3 26c2 	ubfx	r6, r3, #11, #3
    29d2:	2e04      	cmp	r6, #4
    29d4:	f47f af38 	bne.w	2848 <am_hal_iom_workaround_word_write+0x384>
            ui8PadRegVal = ((AM_REGVAL(AM_HAL_GPIO_PADREG(g_IOMPads[index].pad))) &
    29d8:	f04f 082d 	mov.w	r8, #45	; 0x2d
    29dc:	46bb      	mov	fp, r7
    29de:	46c4      	mov	ip, r8
                             AM_HAL_GPIO_PADREG_M(g_IOMPads[index].pad)) >>
    29e0:	f44f 497f 	mov.w	r9, #65280	; 0xff00
    29e4:	f04f 0a08 	mov.w	sl, #8
            ui8PadRegVal = ((AM_REGVAL(AM_HAL_GPIO_PADREG(g_IOMPads[index].pad))) &
    29e8:	262c      	movs	r6, #44	; 0x2c
    am_hal_gpio_out_bit_set(ui32IOMGPIO);
    29ea:	ea4f 01d8 	mov.w	r1, r8, lsr #3
    29ee:	f001 0e04 	and.w	lr, r1, #4
    29f2:	f00c 001f 	and.w	r0, ip, #31
    29f6:	4b6c      	ldr	r3, [pc, #432]	; (2ba8 <am_hal_iom_workaround_word_write+0x6e4>)
    ui32CSPadregVal = *pui32CSPadreg;
    29f8:	f8db 7000 	ldr.w	r7, [fp]
    29fc:	9702      	str	r7, [sp, #8]
    am_hal_gpio_out_bit_set(ui32IOMGPIO);
    29fe:	2201      	movs	r2, #1
    2a00:	4082      	lsls	r2, r0
    2a02:	f84e 2003 	str.w	r2, [lr, r3]
    am_hal_gpio_pin_config(ui32IOMGPIO, AM_HAL_GPIO_OUTPUT);
    2a06:	f7ff f8c5 	bl	1b94 <am_hal_interrupt_master_disable>
    2a0a:	4f5f      	ldr	r7, [pc, #380]	; (2b88 <am_hal_iom_workaround_word_write+0x6c4>)
    2a0c:	9009      	str	r0, [sp, #36]	; 0x24
    2a0e:	ea4f 0c58 	mov.w	ip, r8, lsr #1
    2a12:	f00c 017c 	and.w	r1, ip, #124	; 0x7c
    2a16:	f8df e1bc 	ldr.w	lr, [pc, #444]	; 2bd4 <am_hal_iom_workaround_word_write+0x710>
    2a1a:	2073      	movs	r0, #115	; 0x73
    2a1c:	6038      	str	r0, [r7, #0]
    2a1e:	ea4f 0288 	mov.w	r2, r8, lsl #2
    2a22:	f002 031c 	and.w	r3, r2, #28
    2a26:	f851 800e 	ldr.w	r8, [r1, lr]
    2a2a:	4860      	ldr	r0, [pc, #384]	; (2bac <am_hal_iom_workaround_word_write+0x6e8>)
    2a2c:	2207      	movs	r2, #7
    2a2e:	409a      	lsls	r2, r3
    2a30:	f04f 0c02 	mov.w	ip, #2
    2a34:	ea28 0202 	bic.w	r2, r8, r2
    2a38:	fa0c f303 	lsl.w	r3, ip, r3
    2a3c:	4313      	orrs	r3, r2
    2a3e:	f841 300e 	str.w	r3, [r1, lr]
    2a42:	f8db 1000 	ldr.w	r1, [fp]
    2a46:	ea6f 0909 	mvn.w	r9, r9
    2a4a:	f04f 0e18 	mov.w	lr, #24
    2a4e:	ea01 0809 	and.w	r8, r1, r9
    2a52:	fa0e f20a 	lsl.w	r2, lr, sl
    2a56:	ea42 0308 	orr.w	r3, r2, r8
    2a5a:	f8cb 3000 	str.w	r3, [fp]
    2a5e:	5831      	ldr	r1, [r6, r0]
    2a60:	2200      	movs	r2, #0
    2a62:	ea09 0301 	and.w	r3, r9, r1
    2a66:	5033      	str	r3, [r6, r0]
    2a68:	603a      	str	r2, [r7, #0]
    2a6a:	9809      	ldr	r0, [sp, #36]	; 0x24
    2a6c:	f7ff f896 	bl	1b9c <am_hal_interrupt_master_set>
    2a70:	e6f8      	b.n	2864 <am_hal_iom_workaround_word_write+0x3a0>
            ui8PadRegVal = ((AM_REGVAL(AM_HAL_GPIO_PADREG(g_IOMPads[index].pad))) &
    2a72:	484f      	ldr	r0, [pc, #316]	; (2bb0 <am_hal_iom_workaround_word_write+0x6ec>)
    2a74:	6802      	ldr	r2, [r0, #0]
            if ( ui8FncSelVal == g_IOMPads[index].funcsel )
    2a76:	f3c2 43c2 	ubfx	r3, r2, #19, #3
    2a7a:	2b06      	cmp	r3, #6
    2a7c:	f000 80da 	beq.w	2c34 <am_hal_iom_workaround_word_write+0x770>
            ui8PadRegVal = ((AM_REGVAL(AM_HAL_GPIO_PADREG(g_IOMPads[index].pad))) &
    2a80:	3024      	adds	r0, #36	; 0x24
    2a82:	6806      	ldr	r6, [r0, #0]
            if ( ui8FncSelVal == g_IOMPads[index].funcsel )
    2a84:	f3c6 41c2 	ubfx	r1, r6, #19, #3
    2a88:	2906      	cmp	r1, #6
    2a8a:	f47f aedd 	bne.w	2848 <am_hal_iom_workaround_word_write+0x384>
            ui8PadRegVal = ((AM_REGVAL(AM_HAL_GPIO_PADREG(g_IOMPads[index].pad))) &
    2a8e:	f04f 082e 	mov.w	r8, #46	; 0x2e
    2a92:	4683      	mov	fp, r0
    2a94:	46c4      	mov	ip, r8
                             AM_HAL_GPIO_PADREG_M(g_IOMPads[index].pad)) >>
    2a96:	f44f 097f 	mov.w	r9, #16711680	; 0xff0000
    2a9a:	f04f 0a10 	mov.w	sl, #16
            ui8PadRegVal = ((AM_REGVAL(AM_HAL_GPIO_PADREG(g_IOMPads[index].pad))) &
    2a9e:	262c      	movs	r6, #44	; 0x2c
    2aa0:	e7a3      	b.n	29ea <am_hal_iom_workaround_word_write+0x526>
    2aa2:	4a43      	ldr	r2, [pc, #268]	; (2bb0 <am_hal_iom_workaround_word_write+0x6ec>)
    2aa4:	6813      	ldr	r3, [r2, #0]
            if ( ui8FncSelVal == g_IOMPads[index].funcsel )
    2aa6:	f3c3 26c2 	ubfx	r6, r3, #11, #3
    2aaa:	2e04      	cmp	r6, #4
    2aac:	f000 80cc 	beq.w	2c48 <am_hal_iom_workaround_word_write+0x784>
            ui8PadRegVal = ((AM_REGVAL(AM_HAL_GPIO_PADREG(g_IOMPads[index].pad))) &
    2ab0:	3224      	adds	r2, #36	; 0x24
    2ab2:	6811      	ldr	r1, [r2, #0]
            if ( ui8FncSelVal == g_IOMPads[index].funcsel )
    2ab4:	f3c1 67c2 	ubfx	r7, r1, #27, #3
    2ab8:	2f06      	cmp	r7, #6
    2aba:	f47f aec5 	bne.w	2848 <am_hal_iom_workaround_word_write+0x384>
            ui8PadRegVal = ((AM_REGVAL(AM_HAL_GPIO_PADREG(g_IOMPads[index].pad))) &
    2abe:	f04f 082f 	mov.w	r8, #47	; 0x2f
    2ac2:	4693      	mov	fp, r2
    2ac4:	46c4      	mov	ip, r8
                             AM_HAL_GPIO_PADREG_M(g_IOMPads[index].pad)) >>
    2ac6:	f04f 497f 	mov.w	r9, #4278190080	; 0xff000000
    2aca:	f04f 0a18 	mov.w	sl, #24
            ui8PadRegVal = ((AM_REGVAL(AM_HAL_GPIO_PADREG(g_IOMPads[index].pad))) &
    2ace:	262c      	movs	r6, #44	; 0x2c
    2ad0:	e78b      	b.n	29ea <am_hal_iom_workaround_word_write+0x526>
    2ad2:	4938      	ldr	r1, [pc, #224]	; (2bb4 <am_hal_iom_workaround_word_write+0x6f0>)
    2ad4:	680f      	ldr	r7, [r1, #0]
            if ( ui8FncSelVal == g_IOMPads[index].funcsel )
    2ad6:	f3c7 60c2 	ubfx	r0, r7, #27, #3
    2ada:	2804      	cmp	r0, #4
    2adc:	f47f aeb4 	bne.w	2848 <am_hal_iom_workaround_word_write+0x384>
            ui8PadRegVal = ((AM_REGVAL(AM_HAL_GPIO_PADREG(g_IOMPads[index].pad))) &
    2ae0:	f04f 0823 	mov.w	r8, #35	; 0x23
    2ae4:	468b      	mov	fp, r1
    2ae6:	46c4      	mov	ip, r8
                             AM_HAL_GPIO_PADREG_M(g_IOMPads[index].pad)) >>
    2ae8:	f04f 497f 	mov.w	r9, #4278190080	; 0xff000000
    2aec:	f04f 0a18 	mov.w	sl, #24
            ui8PadRegVal = ((AM_REGVAL(AM_HAL_GPIO_PADREG(g_IOMPads[index].pad))) &
    2af0:	2620      	movs	r6, #32
    2af2:	e77a      	b.n	29ea <am_hal_iom_workaround_word_write+0x526>
    2af4:	4e30      	ldr	r6, [pc, #192]	; (2bb8 <am_hal_iom_workaround_word_write+0x6f4>)
    2af6:	6833      	ldr	r3, [r6, #0]
            if ( ui8FncSelVal == g_IOMPads[index].funcsel )
    2af8:	f3c3 42c2 	ubfx	r2, r3, #19, #3
    2afc:	2a06      	cmp	r2, #6
    2afe:	f47f aea3 	bne.w	2848 <am_hal_iom_workaround_word_write+0x384>
            ui8PadRegVal = ((AM_REGVAL(AM_HAL_GPIO_PADREG(g_IOMPads[index].pad))) &
    2b02:	f04f 0826 	mov.w	r8, #38	; 0x26
    2b06:	46b3      	mov	fp, r6
    2b08:	46c4      	mov	ip, r8
                             AM_HAL_GPIO_PADREG_M(g_IOMPads[index].pad)) >>
    2b0a:	f44f 097f 	mov.w	r9, #16711680	; 0xff0000
    2b0e:	f04f 0a10 	mov.w	sl, #16
            ui8PadRegVal = ((AM_REGVAL(AM_HAL_GPIO_PADREG(g_IOMPads[index].pad))) &
    2b12:	2624      	movs	r6, #36	; 0x24
    2b14:	e769      	b.n	29ea <am_hal_iom_workaround_word_write+0x526>
    am_hal_debug_assert_msg((am_hal_iom_fifo_empty_slots(ui32Module) >= ui32NumBytes),
    2b16:	4a29      	ldr	r2, [pc, #164]	; (2bbc <am_hal_iom_workaround_word_write+0x6f8>)
    2b18:	4818      	ldr	r0, [pc, #96]	; (2b7c <am_hal_iom_workaround_word_write+0x6b8>)
    2b1a:	f640 7145 	movw	r1, #3909	; 0xf45
    2b1e:	f7fe ff07 	bl	1930 <am_hal_debug_error>
    2b22:	e611      	b.n	2748 <am_hal_iom_workaround_word_write+0x284>
    2b24:	4a25      	ldr	r2, [pc, #148]	; (2bbc <am_hal_iom_workaround_word_write+0x6f8>)
    2b26:	4815      	ldr	r0, [pc, #84]	; (2b7c <am_hal_iom_workaround_word_write+0x6b8>)
    2b28:	f640 7145 	movw	r1, #3909	; 0xf45
    2b2c:	f7fe ff00 	bl	1930 <am_hal_debug_error>
    2b30:	e5f4      	b.n	271c <am_hal_iom_workaround_word_write+0x258>
    am_hal_debug_assert_msg(ui32HiFreq > 0, "Invalid Hi Frequency for IOM.");
    2b32:	4a23      	ldr	r2, [pc, #140]	; (2bc0 <am_hal_iom_workaround_word_write+0x6fc>)
    2b34:	4811      	ldr	r0, [pc, #68]	; (2b7c <am_hal_iom_workaround_word_write+0x6b8>)
    2b36:	f240 41e5 	movw	r1, #1253	; 0x4e5
    2b3a:	f7fe fef9 	bl	1930 <am_hal_debug_error>
    2b3e:	e54b      	b.n	25d8 <am_hal_iom_workaround_word_write+0x114>
    am_hal_debug_assert_msg(ui32NumBytes <= 4091, "SPI transfer too big.");
    2b40:	4a20      	ldr	r2, [pc, #128]	; (2bc4 <am_hal_iom_workaround_word_write+0x700>)
    2b42:	480e      	ldr	r0, [pc, #56]	; (2b7c <am_hal_iom_workaround_word_write+0x6b8>)
    2b44:	f240 41ba 	movw	r1, #1210	; 0x4ba
    2b48:	f7fe fef2 	bl	1930 <am_hal_debug_error>
    2b4c:	e4cd      	b.n	24ea <am_hal_iom_workaround_word_write+0x26>
            ui8PadRegVal = ((AM_REGVAL(AM_HAL_GPIO_PADREG(g_IOMPads[index].pad))) &
    2b4e:	481e      	ldr	r0, [pc, #120]	; (2bc8 <am_hal_iom_workaround_word_write+0x704>)
    2b50:	6802      	ldr	r2, [r0, #0]
            if ( ui8FncSelVal == g_IOMPads[index].funcsel )
    2b52:	f3c2 23c2 	ubfx	r3, r2, #11, #3
    2b56:	2b06      	cmp	r3, #6
    2b58:	d04e      	beq.n	2bf8 <am_hal_iom_workaround_word_write+0x734>
            ui8PadRegVal = ((AM_REGVAL(AM_HAL_GPIO_PADREG(g_IOMPads[index].pad))) &
    2b5a:	3004      	adds	r0, #4
    2b5c:	6806      	ldr	r6, [r0, #0]
            if ( ui8FncSelVal == g_IOMPads[index].funcsel )
    2b5e:	f3c6 41c2 	ubfx	r1, r6, #19, #3
    2b62:	2906      	cmp	r1, #6
    2b64:	f47f ae70 	bne.w	2848 <am_hal_iom_workaround_word_write+0x384>
            ui8PadRegVal = ((AM_REGVAL(AM_HAL_GPIO_PADREG(g_IOMPads[index].pad))) &
    2b68:	f04f 0822 	mov.w	r8, #34	; 0x22
    2b6c:	4683      	mov	fp, r0
    2b6e:	46c4      	mov	ip, r8
                             AM_HAL_GPIO_PADREG_M(g_IOMPads[index].pad)) >>
    2b70:	f44f 097f 	mov.w	r9, #16711680	; 0xff0000
    2b74:	f04f 0a10 	mov.w	sl, #16
            ui8PadRegVal = ((AM_REGVAL(AM_HAL_GPIO_PADREG(g_IOMPads[index].pad))) &
    2b78:	2620      	movs	r6, #32
    2b7a:	e736      	b.n	29ea <am_hal_iom_workaround_word_write+0x526>
    2b7c:	00004bcc 	.word	0x00004bcc
    2b80:	400100ec 	.word	0x400100ec
    2b84:	40010094 	.word	0x40010094
    2b88:	40010060 	.word	0x40010060
    2b8c:	4001010c 	.word	0x4001010c
    2b90:	50008110 	.word	0x50008110
    2b94:	0800009d 	.word	0x0800009d
    2b98:	5000810c 	.word	0x5000810c
    2b9c:	365c0400 	.word	0x365c0400
    2ba0:	40010010 	.word	0x40010010
    2ba4:	40010028 	.word	0x40010028
    2ba8:	40010090 	.word	0x40010090
    2bac:	400100e0 	.word	0x400100e0
    2bb0:	40010008 	.word	0x40010008
    2bb4:	40010020 	.word	0x40010020
    2bb8:	40010024 	.word	0x40010024
    2bbc:	00004b98 	.word	0x00004b98
    2bc0:	00004cbc 	.word	0x00004cbc
    2bc4:	00004ca4 	.word	0x00004ca4
    2bc8:	4001001c 	.word	0x4001001c
    2bcc:	40010054 	.word	0x40010054
    2bd0:	4001002c 	.word	0x4001002c
    2bd4:	40010040 	.word	0x40010040
            bRising = true;
    2bd8:	2001      	movs	r0, #1
    2bda:	9006      	str	r0, [sp, #24]
    2bdc:	e589      	b.n	26f2 <am_hal_iom_workaround_word_write+0x22e>
    for ( ui32Fsel = 1; ui32Fsel < 8; ui32Fsel++ )
    2bde:	2001      	movs	r0, #1
    2be0:	e56d      	b.n	26be <am_hal_iom_workaround_word_write+0x1fa>
    2be2:	f04f 0c01 	mov.w	ip, #1
    2be6:	e4b2      	b.n	254e <am_hal_iom_workaround_word_write+0x8a>
    2be8:	2002      	movs	r0, #2
    2bea:	e568      	b.n	26be <am_hal_iom_workaround_word_write+0x1fa>
    2bec:	2003      	movs	r0, #3
    2bee:	e566      	b.n	26be <am_hal_iom_workaround_word_write+0x1fa>
    2bf0:	2004      	movs	r0, #4
    2bf2:	e564      	b.n	26be <am_hal_iom_workaround_word_write+0x1fa>
    2bf4:	2005      	movs	r0, #5
    2bf6:	e562      	b.n	26be <am_hal_iom_workaround_word_write+0x1fa>
            ui8PadRegVal = ((AM_REGVAL(AM_HAL_GPIO_PADREG(g_IOMPads[index].pad))) &
    2bf8:	f04f 081d 	mov.w	r8, #29
    2bfc:	4683      	mov	fp, r0
    2bfe:	46c4      	mov	ip, r8
                             AM_HAL_GPIO_PADREG_M(g_IOMPads[index].pad)) >>
    2c00:	f44f 497f 	mov.w	r9, #65280	; 0xff00
    2c04:	f04f 0a08 	mov.w	sl, #8
            ui8PadRegVal = ((AM_REGVAL(AM_HAL_GPIO_PADREG(g_IOMPads[index].pad))) &
    2c08:	261c      	movs	r6, #28
    2c0a:	e6ee      	b.n	29ea <am_hal_iom_workaround_word_write+0x526>
                             AM_HAL_GPIO_PADREG_M(g_IOMPads[index].pad)) >>
    2c0c:	f04f 0a10 	mov.w	sl, #16
            ui8PadRegVal = ((AM_REGVAL(AM_HAL_GPIO_PADREG(g_IOMPads[index].pad))) &
    2c10:	f04f 0812 	mov.w	r8, #18
    2c14:	4693      	mov	fp, r2
    2c16:	4656      	mov	r6, sl
    2c18:	46c4      	mov	ip, r8
                             AM_HAL_GPIO_PADREG_M(g_IOMPads[index].pad)) >>
    2c1a:	f44f 097f 	mov.w	r9, #16711680	; 0xff0000
    2c1e:	e6e4      	b.n	29ea <am_hal_iom_workaround_word_write+0x526>
            ui8PadRegVal = ((AM_REGVAL(AM_HAL_GPIO_PADREG(g_IOMPads[index].pad))) &
    2c20:	f04f 0811 	mov.w	r8, #17
    2c24:	46bb      	mov	fp, r7
    2c26:	46c4      	mov	ip, r8
                             AM_HAL_GPIO_PADREG_M(g_IOMPads[index].pad)) >>
    2c28:	f44f 497f 	mov.w	r9, #65280	; 0xff00
    2c2c:	f04f 0a08 	mov.w	sl, #8
            ui8PadRegVal = ((AM_REGVAL(AM_HAL_GPIO_PADREG(g_IOMPads[index].pad))) &
    2c30:	2610      	movs	r6, #16
    2c32:	e6da      	b.n	29ea <am_hal_iom_workaround_word_write+0x526>
    2c34:	f04f 080a 	mov.w	r8, #10
    2c38:	4683      	mov	fp, r0
    2c3a:	46c4      	mov	ip, r8
                             AM_HAL_GPIO_PADREG_M(g_IOMPads[index].pad)) >>
    2c3c:	f44f 097f 	mov.w	r9, #16711680	; 0xff0000
    2c40:	f04f 0a10 	mov.w	sl, #16
            ui8PadRegVal = ((AM_REGVAL(AM_HAL_GPIO_PADREG(g_IOMPads[index].pad))) &
    2c44:	2608      	movs	r6, #8
    2c46:	e6d0      	b.n	29ea <am_hal_iom_workaround_word_write+0x526>
                             AM_HAL_GPIO_PADREG_M(g_IOMPads[index].pad)) >>
    2c48:	f04f 0a08 	mov.w	sl, #8
            ui8PadRegVal = ((AM_REGVAL(AM_HAL_GPIO_PADREG(g_IOMPads[index].pad))) &
    2c4c:	f04f 0809 	mov.w	r8, #9
    2c50:	4693      	mov	fp, r2
    2c52:	4656      	mov	r6, sl
    2c54:	46c4      	mov	ip, r8
                             AM_HAL_GPIO_PADREG_M(g_IOMPads[index].pad)) >>
    2c56:	f44f 497f 	mov.w	r9, #65280	; 0xff00
    2c5a:	e6c6      	b.n	29ea <am_hal_iom_workaround_word_write+0x526>

00002c5c <am_hal_iom_spi_write_nb.part.6>:
am_hal_iom_spi_write_nb(uint32_t ui32Module, uint32_t ui32ChipSelect,
    2c5c:	e92d 47f0 	stmdb	sp!, {r4, r5, r6, r7, r8, r9, sl, lr}
    ui32MaxFifoSize = ((0 == AM_BFRn(IOMSTR, ui32Module, CFG, FULLDUP)) ?
    2c60:	f500 24a0 	add.w	r4, r0, #327680	; 0x50000
    2c64:	3404      	adds	r4, #4
    2c66:	0324      	lsls	r4, r4, #12
am_hal_iom_spi_write_nb(uint32_t ui32Module, uint32_t ui32ChipSelect,
    2c68:	4606      	mov	r6, r0
    ui32MaxFifoSize = ((0 == AM_BFRn(IOMSTR, ui32Module, CFG, FULLDUP)) ?
    2c6a:	f8d4 011c 	ldr.w	r0, [r4, #284]	; 0x11c
    g_bIomBusy[ui32Module] = true;
    2c6e:	4d6b      	ldr	r5, [pc, #428]	; (2e1c <am_hal_iom_spi_write_nb.part.6+0x1c0>)
am_hal_iom_spi_write_nb(uint32_t ui32Module, uint32_t ui32ChipSelect,
    2c70:	f8dd 9020 	ldr.w	r9, [sp, #32]
    ui32MaxFifoSize = ((0 == AM_BFRn(IOMSTR, ui32Module, CFG, FULLDUP)) ?
    2c74:	f000 0708 	and.w	r7, r0, #8
                      AM_HAL_IOM_MAX_FIFO_SIZE : AM_HAL_IOM_MAX_FIFO_SIZE / 2);
    2c78:	2f00      	cmp	r7, #0
    g_bIomBusy[ui32Module] = true;
    2c7a:	f04f 0e01 	mov.w	lr, #1
    2c7e:	f805 e006 	strb.w	lr, [r5, r6]
am_hal_iom_spi_write_nb(uint32_t ui32Module, uint32_t ui32ChipSelect,
    2c82:	4617      	mov	r7, r2
    AM_REGn(IOMSTR, ui32Module, INTCLR) = AM_HAL_IOM_INT_ALL;
    2c84:	f240 70ff 	movw	r0, #2047	; 0x7ff
                      AM_HAL_IOM_MAX_FIFO_SIZE : AM_HAL_IOM_MAX_FIFO_SIZE / 2);
    2c88:	bf15      	itete	ne
    2c8a:	223c      	movne	r2, #60	; 0x3c
    2c8c:	227c      	moveq	r2, #124	; 0x7c
    2c8e:	2540      	movne	r5, #64	; 0x40
    2c90:	2580      	moveq	r5, #128	; 0x80
    if ( WORKAROUND_IOM == ui32Module && isRevB0() )
    2c92:	2e04      	cmp	r6, #4
am_hal_iom_spi_write_nb(uint32_t ui32Module, uint32_t ui32ChipSelect,
    2c94:	4688      	mov	r8, r1
    2c96:	469a      	mov	sl, r3
    AM_REGn(IOMSTR, ui32Module, INTCLR) = AM_HAL_IOM_INT_ALL;
    2c98:	f8c4 0208 	str.w	r0, [r4, #520]	; 0x208
    if ( WORKAROUND_IOM == ui32Module && isRevB0() )
    2c9c:	f000 808f 	beq.w	2dbe <am_hal_iom_spi_write_nb.part.6+0x162>
    ui32MaxFifoSize = ((0 == AM_BFRn(IOMSTR, ui32Module, CFG, FULLDUP)) ? AM_HAL_IOM_MAX_FIFO_SIZE : AM_HAL_IOM_MAX_FIFO_SIZE / 2);
    2ca0:	f8d4 311c 	ldr.w	r3, [r4, #284]	; 0x11c
    return (ui32MaxFifoSize - AM_BFRn(IOMSTR, ui32Module, FIFOPTR, FIFOSIZ)) & (~0x3);
    2ca4:	f8d4 2100 	ldr.w	r2, [r4, #256]	; 0x100
        ui32TransferSize = (ui32NumBytes <= ui32MaxFifoSize ? ui32NumBytes :
    2ca8:	4555      	cmp	r5, sl
    2caa:	bf28      	it	cs
    2cac:	4655      	movcs	r5, sl
    ui32MaxFifoSize = ((0 == AM_BFRn(IOMSTR, ui32Module, CFG, FULLDUP)) ? AM_HAL_IOM_MAX_FIFO_SIZE : AM_HAL_IOM_MAX_FIFO_SIZE / 2);
    2cae:	f013 0f08 	tst.w	r3, #8
    2cb2:	bf14      	ite	ne
    2cb4:	2340      	movne	r3, #64	; 0x40
    2cb6:	2380      	moveq	r3, #128	; 0x80
    return (ui32MaxFifoSize - AM_BFRn(IOMSTR, ui32Module, FIFOPTR, FIFOSIZ)) & (~0x3);
    2cb8:	1a99      	subs	r1, r3, r2
    am_hal_debug_assert_msg((am_hal_iom_fifo_empty_slots(ui32Module) >= ui32NumBytes),
    2cba:	f001 00fc 	and.w	r0, r1, #252	; 0xfc
    2cbe:	4285      	cmp	r5, r0
    2cc0:	f200 809d 	bhi.w	2dfe <am_hal_iom_spi_write_nb.part.6+0x1a2>
    for ( ui32Index = 0; (4 * ui32Index) < ui32NumBytes; ui32Index++ )
    2cc4:	2d00      	cmp	r5, #0
    2cc6:	d077      	beq.n	2db8 <am_hal_iom_spi_write_nb.part.6+0x15c>
        AM_REGn(IOMSTR, ui32Module, FIFO) = pui32Data[ui32Index];
    2cc8:	463a      	mov	r2, r7
    2cca:	43f9      	mvns	r1, r7
    2ccc:	f852 3b04 	ldr.w	r3, [r2], #4
    2cd0:	6023      	str	r3, [r4, #0]
    2cd2:	4439      	add	r1, r7
    for ( ui32Index = 0; (4 * ui32Index) < ui32NumBytes; ui32Index++ )
    2cd4:	1bd0      	subs	r0, r2, r7
    2cd6:	4429      	add	r1, r5
    2cd8:	4285      	cmp	r5, r0
    2cda:	f3c1 0182 	ubfx	r1, r1, #2, #3
    2cde:	d941      	bls.n	2d64 <am_hal_iom_spi_write_nb.part.6+0x108>
    2ce0:	b319      	cbz	r1, 2d2a <am_hal_iom_spi_write_nb.part.6+0xce>
    2ce2:	2901      	cmp	r1, #1
    2ce4:	d01b      	beq.n	2d1e <am_hal_iom_spi_write_nb.part.6+0xc2>
    2ce6:	2902      	cmp	r1, #2
    2ce8:	d016      	beq.n	2d18 <am_hal_iom_spi_write_nb.part.6+0xbc>
    2cea:	2903      	cmp	r1, #3
    2cec:	d011      	beq.n	2d12 <am_hal_iom_spi_write_nb.part.6+0xb6>
    2cee:	2904      	cmp	r1, #4
    2cf0:	d00c      	beq.n	2d0c <am_hal_iom_spi_write_nb.part.6+0xb0>
    2cf2:	2905      	cmp	r1, #5
    2cf4:	d007      	beq.n	2d06 <am_hal_iom_spi_write_nb.part.6+0xaa>
    2cf6:	2906      	cmp	r1, #6
        AM_REGn(IOMSTR, ui32Module, FIFO) = pui32Data[ui32Index];
    2cf8:	bf1c      	itt	ne
    2cfa:	f852 0b04 	ldrne.w	r0, [r2], #4
    2cfe:	6020      	strne	r0, [r4, #0]
    2d00:	f852 3b04 	ldr.w	r3, [r2], #4
    2d04:	6023      	str	r3, [r4, #0]
    2d06:	f852 0b04 	ldr.w	r0, [r2], #4
    2d0a:	6020      	str	r0, [r4, #0]
    2d0c:	f852 1b04 	ldr.w	r1, [r2], #4
    2d10:	6021      	str	r1, [r4, #0]
    2d12:	f852 3b04 	ldr.w	r3, [r2], #4
    2d16:	6023      	str	r3, [r4, #0]
    2d18:	f852 0b04 	ldr.w	r0, [r2], #4
    2d1c:	6020      	str	r0, [r4, #0]
    2d1e:	f852 1b04 	ldr.w	r1, [r2], #4
    2d22:	6021      	str	r1, [r4, #0]
    for ( ui32Index = 0; (4 * ui32Index) < ui32NumBytes; ui32Index++ )
    2d24:	1bd3      	subs	r3, r2, r7
    2d26:	429d      	cmp	r5, r3
    2d28:	d91c      	bls.n	2d64 <am_hal_iom_spi_write_nb.part.6+0x108>
        AM_REGn(IOMSTR, ui32Module, FIFO) = pui32Data[ui32Index];
    2d2a:	4694      	mov	ip, r2
    2d2c:	3220      	adds	r2, #32
    2d2e:	f85c 0b04 	ldr.w	r0, [ip], #4
    2d32:	6020      	str	r0, [r4, #0]
    2d34:	f852 1c1c 	ldr.w	r1, [r2, #-28]
    2d38:	6021      	str	r1, [r4, #0]
    2d3a:	f8dc 3004 	ldr.w	r3, [ip, #4]
    2d3e:	6023      	str	r3, [r4, #0]
    2d40:	f852 0c14 	ldr.w	r0, [r2, #-20]
    2d44:	6020      	str	r0, [r4, #0]
    2d46:	f852 1c10 	ldr.w	r1, [r2, #-16]
    2d4a:	6021      	str	r1, [r4, #0]
    2d4c:	f852 3c0c 	ldr.w	r3, [r2, #-12]
    2d50:	6023      	str	r3, [r4, #0]
    2d52:	f852 0c08 	ldr.w	r0, [r2, #-8]
    2d56:	6020      	str	r0, [r4, #0]
    2d58:	f852 1c04 	ldr.w	r1, [r2, #-4]
    2d5c:	6021      	str	r1, [r4, #0]
    for ( ui32Index = 0; (4 * ui32Index) < ui32NumBytes; ui32Index++ )
    2d5e:	1bd3      	subs	r3, r2, r7
    2d60:	429d      	cmp	r5, r3
    2d62:	d8e2      	bhi.n	2d2a <am_hal_iom_spi_write_nb.part.6+0xce>
            g_psIOMBuffers[ui32Module].ui32State = BUFFER_SENDING;
    2d64:	eb06 0686 	add.w	r6, r6, r6, lsl #2
    2d68:	4a2d      	ldr	r2, [pc, #180]	; (2e20 <am_hal_iom_spi_write_nb.part.6+0x1c4>)
    2d6a:	00b0      	lsls	r0, r6, #2
    2d6c:	1813      	adds	r3, r2, r0
            g_psIOMBuffers[ui32Module].pui32Data += (ui32TransferSize / 4);
    2d6e:	f025 0c03 	bic.w	ip, r5, #3
            g_psIOMBuffers[ui32Module].ui32State = BUFFER_SENDING;
    2d72:	2101      	movs	r1, #1
            g_psIOMBuffers[ui32Module].ui32BytesLeft -= ui32TransferSize;
    2d74:	ebaa 0505 	sub.w	r5, sl, r5
            g_psIOMBuffers[ui32Module].pui32Data += (ui32TransferSize / 4);
    2d78:	4467      	add	r7, ip
            g_psIOMBuffers[ui32Module].pfnCallback = pfnCallback;
    2d7a:	9e09      	ldr	r6, [sp, #36]	; 0x24
            g_psIOMBuffers[ui32Module].ui32State = BUFFER_SENDING;
    2d7c:	5011      	str	r1, [r2, r0]
            g_psIOMBuffers[ui32Module].pfnCallback = pfnCallback;
    2d7e:	611e      	str	r6, [r3, #16]
            g_psIOMBuffers[ui32Module].ui32Options = ui32Options;
    2d80:	f8c3 900c 	str.w	r9, [r3, #12]
            g_psIOMBuffers[ui32Module].ui32BytesLeft -= ui32TransferSize;
    2d84:	609d      	str	r5, [r3, #8]
            g_psIOMBuffers[ui32Module].pui32Data += (ui32TransferSize / 4);
    2d86:	605f      	str	r7, [r3, #4]
    am_hal_debug_assert_msg(ui32NumBytes > 0,
    2d88:	f1ba 0f00 	cmp.w	sl, #0
    2d8c:	d03e      	beq.n	2e0c <am_hal_iom_spi_write_nb.part.6+0x1b0>
    ui32Command |= ((ui32ChipSelect << 16) & 0x00070000);
    2d8e:	ea4f 4708 	mov.w	r7, r8, lsl #16
    ui32Command |= ui32Options & 0x5C00FF00;
    2d92:	f029 4223 	bic.w	r2, r9, #2734686208	; 0xa3000000
    ui32Command |= ((ui32ChipSelect << 16) & 0x00070000);
    2d96:	f407 20e0 	and.w	r0, r7, #458752	; 0x70000
    ui32Command |= ui32Options & 0x5C00FF00;
    2d9a:	f002 23ff 	and.w	r3, r2, #4278255360	; 0xff00ff00
    2d9e:	ea40 0103 	orr.w	r1, r0, r3
    ui32Command |= (ui32NumBytes & 0xFF);
    2da2:	fa5f f58a 	uxtb.w	r5, sl
    ui32Command |= ((ui32NumBytes & 0xF00) << 15);
    2da6:	ea4f 36ca 	mov.w	r6, sl, lsl #15
    ui32Command |= ui32Options & 0x5C00FF00;
    2daa:	4329      	orrs	r1, r5
    ui32Command |= ((ui32NumBytes & 0xF00) << 15);
    2dac:	f006 67f0 	and.w	r7, r6, #125829120	; 0x7800000
    ui32Command |= ui32Options & 0x5C00FF00;
    2db0:	ea41 0207 	orr.w	r2, r1, r7
    AM_REGn(IOMSTR, ui32Module, CMD) = ui32Command;
    2db4:	f8c4 2110 	str.w	r2, [r4, #272]	; 0x110
}
    2db8:	2000      	movs	r0, #0
    2dba:	e8bd 87f0 	ldmia.w	sp!, {r4, r5, r6, r7, r8, r9, sl, pc}
    if ( (AM_REG(MCUCTRL, CHIPREV) & 0xFF) == AM_REG_MCUCTRL_CHIPREV_REVMAJ_B )
    2dbe:	4b19      	ldr	r3, [pc, #100]	; (2e24 <am_hal_iom_spi_write_nb.part.6+0x1c8>)
    2dc0:	6819      	ldr	r1, [r3, #0]
    2dc2:	b2c8      	uxtb	r0, r1
    2dc4:	2820      	cmp	r0, #32
    2dc6:	f47f af6b 	bne.w	2ca0 <am_hal_iom_spi_write_nb.part.6+0x44>
        ui32TransferSize = (ui32NumBytes <= (ui32MaxFifoSize - 4) ?  ui32NumBytes :
    2dca:	4552      	cmp	r2, sl
    2dcc:	bf28      	it	cs
    2dce:	4652      	movcs	r2, sl
        g_psIOMBuffers[ui32Module].ui32State = BUFFER_SENDING;
    2dd0:	4d13      	ldr	r5, [pc, #76]	; (2e20 <am_hal_iom_spi_write_nb.part.6+0x1c4>)
        g_psIOMBuffers[ui32Module].pui32Data = pui32Data + (ui32TransferSize / 4);
    2dd2:	f022 0603 	bic.w	r6, r2, #3
    2dd6:	443e      	add	r6, r7
        g_psIOMBuffers[ui32Module].ui32BytesLeft = ui32NumBytes - ui32TransferSize;
    2dd8:	ebaa 0402 	sub.w	r4, sl, r2
        am_hal_iom_workaround_word_write(ui32ChipSelect, pui32Data,
    2ddc:	4639      	mov	r1, r7
        g_psIOMBuffers[ui32Module].pfnCallback = pfnCallback;
    2dde:	9f09      	ldr	r7, [sp, #36]	; 0x24
        g_psIOMBuffers[ui32Module].pui32Data = pui32Data + (ui32TransferSize / 4);
    2de0:	656e      	str	r6, [r5, #84]	; 0x54
        am_hal_iom_workaround_word_write(ui32ChipSelect, pui32Data,
    2de2:	4640      	mov	r0, r8
    2de4:	4652      	mov	r2, sl
    2de6:	464b      	mov	r3, r9
        g_psIOMBuffers[ui32Module].ui32BytesLeft = ui32NumBytes - ui32TransferSize;
    2de8:	65ac      	str	r4, [r5, #88]	; 0x58
        g_psIOMBuffers[ui32Module].ui32State = BUFFER_SENDING;
    2dea:	f8c5 e050 	str.w	lr, [r5, #80]	; 0x50
        g_psIOMBuffers[ui32Module].pfnCallback = pfnCallback;
    2dee:	662f      	str	r7, [r5, #96]	; 0x60
        g_psIOMBuffers[ui32Module].ui32Options = ui32Options;
    2df0:	f8c5 905c 	str.w	r9, [r5, #92]	; 0x5c
        am_hal_iom_workaround_word_write(ui32ChipSelect, pui32Data,
    2df4:	f7ff fb66 	bl	24c4 <am_hal_iom_workaround_word_write>
}
    2df8:	2000      	movs	r0, #0
    2dfa:	e8bd 87f0 	ldmia.w	sp!, {r4, r5, r6, r7, r8, r9, sl, pc}
    am_hal_debug_assert_msg((am_hal_iom_fifo_empty_slots(ui32Module) >= ui32NumBytes),
    2dfe:	4a0a      	ldr	r2, [pc, #40]	; (2e28 <am_hal_iom_spi_write_nb.part.6+0x1cc>)
    2e00:	480a      	ldr	r0, [pc, #40]	; (2e2c <am_hal_iom_spi_write_nb.part.6+0x1d0>)
    2e02:	f640 7145 	movw	r1, #3909	; 0xf45
    2e06:	f7fe fd93 	bl	1930 <am_hal_debug_error>
    2e0a:	e75d      	b.n	2cc8 <am_hal_iom_spi_write_nb.part.6+0x6c>
    am_hal_debug_assert_msg(ui32NumBytes > 0,
    2e0c:	4a08      	ldr	r2, [pc, #32]	; (2e30 <am_hal_iom_spi_write_nb.part.6+0x1d4>)
    2e0e:	4807      	ldr	r0, [pc, #28]	; (2e2c <am_hal_iom_spi_write_nb.part.6+0x1d0>)
    2e10:	f640 21da 	movw	r1, #2778	; 0xada
    2e14:	f7fe fd8c 	bl	1930 <am_hal_debug_error>
    2e18:	e7b9      	b.n	2d8e <am_hal_iom_spi_write_nb.part.6+0x132>
    2e1a:	bf00      	nop
    2e1c:	10000854 	.word	0x10000854
    2e20:	10000a88 	.word	0x10000a88
    2e24:	4002000c 	.word	0x4002000c
    2e28:	00004b98 	.word	0x00004b98
    2e2c:	00004bcc 	.word	0x00004bcc
    2e30:	00004c80 	.word	0x00004c80

00002e34 <am_hal_iom_spi_read_nb.part.7>:
am_hal_iom_spi_read_nb(uint32_t ui32Module, uint32_t ui32ChipSelect,
    2e34:	e92d 4ff0 	stmdb	sp!, {r4, r5, r6, r7, r8, r9, sl, fp, lr}
    AM_REGn(IOMSTR, ui32Module, INTCLR) = AM_HAL_IOM_INT_ALL;
    2e38:	f500 27a0 	add.w	r7, r0, #327680	; 0x50000
    2e3c:	3704      	adds	r7, #4
    2e3e:	033f      	lsls	r7, r7, #12
    g_bIomBusy[ui32Module] = true;
    2e40:	f8df a0f8 	ldr.w	sl, [pc, #248]	; 2f3c <am_hal_iom_spi_read_nb.part.7+0x108>
    2e44:	f04f 0801 	mov.w	r8, #1
    AM_REGn(IOMSTR, ui32Module, INTCLR) = AM_HAL_IOM_INT_ALL;
    2e48:	f240 7bff 	movw	fp, #2047	; 0x7ff
    if ( (WORKAROUND_IOM == ui32Module) && !(ui32Options & AM_HAL_IOM_RAW) &&
    2e4c:	2804      	cmp	r0, #4
    g_bIomBusy[ui32Module] = true;
    2e4e:	f80a 8000 	strb.w	r8, [sl, r0]
am_hal_iom_spi_read_nb(uint32_t ui32Module, uint32_t ui32ChipSelect,
    2e52:	b083      	sub	sp, #12
    2e54:	4604      	mov	r4, r0
    2e56:	460e      	mov	r6, r1
    2e58:	4691      	mov	r9, r2
    2e5a:	461d      	mov	r5, r3
    AM_REGn(IOMSTR, ui32Module, INTCLR) = AM_HAL_IOM_INT_ALL;
    2e5c:	f8c7 b208 	str.w	fp, [r7, #520]	; 0x208
    if ( (WORKAROUND_IOM == ui32Module) && !(ui32Options & AM_HAL_IOM_RAW) &&
    2e60:	d02c      	beq.n	2ebc <am_hal_iom_spi_read_nb.part.7+0x88>
    g_psIOMBuffers[ui32Module].ui32State = BUFFER_RECEIVING;
    2e62:	482f      	ldr	r0, [pc, #188]	; (2f20 <am_hal_iom_spi_read_nb.part.7+0xec>)
    2e64:	eb04 0484 	add.w	r4, r4, r4, lsl #2
    2e68:	00a2      	lsls	r2, r4, #2
    2e6a:	1883      	adds	r3, r0, r2
    2e6c:	2102      	movs	r1, #2
    2e6e:	5081      	str	r1, [r0, r2]
    g_psIOMBuffers[ui32Module].pfnCallback = pfnCallback;
    2e70:	9c0d      	ldr	r4, [sp, #52]	; 0x34
    g_psIOMBuffers[ui32Module].ui32Options = ui32Options;
    2e72:	980c      	ldr	r0, [sp, #48]	; 0x30
    g_psIOMBuffers[ui32Module].pui32Data = pui32Data;
    2e74:	f8c3 9004 	str.w	r9, [r3, #4]
    g_psIOMBuffers[ui32Module].ui32BytesLeft = ui32NumBytes;
    2e78:	609d      	str	r5, [r3, #8]
    g_psIOMBuffers[ui32Module].pfnCallback = pfnCallback;
    2e7a:	611c      	str	r4, [r3, #16]
    g_psIOMBuffers[ui32Module].ui32Options = ui32Options;
    2e7c:	60d8      	str	r0, [r3, #12]
    am_hal_debug_assert_msg(ui32NumBytes > 0,
    2e7e:	b92d      	cbnz	r5, 2e8c <am_hal_iom_spi_read_nb.part.7+0x58>
    2e80:	4a28      	ldr	r2, [pc, #160]	; (2f24 <am_hal_iom_spi_read_nb.part.7+0xf0>)
    2e82:	4829      	ldr	r0, [pc, #164]	; (2f28 <am_hal_iom_spi_read_nb.part.7+0xf4>)
    2e84:	f640 21da 	movw	r1, #2778	; 0xada
    2e88:	f7fe fd52 	bl	1930 <am_hal_debug_error>
    ui32Command |= ((ui32NumBytes & 0xF00) << 15);
    2e8c:	03ea      	lsls	r2, r5, #15
    ui32Command |= (ui32NumBytes & 0xFF);
    2e8e:	fa5f fc85 	uxtb.w	ip, r5
    ui32Command |= ui32Options & 0x5C00FF00;
    2e92:	9b0c      	ldr	r3, [sp, #48]	; 0x30
    ui32Command |= ((ui32NumBytes & 0xF00) << 15);
    2e94:	f002 61f0 	and.w	r1, r2, #125829120	; 0x7800000
    ui32Command |= ((ui32ChipSelect << 16) & 0x00070000);
    2e98:	0436      	lsls	r6, r6, #16
    ui32Command |= (ui32NumBytes & 0xFF);
    2e9a:	f04c 4500 	orr.w	r5, ip, #2147483648	; 0x80000000
    ui32Command |= ui32Options & 0x5C00FF00;
    2e9e:	f023 4023 	bic.w	r0, r3, #2734686208	; 0xa3000000
    ui32Command |= ((ui32ChipSelect << 16) & 0x00070000);
    2ea2:	f406 24e0 	and.w	r4, r6, #458752	; 0x70000
    ui32Command |= (ui32NumBytes & 0xFF);
    2ea6:	430d      	orrs	r5, r1
    ui32Command |= ui32Options & 0x5C00FF00;
    2ea8:	f000 22ff 	and.w	r2, r0, #4278255360	; 0xff00ff00
    ui32Command |= ((ui32ChipSelect << 16) & 0x00070000);
    2eac:	432c      	orrs	r4, r5
    ui32Command |= ui32Options & 0x5C00FF00;
    2eae:	4322      	orrs	r2, r4
    AM_REGn(IOMSTR, ui32Module, CMD) = ui32Command;
    2eb0:	f8c7 2110 	str.w	r2, [r7, #272]	; 0x110
    return ui32Status;
    2eb4:	2000      	movs	r0, #0
}
    2eb6:	b003      	add	sp, #12
    2eb8:	e8bd 8ff0 	ldmia.w	sp!, {r4, r5, r6, r7, r8, r9, sl, fp, pc}
    if ( (WORKAROUND_IOM == ui32Module) && !(ui32Options & AM_HAL_IOM_RAW) &&
    2ebc:	9b0c      	ldr	r3, [sp, #48]	; 0x30
    2ebe:	f013 4180 	ands.w	r1, r3, #1073741824	; 0x40000000
    2ec2:	d1ce      	bne.n	2e62 <am_hal_iom_spi_read_nb.part.7+0x2e>
    if ( (AM_REG(MCUCTRL, CHIPREV) & 0xFF) == AM_REG_MCUCTRL_CHIPREV_REVMAJ_B )
    2ec4:	4819      	ldr	r0, [pc, #100]	; (2f2c <am_hal_iom_spi_read_nb.part.7+0xf8>)
    2ec6:	6802      	ldr	r2, [r0, #0]
    2ec8:	b2d3      	uxtb	r3, r2
    2eca:	2b20      	cmp	r3, #32
    2ecc:	d1c9      	bne.n	2e62 <am_hal_iom_spi_read_nb.part.7+0x2e>
        ui32IntConfig = AM_REGn(IOMSTR, 4, INTEN);
    2ece:	4818      	ldr	r0, [pc, #96]	; (2f30 <am_hal_iom_spi_read_nb.part.7+0xfc>)
    2ed0:	6803      	ldr	r3, [r0, #0]
        AM_REGn(IOMSTR, 4, INTEN) = 0;
    2ed2:	4817      	ldr	r0, [pc, #92]	; (2f30 <am_hal_iom_spi_read_nb.part.7+0xfc>)
        ui32IntConfig = AM_REGn(IOMSTR, 4, INTEN);
    2ed4:	9301      	str	r3, [sp, #4]
        AM_REGn(IOMSTR, 4, INTEN) = 0;
    2ed6:	6001      	str	r1, [r0, #0]
        am_hal_iom_workaround_word_write(ui32ChipSelect, pui32Data,
    2ed8:	460a      	mov	r2, r1
    2eda:	990c      	ldr	r1, [sp, #48]	; 0x30
    2edc:	4630      	mov	r0, r6
    2ede:	f041 5380 	orr.w	r3, r1, #268435456	; 0x10000000
    2ee2:	4649      	mov	r1, r9
    2ee4:	f7ff faee 	bl	24c4 <am_hal_iom_workaround_word_write>
        waitStatus = am_hal_flash_delay_status_change(ui32StatusTimeout[ui32Module],
    2ee8:	4a12      	ldr	r2, [pc, #72]	; (2f34 <am_hal_iom_spi_read_nb.part.7+0x100>)
    2eea:	4643      	mov	r3, r8
    2eec:	6910      	ldr	r0, [r2, #16]
    2eee:	f507 7101 	add.w	r1, r7, #516	; 0x204
    2ef2:	4642      	mov	r2, r8
    2ef4:	f7fe fd22 	bl	193c <am_hal_flash_delay_status_change>
        if (waitStatus != 1)
    2ef8:	2801      	cmp	r0, #1
    2efa:	d004      	beq.n	2f06 <am_hal_iom_spi_read_nb.part.7+0xd2>
            g_iom_error_status[ui32Module] = ui32Status = AM_HAL_IOM_ERR_TIMEOUT;
    2efc:	4f0e      	ldr	r7, [pc, #56]	; (2f38 <am_hal_iom_spi_read_nb.part.7+0x104>)
            return ui32Status;
    2efe:	4640      	mov	r0, r8
            g_iom_error_status[ui32Module] = ui32Status = AM_HAL_IOM_ERR_TIMEOUT;
    2f00:	f887 8004 	strb.w	r8, [r7, #4]
    2f04:	e7d7      	b.n	2eb6 <am_hal_iom_spi_read_nb.part.7+0x82>
        ui32Options |= AM_HAL_IOM_RAW;
    2f06:	9b0c      	ldr	r3, [sp, #48]	; 0x30
        AM_REGn(IOMSTR, 4, INTEN) = ui32IntConfig;
    2f08:	4909      	ldr	r1, [pc, #36]	; (2f30 <am_hal_iom_spi_read_nb.part.7+0xfc>)
        g_bIomBusy[ui32Module] = true;
    2f0a:	f88a 0004 	strb.w	r0, [sl, #4]
        AM_REGn(IOMSTR, 4, INTEN) = ui32IntConfig;
    2f0e:	9a01      	ldr	r2, [sp, #4]
        AM_REGn(IOMSTR, ui32Module, INTCLR) = AM_HAL_IOM_INT_ALL;
    2f10:	f8c7 b208 	str.w	fp, [r7, #520]	; 0x208
        ui32Options |= AM_HAL_IOM_RAW;
    2f14:	f043 4080 	orr.w	r0, r3, #1073741824	; 0x40000000
    2f18:	900c      	str	r0, [sp, #48]	; 0x30
        AM_REGn(IOMSTR, 4, INTEN) = ui32IntConfig;
    2f1a:	600a      	str	r2, [r1, #0]
    2f1c:	e7a1      	b.n	2e62 <am_hal_iom_spi_read_nb.part.7+0x2e>
    2f1e:	bf00      	nop
    2f20:	10000a88 	.word	0x10000a88
    2f24:	00004c80 	.word	0x00004c80
    2f28:	00004bcc 	.word	0x00004bcc
    2f2c:	4002000c 	.word	0x4002000c
    2f30:	50008200 	.word	0x50008200
    2f34:	10000a70 	.word	0x10000a70
    2f38:	1000085c 	.word	0x1000085c
    2f3c:	10000854 	.word	0x10000854

00002f40 <am_hal_iom_spi_write_nq>:
    if ( ui32Module >= AM_REG_IOMSTR_NUM_MODULES )
    2f40:	2805      	cmp	r0, #5
    2f42:	d901      	bls.n	2f48 <am_hal_iom_spi_write_nq+0x8>
        return AM_HAL_IOM_ERR_INVALID_MODULE;
    2f44:	2002      	movs	r0, #2
    2f46:	4770      	bx	lr
{
    2f48:	e92d 4ff0 	stmdb	sp!, {r4, r5, r6, r7, r8, r9, sl, fp, lr}
    2f4c:	4dc1      	ldr	r5, [pc, #772]	; (3254 <am_hal_iom_spi_write_nq+0x314>)
    2f4e:	b083      	sub	sp, #12
    while ( g_bIomBusy[ui32Module] );
    2f50:	5c2c      	ldrb	r4, [r5, r0]
    2f52:	f004 06ff 	and.w	r6, r4, #255	; 0xff
    2f56:	2c00      	cmp	r4, #0
    2f58:	d1fa      	bne.n	2f50 <am_hal_iom_spi_write_nq+0x10>
    ui32Status = g_iom_error_status[ui32Module] = AM_HAL_IOM_SUCCESS;
    2f5a:	f8df 930c 	ldr.w	r9, [pc, #780]	; 3268 <am_hal_iom_spi_write_nq+0x328>
    if (ui32NumBytes == 0)
    2f5e:	1e5f      	subs	r7, r3, #1
    2f60:	f640 75fe 	movw	r5, #4094	; 0xffe
    2f64:	42af      	cmp	r7, r5
    ui32Status = g_iom_error_status[ui32Module] = AM_HAL_IOM_SUCCESS;
    2f66:	f809 6000 	strb.w	r6, [r9, r0]
    if (ui32NumBytes == 0)
    2f6a:	d906      	bls.n	2f7a <am_hal_iom_spi_write_nq+0x3a>
        g_iom_error_status[ui32Module] = ui32Status = AM_HAL_IOM_ERR_INVALID_PARAM;
    2f6c:	2403      	movs	r4, #3
    2f6e:	f809 4000 	strb.w	r4, [r9, r0]
        return ui32Status;
    2f72:	4620      	mov	r0, r4
}
    2f74:	b003      	add	sp, #12
    2f76:	e8bd 8ff0 	ldmia.w	sp!, {r4, r5, r6, r7, r8, r9, sl, fp, pc}
    2f7a:	468b      	mov	fp, r1
    2f7c:	9000      	str	r0, [sp, #0]
    2f7e:	4601      	mov	r1, r0
    ui32MaxFifoSize = ((0 == AM_BFRn(IOMSTR, ui32Module, CFG, FULLDUP)) ?
    2f80:	f500 20a0 	add.w	r0, r0, #327680	; 0x50000
    2f84:	3004      	adds	r0, #4
    2f86:	0304      	lsls	r4, r0, #12
    2f88:	4698      	mov	r8, r3
    2f8a:	f8d4 511c 	ldr.w	r5, [r4, #284]	; 0x11c
    ui32IntConfig = AM_REGn(IOMSTR, ui32Module, INTEN);
    2f8e:	f8d4 3200 	ldr.w	r3, [r4, #512]	; 0x200
    AM_REGn(IOMSTR, ui32Module, INTEN) = 0;
    2f92:	f8c4 6200 	str.w	r6, [r4, #512]	; 0x200
    ui32MaxFifoSize = ((0 == AM_BFRn(IOMSTR, ui32Module, CFG, FULLDUP)) ?
    2f96:	f005 0008 	and.w	r0, r5, #8
                       AM_HAL_IOM_MAX_FIFO_SIZE : AM_HAL_IOM_MAX_FIFO_SIZE / 2);
    2f9a:	2800      	cmp	r0, #0
    2f9c:	4617      	mov	r7, r2
    2f9e:	bf18      	it	ne
    2fa0:	f04f 0e3c 	movne.w	lr, #60	; 0x3c
    AM_REGn(IOMSTR, ui32Module, INTCLR) = AM_HAL_IOM_INT_ALL;
    2fa4:	f240 72ff 	movw	r2, #2047	; 0x7ff
                       AM_HAL_IOM_MAX_FIFO_SIZE : AM_HAL_IOM_MAX_FIFO_SIZE / 2);
    2fa8:	bf0a      	itet	eq
    2faa:	f04f 0e7c 	moveq.w	lr, #124	; 0x7c
    2fae:	2640      	movne	r6, #64	; 0x40
    2fb0:	2680      	moveq	r6, #128	; 0x80
    if ( WORKAROUND_IOM == ui32Module && isRevB0() )
    2fb2:	2904      	cmp	r1, #4
    ui32IntConfig = AM_REGn(IOMSTR, ui32Module, INTEN);
    2fb4:	9301      	str	r3, [sp, #4]
    AM_REGn(IOMSTR, ui32Module, INTCLR) = AM_HAL_IOM_INT_ALL;
    2fb6:	f8c4 2208 	str.w	r2, [r4, #520]	; 0x208
    ui32MaxFifoSize = ((0 == AM_BFRn(IOMSTR, ui32Module, CFG, FULLDUP)) ?
    2fba:	f504 7a8e 	add.w	sl, r4, #284	; 0x11c
    if ( WORKAROUND_IOM == ui32Module && isRevB0() )
    2fbe:	d105      	bne.n	2fcc <am_hal_iom_spi_write_nq+0x8c>
    if ( (AM_REG(MCUCTRL, CHIPREV) & 0xFF) == AM_REG_MCUCTRL_CHIPREV_REVMAJ_B )
    2fc0:	4aa5      	ldr	r2, [pc, #660]	; (3258 <am_hal_iom_spi_write_nq+0x318>)
    2fc2:	6815      	ldr	r5, [r2, #0]
    2fc4:	b2eb      	uxtb	r3, r5
    2fc6:	2b20      	cmp	r3, #32
    2fc8:	f000 8136 	beq.w	3238 <am_hal_iom_spi_write_nq+0x2f8>
    ui32MaxFifoSize = ((0 == AM_BFRn(IOMSTR, ui32Module, CFG, FULLDUP)) ? AM_HAL_IOM_MAX_FIFO_SIZE : AM_HAL_IOM_MAX_FIFO_SIZE / 2);
    2fcc:	f8d4 011c 	ldr.w	r0, [r4, #284]	; 0x11c
    return (ui32MaxFifoSize - AM_BFRn(IOMSTR, ui32Module, FIFOPTR, FIFOSIZ)) & (~0x3);
    2fd0:	f8d4 1100 	ldr.w	r1, [r4, #256]	; 0x100
        ui32TransferSize = (ui32NumBytes <= ui32MaxFifoSize ? ui32NumBytes :
    2fd4:	4546      	cmp	r6, r8
    2fd6:	bf28      	it	cs
    2fd8:	4646      	movcs	r6, r8
    ui32MaxFifoSize = ((0 == AM_BFRn(IOMSTR, ui32Module, CFG, FULLDUP)) ? AM_HAL_IOM_MAX_FIFO_SIZE : AM_HAL_IOM_MAX_FIFO_SIZE / 2);
    2fda:	f010 0f08 	tst.w	r0, #8
    2fde:	bf14      	ite	ne
    2fe0:	2040      	movne	r0, #64	; 0x40
    2fe2:	2080      	moveq	r0, #128	; 0x80
    return (ui32MaxFifoSize - AM_BFRn(IOMSTR, ui32Module, FIFOPTR, FIFOSIZ)) & (~0x3);
    2fe4:	1a42      	subs	r2, r0, r1
    am_hal_debug_assert_msg((am_hal_iom_fifo_empty_slots(ui32Module) >= ui32NumBytes),
    2fe6:	f002 05fc 	and.w	r5, r2, #252	; 0xfc
    2fea:	42ae      	cmp	r6, r5
    2fec:	f200 811d 	bhi.w	322a <am_hal_iom_spi_write_nq+0x2ea>
        AM_REGn(IOMSTR, ui32Module, FIFO) = pui32Data[ui32Index];
    2ff0:	463b      	mov	r3, r7
    2ff2:	43f8      	mvns	r0, r7
    2ff4:	f853 1b04 	ldr.w	r1, [r3], #4
    2ff8:	6021      	str	r1, [r4, #0]
    2ffa:	4438      	add	r0, r7
    for ( ui32Index = 0; (4 * ui32Index) < ui32NumBytes; ui32Index++ )
    2ffc:	1bdd      	subs	r5, r3, r7
    2ffe:	4430      	add	r0, r6
    3000:	42ae      	cmp	r6, r5
    3002:	f3c0 0282 	ubfx	r2, r0, #2, #3
    3006:	d941      	bls.n	308c <am_hal_iom_spi_write_nq+0x14c>
    3008:	b31a      	cbz	r2, 3052 <am_hal_iom_spi_write_nq+0x112>
    300a:	2a01      	cmp	r2, #1
    300c:	d01b      	beq.n	3046 <am_hal_iom_spi_write_nq+0x106>
    300e:	2a02      	cmp	r2, #2
    3010:	d016      	beq.n	3040 <am_hal_iom_spi_write_nq+0x100>
    3012:	2a03      	cmp	r2, #3
    3014:	d011      	beq.n	303a <am_hal_iom_spi_write_nq+0xfa>
    3016:	2a04      	cmp	r2, #4
    3018:	d00c      	beq.n	3034 <am_hal_iom_spi_write_nq+0xf4>
    301a:	2a05      	cmp	r2, #5
    301c:	d007      	beq.n	302e <am_hal_iom_spi_write_nq+0xee>
    301e:	2a06      	cmp	r2, #6
        AM_REGn(IOMSTR, ui32Module, FIFO) = pui32Data[ui32Index];
    3020:	bf1c      	itt	ne
    3022:	f853 2b04 	ldrne.w	r2, [r3], #4
    3026:	6022      	strne	r2, [r4, #0]
    3028:	f853 0b04 	ldr.w	r0, [r3], #4
    302c:	6020      	str	r0, [r4, #0]
    302e:	f853 1b04 	ldr.w	r1, [r3], #4
    3032:	6021      	str	r1, [r4, #0]
    3034:	f853 5b04 	ldr.w	r5, [r3], #4
    3038:	6025      	str	r5, [r4, #0]
    303a:	f853 2b04 	ldr.w	r2, [r3], #4
    303e:	6022      	str	r2, [r4, #0]
    3040:	f853 0b04 	ldr.w	r0, [r3], #4
    3044:	6020      	str	r0, [r4, #0]
    3046:	f853 1b04 	ldr.w	r1, [r3], #4
    304a:	6021      	str	r1, [r4, #0]
    for ( ui32Index = 0; (4 * ui32Index) < ui32NumBytes; ui32Index++ )
    304c:	1bdd      	subs	r5, r3, r7
    304e:	42ae      	cmp	r6, r5
    3050:	d91c      	bls.n	308c <am_hal_iom_spi_write_nq+0x14c>
        AM_REGn(IOMSTR, ui32Module, FIFO) = pui32Data[ui32Index];
    3052:	469c      	mov	ip, r3
    3054:	3320      	adds	r3, #32
    3056:	f85c 2b04 	ldr.w	r2, [ip], #4
    305a:	6022      	str	r2, [r4, #0]
    305c:	f853 0c1c 	ldr.w	r0, [r3, #-28]
    3060:	6020      	str	r0, [r4, #0]
    3062:	f8dc 1004 	ldr.w	r1, [ip, #4]
    3066:	6021      	str	r1, [r4, #0]
    3068:	f853 5c14 	ldr.w	r5, [r3, #-20]
    306c:	6025      	str	r5, [r4, #0]
    306e:	f853 2c10 	ldr.w	r2, [r3, #-16]
    3072:	6022      	str	r2, [r4, #0]
    3074:	f853 0c0c 	ldr.w	r0, [r3, #-12]
    3078:	6020      	str	r0, [r4, #0]
    307a:	f853 1c08 	ldr.w	r1, [r3, #-8]
    307e:	6021      	str	r1, [r4, #0]
    3080:	f853 5c04 	ldr.w	r5, [r3, #-4]
    3084:	6025      	str	r5, [r4, #0]
    for ( ui32Index = 0; (4 * ui32Index) < ui32NumBytes; ui32Index++ )
    3086:	1bda      	subs	r2, r3, r7
    3088:	4296      	cmp	r6, r2
    308a:	d8e2      	bhi.n	3052 <am_hal_iom_spi_write_nq+0x112>
    ui32Command |= ui32Options & 0x5C00FF00;
    308c:	990c      	ldr	r1, [sp, #48]	; 0x30
    ui32Command |= ((ui32ChipSelect << 16) & 0x00070000);
    308e:	ea4f 4e0b 	mov.w	lr, fp, lsl #16
    3092:	f40e 20e0 	and.w	r0, lr, #458752	; 0x70000
    ui32Command |= (ui32NumBytes & 0xFF);
    3096:	fa5f f388 	uxtb.w	r3, r8
    ui32Command |= ui32Options & 0x5C00FF00;
    309a:	f021 4523 	bic.w	r5, r1, #2734686208	; 0xa3000000
    309e:	4303      	orrs	r3, r0
    ui32Command |= ((ui32NumBytes & 0xF00) << 15);
    30a0:	ea4f 3cc8 	mov.w	ip, r8, lsl #15
    ui32Command |= ui32Options & 0x5C00FF00;
    30a4:	f005 20ff 	and.w	r0, r5, #4278255360	; 0xff00ff00
    30a8:	4303      	orrs	r3, r0
    ui32Command |= ((ui32NumBytes & 0xF00) << 15);
    30aa:	f00c 62f0 	and.w	r2, ip, #125829120	; 0x7800000
    ui32Command |= ui32Options & 0x5C00FF00;
    30ae:	4313      	orrs	r3, r2
    AM_REGn(IOMSTR, ui32Module, CMD) = ui32Command;
    30b0:	f8c4 3110 	str.w	r3, [r4, #272]	; 0x110
    pui32Data += ui32TransferSize >> 2;
    30b4:	f026 0e03 	bic.w	lr, r6, #3
    while ( ui32NumBytes && !AM_BFRn(IOMSTR, ui32Module, INTSTAT, CMDCMP) )
    30b8:	ebb8 0606 	subs.w	r6, r8, r6
    pui32Data += ui32TransferSize >> 2;
    30bc:	4477      	add	r7, lr
    30be:	bf08      	it	eq
    30c0:	f504 7b01 	addeq.w	fp, r4, #516	; 0x204
    while ( ui32NumBytes && !AM_BFRn(IOMSTR, ui32Module, INTSTAT, CMDCMP) )
    30c4:	f000 8083 	beq.w	31ce <am_hal_iom_spi_write_nq+0x28e>
    30c8:	f8d4 3204 	ldr.w	r3, [r4, #516]	; 0x204
    30cc:	07da      	lsls	r2, r3, #31
    30ce:	f504 7b01 	add.w	fp, r4, #516	; 0x204
    30d2:	d47c      	bmi.n	31ce <am_hal_iom_spi_write_nq+0x28e>
    30d4:	f504 7580 	add.w	r5, r4, #256	; 0x100
    30d8:	46a8      	mov	r8, r5
    ui32MaxFifoSize = ((0 == AM_BFRn(IOMSTR, ui32Module, CFG, FULLDUP)) ? AM_HAL_IOM_MAX_FIFO_SIZE : AM_HAL_IOM_MAX_FIFO_SIZE / 2);
    30da:	f8da 1000 	ldr.w	r1, [sl]
    return (ui32MaxFifoSize - AM_BFRn(IOMSTR, ui32Module, FIFOPTR, FIFOSIZ)) & (~0x3);
    30de:	f8d8 0000 	ldr.w	r0, [r8]
    ui32MaxFifoSize = ((0 == AM_BFRn(IOMSTR, ui32Module, CFG, FULLDUP)) ? AM_HAL_IOM_MAX_FIFO_SIZE : AM_HAL_IOM_MAX_FIFO_SIZE / 2);
    30e2:	f011 0f08 	tst.w	r1, #8
    30e6:	bf14      	ite	ne
    30e8:	2140      	movne	r1, #64	; 0x40
    30ea:	2180      	moveq	r1, #128	; 0x80
    return (ui32MaxFifoSize - AM_BFRn(IOMSTR, ui32Module, FIFOPTR, FIFOSIZ)) & (~0x3);
    30ec:	1a0a      	subs	r2, r1, r0
        ui32SpaceInFifo =  am_hal_iom_fifo_empty_slots(ui32Module);
    30ee:	f002 03fc 	and.w	r3, r2, #252	; 0xfc
        if ( ui32NumBytes <= ui32SpaceInFifo )
    30f2:	42b3      	cmp	r3, r6
    ui32MaxFifoSize = ((0 == AM_BFRn(IOMSTR, ui32Module, CFG, FULLDUP)) ? AM_HAL_IOM_MAX_FIFO_SIZE : AM_HAL_IOM_MAX_FIFO_SIZE / 2);
    30f4:	f8da 1000 	ldr.w	r1, [sl]
    return (ui32MaxFifoSize - AM_BFRn(IOMSTR, ui32Module, FIFOPTR, FIFOSIZ)) & (~0x3);
    30f8:	f8d8 0000 	ldr.w	r0, [r8]
            ui32TransferSize = ui32SpaceInFifo & ~(0x3);
    30fc:	bf3b      	ittet	cc
    30fe:	f023 0303 	biccc.w	r3, r3, #3
    3102:	1af5      	subcc	r5, r6, r3
        if ( ui32NumBytes <= ui32SpaceInFifo )
    3104:	2500      	movcs	r5, #0
            ui32TransferSize = ui32SpaceInFifo & ~(0x3);
    3106:	461e      	movcc	r6, r3
    ui32MaxFifoSize = ((0 == AM_BFRn(IOMSTR, ui32Module, CFG, FULLDUP)) ? AM_HAL_IOM_MAX_FIFO_SIZE : AM_HAL_IOM_MAX_FIFO_SIZE / 2);
    3108:	f011 0f08 	tst.w	r1, #8
    310c:	bf14      	ite	ne
    310e:	2140      	movne	r1, #64	; 0x40
    3110:	2180      	moveq	r1, #128	; 0x80
    return (ui32MaxFifoSize - AM_BFRn(IOMSTR, ui32Module, FIFOPTR, FIFOSIZ)) & (~0x3);
    3112:	1a0a      	subs	r2, r1, r0
    am_hal_debug_assert_msg((am_hal_iom_fifo_empty_slots(ui32Module) >= ui32NumBytes),
    3114:	f002 0cfc 	and.w	ip, r2, #252	; 0xfc
    3118:	4566      	cmp	r6, ip
    311a:	d86e      	bhi.n	31fa <am_hal_iom_spi_write_nq+0x2ba>
    for ( ui32Index = 0; (4 * ui32Index) < ui32NumBytes; ui32Index++ )
    311c:	2e00      	cmp	r6, #0
    311e:	d04d      	beq.n	31bc <am_hal_iom_spi_write_nq+0x27c>
        AM_REGn(IOMSTR, ui32Module, FIFO) = pui32Data[ui32Index];
    3120:	463b      	mov	r3, r7
    3122:	43f8      	mvns	r0, r7
    3124:	f853 1b04 	ldr.w	r1, [r3], #4
    3128:	6021      	str	r1, [r4, #0]
    312a:	4438      	add	r0, r7
    for ( ui32Index = 0; (4 * ui32Index) < ui32NumBytes; ui32Index++ )
    312c:	1bd9      	subs	r1, r3, r7
    312e:	4430      	add	r0, r6
    3130:	428e      	cmp	r6, r1
    3132:	f3c0 0282 	ubfx	r2, r0, #2, #3
    3136:	d941      	bls.n	31bc <am_hal_iom_spi_write_nq+0x27c>
    3138:	b31a      	cbz	r2, 3182 <am_hal_iom_spi_write_nq+0x242>
    313a:	2a01      	cmp	r2, #1
    313c:	d01b      	beq.n	3176 <am_hal_iom_spi_write_nq+0x236>
    313e:	2a02      	cmp	r2, #2
    3140:	d016      	beq.n	3170 <am_hal_iom_spi_write_nq+0x230>
    3142:	2a03      	cmp	r2, #3
    3144:	d011      	beq.n	316a <am_hal_iom_spi_write_nq+0x22a>
    3146:	2a04      	cmp	r2, #4
    3148:	d00c      	beq.n	3164 <am_hal_iom_spi_write_nq+0x224>
    314a:	2a05      	cmp	r2, #5
    314c:	d007      	beq.n	315e <am_hal_iom_spi_write_nq+0x21e>
    314e:	2a06      	cmp	r2, #6
        AM_REGn(IOMSTR, ui32Module, FIFO) = pui32Data[ui32Index];
    3150:	bf1c      	itt	ne
    3152:	f853 2b04 	ldrne.w	r2, [r3], #4
    3156:	6022      	strne	r2, [r4, #0]
    3158:	f853 0b04 	ldr.w	r0, [r3], #4
    315c:	6020      	str	r0, [r4, #0]
    315e:	f853 1b04 	ldr.w	r1, [r3], #4
    3162:	6021      	str	r1, [r4, #0]
    3164:	f853 2b04 	ldr.w	r2, [r3], #4
    3168:	6022      	str	r2, [r4, #0]
    316a:	f853 0b04 	ldr.w	r0, [r3], #4
    316e:	6020      	str	r0, [r4, #0]
    3170:	f853 1b04 	ldr.w	r1, [r3], #4
    3174:	6021      	str	r1, [r4, #0]
    3176:	f853 2b04 	ldr.w	r2, [r3], #4
    317a:	6022      	str	r2, [r4, #0]
    for ( ui32Index = 0; (4 * ui32Index) < ui32NumBytes; ui32Index++ )
    317c:	1bd8      	subs	r0, r3, r7
    317e:	4286      	cmp	r6, r0
    3180:	d91c      	bls.n	31bc <am_hal_iom_spi_write_nq+0x27c>
        AM_REGn(IOMSTR, ui32Module, FIFO) = pui32Data[ui32Index];
    3182:	469e      	mov	lr, r3
    3184:	3320      	adds	r3, #32
    3186:	f85e 1b04 	ldr.w	r1, [lr], #4
    318a:	6021      	str	r1, [r4, #0]
    318c:	f853 2c1c 	ldr.w	r2, [r3, #-28]
    3190:	6022      	str	r2, [r4, #0]
    3192:	f8de 0004 	ldr.w	r0, [lr, #4]
    3196:	6020      	str	r0, [r4, #0]
    3198:	f853 1c14 	ldr.w	r1, [r3, #-20]
    319c:	6021      	str	r1, [r4, #0]
    319e:	f853 2c10 	ldr.w	r2, [r3, #-16]
    31a2:	6022      	str	r2, [r4, #0]
    31a4:	f853 0c0c 	ldr.w	r0, [r3, #-12]
    31a8:	6020      	str	r0, [r4, #0]
    31aa:	f853 1c08 	ldr.w	r1, [r3, #-8]
    31ae:	6021      	str	r1, [r4, #0]
    31b0:	f853 2c04 	ldr.w	r2, [r3, #-4]
    31b4:	6022      	str	r2, [r4, #0]
    for ( ui32Index = 0; (4 * ui32Index) < ui32NumBytes; ui32Index++ )
    31b6:	1bd8      	subs	r0, r3, r7
    31b8:	4286      	cmp	r6, r0
    31ba:	d8e2      	bhi.n	3182 <am_hal_iom_spi_write_nq+0x242>
        pui32Data += ui32TransferSize >> 2;
    31bc:	f026 0603 	bic.w	r6, r6, #3
    31c0:	4437      	add	r7, r6
    while ( ui32NumBytes && !AM_BFRn(IOMSTR, ui32Module, INTSTAT, CMDCMP) )
    31c2:	b125      	cbz	r5, 31ce <am_hal_iom_spi_write_nq+0x28e>
    31c4:	f8db 3000 	ldr.w	r3, [fp]
    31c8:	07db      	lsls	r3, r3, #31
    31ca:	462e      	mov	r6, r5
    31cc:	d585      	bpl.n	30da <am_hal_iom_spi_write_nq+0x19a>
    waitStatus = am_hal_flash_delay_status_change(ui32StatusTimeout[ui32Module],
    31ce:	9d00      	ldr	r5, [sp, #0]
    31d0:	4f22      	ldr	r7, [pc, #136]	; (325c <am_hal_iom_spi_write_nq+0x31c>)
    31d2:	2301      	movs	r3, #1
    31d4:	f857 0025 	ldr.w	r0, [r7, r5, lsl #2]
    31d8:	461a      	mov	r2, r3
    31da:	4659      	mov	r1, fp
    31dc:	f7fe fbae 	bl	193c <am_hal_flash_delay_status_change>
    if (waitStatus != 1)
    31e0:	2801      	cmp	r0, #1
    31e2:	d011      	beq.n	3208 <am_hal_iom_spi_write_nq+0x2c8>
        g_iom_error_status[ui32Module] = ui32Status = AM_HAL_IOM_ERR_TIMEOUT;
    31e4:	2001      	movs	r0, #1
    31e6:	f809 0005 	strb.w	r0, [r9, r5]
    AM_REGn(IOMSTR, ui32Module, INTCLR) = AM_HAL_IOM_INT_ALL;
    31ea:	f240 73ff 	movw	r3, #2047	; 0x7ff
    AM_REGn(IOMSTR, ui32Module, INTEN) = ui32IntConfig;
    31ee:	9e01      	ldr	r6, [sp, #4]
    AM_REGn(IOMSTR, ui32Module, INTCLR) = AM_HAL_IOM_INT_ALL;
    31f0:	f8c4 3208 	str.w	r3, [r4, #520]	; 0x208
    AM_REGn(IOMSTR, ui32Module, INTEN) = ui32IntConfig;
    31f4:	f8c4 6200 	str.w	r6, [r4, #512]	; 0x200
    31f8:	e6bc      	b.n	2f74 <am_hal_iom_spi_write_nq+0x34>
    am_hal_debug_assert_msg((am_hal_iom_fifo_empty_slots(ui32Module) >= ui32NumBytes),
    31fa:	4a19      	ldr	r2, [pc, #100]	; (3260 <am_hal_iom_spi_write_nq+0x320>)
    31fc:	4819      	ldr	r0, [pc, #100]	; (3264 <am_hal_iom_spi_write_nq+0x324>)
    31fe:	f640 7145 	movw	r1, #3909	; 0xf45
    3202:	f7fe fb95 	bl	1930 <am_hal_debug_error>
    3206:	e78b      	b.n	3120 <am_hal_iom_spi_write_nq+0x1e0>
        return AM_REGn(IOMSTR, ui32Module, INTSTAT);
    3208:	f8db 1000 	ldr.w	r1, [fp]
    if (ui32IntStatus & AM_HAL_IOM_INT_SWERR)
    320c:	f011 0fcc 	tst.w	r1, #204	; 0xcc
    3210:	d11d      	bne.n	324e <am_hal_iom_spi_write_nq+0x30e>
    else if (ui32IntStatus & AM_HAL_IOM_INT_I2CARBERR)
    3212:	f411 6fe0 	tst.w	r1, #1792	; 0x700
    3216:	d129      	bne.n	326c <am_hal_iom_spi_write_nq+0x32c>
    am_hal_iom_status_e ui32Status = AM_HAL_IOM_SUCCESS;
    3218:	f011 0f10 	tst.w	r1, #16
    321c:	bf14      	ite	ne
    321e:	2006      	movne	r0, #6
    3220:	2000      	moveq	r0, #0
        g_iom_error_status[ui32Module] = ui32Status = internal_iom_get_int_err(ui32Module, 0);
    3222:	9a00      	ldr	r2, [sp, #0]
    3224:	f809 0002 	strb.w	r0, [r9, r2]
    3228:	e7df      	b.n	31ea <am_hal_iom_spi_write_nq+0x2aa>
    am_hal_debug_assert_msg((am_hal_iom_fifo_empty_slots(ui32Module) >= ui32NumBytes),
    322a:	4a0d      	ldr	r2, [pc, #52]	; (3260 <am_hal_iom_spi_write_nq+0x320>)
    322c:	480d      	ldr	r0, [pc, #52]	; (3264 <am_hal_iom_spi_write_nq+0x324>)
    322e:	f640 7145 	movw	r1, #3909	; 0xf45
    3232:	f7fe fb7d 	bl	1930 <am_hal_debug_error>
    3236:	e6db      	b.n	2ff0 <am_hal_iom_spi_write_nq+0xb0>
        ui32TransferSize = (ui32NumBytes <= (ui32MaxFifoSize - 4) ? ui32NumBytes :
    3238:	45c6      	cmp	lr, r8
        am_hal_iom_workaround_word_write(ui32ChipSelect, pui32Data,
    323a:	4658      	mov	r0, fp
    323c:	9b0c      	ldr	r3, [sp, #48]	; 0x30
    323e:	4642      	mov	r2, r8
    3240:	4639      	mov	r1, r7
        ui32TransferSize = (ui32NumBytes <= (ui32MaxFifoSize - 4) ? ui32NumBytes :
    3242:	4676      	mov	r6, lr
    3244:	bf28      	it	cs
    3246:	4646      	movcs	r6, r8
        am_hal_iom_workaround_word_write(ui32ChipSelect, pui32Data,
    3248:	f7ff f93c 	bl	24c4 <am_hal_iom_workaround_word_write>
    324c:	e732      	b.n	30b4 <am_hal_iom_spi_write_nq+0x174>
        ui32Status = AM_HAL_IOM_ERR_INVALID_OPER;
    324e:	2005      	movs	r0, #5
    3250:	e7e7      	b.n	3222 <am_hal_iom_spi_write_nq+0x2e2>
    3252:	bf00      	nop
    3254:	10000854 	.word	0x10000854
    3258:	4002000c 	.word	0x4002000c
    325c:	10000a70 	.word	0x10000a70
    3260:	00004b98 	.word	0x00004b98
    3264:	00004bcc 	.word	0x00004bcc
    3268:	1000085c 	.word	0x1000085c
        ui32Status = AM_HAL_IOM_ERR_I2C_ARB;
    326c:	2007      	movs	r0, #7
    326e:	e7d8      	b.n	3222 <am_hal_iom_spi_write_nq+0x2e2>

00003270 <am_hal_iom_spi_write>:
{
    3270:	e92d 4ff0 	stmdb	sp!, {r4, r5, r6, r7, r8, r9, sl, fp, lr}
    if ( ui32Module >= AM_REG_IOMSTR_NUM_MODULES )
    3274:	2805      	cmp	r0, #5
{
    3276:	b08d      	sub	sp, #52	; 0x34
    if ( ui32Module >= AM_REG_IOMSTR_NUM_MODULES )
    3278:	d904      	bls.n	3284 <am_hal_iom_spi_write+0x14>
        return AM_HAL_IOM_ERR_INVALID_MODULE;
    327a:	2502      	movs	r5, #2
}
    327c:	4628      	mov	r0, r5
    327e:	b00d      	add	sp, #52	; 0x34
    3280:	e8bd 8ff0 	ldmia.w	sp!, {r4, r5, r6, r7, r8, r9, sl, fp, pc}
    ui32Status = g_iom_error_status[ui32Module] = AM_HAL_IOM_SUCCESS;
    3284:	f8df 80d8 	ldr.w	r8, [pc, #216]	; 3360 <am_hal_iom_spi_write+0xf0>
    3288:	f04f 0e00 	mov.w	lr, #0
    328c:	4604      	mov	r4, r0
    328e:	461d      	mov	r5, r3
    3290:	f808 e000 	strb.w	lr, [r8, r0]
    if (ui32NumBytes == 0)
    3294:	b933      	cbnz	r3, 32a4 <am_hal_iom_spi_write+0x34>
        g_iom_error_status[ui32Module] = ui32Status = AM_HAL_IOM_ERR_INVALID_PARAM;
    3296:	2503      	movs	r5, #3
    3298:	f808 5000 	strb.w	r5, [r8, r0]
}
    329c:	4628      	mov	r0, r5
    329e:	b00d      	add	sp, #52	; 0x34
    32a0:	e8bd 8ff0 	ldmia.w	sp!, {r4, r5, r6, r7, r8, r9, sl, fp, pc}
    if ( g_psIOMQueue[ui32Module].pui8Data != NULL )
    32a4:	ea4f 0a40 	mov.w	sl, r0, lsl #1
    32a8:	f8df b0b8 	ldr.w	fp, [pc, #184]	; 3364 <am_hal_iom_spi_write+0xf4>
    32ac:	9103      	str	r1, [sp, #12]
    32ae:	eb0a 0700 	add.w	r7, sl, r0
    32b2:	eb0b 09c7 	add.w	r9, fp, r7, lsl #3
    32b6:	f8d9 6014 	ldr.w	r6, [r9, #20]
    32ba:	2e00      	cmp	r6, #0
    32bc:	d045      	beq.n	334a <am_hal_iom_spi_write+0xda>
    32be:	4617      	mov	r7, r2
    ui32Critical = am_hal_interrupt_master_disable();
    32c0:	f7fe fc68 	bl	1b94 <am_hal_interrupt_master_disable>
    if ( (g_bIomBusy[ui32Module] == false) &&
    32c4:	4b24      	ldr	r3, [pc, #144]	; (3358 <am_hal_iom_spi_write+0xe8>)
    32c6:	5d1a      	ldrb	r2, [r3, r4]
    ui32Critical = am_hal_interrupt_master_disable();
    32c8:	4606      	mov	r6, r0
    if ( (g_bIomBusy[ui32Module] == false) &&
    32ca:	b912      	cbnz	r2, 32d2 <am_hal_iom_spi_write+0x62>
    32cc:	f8d9 0008 	ldr.w	r0, [r9, #8]
    32d0:	b1c8      	cbz	r0, 3306 <am_hal_iom_spi_write+0x96>
        if ( am_hal_queue_item_add(&g_psIOMQueue[ui32Module], &sIOMTransaction, 1) == false )
    32d2:	eb0a 0104 	add.w	r1, sl, r4
    32d6:	eb0b 00c1 	add.w	r0, fp, r1, lsl #3
        sIOMTransaction.ui32ChipSelect = ui32ChipSelect;
    32da:	9903      	ldr	r1, [sp, #12]
    32dc:	9107      	str	r1, [sp, #28]
        sIOMTransaction.ui32Operation = AM_HAL_IOM_QUEUE_SPI_WRITE;
    32de:	2300      	movs	r3, #0
        sIOMTransaction.ui32NumBytes = ui32NumBytes;
    32e0:	9509      	str	r5, [sp, #36]	; 0x24
        if ( am_hal_queue_item_add(&g_psIOMQueue[ui32Module], &sIOMTransaction, 1) == false )
    32e2:	2201      	movs	r2, #1
        sIOMTransaction.ui32Options = ui32Options;
    32e4:	9d16      	ldr	r5, [sp, #88]	; 0x58
        sIOMTransaction.ui32Module = ui32Module;
    32e6:	9406      	str	r4, [sp, #24]
        if ( am_hal_queue_item_add(&g_psIOMQueue[ui32Module], &sIOMTransaction, 1) == false )
    32e8:	a905      	add	r1, sp, #20
        sIOMTransaction.pui32Data = pui32Data;
    32ea:	9708      	str	r7, [sp, #32]
        sIOMTransaction.ui32Options = ui32Options;
    32ec:	950a      	str	r5, [sp, #40]	; 0x28
        sIOMTransaction.ui32Operation = AM_HAL_IOM_QUEUE_SPI_WRITE;
    32ee:	9305      	str	r3, [sp, #20]
        sIOMTransaction.pfnCallback = pfnCallback;
    32f0:	930b      	str	r3, [sp, #44]	; 0x2c
        if ( am_hal_queue_item_add(&g_psIOMQueue[ui32Module], &sIOMTransaction, 1) == false )
    32f2:	f000 ffab 	bl	424c <am_hal_queue_item_add>
    32f6:	b9f0      	cbnz	r0, 3336 <am_hal_iom_spi_write+0xc6>
            ui32Status = AM_HAL_IOM_ERR_RESOURCE_ERR;
    32f8:	2508      	movs	r5, #8
    am_hal_interrupt_master_set(ui32Critical);
    32fa:	4630      	mov	r0, r6
        g_iom_error_status[ui32Module] = ui32Status;
    32fc:	f808 5004 	strb.w	r5, [r8, r4]
    am_hal_interrupt_master_set(ui32Critical);
    3300:	f7fe fc4c 	bl	1b9c <am_hal_interrupt_master_set>
    3304:	e7ba      	b.n	327c <am_hal_iom_spi_write+0xc>
    while ( g_bIomBusy[ui32Module] );
    3306:	5d1a      	ldrb	r2, [r3, r4]
    3308:	f002 00ff 	and.w	r0, r2, #255	; 0xff
    330c:	2a00      	cmp	r2, #0
    330e:	d1fa      	bne.n	3306 <am_hal_iom_spi_write+0x96>
    if (ui32NumBytes >= 4096)
    3310:	f5b5 5f80 	cmp.w	r5, #4096	; 0x1000
    ui32Status = g_iom_error_status[ui32Module] = AM_HAL_IOM_SUCCESS;
    3314:	f808 0004 	strb.w	r0, [r8, r4]
    if (ui32NumBytes >= 4096)
    3318:	d301      	bcc.n	331e <am_hal_iom_spi_write+0xae>
        return ui32Status;
    331a:	2503      	movs	r5, #3
    331c:	e7ed      	b.n	32fa <am_hal_iom_spi_write+0x8a>
    331e:	9b16      	ldr	r3, [sp, #88]	; 0x58
    3320:	9001      	str	r0, [sp, #4]
    3322:	9300      	str	r3, [sp, #0]
    3324:	463a      	mov	r2, r7
    3326:	462b      	mov	r3, r5
    3328:	9903      	ldr	r1, [sp, #12]
    332a:	4620      	mov	r0, r4
    332c:	f7ff fc96 	bl	2c5c <am_hal_iom_spi_write_nb.part.6>
    if (ui32Status != AM_HAL_IOM_SUCCESS)
    3330:	4605      	mov	r5, r0
    3332:	2800      	cmp	r0, #0
    3334:	d1e1      	bne.n	32fa <am_hal_iom_spi_write+0x8a>
            am_hal_iom_queue_flush(ui32Module);
    3336:	4f09      	ldr	r7, [pc, #36]	; (335c <am_hal_iom_spi_write+0xec>)
    am_hal_interrupt_master_set(ui32Critical);
    3338:	4630      	mov	r0, r6
    333a:	f7fe fc2f 	bl	1b9c <am_hal_interrupt_master_set>
            am_hal_iom_queue_flush(ui32Module);
    333e:	4620      	mov	r0, r4
    3340:	683e      	ldr	r6, [r7, #0]
    3342:	47b0      	blx	r6
            ui32Status = g_iom_error_status[ui32Module];
    3344:	f818 5004 	ldrb.w	r5, [r8, r4]
    3348:	e798      	b.n	327c <am_hal_iom_spi_write+0xc>
        ui32Status = am_hal_iom_spi_write_nq(ui32Module, ui32ChipSelect, pui32Data,
    334a:	9c16      	ldr	r4, [sp, #88]	; 0x58
    334c:	9400      	str	r4, [sp, #0]
    334e:	f7ff fdf7 	bl	2f40 <am_hal_iom_spi_write_nq>
    3352:	4605      	mov	r5, r0
    3354:	e792      	b.n	327c <am_hal_iom_spi_write+0xc>
    3356:	bf00      	nop
    3358:	10000854 	.word	0x10000854
    335c:	10000848 	.word	0x10000848
    3360:	1000085c 	.word	0x1000085c
    3364:	10000b00 	.word	0x10000b00

00003368 <am_hal_iom_spi_read_nq>:
    if ( ui32Module >= AM_REG_IOMSTR_NUM_MODULES )
    3368:	2805      	cmp	r0, #5
    336a:	d901      	bls.n	3370 <am_hal_iom_spi_read_nq+0x8>
        return AM_HAL_IOM_ERR_INVALID_MODULE;
    336c:	2002      	movs	r0, #2
    336e:	4770      	bx	lr
{
    3370:	e92d 4ff0 	stmdb	sp!, {r4, r5, r6, r7, r8, r9, sl, fp, lr}
    3374:	4688      	mov	r8, r1
    3376:	49b9      	ldr	r1, [pc, #740]	; (365c <am_hal_iom_spi_read_nq+0x2f4>)
    3378:	b085      	sub	sp, #20
    337a:	4604      	mov	r4, r0
    337c:	4617      	mov	r7, r2
    337e:	461e      	mov	r6, r3
    while ( g_bIomBusy[ui32Module] );
    3380:	5d0b      	ldrb	r3, [r1, r4]
    3382:	f003 02ff 	and.w	r2, r3, #255	; 0xff
    3386:	2b00      	cmp	r3, #0
    3388:	d1fa      	bne.n	3380 <am_hal_iom_spi_read_nq+0x18>
    ui32Status = g_iom_error_status[ui32Module] = AM_HAL_IOM_SUCCESS;
    338a:	f8df 92e0 	ldr.w	r9, [pc, #736]	; 366c <am_hal_iom_spi_read_nq+0x304>
    if (ui32NumBytes == 0)
    338e:	1e70      	subs	r0, r6, #1
    3390:	f640 75fe 	movw	r5, #4094	; 0xffe
    3394:	42a8      	cmp	r0, r5
    ui32Status = g_iom_error_status[ui32Module] = AM_HAL_IOM_SUCCESS;
    3396:	f809 2004 	strb.w	r2, [r9, r4]
    if (ui32NumBytes == 0)
    339a:	d905      	bls.n	33a8 <am_hal_iom_spi_read_nq+0x40>
        g_iom_error_status[ui32Module] = ui32Status = AM_HAL_IOM_ERR_INVALID_PARAM;
    339c:	2003      	movs	r0, #3
    339e:	f809 0004 	strb.w	r0, [r9, r4]
}
    33a2:	b005      	add	sp, #20
    33a4:	e8bd 8ff0 	ldmia.w	sp!, {r4, r5, r6, r7, r8, r9, sl, fp, pc}
    ui32IntConfig = AM_REGn(IOMSTR, ui32Module, INTEN);
    33a8:	f504 21a0 	add.w	r1, r4, #327680	; 0x50000
    33ac:	3104      	adds	r1, #4
    33ae:	030b      	lsls	r3, r1, #12
    AM_REGn(IOMSTR, ui32Module, INTCLR) = AM_HAL_IOM_INT_ALL;
    33b0:	f240 7bff 	movw	fp, #2047	; 0x7ff
    ui32IntConfig = AM_REGn(IOMSTR, ui32Module, INTEN);
    33b4:	f8d3 5200 	ldr.w	r5, [r3, #512]	; 0x200
    33b8:	9300      	str	r3, [sp, #0]
    if ( (WORKAROUND_IOM == ui32Module) && !(ui32Options & AM_HAL_IOM_RAW) &&
    33ba:	2c04      	cmp	r4, #4
    AM_REGn(IOMSTR, ui32Module, INTEN) = 0;
    33bc:	f8c3 2200 	str.w	r2, [r3, #512]	; 0x200
    ui32IntConfig = AM_REGn(IOMSTR, ui32Module, INTEN);
    33c0:	4618      	mov	r0, r3
    33c2:	9501      	str	r5, [sp, #4]
    AM_REGn(IOMSTR, ui32Module, INTCLR) = AM_HAL_IOM_INT_ALL;
    33c4:	f8c3 b208 	str.w	fp, [r3, #520]	; 0x208
    if ( (WORKAROUND_IOM == ui32Module) && !(ui32Options & AM_HAL_IOM_RAW) &&
    33c8:	f000 8152 	beq.w	3670 <am_hal_iom_spi_read_nq+0x308>
    33cc:	4aa4      	ldr	r2, [pc, #656]	; (3660 <am_hal_iom_spi_read_nq+0x2f8>)
    33ce:	9202      	str	r2, [sp, #8]
    33d0:	f503 7a01 	add.w	sl, r3, #516	; 0x204
    33d4:	461d      	mov	r5, r3
    ui32Command |= ((ui32ChipSelect << 16) & 0x00070000);
    33d6:	ea4f 4108 	mov.w	r1, r8, lsl #16
    33da:	f401 20e0 	and.w	r0, r1, #458752	; 0x70000
    33de:	f040 4200 	orr.w	r2, r0, #2147483648	; 0x80000000
    ui32Command |= (ui32NumBytes & 0xFF);
    33e2:	b2f3      	uxtb	r3, r6
    ui32Command |= ((ui32ChipSelect << 16) & 0x00070000);
    33e4:	4313      	orrs	r3, r2
    ui32Command |= ui32Options & 0x5C00FF00;
    33e6:	9a0e      	ldr	r2, [sp, #56]	; 0x38
    ui32Command |= ((ui32NumBytes & 0xF00) << 15);
    33e8:	03f1      	lsls	r1, r6, #15
    33ea:	f001 60f0 	and.w	r0, r1, #125829120	; 0x7800000
    ui32Command |= ui32Options & 0x5C00FF00;
    33ee:	f022 4123 	bic.w	r1, r2, #2734686208	; 0xa3000000
    ui32Command |= ((ui32ChipSelect << 16) & 0x00070000);
    33f2:	4303      	orrs	r3, r0
    ui32Command |= ui32Options & 0x5C00FF00;
    33f4:	f001 20ff 	and.w	r0, r1, #4278255360	; 0xff00ff00
    33f8:	4303      	orrs	r3, r0
    AM_REGn(IOMSTR, ui32Module, CMD) = ui32Command;
    33fa:	f8c5 3110 	str.w	r3, [r5, #272]	; 0x110
    33fe:	f505 7b80 	add.w	fp, r5, #256	; 0x100
    uint32_t bCmdCmp = false;
    3402:	2300      	movs	r3, #0
    return AM_BFRn(IOMSTR, ui32Module, FIFOPTR, FIFOSIZ);
    3404:	f8db 2000 	ldr.w	r2, [fp]
    3408:	fa5f f882 	uxtb.w	r8, r2
        if ( ui32BytesInFifo >= ui32NumBytes )
    340c:	4546      	cmp	r6, r8
    340e:	d910      	bls.n	3432 <am_hal_iom_spi_read_nq+0xca>
        else if ( ui32BytesInFifo >= 4 )
    3410:	f1b8 0f03 	cmp.w	r8, #3
    3414:	f200 809f 	bhi.w	3556 <am_hal_iom_spi_read_nq+0x1ee>
        if ( bCmdCmp == true )
    3418:	2b00      	cmp	r3, #0
    341a:	f040 80ff 	bne.w	361c <am_hal_iom_spi_read_nq+0x2b4>
        bCmdCmp = AM_BFRn(IOMSTR, ui32Module, INTSTAT, CMDCMP);
    341e:	f8da 3000 	ldr.w	r3, [sl]
    return AM_BFRn(IOMSTR, ui32Module, FIFOPTR, FIFOSIZ);
    3422:	f8db 2000 	ldr.w	r2, [fp]
    3426:	fa5f f882 	uxtb.w	r8, r2
        if ( ui32BytesInFifo >= ui32NumBytes )
    342a:	4546      	cmp	r6, r8
        bCmdCmp = AM_BFRn(IOMSTR, ui32Module, INTSTAT, CMDCMP);
    342c:	f003 0301 	and.w	r3, r3, #1
        if ( ui32BytesInFifo >= ui32NumBytes )
    3430:	d8ee      	bhi.n	3410 <am_hal_iom_spi_read_nq+0xa8>
    if ( AM_REG_IOMSTR_CFG_FULLDUP_NORMAL == (AM_REGn(IOMSTR, ui32Module, CFG) & AM_REG_IOMSTR_CFG_FULLDUP_M) )
    3432:	f8d5 211c 	ldr.w	r2, [r5, #284]	; 0x11c
    3436:	9500      	str	r5, [sp, #0]
    3438:	0710      	lsls	r0, r2, #28
    343a:	f140 80f1 	bpl.w	3620 <am_hal_iom_spi_read_nq+0x2b8>
    343e:	f006 0003 	and.w	r0, r6, #3
    for ( i = 0; i < ui32NumWords; i++ )
    3442:	08b6      	lsrs	r6, r6, #2
    3444:	d05a      	beq.n	34fc <am_hal_iom_spi_read_nq+0x194>
        pui32Data[i] = AM_REGn(IOMSTR, ui32Module, FIFO);
    3446:	9d00      	ldr	r5, [sp, #0]
    3448:	463a      	mov	r2, r7
    344a:	6829      	ldr	r1, [r5, #0]
    344c:	f842 1b04 	str.w	r1, [r2], #4
    3450:	eb07 0b86 	add.w	fp, r7, r6, lsl #2
    3454:	ebab 0807 	sub.w	r8, fp, r7
    3458:	f1a8 0504 	sub.w	r5, r8, #4
    for ( i = 0; i < ui32NumWords; i++ )
    345c:	455a      	cmp	r2, fp
    345e:	f3c5 0182 	ubfx	r1, r5, #2, #3
    3462:	d04b      	beq.n	34fc <am_hal_iom_spi_read_nq+0x194>
    3464:	b349      	cbz	r1, 34ba <am_hal_iom_spi_read_nq+0x152>
    3466:	2901      	cmp	r1, #1
    3468:	d021      	beq.n	34ae <am_hal_iom_spi_read_nq+0x146>
    346a:	2902      	cmp	r1, #2
    346c:	d01b      	beq.n	34a6 <am_hal_iom_spi_read_nq+0x13e>
    346e:	2903      	cmp	r1, #3
    3470:	d015      	beq.n	349e <am_hal_iom_spi_read_nq+0x136>
    3472:	2904      	cmp	r1, #4
    3474:	d00f      	beq.n	3496 <am_hal_iom_spi_read_nq+0x12e>
    3476:	2905      	cmp	r1, #5
    3478:	d009      	beq.n	348e <am_hal_iom_spi_read_nq+0x126>
    347a:	2906      	cmp	r1, #6
    347c:	d003      	beq.n	3486 <am_hal_iom_spi_read_nq+0x11e>
        pui32Data[i] = AM_REGn(IOMSTR, ui32Module, FIFO);
    347e:	9d00      	ldr	r5, [sp, #0]
    3480:	6829      	ldr	r1, [r5, #0]
    3482:	f842 1b04 	str.w	r1, [r2], #4
    3486:	9d00      	ldr	r5, [sp, #0]
    3488:	6829      	ldr	r1, [r5, #0]
    348a:	f842 1b04 	str.w	r1, [r2], #4
    348e:	9d00      	ldr	r5, [sp, #0]
    3490:	6829      	ldr	r1, [r5, #0]
    3492:	f842 1b04 	str.w	r1, [r2], #4
    3496:	9d00      	ldr	r5, [sp, #0]
    3498:	6829      	ldr	r1, [r5, #0]
    349a:	f842 1b04 	str.w	r1, [r2], #4
    349e:	9d00      	ldr	r5, [sp, #0]
    34a0:	6829      	ldr	r1, [r5, #0]
    34a2:	f842 1b04 	str.w	r1, [r2], #4
    34a6:	9d00      	ldr	r5, [sp, #0]
    34a8:	6829      	ldr	r1, [r5, #0]
    34aa:	f842 1b04 	str.w	r1, [r2], #4
    34ae:	9d00      	ldr	r5, [sp, #0]
    34b0:	6829      	ldr	r1, [r5, #0]
    34b2:	f842 1b04 	str.w	r1, [r2], #4
    for ( i = 0; i < ui32NumWords; i++ )
    34b6:	455a      	cmp	r2, fp
    34b8:	d020      	beq.n	34fc <am_hal_iom_spi_read_nq+0x194>
    34ba:	9d00      	ldr	r5, [sp, #0]
        pui32Data[i] = AM_REGn(IOMSTR, ui32Module, FIFO);
    34bc:	f8d5 c000 	ldr.w	ip, [r5]
    34c0:	4696      	mov	lr, r2
    34c2:	3220      	adds	r2, #32
    34c4:	f84e cb04 	str.w	ip, [lr], #4
    34c8:	f8d5 8000 	ldr.w	r8, [r5]
    34cc:	f842 8c1c 	str.w	r8, [r2, #-28]
    34d0:	f8d5 c000 	ldr.w	ip, [r5]
    34d4:	f8ce c004 	str.w	ip, [lr, #4]
    34d8:	6829      	ldr	r1, [r5, #0]
    34da:	f842 1c14 	str.w	r1, [r2, #-20]
    34de:	6829      	ldr	r1, [r5, #0]
    34e0:	f842 1c10 	str.w	r1, [r2, #-16]
    34e4:	6829      	ldr	r1, [r5, #0]
    34e6:	f842 1c0c 	str.w	r1, [r2, #-12]
    34ea:	6829      	ldr	r1, [r5, #0]
    34ec:	f842 1c08 	str.w	r1, [r2, #-8]
    34f0:	6829      	ldr	r1, [r5, #0]
    34f2:	f842 1c04 	str.w	r1, [r2, #-4]
    for ( i = 0; i < ui32NumWords; i++ )
    34f6:	455a      	cmp	r2, fp
    34f8:	d1e0      	bne.n	34bc <am_hal_iom_spi_read_nq+0x154>
    34fa:	9500      	str	r5, [sp, #0]
    if ( ui32Leftovers )
    34fc:	b188      	cbz	r0, 3522 <am_hal_iom_spi_read_nq+0x1ba>
        sTempBuffer.words[0] = AM_REGn(IOMSTR, ui32Module, FIFO);
    34fe:	9a00      	ldr	r2, [sp, #0]
        for ( j = 0; j < ui32Leftovers; j++ )
    3500:	2801      	cmp	r0, #1
        sTempBuffer.words[0] = AM_REGn(IOMSTR, ui32Module, FIFO);
    3502:	6815      	ldr	r5, [r2, #0]
            pui8Data[j] = sTempBuffer.bytes[j];
    3504:	f807 5026 	strb.w	r5, [r7, r6, lsl #2]
        pui8Data = (uint8_t *) (&pui32Data[i]);
    3508:	ea4f 0686 	mov.w	r6, r6, lsl #2
        for ( j = 0; j < ui32Leftovers; j++ )
    350c:	d009      	beq.n	3522 <am_hal_iom_spi_read_nq+0x1ba>
            pui8Data[j] = sTempBuffer.bytes[j];
    350e:	4437      	add	r7, r6
        for ( j = 0; j < ui32Leftovers; j++ )
    3510:	2803      	cmp	r0, #3
            pui8Data[j] = sTempBuffer.bytes[j];
    3512:	f3c5 2107 	ubfx	r1, r5, #8, #8
    3516:	bf08      	it	eq
    3518:	f3c5 4507 	ubfxeq	r5, r5, #16, #8
    351c:	7079      	strb	r1, [r7, #1]
    351e:	bf08      	it	eq
    3520:	70bd      	strbeq	r5, [r7, #2]
        if ( bCmdCmp == true )
    3522:	b90b      	cbnz	r3, 3528 <am_hal_iom_spi_read_nq+0x1c0>
        bCmdCmp = AM_BFRn(IOMSTR, ui32Module, INTSTAT, CMDCMP);
    3524:	f8da 3000 	ldr.w	r3, [sl]
    waitStatus = am_hal_flash_delay_status_change(ui32StatusTimeout[ui32Module],
    3528:	9f02      	ldr	r7, [sp, #8]
    352a:	2301      	movs	r3, #1
    352c:	f857 0024 	ldr.w	r0, [r7, r4, lsl #2]
    3530:	461a      	mov	r2, r3
    3532:	4651      	mov	r1, sl
    3534:	f7fe fa02 	bl	193c <am_hal_flash_delay_status_change>
    if (waitStatus != 1)
    3538:	2801      	cmp	r0, #1
    353a:	f000 80a8 	beq.w	368e <am_hal_iom_spi_read_nq+0x326>
        g_iom_error_status[ui32Module] = ui32Status = AM_HAL_IOM_ERR_TIMEOUT;
    353e:	2001      	movs	r0, #1
    3540:	f809 0004 	strb.w	r0, [r9, r4]
    AM_REGn(IOMSTR, ui32Module, INTCLR) = AM_HAL_IOM_INT_ALL;
    3544:	9a00      	ldr	r2, [sp, #0]
    AM_REGn(IOMSTR, ui32Module, INTEN) = ui32IntConfig;
    3546:	9d01      	ldr	r5, [sp, #4]
    AM_REGn(IOMSTR, ui32Module, INTCLR) = AM_HAL_IOM_INT_ALL;
    3548:	f240 74ff 	movw	r4, #2047	; 0x7ff
    354c:	f8c2 4208 	str.w	r4, [r2, #520]	; 0x208
    AM_REGn(IOMSTR, ui32Module, INTEN) = ui32IntConfig;
    3550:	f8c2 5200 	str.w	r5, [r2, #512]	; 0x200
    3554:	e725      	b.n	33a2 <am_hal_iom_spi_read_nq+0x3a>
    if ( AM_REG_IOMSTR_CFG_FULLDUP_NORMAL == (AM_REGn(IOMSTR, ui32Module, CFG) & AM_REG_IOMSTR_CFG_FULLDUP_M) )
    3556:	f8d5 111c 	ldr.w	r1, [r5, #284]	; 0x11c
            am_hal_iom_fifo_read(ui32Module, pui32Data, ui32BytesInFifo & ~0x3);
    355a:	f002 00fc 	and.w	r0, r2, #252	; 0xfc
    if ( AM_REG_IOMSTR_CFG_FULLDUP_NORMAL == (AM_REGn(IOMSTR, ui32Module, CFG) & AM_REG_IOMSTR_CFG_FULLDUP_M) )
    355e:	0709      	lsls	r1, r1, #28
            am_hal_iom_fifo_read(ui32Module, pui32Data, ui32BytesInFifo & ~0x3);
    3560:	9000      	str	r0, [sp, #0]
    if ( AM_REG_IOMSTR_CFG_FULLDUP_NORMAL == (AM_REGn(IOMSTR, ui32Module, CFG) & AM_REG_IOMSTR_CFG_FULLDUP_M) )
    3562:	d56c      	bpl.n	363e <am_hal_iom_spi_read_nq+0x2d6>
    for ( i = 0; i < ui32NumWords; i++ )
    3564:	9a00      	ldr	r2, [sp, #0]
    3566:	0890      	lsrs	r0, r2, #2
    3568:	2a00      	cmp	r2, #0
    356a:	d04b      	beq.n	3604 <am_hal_iom_spi_read_nq+0x29c>
        pui32Data[i] = AM_REGn(IOMSTR, ui32Module, FIFO);
    356c:	463a      	mov	r2, r7
    356e:	6829      	ldr	r1, [r5, #0]
    3570:	f842 1b04 	str.w	r1, [r2], #4
    3574:	eb07 0080 	add.w	r0, r7, r0, lsl #2
    3578:	1bc1      	subs	r1, r0, r7
    357a:	f1a1 0c04 	sub.w	ip, r1, #4
    for ( i = 0; i < ui32NumWords; i++ )
    357e:	4290      	cmp	r0, r2
    3580:	f3cc 0182 	ubfx	r1, ip, #2, #3
    3584:	d03d      	beq.n	3602 <am_hal_iom_spi_read_nq+0x29a>
    3586:	b311      	cbz	r1, 35ce <am_hal_iom_spi_read_nq+0x266>
    3588:	2901      	cmp	r1, #1
    358a:	d01b      	beq.n	35c4 <am_hal_iom_spi_read_nq+0x25c>
    358c:	2902      	cmp	r1, #2
    358e:	d016      	beq.n	35be <am_hal_iom_spi_read_nq+0x256>
    3590:	2903      	cmp	r1, #3
    3592:	d011      	beq.n	35b8 <am_hal_iom_spi_read_nq+0x250>
    3594:	2904      	cmp	r1, #4
    3596:	d00c      	beq.n	35b2 <am_hal_iom_spi_read_nq+0x24a>
    3598:	2905      	cmp	r1, #5
    359a:	d007      	beq.n	35ac <am_hal_iom_spi_read_nq+0x244>
    359c:	2906      	cmp	r1, #6
        pui32Data[i] = AM_REGn(IOMSTR, ui32Module, FIFO);
    359e:	bf1c      	itt	ne
    35a0:	6829      	ldrne	r1, [r5, #0]
    35a2:	f842 1b04 	strne.w	r1, [r2], #4
    35a6:	6829      	ldr	r1, [r5, #0]
    35a8:	f842 1b04 	str.w	r1, [r2], #4
    35ac:	6829      	ldr	r1, [r5, #0]
    35ae:	f842 1b04 	str.w	r1, [r2], #4
    35b2:	6829      	ldr	r1, [r5, #0]
    35b4:	f842 1b04 	str.w	r1, [r2], #4
    35b8:	6829      	ldr	r1, [r5, #0]
    35ba:	f842 1b04 	str.w	r1, [r2], #4
    35be:	6829      	ldr	r1, [r5, #0]
    35c0:	f842 1b04 	str.w	r1, [r2], #4
    35c4:	6829      	ldr	r1, [r5, #0]
    35c6:	f842 1b04 	str.w	r1, [r2], #4
    for ( i = 0; i < ui32NumWords; i++ )
    35ca:	4290      	cmp	r0, r2
    35cc:	d019      	beq.n	3602 <am_hal_iom_spi_read_nq+0x29a>
        pui32Data[i] = AM_REGn(IOMSTR, ui32Module, FIFO);
    35ce:	4694      	mov	ip, r2
    35d0:	f8d5 e000 	ldr.w	lr, [r5]
    35d4:	f84c eb04 	str.w	lr, [ip], #4
    35d8:	f8d5 e000 	ldr.w	lr, [r5]
    35dc:	f8c2 e004 	str.w	lr, [r2, #4]
    35e0:	f8d5 e000 	ldr.w	lr, [r5]
    35e4:	f8cc e004 	str.w	lr, [ip, #4]
    35e8:	6829      	ldr	r1, [r5, #0]
    35ea:	60d1      	str	r1, [r2, #12]
    35ec:	6829      	ldr	r1, [r5, #0]
    35ee:	6111      	str	r1, [r2, #16]
    35f0:	6829      	ldr	r1, [r5, #0]
    35f2:	6151      	str	r1, [r2, #20]
    35f4:	6829      	ldr	r1, [r5, #0]
    35f6:	6191      	str	r1, [r2, #24]
    35f8:	6829      	ldr	r1, [r5, #0]
    35fa:	61d1      	str	r1, [r2, #28]
    35fc:	3220      	adds	r2, #32
    for ( i = 0; i < ui32NumWords; i++ )
    35fe:	4290      	cmp	r0, r2
    3600:	d1e5      	bne.n	35ce <am_hal_iom_spi_read_nq+0x266>
    3602:	9a00      	ldr	r2, [sp, #0]
            pui32Data += ui32BytesInFifo >> 2;
    3604:	f008 00fc 	and.w	r0, r8, #252	; 0xfc
    3608:	4407      	add	r7, r0
            ui32NumBytes -= ui32BytesInFifo & ~0x3;
    360a:	1ab6      	subs	r6, r6, r2
        if ( bCmdCmp == true )
    360c:	b933      	cbnz	r3, 361c <am_hal_iom_spi_read_nq+0x2b4>
        bCmdCmp = AM_BFRn(IOMSTR, ui32Module, INTSTAT, CMDCMP);
    360e:	f8da 3000 	ldr.w	r3, [sl]
    3612:	f003 0301 	and.w	r3, r3, #1
    while ( ui32NumBytes )
    3616:	2e00      	cmp	r6, #0
    3618:	f47f aef4 	bne.w	3404 <am_hal_iom_spi_read_nq+0x9c>
    361c:	9500      	str	r5, [sp, #0]
    361e:	e783      	b.n	3528 <am_hal_iom_spi_read_nq+0x1c0>
    return AM_BFRn(IOMSTR, ui32Module, FIFOPTR, FIFOSIZ);
    3620:	f8d5 0100 	ldr.w	r0, [r5, #256]	; 0x100
        am_hal_debug_assert_msg((am_hal_iom_fifo_full_slots(ui32Module) >= ui32NumBytes),
    3624:	b2c1      	uxtb	r1, r0
    3626:	42b1      	cmp	r1, r6
    3628:	f4bf af09 	bcs.w	343e <am_hal_iom_spi_read_nq+0xd6>
    362c:	4a0d      	ldr	r2, [pc, #52]	; (3664 <am_hal_iom_spi_read_nq+0x2fc>)
    362e:	480e      	ldr	r0, [pc, #56]	; (3668 <am_hal_iom_spi_read_nq+0x300>)
    3630:	9303      	str	r3, [sp, #12]
    3632:	f44f 6178 	mov.w	r1, #3968	; 0xf80
    3636:	f7fe f97b 	bl	1930 <am_hal_debug_error>
    363a:	9b03      	ldr	r3, [sp, #12]
    363c:	e6ff      	b.n	343e <am_hal_iom_spi_read_nq+0xd6>
    return AM_BFRn(IOMSTR, ui32Module, FIFOPTR, FIFOSIZ);
    363e:	f8db 2000 	ldr.w	r2, [fp]
        am_hal_debug_assert_msg((am_hal_iom_fifo_full_slots(ui32Module) >= ui32NumBytes),
    3642:	b2d1      	uxtb	r1, r2
    3644:	4288      	cmp	r0, r1
    3646:	d98d      	bls.n	3564 <am_hal_iom_spi_read_nq+0x1fc>
    3648:	4a06      	ldr	r2, [pc, #24]	; (3664 <am_hal_iom_spi_read_nq+0x2fc>)
    364a:	4807      	ldr	r0, [pc, #28]	; (3668 <am_hal_iom_spi_read_nq+0x300>)
    364c:	9303      	str	r3, [sp, #12]
    364e:	f44f 6178 	mov.w	r1, #3968	; 0xf80
    3652:	f7fe f96d 	bl	1930 <am_hal_debug_error>
    3656:	9b03      	ldr	r3, [sp, #12]
    3658:	e784      	b.n	3564 <am_hal_iom_spi_read_nq+0x1fc>
    365a:	bf00      	nop
    365c:	10000854 	.word	0x10000854
    3660:	10000a70 	.word	0x10000a70
    3664:	00004be0 	.word	0x00004be0
    3668:	00004bcc 	.word	0x00004bcc
    366c:	1000085c 	.word	0x1000085c
    if ( (WORKAROUND_IOM == ui32Module) && !(ui32Options & AM_HAL_IOM_RAW) &&
    3670:	990e      	ldr	r1, [sp, #56]	; 0x38
    3672:	f011 4280 	ands.w	r2, r1, #1073741824	; 0x40000000
    3676:	d104      	bne.n	3682 <am_hal_iom_spi_read_nq+0x31a>
    if ( (AM_REG(MCUCTRL, CHIPREV) & 0xFF) == AM_REG_MCUCTRL_CHIPREV_REVMAJ_B )
    3678:	4b24      	ldr	r3, [pc, #144]	; (370c <am_hal_iom_spi_read_nq+0x3a4>)
    367a:	681d      	ldr	r5, [r3, #0]
    367c:	b2e9      	uxtb	r1, r5
    367e:	2920      	cmp	r1, #32
    3680:	d017      	beq.n	36b2 <am_hal_iom_spi_read_nq+0x34a>
    3682:	f500 7a01 	add.w	sl, r0, #516	; 0x204
    3686:	4822      	ldr	r0, [pc, #136]	; (3710 <am_hal_iom_spi_read_nq+0x3a8>)
    3688:	9002      	str	r0, [sp, #8]
    368a:	9d00      	ldr	r5, [sp, #0]
    368c:	e6a3      	b.n	33d6 <am_hal_iom_spi_read_nq+0x6e>
        return AM_REGn(IOMSTR, ui32Module, INTSTAT);
    368e:	f8da 3000 	ldr.w	r3, [sl]
    if (ui32IntStatus & AM_HAL_IOM_INT_SWERR)
    3692:	f013 0fcc 	tst.w	r3, #204	; 0xcc
    3696:	d10a      	bne.n	36ae <am_hal_iom_spi_read_nq+0x346>
    else if (ui32IntStatus & AM_HAL_IOM_INT_I2CARBERR)
    3698:	f413 6fe0 	tst.w	r3, #1792	; 0x700
    369c:	d127      	bne.n	36ee <am_hal_iom_spi_read_nq+0x386>
    am_hal_iom_status_e ui32Status = AM_HAL_IOM_SUCCESS;
    369e:	f013 0f10 	tst.w	r3, #16
    36a2:	bf14      	ite	ne
    36a4:	2006      	movne	r0, #6
    36a6:	2000      	moveq	r0, #0
        g_iom_error_status[ui32Module] = ui32Status = internal_iom_get_int_err(ui32Module, 0);
    36a8:	f809 0004 	strb.w	r0, [r9, r4]
    36ac:	e74a      	b.n	3544 <am_hal_iom_spi_read_nq+0x1dc>
        ui32Status = AM_HAL_IOM_ERR_INVALID_OPER;
    36ae:	2005      	movs	r0, #5
    36b0:	e7fa      	b.n	36a8 <am_hal_iom_spi_read_nq+0x340>
        am_hal_iom_workaround_word_write(ui32ChipSelect, pui32Data, 0,
    36b2:	9b0e      	ldr	r3, [sp, #56]	; 0x38
        waitStatus = am_hal_flash_delay_status_change(ui32StatusTimeout[ui32Module],
    36b4:	4d16      	ldr	r5, [pc, #88]	; (3710 <am_hal_iom_spi_read_nq+0x3a8>)
    36b6:	9502      	str	r5, [sp, #8]
        am_hal_iom_workaround_word_write(ui32ChipSelect, pui32Data, 0,
    36b8:	f043 5380 	orr.w	r3, r3, #268435456	; 0x10000000
    36bc:	4639      	mov	r1, r7
    36be:	4640      	mov	r0, r8
    36c0:	f7fe ff00 	bl	24c4 <am_hal_iom_workaround_word_write>
        waitStatus = am_hal_flash_delay_status_change(ui32StatusTimeout[ui32Module],
    36c4:	9a00      	ldr	r2, [sp, #0]
    36c6:	6928      	ldr	r0, [r5, #16]
    36c8:	f502 7a01 	add.w	sl, r2, #516	; 0x204
    36cc:	2301      	movs	r3, #1
    36ce:	4651      	mov	r1, sl
    36d0:	461a      	mov	r2, r3
    36d2:	f7fe f933 	bl	193c <am_hal_flash_delay_status_change>
        if (waitStatus != 1)
    36d6:	2801      	cmp	r0, #1
    36d8:	d00b      	beq.n	36f2 <am_hal_iom_spi_read_nq+0x38a>
            AM_REGn(IOMSTR, ui32Module, INTCLR) = AM_HAL_IOM_INT_ALL;
    36da:	9e00      	ldr	r6, [sp, #0]
            AM_REGn(IOMSTR, ui32Module, INTEN) = ui32IntConfig;
    36dc:	9901      	ldr	r1, [sp, #4]
            AM_REGn(IOMSTR, ui32Module, INTCLR) = AM_HAL_IOM_INT_ALL;
    36de:	f8c6 b208 	str.w	fp, [r6, #520]	; 0x208
            g_iom_error_status[ui32Module] = ui32Status = AM_HAL_IOM_ERR_TIMEOUT;
    36e2:	2001      	movs	r0, #1
    36e4:	f889 0004 	strb.w	r0, [r9, #4]
            AM_REGn(IOMSTR, ui32Module, INTEN) = ui32IntConfig;
    36e8:	f8c6 1200 	str.w	r1, [r6, #512]	; 0x200
    36ec:	e659      	b.n	33a2 <am_hal_iom_spi_read_nq+0x3a>
        ui32Status = AM_HAL_IOM_ERR_I2C_ARB;
    36ee:	2007      	movs	r0, #7
    36f0:	e7da      	b.n	36a8 <am_hal_iom_spi_read_nq+0x340>
        AM_BFWn(IOMSTR, ui32Module, INTCLR, CMDCMP, 1);
    36f2:	9d00      	ldr	r5, [sp, #0]
        ui32Options |= AM_HAL_IOM_RAW;
    36f4:	9b0e      	ldr	r3, [sp, #56]	; 0x38
        AM_BFWn(IOMSTR, ui32Module, INTCLR, CMDCMP, 1);
    36f6:	f8d5 1208 	ldr.w	r1, [r5, #520]	; 0x208
        ui32Options |= AM_HAL_IOM_RAW;
    36fa:	f043 4280 	orr.w	r2, r3, #1073741824	; 0x40000000
        AM_BFWn(IOMSTR, ui32Module, INTCLR, CMDCMP, 1);
    36fe:	f041 0001 	orr.w	r0, r1, #1
        ui32Options |= AM_HAL_IOM_RAW;
    3702:	920e      	str	r2, [sp, #56]	; 0x38
        AM_BFWn(IOMSTR, ui32Module, INTCLR, CMDCMP, 1);
    3704:	f8c5 0208 	str.w	r0, [r5, #520]	; 0x208
    3708:	e665      	b.n	33d6 <am_hal_iom_spi_read_nq+0x6e>
    370a:	bf00      	nop
    370c:	4002000c 	.word	0x4002000c
    3710:	10000a70 	.word	0x10000a70

00003714 <am_hal_iom_spi_read>:
{
    3714:	e92d 4ff0 	stmdb	sp!, {r4, r5, r6, r7, r8, r9, sl, fp, lr}
    if ( ui32Module >= AM_REG_IOMSTR_NUM_MODULES )
    3718:	2805      	cmp	r0, #5
{
    371a:	b08d      	sub	sp, #52	; 0x34
    if ( ui32Module >= AM_REG_IOMSTR_NUM_MODULES )
    371c:	d904      	bls.n	3728 <am_hal_iom_spi_read+0x14>
        return AM_HAL_IOM_ERR_INVALID_MODULE;
    371e:	2602      	movs	r6, #2
}
    3720:	4630      	mov	r0, r6
    3722:	b00d      	add	sp, #52	; 0x34
    3724:	e8bd 8ff0 	ldmia.w	sp!, {r4, r5, r6, r7, r8, r9, sl, fp, pc}
    AM_REGn(IOMSTR, ui32Module, INTCLR) = AM_HAL_IOM_INT_ALL;
    3728:	f500 27a0 	add.w	r7, r0, #327680	; 0x50000
    372c:	3704      	adds	r7, #4
    372e:	033d      	lsls	r5, r7, #12
    3730:	f240 7cff 	movw	ip, #2047	; 0x7ff
    ui32Status = g_iom_error_status[ui32Module] = AM_HAL_IOM_SUCCESS;
    3734:	f8df 80dc 	ldr.w	r8, [pc, #220]	; 3814 <am_hal_iom_spi_read+0x100>
    AM_REGn(IOMSTR, ui32Module, INTCLR) = AM_HAL_IOM_INT_ALL;
    3738:	f8c5 c208 	str.w	ip, [r5, #520]	; 0x208
    if (ui32NumBytes == 0)
    373c:	f640 79fe 	movw	r9, #4094	; 0xffe
    3740:	1e5d      	subs	r5, r3, #1
    ui32Status = g_iom_error_status[ui32Module] = AM_HAL_IOM_SUCCESS;
    3742:	2600      	movs	r6, #0
    if (ui32NumBytes == 0)
    3744:	454d      	cmp	r5, r9
    3746:	4604      	mov	r4, r0
    3748:	469e      	mov	lr, r3
    ui32Status = g_iom_error_status[ui32Module] = AM_HAL_IOM_SUCCESS;
    374a:	f808 6000 	strb.w	r6, [r8, r0]
    if (ui32NumBytes == 0)
    374e:	d906      	bls.n	375e <am_hal_iom_spi_read+0x4a>
        g_iom_error_status[ui32Module] = ui32Status = AM_HAL_IOM_ERR_INVALID_PARAM;
    3750:	2603      	movs	r6, #3
    3752:	f808 6000 	strb.w	r6, [r8, r0]
}
    3756:	4630      	mov	r0, r6
    3758:	b00d      	add	sp, #52	; 0x34
    375a:	e8bd 8ff0 	ldmia.w	sp!, {r4, r5, r6, r7, r8, r9, sl, fp, pc}
    if ( g_psIOMQueue[ui32Module].pui8Data != NULL )
    375e:	ea4f 0a40 	mov.w	sl, r0, lsl #1
    3762:	f8df b0b4 	ldr.w	fp, [pc, #180]	; 3818 <am_hal_iom_spi_read+0x104>
    3766:	9202      	str	r2, [sp, #8]
    3768:	eb0a 0500 	add.w	r5, sl, r0
    376c:	eb0b 09c5 	add.w	r9, fp, r5, lsl #3
    3770:	461f      	mov	r7, r3
    3772:	f8d9 6014 	ldr.w	r6, [r9, #20]
    3776:	2e00      	cmp	r6, #0
    3778:	d042      	beq.n	3800 <am_hal_iom_spi_read+0xec>
    377a:	460d      	mov	r5, r1
    ui32Critical = am_hal_interrupt_master_disable();
    377c:	f7fe fa0a 	bl	1b94 <am_hal_interrupt_master_disable>
    if ( (g_bIomBusy[ui32Module] == false) &&
    3780:	4b22      	ldr	r3, [pc, #136]	; (380c <am_hal_iom_spi_read+0xf8>)
    ui32Critical = am_hal_interrupt_master_disable();
    3782:	9003      	str	r0, [sp, #12]
    if ( (g_bIomBusy[ui32Module] == false) &&
    3784:	5d1a      	ldrb	r2, [r3, r4]
    3786:	b912      	cbnz	r2, 378e <am_hal_iom_spi_read+0x7a>
    3788:	f8d9 0008 	ldr.w	r0, [r9, #8]
    378c:	b1d0      	cbz	r0, 37c4 <am_hal_iom_spi_read+0xb0>
        if ( am_hal_queue_item_add(&g_psIOMQueue[ui32Module], &sIOMTransaction, 1) == false )
    378e:	eb0a 0104 	add.w	r1, sl, r4
        sIOMTransaction.ui32Operation = AM_HAL_IOM_QUEUE_SPI_READ;
    3792:	2301      	movs	r3, #1
        if ( am_hal_queue_item_add(&g_psIOMQueue[ui32Module], &sIOMTransaction, 1) == false )
    3794:	eb0b 00c1 	add.w	r0, fp, r1, lsl #3
        sIOMTransaction.ui32ChipSelect = ui32ChipSelect;
    3798:	9507      	str	r5, [sp, #28]
        sIOMTransaction.pfnCallback = pfnCallback;
    379a:	2600      	movs	r6, #0
        sIOMTransaction.pui32Data = pui32Data;
    379c:	9d02      	ldr	r5, [sp, #8]
        sIOMTransaction.ui32NumBytes = ui32NumBytes;
    379e:	9709      	str	r7, [sp, #36]	; 0x24
        if ( am_hal_queue_item_add(&g_psIOMQueue[ui32Module], &sIOMTransaction, 1) == false )
    37a0:	461a      	mov	r2, r3
        sIOMTransaction.ui32Options = ui32Options;
    37a2:	9f16      	ldr	r7, [sp, #88]	; 0x58
        sIOMTransaction.ui32Module = ui32Module;
    37a4:	9406      	str	r4, [sp, #24]
        if ( am_hal_queue_item_add(&g_psIOMQueue[ui32Module], &sIOMTransaction, 1) == false )
    37a6:	a905      	add	r1, sp, #20
        sIOMTransaction.pui32Data = pui32Data;
    37a8:	9508      	str	r5, [sp, #32]
        sIOMTransaction.ui32Options = ui32Options;
    37aa:	970a      	str	r7, [sp, #40]	; 0x28
        sIOMTransaction.ui32Operation = AM_HAL_IOM_QUEUE_SPI_READ;
    37ac:	9305      	str	r3, [sp, #20]
        sIOMTransaction.pfnCallback = pfnCallback;
    37ae:	960b      	str	r6, [sp, #44]	; 0x2c
        if ( am_hal_queue_item_add(&g_psIOMQueue[ui32Module], &sIOMTransaction, 1) == false )
    37b0:	f000 fd4c 	bl	424c <am_hal_queue_item_add>
    37b4:	b9d0      	cbnz	r0, 37ec <am_hal_iom_spi_read+0xd8>
            ui32Status = AM_HAL_IOM_ERR_RESOURCE_ERR;
    37b6:	2608      	movs	r6, #8
    am_hal_interrupt_master_set(ui32Critical);
    37b8:	9803      	ldr	r0, [sp, #12]
        g_iom_error_status[ui32Module] = ui32Status;
    37ba:	f808 6004 	strb.w	r6, [r8, r4]
    am_hal_interrupt_master_set(ui32Critical);
    37be:	f7fe f9ed 	bl	1b9c <am_hal_interrupt_master_set>
    37c2:	e7ad      	b.n	3720 <am_hal_iom_spi_read+0xc>
    while ( g_bIomBusy[ui32Module] );
    37c4:	5d1a      	ldrb	r2, [r3, r4]
    37c6:	f002 0eff 	and.w	lr, r2, #255	; 0xff
    37ca:	2a00      	cmp	r2, #0
    37cc:	d1fa      	bne.n	37c4 <am_hal_iom_spi_read+0xb0>
    37ce:	9816      	ldr	r0, [sp, #88]	; 0x58
    37d0:	9000      	str	r0, [sp, #0]
    37d2:	f8cd e004 	str.w	lr, [sp, #4]
    37d6:	463b      	mov	r3, r7
    37d8:	9a02      	ldr	r2, [sp, #8]
    ui32Status = g_iom_error_status[ui32Module] = AM_HAL_IOM_SUCCESS;
    37da:	f808 e004 	strb.w	lr, [r8, r4]
    37de:	4629      	mov	r1, r5
    37e0:	4620      	mov	r0, r4
    37e2:	f7ff fb27 	bl	2e34 <am_hal_iom_spi_read_nb.part.7>
    if (ui32Status != AM_HAL_IOM_SUCCESS)
    37e6:	4606      	mov	r6, r0
    37e8:	2800      	cmp	r0, #0
    37ea:	d1e5      	bne.n	37b8 <am_hal_iom_spi_read+0xa4>
    am_hal_interrupt_master_set(ui32Critical);
    37ec:	9803      	ldr	r0, [sp, #12]
    37ee:	f7fe f9d5 	bl	1b9c <am_hal_interrupt_master_set>
            am_hal_iom_queue_flush(ui32Module);
    37f2:	4907      	ldr	r1, [pc, #28]	; (3810 <am_hal_iom_spi_read+0xfc>)
    37f4:	4620      	mov	r0, r4
    37f6:	680b      	ldr	r3, [r1, #0]
    37f8:	4798      	blx	r3
            ui32Status = g_iom_error_status[ui32Module];
    37fa:	f818 6004 	ldrb.w	r6, [r8, r4]
    37fe:	e78f      	b.n	3720 <am_hal_iom_spi_read+0xc>
        ui32Status = am_hal_iom_spi_read_nq(ui32Module, ui32ChipSelect, pui32Data,
    3800:	9c16      	ldr	r4, [sp, #88]	; 0x58
    3802:	9400      	str	r4, [sp, #0]
    3804:	f7ff fdb0 	bl	3368 <am_hal_iom_spi_read_nq>
    3808:	4606      	mov	r6, r0
    380a:	e789      	b.n	3720 <am_hal_iom_spi_read+0xc>
    380c:	10000854 	.word	0x10000854
    3810:	10000848 	.word	0x10000848
    3814:	1000085c 	.word	0x1000085c
    3818:	10000b00 	.word	0x10000b00

0000381c <am_hal_iom_spi_fullduplex_nq>:
{
    381c:	e92d 4ff0 	stmdb	sp!, {r4, r5, r6, r7, r8, r9, sl, fp, lr}
    if ( ui32Module >= AM_REG_IOMSTR_NUM_MODULES )
    3820:	2805      	cmp	r0, #5
{
    3822:	b087      	sub	sp, #28
    if ( ui32Module >= AM_REG_IOMSTR_NUM_MODULES )
    3824:	d904      	bls.n	3830 <am_hal_iom_spi_fullduplex_nq+0x14>
        return AM_HAL_IOM_ERR_INVALID_MODULE;
    3826:	2602      	movs	r6, #2
}
    3828:	4630      	mov	r0, r6
    382a:	b007      	add	sp, #28
    382c:	e8bd 8ff0 	ldmia.w	sp!, {r4, r5, r6, r7, r8, r9, sl, fp, pc}
    3830:	460f      	mov	r7, r1
    3832:	4911      	ldr	r1, [pc, #68]	; (3878 <am_hal_iom_spi_fullduplex_nq+0x5c>)
    3834:	4604      	mov	r4, r0
    3836:	4616      	mov	r6, r2
    3838:	4698      	mov	r8, r3
    while ( g_bIomBusy[ui32Module] );
    383a:	5d0b      	ldrb	r3, [r1, r4]
    383c:	f003 02ff 	and.w	r2, r3, #255	; 0xff
    3840:	2b00      	cmp	r3, #0
    3842:	d1fa      	bne.n	383a <am_hal_iom_spi_fullduplex_nq+0x1e>
    if (ui32NumBytes == 0)
    3844:	9810      	ldr	r0, [sp, #64]	; 0x40
    ui32Status = g_iom_error_status[ui32Module] = AM_HAL_IOM_SUCCESS;
    3846:	f8df 9038 	ldr.w	r9, [pc, #56]	; 3880 <am_hal_iom_spi_fullduplex_nq+0x64>
    if (ui32NumBytes == 0)
    384a:	1e45      	subs	r5, r0, #1
    384c:	f640 71fe 	movw	r1, #4094	; 0xffe
    3850:	428d      	cmp	r5, r1
    ui32Status = g_iom_error_status[ui32Module] = AM_HAL_IOM_SUCCESS;
    3852:	f809 2004 	strb.w	r2, [r9, r4]
    if (ui32NumBytes == 0)
    3856:	d906      	bls.n	3866 <am_hal_iom_spi_fullduplex_nq+0x4a>
        g_iom_error_status[ui32Module] = ui32Status = AM_HAL_IOM_ERR_INVALID_PARAM;
    3858:	2603      	movs	r6, #3
}
    385a:	4630      	mov	r0, r6
        g_iom_error_status[ui32Module] = ui32Status = AM_HAL_IOM_ERR_INVALID_PARAM;
    385c:	f809 6004 	strb.w	r6, [r9, r4]
}
    3860:	b007      	add	sp, #28
    3862:	e8bd 8ff0 	ldmia.w	sp!, {r4, r5, r6, r7, r8, r9, sl, fp, pc}
    if ( (AM_REG(MCUCTRL, CHIPREV) & 0xFF) ==
    3866:	4b05      	ldr	r3, [pc, #20]	; (387c <am_hal_iom_spi_fullduplex_nq+0x60>)
    3868:	6818      	ldr	r0, [r3, #0]
    386a:	b2c5      	uxtb	r5, r0
    386c:	2d22      	cmp	r5, #34	; 0x22
    386e:	d009      	beq.n	3884 <am_hal_iom_spi_fullduplex_nq+0x68>
        g_iom_error_status[ui32Module] = ui32Status = AM_HAL_IOM_ERR_INVALID_OPER;
    3870:	2605      	movs	r6, #5
    3872:	f809 6004 	strb.w	r6, [r9, r4]
        return ui32Status;
    3876:	e7d7      	b.n	3828 <am_hal_iom_spi_fullduplex_nq+0xc>
    3878:	10000854 	.word	0x10000854
    387c:	4002000c 	.word	0x4002000c
    3880:	1000085c 	.word	0x1000085c
    AM_REGn(IOMSTR, ui32Module, CFG) |= AM_REG_IOMSTR_CFG_FULLDUP_FULLDUP;
    3884:	f504 21a0 	add.w	r1, r4, #327680	; 0x50000
    3888:	3104      	adds	r1, #4
    388a:	030d      	lsls	r5, r1, #12
    AM_REGn(IOMSTR, ui32Module, INTCLR) = AM_HAL_IOM_INT_ALL;
    388c:	f240 70ff 	movw	r0, #2047	; 0x7ff
    AM_REGn(IOMSTR, ui32Module, CFG) |= AM_REG_IOMSTR_CFG_FULLDUP_FULLDUP;
    3890:	f8d5 311c 	ldr.w	r3, [r5, #284]	; 0x11c
    3894:	f043 0108 	orr.w	r1, r3, #8
    3898:	f8c5 111c 	str.w	r1, [r5, #284]	; 0x11c
    ui32MaxFifoSize = ((0 == AM_BFRn(IOMSTR, ui32Module, CFG, FULLDUP)) ?
    389c:	f8d5 311c 	ldr.w	r3, [r5, #284]	; 0x11c
    ui32IntConfig = AM_REGn(IOMSTR, ui32Module, INTEN);
    38a0:	f8d5 3200 	ldr.w	r3, [r5, #512]	; 0x200
    AM_REGn(IOMSTR, ui32Module, INTEN) = 0;
    38a4:	f8c5 2200 	str.w	r2, [r5, #512]	; 0x200
    AM_REGn(IOMSTR, ui32Module, INTCLR) = AM_HAL_IOM_INT_ALL;
    38a8:	f8c5 0208 	str.w	r0, [r5, #520]	; 0x208
    ui32MaxFifoSize = ((0 == AM_BFRn(IOMSTR, ui32Module, CFG, FULLDUP)) ? AM_HAL_IOM_MAX_FIFO_SIZE : AM_HAL_IOM_MAX_FIFO_SIZE / 2);
    38ac:	f8d5 011c 	ldr.w	r0, [r5, #284]	; 0x11c
    ui32IntConfig = AM_REGn(IOMSTR, ui32Module, INTEN);
    38b0:	9302      	str	r3, [sp, #8]
    ui32MaxFifoSize = ((0 == AM_BFRn(IOMSTR, ui32Module, CFG, FULLDUP)) ? AM_HAL_IOM_MAX_FIFO_SIZE : AM_HAL_IOM_MAX_FIFO_SIZE / 2);
    38b2:	f010 0f08 	tst.w	r0, #8
    ui32WriteSize = ui32NumBytes > 64 ? 64 : ui32NumBytes;
    38b6:	9b10      	ldr	r3, [sp, #64]	; 0x40
    return (ui32MaxFifoSize - AM_BFRn(IOMSTR, ui32Module, FIFOPTR, FIFOSIZ)) & (~0x3);
    38b8:	f8d5 2100 	ldr.w	r2, [r5, #256]	; 0x100
    ui32MaxFifoSize = ((0 == AM_BFRn(IOMSTR, ui32Module, CFG, FULLDUP)) ? AM_HAL_IOM_MAX_FIFO_SIZE : AM_HAL_IOM_MAX_FIFO_SIZE / 2);
    38bc:	bf14      	ite	ne
    38be:	2040      	movne	r0, #64	; 0x40
    38c0:	2080      	moveq	r0, #128	; 0x80
    return (ui32MaxFifoSize - AM_BFRn(IOMSTR, ui32Module, FIFOPTR, FIFOSIZ)) & (~0x3);
    38c2:	1a81      	subs	r1, r0, r2
    ui32WriteSize = ui32NumBytes > 64 ? 64 : ui32NumBytes;
    38c4:	2b40      	cmp	r3, #64	; 0x40
    38c6:	bf28      	it	cs
    38c8:	2340      	movcs	r3, #64	; 0x40
    am_hal_debug_assert_msg((am_hal_iom_fifo_empty_slots(ui32Module) >= ui32NumBytes),
    38ca:	f001 0cfc 	and.w	ip, r1, #252	; 0xfc
    AM_REGn(IOMSTR, ui32Module, CFG) |= AM_REG_IOMSTR_CFG_FULLDUP_FULLDUP;
    38ce:	f505 708e 	add.w	r0, r5, #284	; 0x11c
    am_hal_debug_assert_msg((am_hal_iom_fifo_empty_slots(ui32Module) >= ui32NumBytes),
    38d2:	4563      	cmp	r3, ip
    ui32WriteSize = ui32NumBytes > 64 ? 64 : ui32NumBytes;
    38d4:	469b      	mov	fp, r3
    AM_REGn(IOMSTR, ui32Module, CFG) |= AM_REG_IOMSTR_CFG_FULLDUP_FULLDUP;
    38d6:	9001      	str	r0, [sp, #4]
    return (ui32MaxFifoSize - AM_BFRn(IOMSTR, ui32Module, FIFOPTR, FIFOSIZ)) & (~0x3);
    38d8:	f505 7a80 	add.w	sl, r5, #256	; 0x100
    am_hal_debug_assert_msg((am_hal_iom_fifo_empty_slots(ui32Module) >= ui32NumBytes),
    38dc:	d905      	bls.n	38ea <am_hal_iom_spi_fullduplex_nq+0xce>
    38de:	4ab6      	ldr	r2, [pc, #728]	; (3bb8 <am_hal_iom_spi_fullduplex_nq+0x39c>)
    38e0:	48b6      	ldr	r0, [pc, #728]	; (3bbc <am_hal_iom_spi_fullduplex_nq+0x3a0>)
    38e2:	f640 7145 	movw	r1, #3909	; 0xf45
    38e6:	f7fe f823 	bl	1930 <am_hal_debug_error>
        AM_REGn(IOMSTR, ui32Module, FIFO) = pui32Data[ui32Index];
    38ea:	4633      	mov	r3, r6
    38ec:	43f2      	mvns	r2, r6
    38ee:	f853 1b04 	ldr.w	r1, [r3], #4
    38f2:	6029      	str	r1, [r5, #0]
    38f4:	4432      	add	r2, r6
    for ( ui32Index = 0; (4 * ui32Index) < ui32NumBytes; ui32Index++ )
    38f6:	1b98      	subs	r0, r3, r6
    38f8:	445a      	add	r2, fp
    38fa:	4583      	cmp	fp, r0
    38fc:	f3c2 0282 	ubfx	r2, r2, #2, #3
    3900:	d941      	bls.n	3986 <am_hal_iom_spi_fullduplex_nq+0x16a>
    3902:	b31a      	cbz	r2, 394c <am_hal_iom_spi_fullduplex_nq+0x130>
    3904:	2a01      	cmp	r2, #1
    3906:	d01b      	beq.n	3940 <am_hal_iom_spi_fullduplex_nq+0x124>
    3908:	2a02      	cmp	r2, #2
    390a:	d016      	beq.n	393a <am_hal_iom_spi_fullduplex_nq+0x11e>
    390c:	2a03      	cmp	r2, #3
    390e:	d011      	beq.n	3934 <am_hal_iom_spi_fullduplex_nq+0x118>
    3910:	2a04      	cmp	r2, #4
    3912:	d00c      	beq.n	392e <am_hal_iom_spi_fullduplex_nq+0x112>
    3914:	2a05      	cmp	r2, #5
    3916:	d007      	beq.n	3928 <am_hal_iom_spi_fullduplex_nq+0x10c>
    3918:	2a06      	cmp	r2, #6
        AM_REGn(IOMSTR, ui32Module, FIFO) = pui32Data[ui32Index];
    391a:	bf1c      	itt	ne
    391c:	f853 2b04 	ldrne.w	r2, [r3], #4
    3920:	602a      	strne	r2, [r5, #0]
    3922:	f853 1b04 	ldr.w	r1, [r3], #4
    3926:	6029      	str	r1, [r5, #0]
    3928:	f853 0b04 	ldr.w	r0, [r3], #4
    392c:	6028      	str	r0, [r5, #0]
    392e:	f853 2b04 	ldr.w	r2, [r3], #4
    3932:	602a      	str	r2, [r5, #0]
    3934:	f853 1b04 	ldr.w	r1, [r3], #4
    3938:	6029      	str	r1, [r5, #0]
    393a:	f853 0b04 	ldr.w	r0, [r3], #4
    393e:	6028      	str	r0, [r5, #0]
    3940:	f853 2b04 	ldr.w	r2, [r3], #4
    3944:	602a      	str	r2, [r5, #0]
    for ( ui32Index = 0; (4 * ui32Index) < ui32NumBytes; ui32Index++ )
    3946:	1b99      	subs	r1, r3, r6
    3948:	458b      	cmp	fp, r1
    394a:	d91c      	bls.n	3986 <am_hal_iom_spi_fullduplex_nq+0x16a>
        AM_REGn(IOMSTR, ui32Module, FIFO) = pui32Data[ui32Index];
    394c:	469e      	mov	lr, r3
    394e:	3320      	adds	r3, #32
    3950:	f85e 0b04 	ldr.w	r0, [lr], #4
    3954:	6028      	str	r0, [r5, #0]
    3956:	f853 2c1c 	ldr.w	r2, [r3, #-28]
    395a:	602a      	str	r2, [r5, #0]
    395c:	f8de 1004 	ldr.w	r1, [lr, #4]
    3960:	6029      	str	r1, [r5, #0]
    3962:	f853 0c14 	ldr.w	r0, [r3, #-20]
    3966:	6028      	str	r0, [r5, #0]
    3968:	f853 2c10 	ldr.w	r2, [r3, #-16]
    396c:	602a      	str	r2, [r5, #0]
    396e:	f853 1c0c 	ldr.w	r1, [r3, #-12]
    3972:	6029      	str	r1, [r5, #0]
    3974:	f853 0c08 	ldr.w	r0, [r3, #-8]
    3978:	6028      	str	r0, [r5, #0]
    397a:	f853 2c04 	ldr.w	r2, [r3, #-4]
    397e:	602a      	str	r2, [r5, #0]
    for ( ui32Index = 0; (4 * ui32Index) < ui32NumBytes; ui32Index++ )
    3980:	1b99      	subs	r1, r3, r6
    3982:	458b      	cmp	fp, r1
    3984:	d8e2      	bhi.n	394c <am_hal_iom_spi_fullduplex_nq+0x130>
    ui32Command |= ui32Options & 0x5C00FF00;
    3986:	9b11      	ldr	r3, [sp, #68]	; 0x44
    ui32Command |= (ui32NumBytes & 0xFF);
    3988:	f89d 1040 	ldrb.w	r1, [sp, #64]	; 0x40
    ui32Command |= ui32Options & 0x5C00FF00;
    398c:	f023 4023 	bic.w	r0, r3, #2734686208	; 0xa3000000
    ui32Command |= ((ui32ChipSelect << 16) & 0x00070000);
    3990:	043f      	lsls	r7, r7, #16
    ui32Command |= ui32Options & 0x5C00FF00;
    3992:	f000 22ff 	and.w	r2, r0, #4278255360	; 0xff00ff00
    ui32Command |= ((ui32NumBytes & 0xF00) << 15);
    3996:	9b10      	ldr	r3, [sp, #64]	; 0x40
    ui32Command |= ((ui32ChipSelect << 16) & 0x00070000);
    3998:	f407 27e0 	and.w	r7, r7, #458752	; 0x70000
    ui32Command |= ui32Options & 0x5C00FF00;
    399c:	4317      	orrs	r7, r2
    ui32Command |= ((ui32NumBytes & 0xF00) << 15);
    399e:	03d8      	lsls	r0, r3, #15
    ui32Command |= ui32Options & 0x5C00FF00;
    39a0:	430f      	orrs	r7, r1
    while (ui32DataWritten < ui32NumBytes)
    39a2:	9910      	ldr	r1, [sp, #64]	; 0x40
    ui32Command |= ((ui32NumBytes & 0xF00) << 15);
    39a4:	f000 62f0 	and.w	r2, r0, #125829120	; 0x7800000
    ui32Command |= ui32Options & 0x5C00FF00;
    39a8:	4317      	orrs	r7, r2
    pui32TxData += ui32WriteSize >> 2;
    39aa:	f02b 0303 	bic.w	r3, fp, #3
    while (ui32DataWritten < ui32NumBytes)
    39ae:	4559      	cmp	r1, fp
    AM_REGn(IOMSTR, ui32Module, CMD) = ui32Command;
    39b0:	f8c5 7110 	str.w	r7, [r5, #272]	; 0x110
    pui32TxData += ui32WriteSize >> 2;
    39b4:	441e      	add	r6, r3
    while (ui32DataWritten < ui32NumBytes)
    39b6:	f04f 0700 	mov.w	r7, #0
    39ba:	bf88      	it	hi
    39bc:	9403      	strhi	r4, [sp, #12]
    39be:	f240 8091 	bls.w	3ae4 <am_hal_iom_spi_fullduplex_nq+0x2c8>
    return AM_BFRn(IOMSTR, ui32Module, FIFOPTR, FIFOSIZ);
    39c2:	f8da 4000 	ldr.w	r4, [sl]
        uint32_t ui32DataSent = ui32DataWritten - am_hal_iom_fifo_full_slots(ui32Module);
    39c6:	b2e0      	uxtb	r0, r4
    39c8:	ebab 0200 	sub.w	r2, fp, r0
        ui32ReadSize = (ui32DataSent - ui32DataRead) & (~0x3);
    39cc:	1bd3      	subs	r3, r2, r7
    39ce:	f023 0103 	bic.w	r1, r3, #3
        if (ui32ReadSize <= 4)
    39d2:	2904      	cmp	r1, #4
    39d4:	f200 8115 	bhi.w	3c02 <am_hal_iom_spi_fullduplex_nq+0x3e6>
    39d8:	f04f 0e00 	mov.w	lr, #0
            ui32ReadSize = 0;
    39dc:	4674      	mov	r4, lr
        ui32DataRead += ui32ReadSize;
    39de:	4427      	add	r7, r4
    return AM_BFRn(IOMSTR, ui32Module, FIFOPTR, FIFOSIZ);
    39e0:	f8da 2000 	ldr.w	r2, [sl]
        uint32_t ui32WritesRemaining = ui32NumBytes - ui32DataWritten;
    39e4:	9c10      	ldr	r4, [sp, #64]	; 0x40
        uint32_t ui32ReadWriteDelta = ui32DataWritten - ui32DataRead;
    39e6:	ebab 0107 	sub.w	r1, fp, r7
        uint32_t ui32FifoSpace = 64 - am_hal_iom_fifo_full_slots(ui32Module);
    39ea:	b2d3      	uxtb	r3, r2
        if (ui32ReadWriteDelta > 64)
    39ec:	2940      	cmp	r1, #64	; 0x40
        pui32RxData += ui32ReadSize >> 2;
    39ee:	44f0      	add	r8, lr
        uint32_t ui32FifoSpace = 64 - am_hal_iom_fifo_full_slots(ui32Module);
    39f0:	f1c3 0040 	rsb	r0, r3, #64	; 0x40
        uint32_t ui32WritesRemaining = ui32NumBytes - ui32DataWritten;
    39f4:	eba4 040b 	sub.w	r4, r4, fp
        if (ui32ReadWriteDelta > 64)
    39f8:	f200 80fb 	bhi.w	3bf2 <am_hal_iom_spi_fullduplex_nq+0x3d6>
        uint32_t ui32ReadFifoSpace = 64 - ui32ReadWriteDelta;
    39fc:	f1c1 0240 	rsb	r2, r1, #64	; 0x40
        if ((ui32WritesRemaining <= ui32ReadFifoSpace) &&
    3a00:	4294      	cmp	r4, r2
    3a02:	d801      	bhi.n	3a08 <am_hal_iom_spi_fullduplex_nq+0x1ec>
    3a04:	4284      	cmp	r4, r0
    3a06:	d905      	bls.n	3a14 <am_hal_iom_spi_fullduplex_nq+0x1f8>
        else if (ui32FifoSpace <= ui32ReadFifoSpace)
    3a08:	4290      	cmp	r0, r2
            ui32WriteSize = ui32FifoSpace & (~0x3);
    3a0a:	bf94      	ite	ls
    3a0c:	f020 0403 	bicls.w	r4, r0, #3
            ui32WriteSize = ui32ReadFifoSpace & (~0x3);
    3a10:	f022 0403 	bichi.w	r4, r2, #3
    ui32MaxFifoSize = ((0 == AM_BFRn(IOMSTR, ui32Module, CFG, FULLDUP)) ? AM_HAL_IOM_MAX_FIFO_SIZE : AM_HAL_IOM_MAX_FIFO_SIZE / 2);
    3a14:	9b01      	ldr	r3, [sp, #4]
    3a16:	6818      	ldr	r0, [r3, #0]
    return (ui32MaxFifoSize - AM_BFRn(IOMSTR, ui32Module, FIFOPTR, FIFOSIZ)) & (~0x3);
    3a18:	f8da 1000 	ldr.w	r1, [sl]
    ui32MaxFifoSize = ((0 == AM_BFRn(IOMSTR, ui32Module, CFG, FULLDUP)) ? AM_HAL_IOM_MAX_FIFO_SIZE : AM_HAL_IOM_MAX_FIFO_SIZE / 2);
    3a1c:	f010 0f08 	tst.w	r0, #8
    3a20:	bf14      	ite	ne
    3a22:	2040      	movne	r0, #64	; 0x40
    3a24:	2080      	moveq	r0, #128	; 0x80
    return (ui32MaxFifoSize - AM_BFRn(IOMSTR, ui32Module, FIFOPTR, FIFOSIZ)) & (~0x3);
    3a26:	1a42      	subs	r2, r0, r1
    am_hal_debug_assert_msg((am_hal_iom_fifo_empty_slots(ui32Module) >= ui32NumBytes),
    3a28:	f002 03fc 	and.w	r3, r2, #252	; 0xfc
    3a2c:	429c      	cmp	r4, r3
    3a2e:	f200 80e1 	bhi.w	3bf4 <am_hal_iom_spi_fullduplex_nq+0x3d8>
    for ( ui32Index = 0; (4 * ui32Index) < ui32NumBytes; ui32Index++ )
    3a32:	2c00      	cmp	r4, #0
    3a34:	d04d      	beq.n	3ad2 <am_hal_iom_spi_fullduplex_nq+0x2b6>
        AM_REGn(IOMSTR, ui32Module, FIFO) = pui32Data[ui32Index];
    3a36:	4632      	mov	r2, r6
    3a38:	43f1      	mvns	r1, r6
    3a3a:	f852 0b04 	ldr.w	r0, [r2], #4
    3a3e:	6028      	str	r0, [r5, #0]
    3a40:	4431      	add	r1, r6
    for ( ui32Index = 0; (4 * ui32Index) < ui32NumBytes; ui32Index++ )
    3a42:	1b93      	subs	r3, r2, r6
    3a44:	4421      	add	r1, r4
    3a46:	429c      	cmp	r4, r3
    3a48:	f3c1 0182 	ubfx	r1, r1, #2, #3
    3a4c:	d941      	bls.n	3ad2 <am_hal_iom_spi_fullduplex_nq+0x2b6>
    3a4e:	b319      	cbz	r1, 3a98 <am_hal_iom_spi_fullduplex_nq+0x27c>
    3a50:	2901      	cmp	r1, #1
    3a52:	d01b      	beq.n	3a8c <am_hal_iom_spi_fullduplex_nq+0x270>
    3a54:	2902      	cmp	r1, #2
    3a56:	d016      	beq.n	3a86 <am_hal_iom_spi_fullduplex_nq+0x26a>
    3a58:	2903      	cmp	r1, #3
    3a5a:	d011      	beq.n	3a80 <am_hal_iom_spi_fullduplex_nq+0x264>
    3a5c:	2904      	cmp	r1, #4
    3a5e:	d00c      	beq.n	3a7a <am_hal_iom_spi_fullduplex_nq+0x25e>
    3a60:	2905      	cmp	r1, #5
    3a62:	d007      	beq.n	3a74 <am_hal_iom_spi_fullduplex_nq+0x258>
    3a64:	2906      	cmp	r1, #6
        AM_REGn(IOMSTR, ui32Module, FIFO) = pui32Data[ui32Index];
    3a66:	bf1c      	itt	ne
    3a68:	f852 1b04 	ldrne.w	r1, [r2], #4
    3a6c:	6029      	strne	r1, [r5, #0]
    3a6e:	f852 0b04 	ldr.w	r0, [r2], #4
    3a72:	6028      	str	r0, [r5, #0]
    3a74:	f852 3b04 	ldr.w	r3, [r2], #4
    3a78:	602b      	str	r3, [r5, #0]
    3a7a:	f852 1b04 	ldr.w	r1, [r2], #4
    3a7e:	6029      	str	r1, [r5, #0]
    3a80:	f852 0b04 	ldr.w	r0, [r2], #4
    3a84:	6028      	str	r0, [r5, #0]
    3a86:	f852 3b04 	ldr.w	r3, [r2], #4
    3a8a:	602b      	str	r3, [r5, #0]
    3a8c:	f852 1b04 	ldr.w	r1, [r2], #4
    3a90:	6029      	str	r1, [r5, #0]
    for ( ui32Index = 0; (4 * ui32Index) < ui32NumBytes; ui32Index++ )
    3a92:	1b90      	subs	r0, r2, r6
    3a94:	4284      	cmp	r4, r0
    3a96:	d91c      	bls.n	3ad2 <am_hal_iom_spi_fullduplex_nq+0x2b6>
        AM_REGn(IOMSTR, ui32Module, FIFO) = pui32Data[ui32Index];
    3a98:	4694      	mov	ip, r2
    3a9a:	3220      	adds	r2, #32
    3a9c:	f85c 3b04 	ldr.w	r3, [ip], #4
    3aa0:	602b      	str	r3, [r5, #0]
    3aa2:	f852 1c1c 	ldr.w	r1, [r2, #-28]
    3aa6:	6029      	str	r1, [r5, #0]
    3aa8:	f8dc 0004 	ldr.w	r0, [ip, #4]
    3aac:	6028      	str	r0, [r5, #0]
    3aae:	f852 3c14 	ldr.w	r3, [r2, #-20]
    3ab2:	602b      	str	r3, [r5, #0]
    3ab4:	f852 1c10 	ldr.w	r1, [r2, #-16]
    3ab8:	6029      	str	r1, [r5, #0]
    3aba:	f852 0c0c 	ldr.w	r0, [r2, #-12]
    3abe:	6028      	str	r0, [r5, #0]
    3ac0:	f852 3c08 	ldr.w	r3, [r2, #-8]
    3ac4:	602b      	str	r3, [r5, #0]
    3ac6:	f852 1c04 	ldr.w	r1, [r2, #-4]
    3aca:	6029      	str	r1, [r5, #0]
    for ( ui32Index = 0; (4 * ui32Index) < ui32NumBytes; ui32Index++ )
    3acc:	1b90      	subs	r0, r2, r6
    3ace:	4284      	cmp	r4, r0
    3ad0:	d8e2      	bhi.n	3a98 <am_hal_iom_spi_fullduplex_nq+0x27c>
    while (ui32DataWritten < ui32NumBytes)
    3ad2:	9a10      	ldr	r2, [sp, #64]	; 0x40
        ui32DataWritten += ui32WriteSize;
    3ad4:	44a3      	add	fp, r4
        pui32TxData += ui32WriteSize >> 2;
    3ad6:	f024 0e03 	bic.w	lr, r4, #3
    while (ui32DataWritten < ui32NumBytes)
    3ada:	455a      	cmp	r2, fp
        pui32TxData += ui32WriteSize >> 2;
    3adc:	4476      	add	r6, lr
    while (ui32DataWritten < ui32NumBytes)
    3ade:	f63f af70 	bhi.w	39c2 <am_hal_iom_spi_fullduplex_nq+0x1a6>
    3ae2:	9c03      	ldr	r4, [sp, #12]
    waitStatus = am_hal_flash_delay_status_change(ui32StatusTimeout[ui32Module],
    3ae4:	4936      	ldr	r1, [pc, #216]	; (3bc0 <am_hal_iom_spi_fullduplex_nq+0x3a4>)
    3ae6:	2301      	movs	r3, #1
    3ae8:	f851 0024 	ldr.w	r0, [r1, r4, lsl #2]
    3aec:	461a      	mov	r2, r3
    3aee:	f505 7101 	add.w	r1, r5, #516	; 0x204
    3af2:	f7fd ff23 	bl	193c <am_hal_flash_delay_status_change>
    if (waitStatus != 1)
    3af6:	2801      	cmp	r0, #1
    3af8:	f000 80ee 	beq.w	3cd8 <am_hal_iom_spi_fullduplex_nq+0x4bc>
        g_iom_error_status[ui32Module] = ui32Status = AM_HAL_IOM_ERR_TIMEOUT;
    3afc:	2601      	movs	r6, #1
    3afe:	f809 6004 	strb.w	r6, [r9, r4]
    return AM_BFRn(IOMSTR, ui32Module, FIFOPTR, FIFOSIZ);
    3b02:	f8da 4000 	ldr.w	r4, [sl]
    while (am_hal_iom_fifo_full_slots(ui32Module));
    3b06:	f014 0fff 	tst.w	r4, #255	; 0xff
    3b0a:	d1fa      	bne.n	3b02 <am_hal_iom_spi_fullduplex_nq+0x2e6>
    if ( AM_REG_IOMSTR_CFG_FULLDUP_NORMAL == (AM_REGn(IOMSTR, ui32Module, CFG) & AM_REG_IOMSTR_CFG_FULLDUP_M) )
    3b0c:	f8d5 011c 	ldr.w	r0, [r5, #284]	; 0x11c
    ui32ReadSize = ui32NumBytes - ui32DataRead;
    3b10:	9a10      	ldr	r2, [sp, #64]	; 0x40
    if ( AM_REG_IOMSTR_CFG_FULLDUP_NORMAL == (AM_REGn(IOMSTR, ui32Module, CFG) & AM_REG_IOMSTR_CFG_FULLDUP_M) )
    3b12:	0703      	lsls	r3, r0, #28
    ui32ReadSize = ui32NumBytes - ui32DataRead;
    3b14:	eba2 0707 	sub.w	r7, r2, r7
    if ( AM_REG_IOMSTR_CFG_FULLDUP_NORMAL == (AM_REGn(IOMSTR, ui32Module, CFG) & AM_REG_IOMSTR_CFG_FULLDUP_M) )
    3b18:	f140 80d0 	bpl.w	3cbc <am_hal_iom_spi_fullduplex_nq+0x4a0>
    for ( i = 0; i < ui32NumWords; i++ )
    3b1c:	ea5f 0c97 	movs.w	ip, r7, lsr #2
    3b20:	f007 0203 	and.w	r2, r7, #3
    3b24:	d04e      	beq.n	3bc4 <am_hal_iom_spi_fullduplex_nq+0x3a8>
        pui32Data[i] = AM_REGn(IOMSTR, ui32Module, FIFO);
    3b26:	4643      	mov	r3, r8
    3b28:	682c      	ldr	r4, [r5, #0]
    3b2a:	f843 4b04 	str.w	r4, [r3], #4
    3b2e:	eb08 0b8c 	add.w	fp, r8, ip, lsl #2
    3b32:	ebab 0a08 	sub.w	sl, fp, r8
    3b36:	f1aa 0004 	sub.w	r0, sl, #4
    for ( i = 0; i < ui32NumWords; i++ )
    3b3a:	459b      	cmp	fp, r3
    3b3c:	f3c0 0182 	ubfx	r1, r0, #2, #3
    3b40:	d040      	beq.n	3bc4 <am_hal_iom_spi_fullduplex_nq+0x3a8>
    3b42:	b311      	cbz	r1, 3b8a <am_hal_iom_spi_fullduplex_nq+0x36e>
    3b44:	2901      	cmp	r1, #1
    3b46:	d01b      	beq.n	3b80 <am_hal_iom_spi_fullduplex_nq+0x364>
    3b48:	2902      	cmp	r1, #2
    3b4a:	d016      	beq.n	3b7a <am_hal_iom_spi_fullduplex_nq+0x35e>
    3b4c:	2903      	cmp	r1, #3
    3b4e:	d011      	beq.n	3b74 <am_hal_iom_spi_fullduplex_nq+0x358>
    3b50:	2904      	cmp	r1, #4
    3b52:	d00c      	beq.n	3b6e <am_hal_iom_spi_fullduplex_nq+0x352>
    3b54:	2905      	cmp	r1, #5
    3b56:	d007      	beq.n	3b68 <am_hal_iom_spi_fullduplex_nq+0x34c>
    3b58:	2906      	cmp	r1, #6
        pui32Data[i] = AM_REGn(IOMSTR, ui32Module, FIFO);
    3b5a:	bf1c      	itt	ne
    3b5c:	6829      	ldrne	r1, [r5, #0]
    3b5e:	f843 1b04 	strne.w	r1, [r3], #4
    3b62:	682c      	ldr	r4, [r5, #0]
    3b64:	f843 4b04 	str.w	r4, [r3], #4
    3b68:	6828      	ldr	r0, [r5, #0]
    3b6a:	f843 0b04 	str.w	r0, [r3], #4
    3b6e:	6829      	ldr	r1, [r5, #0]
    3b70:	f843 1b04 	str.w	r1, [r3], #4
    3b74:	682c      	ldr	r4, [r5, #0]
    3b76:	f843 4b04 	str.w	r4, [r3], #4
    3b7a:	6828      	ldr	r0, [r5, #0]
    3b7c:	f843 0b04 	str.w	r0, [r3], #4
    3b80:	6829      	ldr	r1, [r5, #0]
    3b82:	f843 1b04 	str.w	r1, [r3], #4
    for ( i = 0; i < ui32NumWords; i++ )
    3b86:	459b      	cmp	fp, r3
    3b88:	d01c      	beq.n	3bc4 <am_hal_iom_spi_fullduplex_nq+0x3a8>
        pui32Data[i] = AM_REGn(IOMSTR, ui32Module, FIFO);
    3b8a:	469e      	mov	lr, r3
    3b8c:	682f      	ldr	r7, [r5, #0]
    3b8e:	f84e 7b04 	str.w	r7, [lr], #4
    3b92:	682c      	ldr	r4, [r5, #0]
    3b94:	605c      	str	r4, [r3, #4]
    3b96:	6828      	ldr	r0, [r5, #0]
    3b98:	f8ce 0004 	str.w	r0, [lr, #4]
    3b9c:	6829      	ldr	r1, [r5, #0]
    3b9e:	60d9      	str	r1, [r3, #12]
    3ba0:	682f      	ldr	r7, [r5, #0]
    3ba2:	611f      	str	r7, [r3, #16]
    3ba4:	682c      	ldr	r4, [r5, #0]
    3ba6:	615c      	str	r4, [r3, #20]
    3ba8:	6828      	ldr	r0, [r5, #0]
    3baa:	6198      	str	r0, [r3, #24]
    3bac:	6829      	ldr	r1, [r5, #0]
    3bae:	61d9      	str	r1, [r3, #28]
    3bb0:	3320      	adds	r3, #32
    for ( i = 0; i < ui32NumWords; i++ )
    3bb2:	459b      	cmp	fp, r3
    3bb4:	d1e9      	bne.n	3b8a <am_hal_iom_spi_fullduplex_nq+0x36e>
    3bb6:	e005      	b.n	3bc4 <am_hal_iom_spi_fullduplex_nq+0x3a8>
    3bb8:	00004b98 	.word	0x00004b98
    3bbc:	00004bcc 	.word	0x00004bcc
    3bc0:	10000a70 	.word	0x10000a70
    if ( ui32Leftovers )
    3bc4:	b13a      	cbz	r2, 3bd6 <am_hal_iom_spi_fullduplex_nq+0x3ba>
        sTempBuffer.words[0] = AM_REGn(IOMSTR, ui32Module, FIFO);
    3bc6:	a906      	add	r1, sp, #24
    3bc8:	682b      	ldr	r3, [r5, #0]
    3bca:	f841 3d04 	str.w	r3, [r1, #-4]!
    3bce:	eb08 008c 	add.w	r0, r8, ip, lsl #2
    3bd2:	f000 ff99 	bl	4b08 <memcpy>
    AM_REGn(IOMSTR, ui32Module, INTCLR) = AM_HAL_IOM_INT_ALL;
    3bd6:	f240 72ff 	movw	r2, #2047	; 0x7ff
    AM_REGn(IOMSTR, ui32Module, INTEN) = ui32IntConfig;
    3bda:	9f02      	ldr	r7, [sp, #8]
    AM_REGn(IOMSTR, ui32Module, INTCLR) = AM_HAL_IOM_INT_ALL;
    3bdc:	f8c5 2208 	str.w	r2, [r5, #520]	; 0x208
    AM_REGn(IOMSTR, ui32Module, INTEN) = ui32IntConfig;
    3be0:	f8c5 7200 	str.w	r7, [r5, #512]	; 0x200
    AM_REGn(IOMSTR, ui32Module, CFG) &= ~AM_REG_IOMSTR_CFG_FULLDUP_FULLDUP;
    3be4:	f8d5 411c 	ldr.w	r4, [r5, #284]	; 0x11c
    3be8:	f024 0008 	bic.w	r0, r4, #8
    3bec:	f8c5 011c 	str.w	r0, [r5, #284]	; 0x11c
    3bf0:	e61a      	b.n	3828 <am_hal_iom_spi_fullduplex_nq+0xc>
    3bf2:	e7fe      	b.n	3bf2 <am_hal_iom_spi_fullduplex_nq+0x3d6>
    am_hal_debug_assert_msg((am_hal_iom_fifo_empty_slots(ui32Module) >= ui32NumBytes),
    3bf4:	4a42      	ldr	r2, [pc, #264]	; (3d00 <am_hal_iom_spi_fullduplex_nq+0x4e4>)
    3bf6:	4843      	ldr	r0, [pc, #268]	; (3d04 <am_hal_iom_spi_fullduplex_nq+0x4e8>)
    3bf8:	f640 7145 	movw	r1, #3909	; 0xf45
    3bfc:	f7fd fe98 	bl	1930 <am_hal_debug_error>
    3c00:	e719      	b.n	3a36 <am_hal_iom_spi_fullduplex_nq+0x21a>
    if ( AM_REG_IOMSTR_CFG_FULLDUP_NORMAL == (AM_REGn(IOMSTR, ui32Module, CFG) & AM_REG_IOMSTR_CFG_FULLDUP_M) )
    3c02:	9c01      	ldr	r4, [sp, #4]
    3c04:	6820      	ldr	r0, [r4, #0]
    3c06:	0702      	lsls	r2, r0, #28
            ui32ReadSize -= 4;
    3c08:	f1a1 0404 	sub.w	r4, r1, #4
    if ( AM_REG_IOMSTR_CFG_FULLDUP_NORMAL == (AM_REGn(IOMSTR, ui32Module, CFG) & AM_REG_IOMSTR_CFG_FULLDUP_M) )
    3c0c:	d54a      	bpl.n	3ca4 <am_hal_iom_spi_fullduplex_nq+0x488>
    for ( i = 0; i < ui32NumWords; i++ )
    3c0e:	08a1      	lsrs	r1, r4, #2
    3c10:	2c00      	cmp	r4, #0
    3c12:	d045      	beq.n	3ca0 <am_hal_iom_spi_fullduplex_nq+0x484>
        pui32Data[i] = AM_REGn(IOMSTR, ui32Module, FIFO);
    3c14:	4642      	mov	r2, r8
    3c16:	6828      	ldr	r0, [r5, #0]
    3c18:	f842 0b04 	str.w	r0, [r2], #4
    3c1c:	0089      	lsls	r1, r1, #2
    3c1e:	eb08 0e01 	add.w	lr, r8, r1
    3c22:	1f0b      	subs	r3, r1, #4
    for ( i = 0; i < ui32NumWords; i++ )
    3c24:	4596      	cmp	lr, r2
    3c26:	f3c3 0082 	ubfx	r0, r3, #2, #3
    3c2a:	d039      	beq.n	3ca0 <am_hal_iom_spi_fullduplex_nq+0x484>
    3c2c:	b310      	cbz	r0, 3c74 <am_hal_iom_spi_fullduplex_nq+0x458>
    3c2e:	2801      	cmp	r0, #1
    3c30:	d01b      	beq.n	3c6a <am_hal_iom_spi_fullduplex_nq+0x44e>
    3c32:	2802      	cmp	r0, #2
    3c34:	d016      	beq.n	3c64 <am_hal_iom_spi_fullduplex_nq+0x448>
    3c36:	2803      	cmp	r0, #3
    3c38:	d011      	beq.n	3c5e <am_hal_iom_spi_fullduplex_nq+0x442>
    3c3a:	2804      	cmp	r0, #4
    3c3c:	d00c      	beq.n	3c58 <am_hal_iom_spi_fullduplex_nq+0x43c>
    3c3e:	2805      	cmp	r0, #5
    3c40:	d007      	beq.n	3c52 <am_hal_iom_spi_fullduplex_nq+0x436>
    3c42:	2806      	cmp	r0, #6
        pui32Data[i] = AM_REGn(IOMSTR, ui32Module, FIFO);
    3c44:	bf1c      	itt	ne
    3c46:	6828      	ldrne	r0, [r5, #0]
    3c48:	f842 0b04 	strne.w	r0, [r2], #4
    3c4c:	682b      	ldr	r3, [r5, #0]
    3c4e:	f842 3b04 	str.w	r3, [r2], #4
    3c52:	6828      	ldr	r0, [r5, #0]
    3c54:	f842 0b04 	str.w	r0, [r2], #4
    3c58:	682b      	ldr	r3, [r5, #0]
    3c5a:	f842 3b04 	str.w	r3, [r2], #4
    3c5e:	6828      	ldr	r0, [r5, #0]
    3c60:	f842 0b04 	str.w	r0, [r2], #4
    3c64:	682b      	ldr	r3, [r5, #0]
    3c66:	f842 3b04 	str.w	r3, [r2], #4
    3c6a:	6828      	ldr	r0, [r5, #0]
    3c6c:	f842 0b04 	str.w	r0, [r2], #4
    for ( i = 0; i < ui32NumWords; i++ )
    3c70:	4596      	cmp	lr, r2
    3c72:	d015      	beq.n	3ca0 <am_hal_iom_spi_fullduplex_nq+0x484>
        pui32Data[i] = AM_REGn(IOMSTR, ui32Module, FIFO);
    3c74:	4694      	mov	ip, r2
    3c76:	682b      	ldr	r3, [r5, #0]
    3c78:	f84c 3b04 	str.w	r3, [ip], #4
    3c7c:	6828      	ldr	r0, [r5, #0]
    3c7e:	6050      	str	r0, [r2, #4]
    3c80:	682b      	ldr	r3, [r5, #0]
    3c82:	f8cc 3004 	str.w	r3, [ip, #4]
    3c86:	6828      	ldr	r0, [r5, #0]
    3c88:	60d0      	str	r0, [r2, #12]
    3c8a:	682b      	ldr	r3, [r5, #0]
    3c8c:	6113      	str	r3, [r2, #16]
    3c8e:	6828      	ldr	r0, [r5, #0]
    3c90:	6150      	str	r0, [r2, #20]
    3c92:	682b      	ldr	r3, [r5, #0]
    3c94:	6193      	str	r3, [r2, #24]
    3c96:	6828      	ldr	r0, [r5, #0]
    3c98:	61d0      	str	r0, [r2, #28]
    3c9a:	3220      	adds	r2, #32
    for ( i = 0; i < ui32NumWords; i++ )
    3c9c:	4596      	cmp	lr, r2
    3c9e:	d1e9      	bne.n	3c74 <am_hal_iom_spi_fullduplex_nq+0x458>
    3ca0:	468e      	mov	lr, r1
    3ca2:	e69c      	b.n	39de <am_hal_iom_spi_fullduplex_nq+0x1c2>
    return AM_BFRn(IOMSTR, ui32Module, FIFOPTR, FIFOSIZ);
    3ca4:	f8da 2000 	ldr.w	r2, [sl]
        am_hal_debug_assert_msg((am_hal_iom_fifo_full_slots(ui32Module) >= ui32NumBytes),
    3ca8:	b2d3      	uxtb	r3, r2
    3caa:	429c      	cmp	r4, r3
    3cac:	d9af      	bls.n	3c0e <am_hal_iom_spi_fullduplex_nq+0x3f2>
    3cae:	4a16      	ldr	r2, [pc, #88]	; (3d08 <am_hal_iom_spi_fullduplex_nq+0x4ec>)
    3cb0:	4814      	ldr	r0, [pc, #80]	; (3d04 <am_hal_iom_spi_fullduplex_nq+0x4e8>)
    3cb2:	f44f 6178 	mov.w	r1, #3968	; 0xf80
    3cb6:	f7fd fe3b 	bl	1930 <am_hal_debug_error>
    3cba:	e7a8      	b.n	3c0e <am_hal_iom_spi_fullduplex_nq+0x3f2>
    return AM_BFRn(IOMSTR, ui32Module, FIFOPTR, FIFOSIZ);
    3cbc:	f8d5 1100 	ldr.w	r1, [r5, #256]	; 0x100
        am_hal_debug_assert_msg((am_hal_iom_fifo_full_slots(ui32Module) >= ui32NumBytes),
    3cc0:	fa5f f981 	uxtb.w	r9, r1
    3cc4:	454f      	cmp	r7, r9
    3cc6:	f67f af29 	bls.w	3b1c <am_hal_iom_spi_fullduplex_nq+0x300>
    3cca:	4a0f      	ldr	r2, [pc, #60]	; (3d08 <am_hal_iom_spi_fullduplex_nq+0x4ec>)
    3ccc:	480d      	ldr	r0, [pc, #52]	; (3d04 <am_hal_iom_spi_fullduplex_nq+0x4e8>)
    3cce:	f44f 6178 	mov.w	r1, #3968	; 0xf80
    3cd2:	f7fd fe2d 	bl	1930 <am_hal_debug_error>
    3cd6:	e721      	b.n	3b1c <am_hal_iom_spi_fullduplex_nq+0x300>
        return AM_REGn(IOMSTR, ui32Module, INTSTAT);
    3cd8:	f8d5 3204 	ldr.w	r3, [r5, #516]	; 0x204
    if (ui32IntStatus & AM_HAL_IOM_INT_SWERR)
    3cdc:	f013 0fcc 	tst.w	r3, #204	; 0xcc
    3ce0:	d10a      	bne.n	3cf8 <am_hal_iom_spi_fullduplex_nq+0x4dc>
    else if (ui32IntStatus & AM_HAL_IOM_INT_I2CARBERR)
    3ce2:	f413 6fe0 	tst.w	r3, #1792	; 0x700
    3ce6:	d109      	bne.n	3cfc <am_hal_iom_spi_fullduplex_nq+0x4e0>
    am_hal_iom_status_e ui32Status = AM_HAL_IOM_SUCCESS;
    3ce8:	f013 0f10 	tst.w	r3, #16
    3cec:	bf14      	ite	ne
    3cee:	2606      	movne	r6, #6
    3cf0:	2600      	moveq	r6, #0
        g_iom_error_status[ui32Module] = ui32Status = internal_iom_get_int_err(ui32Module, 0);
    3cf2:	f809 6004 	strb.w	r6, [r9, r4]
    3cf6:	e704      	b.n	3b02 <am_hal_iom_spi_fullduplex_nq+0x2e6>
        ui32Status = AM_HAL_IOM_ERR_INVALID_OPER;
    3cf8:	2605      	movs	r6, #5
    3cfa:	e7fa      	b.n	3cf2 <am_hal_iom_spi_fullduplex_nq+0x4d6>
        ui32Status = AM_HAL_IOM_ERR_I2C_ARB;
    3cfc:	2607      	movs	r6, #7
    3cfe:	e7f8      	b.n	3cf2 <am_hal_iom_spi_fullduplex_nq+0x4d6>
    3d00:	00004b98 	.word	0x00004b98
    3d04:	00004bcc 	.word	0x00004bcc
    3d08:	00004be0 	.word	0x00004be0

00003d0c <am_hal_iom_spi_fullduplex>:
{
    3d0c:	b5f0      	push	{r4, r5, r6, r7, lr}
    if ( ui32Module >= AM_REG_IOMSTR_NUM_MODULES )
    3d0e:	2805      	cmp	r0, #5
{
    3d10:	9d05      	ldr	r5, [sp, #20]
    3d12:	9e06      	ldr	r6, [sp, #24]
    if ( ui32Module >= AM_REG_IOMSTR_NUM_MODULES )
    3d14:	d901      	bls.n	3d1a <am_hal_iom_spi_fullduplex+0xe>
        return AM_HAL_IOM_ERR_INVALID_MODULE;
    3d16:	2002      	movs	r0, #2
    3d18:	bdf0      	pop	{r4, r5, r6, r7, pc}
    ui32Status = g_iom_error_status[ui32Module] = AM_HAL_IOM_SUCCESS;
    3d1a:	4f0e      	ldr	r7, [pc, #56]	; (3d54 <am_hal_iom_spi_fullduplex+0x48>)
    3d1c:	f04f 0e00 	mov.w	lr, #0
    3d20:	4604      	mov	r4, r0
    3d22:	f807 e000 	strb.w	lr, [r7, r0]
    if (ui32NumBytes == 0)
    3d26:	b915      	cbnz	r5, 3d2e <am_hal_iom_spi_fullduplex+0x22>
        g_iom_error_status[ui32Module] = ui32Status = AM_HAL_IOM_ERR_INVALID_PARAM;
    3d28:	2003      	movs	r0, #3
    3d2a:	5538      	strb	r0, [r7, r4]
        return ui32Status;
    3d2c:	bdf0      	pop	{r4, r5, r6, r7, pc}
    if ( (AM_REG(MCUCTRL, CHIPREV) & 0xFF) ==
    3d2e:	f8df e028 	ldr.w	lr, [pc, #40]	; 3d58 <am_hal_iom_spi_fullduplex+0x4c>
    3d32:	f8de c000 	ldr.w	ip, [lr]
    3d36:	fa5f fe8c 	uxtb.w	lr, ip
    3d3a:	f1be 0f22 	cmp.w	lr, #34	; 0x22
    3d3e:	d002      	beq.n	3d46 <am_hal_iom_spi_fullduplex+0x3a>
        g_iom_error_status[ui32Module] = ui32Status = AM_HAL_IOM_ERR_INVALID_OPER;
    3d40:	2005      	movs	r0, #5
    3d42:	5538      	strb	r0, [r7, r4]
        return ui32Status;
    3d44:	bdf0      	pop	{r4, r5, r6, r7, pc}
        ui32Status = am_hal_iom_spi_fullduplex_nq(ui32Module, ui32ChipSelect,
    3d46:	9606      	str	r6, [sp, #24]
    3d48:	9505      	str	r5, [sp, #20]
}
    3d4a:	e8bd 40f0 	ldmia.w	sp!, {r4, r5, r6, r7, lr}
        ui32Status = am_hal_iom_spi_fullduplex_nq(ui32Module, ui32ChipSelect,
    3d4e:	f7ff bd65 	b.w	381c <am_hal_iom_spi_fullduplex_nq>
    3d52:	bf00      	nop
    3d54:	1000085c 	.word	0x1000085c
    3d58:	4002000c 	.word	0x4002000c

00003d5c <am_hal_iom_spi_write_nb>:
{
    3d5c:	b5f0      	push	{r4, r5, r6, r7, lr}
    if ( ui32Module >= AM_REG_IOMSTR_NUM_MODULES )
    3d5e:	2805      	cmp	r0, #5
{
    3d60:	9f05      	ldr	r7, [sp, #20]
    3d62:	f8dd e018 	ldr.w	lr, [sp, #24]
    if ( ui32Module >= AM_REG_IOMSTR_NUM_MODULES )
    3d66:	d901      	bls.n	3d6c <am_hal_iom_spi_write_nb+0x10>
        return AM_HAL_IOM_ERR_INVALID_MODULE;
    3d68:	2002      	movs	r0, #2
}
    3d6a:	bdf0      	pop	{r4, r5, r6, r7, pc}
    3d6c:	4e0c      	ldr	r6, [pc, #48]	; (3da0 <am_hal_iom_spi_write_nb+0x44>)
    while ( g_bIomBusy[ui32Module] );
    3d6e:	5c34      	ldrb	r4, [r6, r0]
    3d70:	f004 05ff 	and.w	r5, r4, #255	; 0xff
    3d74:	2c00      	cmp	r4, #0
    3d76:	d1fa      	bne.n	3d6e <am_hal_iom_spi_write_nb+0x12>
    ui32Status = g_iom_error_status[ui32Module] = AM_HAL_IOM_SUCCESS;
    3d78:	4c0a      	ldr	r4, [pc, #40]	; (3da4 <am_hal_iom_spi_write_nb+0x48>)
    if (ui32NumBytes == 0)
    3d7a:	f103 3cff 	add.w	ip, r3, #4294967295
    3d7e:	f640 76fe 	movw	r6, #4094	; 0xffe
    3d82:	45b4      	cmp	ip, r6
    ui32Status = g_iom_error_status[ui32Module] = AM_HAL_IOM_SUCCESS;
    3d84:	5425      	strb	r5, [r4, r0]
    if (ui32NumBytes == 0)
    3d86:	d903      	bls.n	3d90 <am_hal_iom_spi_write_nb+0x34>
        g_iom_error_status[ui32Module] = ui32Status = AM_HAL_IOM_ERR_INVALID_PARAM;
    3d88:	2303      	movs	r3, #3
    3d8a:	5423      	strb	r3, [r4, r0]
        return ui32Status;
    3d8c:	4618      	mov	r0, r3
    3d8e:	bdf0      	pop	{r4, r5, r6, r7, pc}
    3d90:	f8cd e018 	str.w	lr, [sp, #24]
    3d94:	9705      	str	r7, [sp, #20]
}
    3d96:	e8bd 40f0 	ldmia.w	sp!, {r4, r5, r6, r7, lr}
    3d9a:	f7fe bf5f 	b.w	2c5c <am_hal_iom_spi_write_nb.part.6>
    3d9e:	bf00      	nop
    3da0:	10000854 	.word	0x10000854
    3da4:	1000085c 	.word	0x1000085c

00003da8 <am_hal_iom_spi_read_nb>:
{
    3da8:	b5f0      	push	{r4, r5, r6, r7, lr}
    if ( ui32Module >= AM_REG_IOMSTR_NUM_MODULES )
    3daa:	2805      	cmp	r0, #5
{
    3dac:	9f05      	ldr	r7, [sp, #20]
    3dae:	f8dd e018 	ldr.w	lr, [sp, #24]
    if ( ui32Module >= AM_REG_IOMSTR_NUM_MODULES )
    3db2:	d901      	bls.n	3db8 <am_hal_iom_spi_read_nb+0x10>
        return AM_HAL_IOM_ERR_INVALID_MODULE;
    3db4:	2002      	movs	r0, #2
}
    3db6:	bdf0      	pop	{r4, r5, r6, r7, pc}
    3db8:	4e0c      	ldr	r6, [pc, #48]	; (3dec <am_hal_iom_spi_read_nb+0x44>)
    while ( g_bIomBusy[ui32Module] );
    3dba:	5c34      	ldrb	r4, [r6, r0]
    3dbc:	f004 05ff 	and.w	r5, r4, #255	; 0xff
    3dc0:	2c00      	cmp	r4, #0
    3dc2:	d1fa      	bne.n	3dba <am_hal_iom_spi_read_nb+0x12>
    ui32Status = g_iom_error_status[ui32Module] = AM_HAL_IOM_SUCCESS;
    3dc4:	4c0a      	ldr	r4, [pc, #40]	; (3df0 <am_hal_iom_spi_read_nb+0x48>)
    if (ui32NumBytes == 0)
    3dc6:	f103 3cff 	add.w	ip, r3, #4294967295
    3dca:	f640 76fe 	movw	r6, #4094	; 0xffe
    3dce:	45b4      	cmp	ip, r6
    ui32Status = g_iom_error_status[ui32Module] = AM_HAL_IOM_SUCCESS;
    3dd0:	5425      	strb	r5, [r4, r0]
    if (ui32NumBytes == 0)
    3dd2:	d903      	bls.n	3ddc <am_hal_iom_spi_read_nb+0x34>
        g_iom_error_status[ui32Module] = ui32Status = AM_HAL_IOM_ERR_INVALID_PARAM;
    3dd4:	2303      	movs	r3, #3
    3dd6:	5423      	strb	r3, [r4, r0]
        return ui32Status;
    3dd8:	4618      	mov	r0, r3
    3dda:	bdf0      	pop	{r4, r5, r6, r7, pc}
    3ddc:	f8cd e018 	str.w	lr, [sp, #24]
    3de0:	9705      	str	r7, [sp, #20]
}
    3de2:	e8bd 40f0 	ldmia.w	sp!, {r4, r5, r6, r7, lr}
    3de6:	f7ff b825 	b.w	2e34 <am_hal_iom_spi_read_nb.part.7>
    3dea:	bf00      	nop
    3dec:	10000854 	.word	0x10000854
    3df0:	1000085c 	.word	0x1000085c

00003df4 <am_hal_iom_poll_complete>:
    if ( ui32Module >= AM_REG_IOMSTR_NUM_MODULES )
    3df4:	2805      	cmp	r0, #5
    3df6:	d803      	bhi.n	3e00 <am_hal_iom_poll_complete+0xc>
    3df8:	4a02      	ldr	r2, [pc, #8]	; (3e04 <am_hal_iom_poll_complete+0x10>)
    while ( g_bIomBusy[ui32Module] );
    3dfa:	5c13      	ldrb	r3, [r2, r0]
    3dfc:	2b00      	cmp	r3, #0
    3dfe:	d1fc      	bne.n	3dfa <am_hal_iom_poll_complete+0x6>
    3e00:	4770      	bx	lr
    3e02:	bf00      	nop
    3e04:	10000854 	.word	0x10000854

00003e08 <am_hal_iom_int_service>:
    if ( ui32Module >= AM_REG_IOMSTR_NUM_MODULES )
    3e08:	2805      	cmp	r0, #5
    3e0a:	d801      	bhi.n	3e10 <am_hal_iom_int_service+0x8>
    3e0c:	f7fd befe 	b.w	1c0c <am_hal_iom_int_service.part.20>
    3e10:	4770      	bx	lr
    3e12:	bf00      	nop

00003e14 <am_hal_iom_int_enable>:
    if ( ui32Module >= AM_REG_IOMSTR_NUM_MODULES )
    3e14:	2805      	cmp	r0, #5
    3e16:	d808      	bhi.n	3e2a <am_hal_iom_int_enable+0x16>
    AM_REGn(IOMSTR, ui32Module, INTEN) |= ui32Interrupt;
    3e18:	f500 20a0 	add.w	r0, r0, #327680	; 0x50000
    3e1c:	3004      	adds	r0, #4
    3e1e:	0302      	lsls	r2, r0, #12
    3e20:	f8d2 3200 	ldr.w	r3, [r2, #512]	; 0x200
    3e24:	4319      	orrs	r1, r3
    3e26:	f8c2 1200 	str.w	r1, [r2, #512]	; 0x200
    3e2a:	4770      	bx	lr

00003e2c <am_hal_iom_int_clear>:
    if ( ui32Module >= AM_REG_IOMSTR_NUM_MODULES )
    3e2c:	2805      	cmp	r0, #5
    3e2e:	d805      	bhi.n	3e3c <am_hal_iom_int_clear+0x10>
    AM_REGn(IOMSTR, ui32Module, INTCLR) = ui32Interrupt;
    3e30:	f500 20a0 	add.w	r0, r0, #327680	; 0x50000
    3e34:	3004      	adds	r0, #4
    3e36:	0302      	lsls	r2, r0, #12
    3e38:	f8c2 1208 	str.w	r1, [r2, #520]	; 0x208
    3e3c:	4770      	bx	lr
    3e3e:	bf00      	nop

00003e40 <am_hal_iom_int_status_get>:
    if ( ui32Module >= AM_REG_IOMSTR_NUM_MODULES )
    3e40:	2805      	cmp	r0, #5
    3e42:	d80d      	bhi.n	3e60 <am_hal_iom_int_status_get+0x20>
        uint32_t u32RetVal = AM_REGn(IOMSTR, ui32Module, INTSTAT);
    3e44:	f500 20a0 	add.w	r0, r0, #327680	; 0x50000
    3e48:	3004      	adds	r0, #4
    3e4a:	0302      	lsls	r2, r0, #12
    if ( bEnabledOnly )
    3e4c:	b911      	cbnz	r1, 3e54 <am_hal_iom_int_status_get+0x14>
        return AM_REGn(IOMSTR, ui32Module, INTSTAT);
    3e4e:	f8d2 0204 	ldr.w	r0, [r2, #516]	; 0x204
    3e52:	4770      	bx	lr
        uint32_t u32RetVal = AM_REGn(IOMSTR, ui32Module, INTSTAT);
    3e54:	f8d2 3204 	ldr.w	r3, [r2, #516]	; 0x204
        return u32RetVal & AM_REGn(IOMSTR, ui32Module, INTEN);
    3e58:	f8d2 0200 	ldr.w	r0, [r2, #512]	; 0x200
    3e5c:	4018      	ands	r0, r3
    3e5e:	4770      	bx	lr
        return 0;
    3e60:	2000      	movs	r0, #0
    }
}
    3e62:	4770      	bx	lr

00003e64 <am_hal_mcuctrl_fault_status>:
    psFault->bSYS = (ui32FaultStat & AM_REG_MCUCTRL_FAULTSTATUS_SYS_M);

    //
    // Read the DCODE fault capture address register.
    //
    psFault->ui32DCODE = AM_REG(MCUCTRL, DCODEFAULTADDR);
    3e64:	490d      	ldr	r1, [pc, #52]	; (3e9c <am_hal_mcuctrl_fault_status+0x38>)
    ui32FaultStat = AM_REG(MCUCTRL, FAULTSTATUS);
    3e66:	4b0e      	ldr	r3, [pc, #56]	; (3ea0 <am_hal_mcuctrl_fault_status+0x3c>)

    //
    // Read the ICODE fault capture address register.
    //
    psFault->ui32ICODE |= AM_REG(MCUCTRL, ICODEFAULTADDR);
    3e68:	4a0e      	ldr	r2, [pc, #56]	; (3ea4 <am_hal_mcuctrl_fault_status+0x40>)
    ui32FaultStat = AM_REG(MCUCTRL, FAULTSTATUS);
    3e6a:	681b      	ldr	r3, [r3, #0]
{
    3e6c:	b470      	push	{r4, r5, r6}
    psFault->ui32DCODE = AM_REG(MCUCTRL, DCODEFAULTADDR);
    3e6e:	680d      	ldr	r5, [r1, #0]
    3e70:	60c5      	str	r5, [r0, #12]
    psFault->ui32ICODE |= AM_REG(MCUCTRL, ICODEFAULTADDR);
    3e72:	6815      	ldr	r5, [r2, #0]
    3e74:	6841      	ldr	r1, [r0, #4]

    //
    // Read the ICODE fault capture address register.
    //
    psFault->ui32SYS |= AM_REG(MCUCTRL, SYSFAULTADDR);
    3e76:	4c0c      	ldr	r4, [pc, #48]	; (3ea8 <am_hal_mcuctrl_fault_status+0x44>)
    3e78:	6942      	ldr	r2, [r0, #20]
    psFault->ui32ICODE |= AM_REG(MCUCTRL, ICODEFAULTADDR);
    3e7a:	4329      	orrs	r1, r5
    3e7c:	6041      	str	r1, [r0, #4]
    psFault->ui32SYS |= AM_REG(MCUCTRL, SYSFAULTADDR);
    3e7e:	6824      	ldr	r4, [r4, #0]
    psFault->bICODE = (ui32FaultStat & AM_REG_MCUCTRL_FAULTSTATUS_ICODE_M);
    3e80:	f003 0601 	and.w	r6, r3, #1
    psFault->ui32SYS |= AM_REG(MCUCTRL, SYSFAULTADDR);
    3e84:	4322      	orrs	r2, r4
    psFault->bICODE = (ui32FaultStat & AM_REG_MCUCTRL_FAULTSTATUS_ICODE_M);
    3e86:	7006      	strb	r6, [r0, #0]
    psFault->bDCODE = (ui32FaultStat & AM_REG_MCUCTRL_FAULTSTATUS_DCODE_M);
    3e88:	f3c3 0640 	ubfx	r6, r3, #1, #1
    psFault->bSYS = (ui32FaultStat & AM_REG_MCUCTRL_FAULTSTATUS_SYS_M);
    3e8c:	f3c3 0380 	ubfx	r3, r3, #2, #1
    psFault->bDCODE = (ui32FaultStat & AM_REG_MCUCTRL_FAULTSTATUS_DCODE_M);
    3e90:	7206      	strb	r6, [r0, #8]
    psFault->bSYS = (ui32FaultStat & AM_REG_MCUCTRL_FAULTSTATUS_SYS_M);
    3e92:	7403      	strb	r3, [r0, #16]
    psFault->ui32SYS |= AM_REG(MCUCTRL, SYSFAULTADDR);
    3e94:	6142      	str	r2, [r0, #20]
}
    3e96:	bc70      	pop	{r4, r5, r6}
    3e98:	4770      	bx	lr
    3e9a:	bf00      	nop
    3e9c:	400201c4 	.word	0x400201c4
    3ea0:	400201cc 	.word	0x400201cc
    3ea4:	400201c0 	.word	0x400201c0
    3ea8:	400201c8 	.word	0x400201c8

00003eac <am_hal_pwrctrl_periph_enable>:
//! @return None.
//
//*****************************************************************************
void
am_hal_pwrctrl_periph_enable(uint32_t ui32Peripheral)
{
    3eac:	b510      	push	{r4, lr}

    am_hal_debug_assert_msg(ONE_BIT(ui32Peripheral),
    3eae:	4604      	mov	r4, r0
{
    3eb0:	b082      	sub	sp, #8
    am_hal_debug_assert_msg(ONE_BIT(ui32Peripheral),
    3eb2:	b1b8      	cbz	r0, 3ee4 <am_hal_pwrctrl_periph_enable+0x38>
    3eb4:	1e43      	subs	r3, r0, #1
    3eb6:	4203      	tst	r3, r0
    3eb8:	d114      	bne.n	3ee4 <am_hal_pwrctrl_periph_enable+0x38>
                        "Cannot enable more than one peripheral at a time.");

    //
    // Begin critical section.
    //
    AM_CRITICAL_BEGIN_ASM
    3eba:	f7fd fe6b 	bl	1b94 <am_hal_interrupt_master_disable>

    //
    // Enable power control for the given device.
    //
    AM_REG(PWRCTRL, DEVICEEN) |= ui32Peripheral;
    3ebe:	4a18      	ldr	r2, [pc, #96]	; (3f20 <am_hal_pwrctrl_periph_enable+0x74>)
    AM_CRITICAL_BEGIN_ASM
    3ec0:	9001      	str	r0, [sp, #4]
    AM_REG(PWRCTRL, DEVICEEN) |= ui32Peripheral;
    3ec2:	6810      	ldr	r0, [r2, #0]
    3ec4:	4320      	orrs	r0, r4
    3ec6:	6010      	str	r0, [r2, #0]

    //
    // End Critical Section.
    //
    AM_CRITICAL_END_ASM
    3ec8:	9801      	ldr	r0, [sp, #4]
    3eca:	f7fd fe67 	bl	1b9c <am_hal_interrupt_master_set>

    //
    // Wait for the power to stablize.  Using a simple delay loop is more
    // power efficient than a polling loop.
    //
    am_hal_flash_delay(AM_HAL_PWRCTRL_DEVICEEN_DELAYCYCLES / 3);
    3ece:	200e      	movs	r0, #14
    3ed0:	f7fd fd30 	bl	1934 <am_hal_flash_delay>

    //
    // Quick check to guarantee we're good (should never be more than 1 read).
    //
    POLL_PWRSTATUS(ui32Peripheral);
    3ed4:	f014 0f0e 	tst.w	r4, #14
    3ed8:	d10a      	bne.n	3ef0 <am_hal_pwrctrl_periph_enable+0x44>
    3eda:	f014 0f70 	tst.w	r4, #112	; 0x70
    3ede:	d00e      	beq.n	3efe <am_hal_pwrctrl_periph_enable+0x52>
    3ee0:	2408      	movs	r4, #8
    3ee2:	e006      	b.n	3ef2 <am_hal_pwrctrl_periph_enable+0x46>
    am_hal_debug_assert_msg(ONE_BIT(ui32Peripheral),
    3ee4:	4a0f      	ldr	r2, [pc, #60]	; (3f24 <am_hal_pwrctrl_periph_enable+0x78>)
    3ee6:	4810      	ldr	r0, [pc, #64]	; (3f28 <am_hal_pwrctrl_periph_enable+0x7c>)
    3ee8:	2160      	movs	r1, #96	; 0x60
    3eea:	f7fd fd21 	bl	1930 <am_hal_debug_error>
    3eee:	e7e4      	b.n	3eba <am_hal_pwrctrl_periph_enable+0xe>
    POLL_PWRSTATUS(ui32Peripheral);
    3ef0:	2404      	movs	r4, #4
    3ef2:	4a0e      	ldr	r2, [pc, #56]	; (3f2c <am_hal_pwrctrl_periph_enable+0x80>)
    3ef4:	6813      	ldr	r3, [r2, #0]
    3ef6:	421c      	tst	r4, r3
    3ef8:	d0fc      	beq.n	3ef4 <am_hal_pwrctrl_periph_enable+0x48>
}
    3efa:	b002      	add	sp, #8
    3efc:	bd10      	pop	{r4, pc}
    POLL_PWRSTATUS(ui32Peripheral);
    3efe:	f240 1181 	movw	r1, #385	; 0x181
    3f02:	420c      	tst	r4, r1
    3f04:	d108      	bne.n	3f18 <am_hal_pwrctrl_periph_enable+0x6c>
    3f06:	05a3      	lsls	r3, r4, #22
    3f08:	d408      	bmi.n	3f1c <am_hal_pwrctrl_periph_enable+0x70>
    3f0a:	f414 6f80 	tst.w	r4, #1024	; 0x400
    3f0e:	bf14      	ite	ne
    3f10:	2410      	movne	r4, #16
    3f12:	f04f 34ff 	moveq.w	r4, #4294967295
    3f16:	e7ec      	b.n	3ef2 <am_hal_pwrctrl_periph_enable+0x46>
    3f18:	2402      	movs	r4, #2
    3f1a:	e7ea      	b.n	3ef2 <am_hal_pwrctrl_periph_enable+0x46>
    3f1c:	2480      	movs	r4, #128	; 0x80
    3f1e:	e7e8      	b.n	3ef2 <am_hal_pwrctrl_periph_enable+0x46>
    3f20:	40021008 	.word	0x40021008
    3f24:	00004cdc 	.word	0x00004cdc
    3f28:	00004d10 	.word	0x00004d10
    3f2c:	40021014 	.word	0x40021014

00003f30 <am_hal_pwrctrl_periph_disable>:
//! @return None.
//
//*****************************************************************************
void
am_hal_pwrctrl_periph_disable(uint32_t ui32Peripheral)
{
    3f30:	b510      	push	{r4, lr}

    am_hal_debug_assert_msg(ONE_BIT(ui32Peripheral),
    3f32:	4604      	mov	r4, r0
{
    3f34:	b082      	sub	sp, #8
    am_hal_debug_assert_msg(ONE_BIT(ui32Peripheral),
    3f36:	b110      	cbz	r0, 3f3e <am_hal_pwrctrl_periph_disable+0xe>
    3f38:	1e43      	subs	r3, r0, #1
    3f3a:	4203      	tst	r3, r0
    3f3c:	d004      	beq.n	3f48 <am_hal_pwrctrl_periph_disable+0x18>
    3f3e:	4a0a      	ldr	r2, [pc, #40]	; (3f68 <am_hal_pwrctrl_periph_disable+0x38>)
    3f40:	480a      	ldr	r0, [pc, #40]	; (3f6c <am_hal_pwrctrl_periph_disable+0x3c>)
    3f42:	2190      	movs	r1, #144	; 0x90
    3f44:	f7fd fcf4 	bl	1930 <am_hal_debug_error>
                        "Cannot enable more than one peripheral at a time.");

    //
    // Begin critical section.
    //
    AM_CRITICAL_BEGIN_ASM
    3f48:	f7fd fe24 	bl	1b94 <am_hal_interrupt_master_disable>

    //
    // Disable power control for the given device.
    //
    AM_REG(PWRCTRL, DEVICEEN) &= ~ui32Peripheral;
    3f4c:	4a08      	ldr	r2, [pc, #32]	; (3f70 <am_hal_pwrctrl_periph_disable+0x40>)
    AM_CRITICAL_BEGIN_ASM
    3f4e:	9001      	str	r0, [sp, #4]
    AM_REG(PWRCTRL, DEVICEEN) &= ~ui32Peripheral;
    3f50:	6810      	ldr	r0, [r2, #0]
    3f52:	ea20 0104 	bic.w	r1, r0, r4
    3f56:	6011      	str	r1, [r2, #0]

    //
    // End critical section.
    //
    AM_CRITICAL_END_ASM
    3f58:	9801      	ldr	r0, [sp, #4]
    3f5a:	f7fd fe1f 	bl	1b9c <am_hal_interrupt_master_set>

    //
    // Wait for the power to stablize
    //
    am_hal_flash_delay(AM_HAL_PWRCTRL_DEVICEDIS_DELAYCYCLES / 3);
    3f5e:	200e      	movs	r0, #14
    3f60:	f7fd fce8 	bl	1934 <am_hal_flash_delay>
}
    3f64:	b002      	add	sp, #8
    3f66:	bd10      	pop	{r4, pc}
    3f68:	00004cdc 	.word	0x00004cdc
    3f6c:	00004d10 	.word	0x00004d10
    3f70:	40021008 	.word	0x40021008

00003f74 <am_hal_pwrctrl_memory_enable>:
{
    uint32_t ui32MemEnMask, ui32MemDisMask;
    uint32_t ui32PwrStatEnMask, ui32PwrStatDisMask;
    int32_t i32TOcnt;

    if ( ui32MemEn == AM_HAL_PWRCTRL_MEMEN_FLASH512K )
    3f74:	f5b0 6f00 	cmp.w	r0, #2048	; 0x800
{
    3f78:	b430      	push	{r4, r5}
    if ( ui32MemEn == AM_HAL_PWRCTRL_MEMEN_FLASH512K )
    3f7a:	d03a      	beq.n	3ff2 <am_hal_pwrctrl_memory_enable+0x7e>
        ui32MemEnMask  = AM_REG_PWRCTRL_MEMEN_FLASH0_EN;
        ui32MemDisMask = AM_REG_PWRCTRL_MEMEN_FLASH1_EN;
        ui32PwrStatEnMask  = AM_REG_PWRCTRL_PWRONSTATUS_PD_FLAM0_M;
        ui32PwrStatDisMask = AM_REG_PWRCTRL_PWRONSTATUS_PD_FLAM1_M;
    }
    else if ( ui32MemEn == AM_HAL_PWRCTRL_MEMEN_FLASH1M )
    3f7c:	f5b0 5fc0 	cmp.w	r0, #6144	; 0x1800
    3f80:	f000 809d 	beq.w	40be <am_hal_pwrctrl_memory_enable+0x14a>
        ui32MemDisMask = 0;
        ui32PwrStatEnMask  = AM_REG_PWRCTRL_PWRONSTATUS_PD_FLAM0_M  |
                             AM_REG_PWRCTRL_PWRONSTATUS_PD_FLAM1_M;
        ui32PwrStatDisMask = 0;
    }
    else if ( ui32MemEn == AM_HAL_PWRCTRL_MEMEN_SRAM8K )
    3f84:	2801      	cmp	r0, #1
    3f86:	f000 809d 	beq.w	40c4 <am_hal_pwrctrl_memory_enable+0x150>
                         ~AM_REG_PWRCTRL_MEMEN_SRAMEN_SRAM8K;
        ui32PwrStatEnMask  = AM_HAL_PWRCTRL_PWRONSTATUS_SRAM_8K;
        ui32PwrStatDisMask = AM_HAL_PWRCTRL_PWRONSTATUS_SRAM_ALL    &
                             ~AM_HAL_PWRCTRL_PWRONSTATUS_SRAM_8K;
    }
    else if ( ui32MemEn == AM_HAL_PWRCTRL_MEMEN_SRAM16K )
    3f8a:	2803      	cmp	r0, #3
    3f8c:	f000 80a6 	beq.w	40dc <am_hal_pwrctrl_memory_enable+0x168>
                         ~AM_REG_PWRCTRL_MEMEN_SRAMEN_SRAM16K;
        ui32PwrStatEnMask  = AM_HAL_PWRCTRL_PWRONSTATUS_SRAM_16K;
        ui32PwrStatDisMask = AM_HAL_PWRCTRL_PWRONSTATUS_SRAM_ALL    &
                             ~AM_HAL_PWRCTRL_PWRONSTATUS_SRAM_16K;
    }
    else if ( ui32MemEn == AM_HAL_PWRCTRL_MEMEN_SRAM24K )
    3f90:	2807      	cmp	r0, #7
    3f92:	f000 809c 	beq.w	40ce <am_hal_pwrctrl_memory_enable+0x15a>
                           AM_REG_PWRCTRL_MEMEN_SRAMEN_GROUP0_SRAM2);
        ui32PwrStatEnMask  = AM_HAL_PWRCTRL_PWRONSTATUS_SRAM_24K;
        ui32PwrStatDisMask = AM_HAL_PWRCTRL_PWRONSTATUS_SRAM_ALL    &
                             ~AM_HAL_PWRCTRL_PWRONSTATUS_SRAM_24K;
    }
    else if ( ui32MemEn == AM_HAL_PWRCTRL_MEMEN_SRAM32K )
    3f96:	280f      	cmp	r0, #15
    3f98:	f000 80a5 	beq.w	40e6 <am_hal_pwrctrl_memory_enable+0x172>
                         ~AM_REG_PWRCTRL_MEMEN_SRAMEN_SRAM32K;
        ui32PwrStatEnMask  = AM_HAL_PWRCTRL_PWRONSTATUS_SRAM_32K;
        ui32PwrStatDisMask = AM_HAL_PWRCTRL_PWRONSTATUS_SRAM_ALL    &
                             ~AM_HAL_PWRCTRL_PWRONSTATUS_SRAM_32K;
    }
    else if ( ui32MemEn == AM_HAL_PWRCTRL_MEMEN_SRAM64K )
    3f9c:	281f      	cmp	r0, #31
    3f9e:	f000 80b0 	beq.w	4102 <am_hal_pwrctrl_memory_enable+0x18e>
                         ~AM_REG_PWRCTRL_MEMEN_SRAMEN_SRAM64K;
        ui32PwrStatEnMask  = AM_HAL_PWRCTRL_PWRONSTATUS_SRAM_64K;
        ui32PwrStatDisMask = AM_HAL_PWRCTRL_PWRONSTATUS_SRAM_ALL    &
                             ~AM_HAL_PWRCTRL_PWRONSTATUS_SRAM_64K;
    }
    else if ( ui32MemEn == AM_HAL_PWRCTRL_MEMEN_SRAM96K )
    3fa2:	283f      	cmp	r0, #63	; 0x3f
    3fa4:	f000 80b4 	beq.w	4110 <am_hal_pwrctrl_memory_enable+0x19c>
                         ~AM_HAL_PWRCTRL_MEMEN_SRAM96K;
        ui32PwrStatEnMask  = AM_HAL_PWRCTRL_PWRONSTATUS_SRAM_96K;
        ui32PwrStatDisMask = AM_HAL_PWRCTRL_PWRONSTATUS_SRAM_ALL    &
                             ~AM_HAL_PWRCTRL_PWRONSTATUS_SRAM_96K;
    }
    else if ( ui32MemEn == AM_HAL_PWRCTRL_MEMEN_SRAM128K )
    3fa8:	287f      	cmp	r0, #127	; 0x7f
    3faa:	f000 80b8 	beq.w	411e <am_hal_pwrctrl_memory_enable+0x1aa>
                         ~AM_REG_PWRCTRL_MEMEN_SRAMEN_SRAM128K;
        ui32PwrStatEnMask  = AM_HAL_PWRCTRL_PWRONSTATUS_SRAM_128K;
        ui32PwrStatDisMask = AM_HAL_PWRCTRL_PWRONSTATUS_SRAM_ALL    &
                             ~AM_HAL_PWRCTRL_PWRONSTATUS_SRAM_128K;
    }
    else if ( ui32MemEn == AM_HAL_PWRCTRL_MEMEN_SRAM160K )
    3fae:	28ff      	cmp	r0, #255	; 0xff
    3fb0:	f000 80a0 	beq.w	40f4 <am_hal_pwrctrl_memory_enable+0x180>
                         ~AM_HAL_PWRCTRL_MEMEN_SRAM160K;
        ui32PwrStatEnMask  = AM_HAL_PWRCTRL_PWRONSTATUS_SRAM_160K;
        ui32PwrStatDisMask = AM_HAL_PWRCTRL_PWRONSTATUS_SRAM_ALL    &
                             ~AM_HAL_PWRCTRL_PWRONSTATUS_SRAM_160K;
    }
    else if ( ui32MemEn == AM_HAL_PWRCTRL_MEMEN_SRAM192K )
    3fb4:	f240 13ff 	movw	r3, #511	; 0x1ff
    3fb8:	4298      	cmp	r0, r3
    3fba:	f000 80b7 	beq.w	412c <am_hal_pwrctrl_memory_enable+0x1b8>
                         ~AM_HAL_PWRCTRL_MEMEN_SRAM192K;
        ui32PwrStatEnMask  = AM_HAL_PWRCTRL_PWRONSTATUS_SRAM_192K;
        ui32PwrStatDisMask = AM_HAL_PWRCTRL_PWRONSTATUS_SRAM_ALL    &
                             ~AM_HAL_PWRCTRL_PWRONSTATUS_SRAM_192K;
    }
    else if ( ui32MemEn == AM_HAL_PWRCTRL_MEMEN_SRAM224K )
    3fbe:	f240 31ff 	movw	r1, #1023	; 0x3ff
    3fc2:	4288      	cmp	r0, r1
    3fc4:	f000 80b8 	beq.w	4138 <am_hal_pwrctrl_memory_enable+0x1c4>
                         ~AM_HAL_PWRCTRL_MEMEN_SRAM224K;
        ui32PwrStatEnMask  = AM_HAL_PWRCTRL_PWRONSTATUS_SRAM_224K;
        ui32PwrStatDisMask = AM_HAL_PWRCTRL_PWRONSTATUS_SRAM_ALL    &
                             ~AM_HAL_PWRCTRL_PWRONSTATUS_SRAM_224K;
    }
    else if ( ui32MemEn == AM_HAL_PWRCTRL_MEMEN_SRAM256K )
    3fc8:	f240 72ff 	movw	r2, #2047	; 0x7ff
    3fcc:	4290      	cmp	r0, r2
    3fce:	d00e      	beq.n	3fee <am_hal_pwrctrl_memory_enable+0x7a>
                         ~AM_REG_PWRCTRL_MEMEN_SRAMEN_SRAM256K;
        ui32PwrStatEnMask  = AM_HAL_PWRCTRL_PWRONSTATUS_SRAM_256K;
        ui32PwrStatDisMask = AM_HAL_PWRCTRL_PWRONSTATUS_SRAM_ALL    &
                             ~AM_HAL_PWRCTRL_PWRONSTATUS_SRAM_256K;
    }
    else if ( ui32MemEn == AM_HAL_PWRCTRL_MEMEN_CACHE )
    3fd0:	f1b0 4f20 	cmp.w	r0, #2684354560	; 0xa0000000
    3fd4:	f000 80b6 	beq.w	4144 <am_hal_pwrctrl_memory_enable+0x1d0>
        ui32MemDisMask = 0;
        ui32PwrStatEnMask  = AM_REG_PWRCTRL_PWRONSTATUS_PD_CACHEB2_M    |
                             AM_REG_PWRCTRL_PWRONSTATUS_PD_CACHEB0_M;
        ui32PwrStatDisMask = 0;
    }
    else if ( ui32MemEn == AM_HAL_PWRCTRL_MEMEN_CACHE_DIS )
    3fd8:	f06f 4420 	mvn.w	r4, #2684354560	; 0xa0000000
    3fdc:	42a0      	cmp	r0, r4
    3fde:	f000 80b4 	beq.w	414a <am_hal_pwrctrl_memory_enable+0x1d6>
                          AM_REG_PWRCTRL_MEMEN_CACHEB2_EN;
        ui32PwrStatEnMask  = 0;
        ui32PwrStatDisMask = AM_REG_PWRCTRL_PWRONSTATUS_PD_CACHEB2_M    |
                             AM_REG_PWRCTRL_PWRONSTATUS_PD_CACHEB0_M;
    }
    else if ( ui32MemEn == AM_HAL_PWRCTRL_MEMEN_ALL )
    3fe2:	f104 4580 	add.w	r5, r4, #1073741824	; 0x40000000
    3fe6:	f505 5c00 	add.w	ip, r5, #8192	; 0x2000
    3fea:	4560      	cmp	r0, ip
    3fec:	d132      	bne.n	4054 <am_hal_pwrctrl_memory_enable+0xe0>
    {
        ui32MemEnMask  = AM_HAL_PWRCTRL_MEMEN_ALL;
        ui32MemDisMask = 0;
        ui32PwrStatEnMask  = AM_HAL_PWRCTRL_PWRONSTATUS_SRAM_ALL;
    3fee:	495b      	ldr	r1, [pc, #364]	; (415c <am_hal_pwrctrl_memory_enable+0x1e8>)
    3ff0:	e066      	b.n	40c0 <am_hal_pwrctrl_memory_enable+0x14c>
    3ff2:	f46f 5280 	mvn.w	r2, #4096	; 0x1000
        ui32PwrStatDisMask = AM_REG_PWRCTRL_PWRONSTATUS_PD_FLAM1_M;
    3ff6:	2340      	movs	r3, #64	; 0x40
        ui32PwrStatEnMask  = AM_REG_PWRCTRL_PWRONSTATUS_PD_FLAM0_M;
    3ff8:	2120      	movs	r1, #32
    // for 2 reasons: 1) To only affect the specified type of memory, and 2)
    // To avoid inadvertently disabling any memory currently being depended on.
    //
    if ( ui32MemDisMask != 0 )
    {
        AM_REG(PWRCTRL, MEMEN) &= ~ui32MemDisMask;
    3ffa:	4c59      	ldr	r4, [pc, #356]	; (4160 <am_hal_pwrctrl_memory_enable+0x1ec>)
    3ffc:	6825      	ldr	r5, [r4, #0]
    3ffe:	402a      	ands	r2, r5
    4000:	6022      	str	r2, [r4, #0]
    //
    // Enable the required memory.
    //
    if ( ui32MemEnMask != 0 )
    {
        AM_REG(PWRCTRL, MEMEN) |= ui32MemEnMask;
    4002:	4a57      	ldr	r2, [pc, #348]	; (4160 <am_hal_pwrctrl_memory_enable+0x1ec>)
    4004:	6814      	ldr	r4, [r2, #0]
    4006:	4320      	orrs	r0, r4
    4008:	6010      	str	r0, [r2, #0]
    //
    // Wait for the power to be turned on.
    // Apollo2 note - these loops typically end up taking 1 iteration.
    //
    i32TOcnt = 200;
    if ( ui32PwrStatDisMask )
    400a:	2b00      	cmp	r3, #0
    400c:	d029      	beq.n	4062 <am_hal_pwrctrl_memory_enable+0xee>
    {
        while ( --i32TOcnt              &&
                ( AM_REG(PWRCTRL, PWRONSTATUS) & ui32PwrStatDisMask ) );
    400e:	4d55      	ldr	r5, [pc, #340]	; (4164 <am_hal_pwrctrl_memory_enable+0x1f0>)
    4010:	6828      	ldr	r0, [r5, #0]
        while ( --i32TOcnt              &&
    4012:	4218      	tst	r0, r3
    4014:	bf18      	it	ne
    4016:	20c6      	movne	r0, #198	; 0xc6
    4018:	d01f      	beq.n	405a <am_hal_pwrctrl_memory_enable+0xe6>
                ( AM_REG(PWRCTRL, PWRONSTATUS) & ui32PwrStatDisMask ) );
    401a:	682a      	ldr	r2, [r5, #0]
        while ( --i32TOcnt              &&
    401c:	421a      	tst	r2, r3
    401e:	d01c      	beq.n	405a <am_hal_pwrctrl_memory_enable+0xe6>
                ( AM_REG(PWRCTRL, PWRONSTATUS) & ui32PwrStatDisMask ) );
    4020:	682c      	ldr	r4, [r5, #0]
        while ( --i32TOcnt              &&
    4022:	421c      	tst	r4, r3
    4024:	d019      	beq.n	405a <am_hal_pwrctrl_memory_enable+0xe6>
                ( AM_REG(PWRCTRL, PWRONSTATUS) & ui32PwrStatDisMask ) );
    4026:	682a      	ldr	r2, [r5, #0]
        while ( --i32TOcnt              &&
    4028:	421a      	tst	r2, r3
    402a:	d016      	beq.n	405a <am_hal_pwrctrl_memory_enable+0xe6>
                ( AM_REG(PWRCTRL, PWRONSTATUS) & ui32PwrStatDisMask ) );
    402c:	682c      	ldr	r4, [r5, #0]
        while ( --i32TOcnt              &&
    402e:	421c      	tst	r4, r3
    4030:	d013      	beq.n	405a <am_hal_pwrctrl_memory_enable+0xe6>
                ( AM_REG(PWRCTRL, PWRONSTATUS) & ui32PwrStatDisMask ) );
    4032:	682a      	ldr	r2, [r5, #0]
        while ( --i32TOcnt              &&
    4034:	421a      	tst	r2, r3
    4036:	d010      	beq.n	405a <am_hal_pwrctrl_memory_enable+0xe6>
                ( AM_REG(PWRCTRL, PWRONSTATUS) & ui32PwrStatDisMask ) );
    4038:	682c      	ldr	r4, [r5, #0]
        while ( --i32TOcnt              &&
    403a:	421c      	tst	r4, r3
    403c:	d00d      	beq.n	405a <am_hal_pwrctrl_memory_enable+0xe6>
                ( AM_REG(PWRCTRL, PWRONSTATUS) & ui32PwrStatDisMask ) );
    403e:	682a      	ldr	r2, [r5, #0]
        while ( --i32TOcnt              &&
    4040:	421a      	tst	r2, r3
    4042:	d00a      	beq.n	405a <am_hal_pwrctrl_memory_enable+0xe6>
                ( AM_REG(PWRCTRL, PWRONSTATUS) & ui32PwrStatDisMask ) );
    4044:	682c      	ldr	r4, [r5, #0]
        while ( --i32TOcnt              &&
    4046:	421c      	tst	r4, r3
    4048:	d007      	beq.n	405a <am_hal_pwrctrl_memory_enable+0xe6>
                ( AM_REG(PWRCTRL, PWRONSTATUS) & ui32PwrStatDisMask ) );
    404a:	682a      	ldr	r2, [r5, #0]
        while ( --i32TOcnt              &&
    404c:	421a      	tst	r2, r3
    404e:	d004      	beq.n	405a <am_hal_pwrctrl_memory_enable+0xe6>
    4050:	3809      	subs	r0, #9
    4052:	d1e2      	bne.n	401a <am_hal_pwrctrl_memory_enable+0xa6>
        return false;
    4054:	2000      	movs	r0, #0
    {
        return false;
    }

    return true;
}
    4056:	bc30      	pop	{r4, r5}
    4058:	4770      	bx	lr
    if ( ui32PwrStatEnMask )
    405a:	b911      	cbnz	r1, 4062 <am_hal_pwrctrl_memory_enable+0xee>
    return true;
    405c:	2001      	movs	r0, #1
}
    405e:	bc30      	pop	{r4, r5}
    4060:	4770      	bx	lr
            (( AM_REG(PWRCTRL, PWRONSTATUS) & ui32PwrStatEnMask )
    4062:	4b40      	ldr	r3, [pc, #256]	; (4164 <am_hal_pwrctrl_memory_enable+0x1f0>)
    4064:	681d      	ldr	r5, [r3, #0]
        while ( --i32TOcnt              &&
    4066:	ea31 0405 	bics.w	r4, r1, r5
    406a:	bf18      	it	ne
    406c:	24c6      	movne	r4, #198	; 0xc6
    406e:	d0f5      	beq.n	405c <am_hal_pwrctrl_memory_enable+0xe8>
            (( AM_REG(PWRCTRL, PWRONSTATUS) & ui32PwrStatEnMask )
    4070:	6818      	ldr	r0, [r3, #0]
        while ( --i32TOcnt              &&
    4072:	ea31 0000 	bics.w	r0, r1, r0
    4076:	d0f1      	beq.n	405c <am_hal_pwrctrl_memory_enable+0xe8>
            (( AM_REG(PWRCTRL, PWRONSTATUS) & ui32PwrStatEnMask )
    4078:	681a      	ldr	r2, [r3, #0]
        while ( --i32TOcnt              &&
    407a:	ea31 0002 	bics.w	r0, r1, r2
    407e:	d0ed      	beq.n	405c <am_hal_pwrctrl_memory_enable+0xe8>
            (( AM_REG(PWRCTRL, PWRONSTATUS) & ui32PwrStatEnMask )
    4080:	681d      	ldr	r5, [r3, #0]
        while ( --i32TOcnt              &&
    4082:	ea31 0005 	bics.w	r0, r1, r5
    4086:	d0e9      	beq.n	405c <am_hal_pwrctrl_memory_enable+0xe8>
            (( AM_REG(PWRCTRL, PWRONSTATUS) & ui32PwrStatEnMask )
    4088:	6818      	ldr	r0, [r3, #0]
        while ( --i32TOcnt              &&
    408a:	ea31 0000 	bics.w	r0, r1, r0
    408e:	d0e5      	beq.n	405c <am_hal_pwrctrl_memory_enable+0xe8>
            (( AM_REG(PWRCTRL, PWRONSTATUS) & ui32PwrStatEnMask )
    4090:	681a      	ldr	r2, [r3, #0]
        while ( --i32TOcnt              &&
    4092:	ea31 0002 	bics.w	r0, r1, r2
    4096:	d0e1      	beq.n	405c <am_hal_pwrctrl_memory_enable+0xe8>
            (( AM_REG(PWRCTRL, PWRONSTATUS) & ui32PwrStatEnMask )
    4098:	681d      	ldr	r5, [r3, #0]
        while ( --i32TOcnt              &&
    409a:	ea31 0005 	bics.w	r0, r1, r5
    409e:	d0dd      	beq.n	405c <am_hal_pwrctrl_memory_enable+0xe8>
            (( AM_REG(PWRCTRL, PWRONSTATUS) & ui32PwrStatEnMask )
    40a0:	6818      	ldr	r0, [r3, #0]
        while ( --i32TOcnt              &&
    40a2:	ea31 0000 	bics.w	r0, r1, r0
    40a6:	d0d9      	beq.n	405c <am_hal_pwrctrl_memory_enable+0xe8>
            (( AM_REG(PWRCTRL, PWRONSTATUS) & ui32PwrStatEnMask )
    40a8:	681a      	ldr	r2, [r3, #0]
        while ( --i32TOcnt              &&
    40aa:	ea31 0002 	bics.w	r0, r1, r2
    40ae:	d0d5      	beq.n	405c <am_hal_pwrctrl_memory_enable+0xe8>
            (( AM_REG(PWRCTRL, PWRONSTATUS) & ui32PwrStatEnMask )
    40b0:	681d      	ldr	r5, [r3, #0]
        while ( --i32TOcnt              &&
    40b2:	ea31 0005 	bics.w	r0, r1, r5
    40b6:	d0d1      	beq.n	405c <am_hal_pwrctrl_memory_enable+0xe8>
    40b8:	3c09      	subs	r4, #9
    40ba:	d1d9      	bne.n	4070 <am_hal_pwrctrl_memory_enable+0xfc>
    40bc:	e7ca      	b.n	4054 <am_hal_pwrctrl_memory_enable+0xe0>
        ui32PwrStatEnMask  = AM_REG_PWRCTRL_PWRONSTATUS_PD_FLAM0_M  |
    40be:	2160      	movs	r1, #96	; 0x60
{
    40c0:	2300      	movs	r3, #0
    40c2:	e79e      	b.n	4002 <am_hal_pwrctrl_memory_enable+0x8e>
    40c4:	4a28      	ldr	r2, [pc, #160]	; (4168 <am_hal_pwrctrl_memory_enable+0x1f4>)
        ui32PwrStatDisMask = AM_HAL_PWRCTRL_PWRONSTATUS_SRAM_ALL    &
    40c6:	4b29      	ldr	r3, [pc, #164]	; (416c <am_hal_pwrctrl_memory_enable+0x1f8>)
        ui32PwrStatEnMask  = AM_HAL_PWRCTRL_PWRONSTATUS_SRAM_8K;
    40c8:	f44f 7180 	mov.w	r1, #256	; 0x100
    40cc:	e795      	b.n	3ffa <am_hal_pwrctrl_memory_enable+0x86>
    40ce:	f46f 62ff 	mvn.w	r2, #2040	; 0x7f8
        ui32PwrStatDisMask = AM_HAL_PWRCTRL_PWRONSTATUS_SRAM_ALL    &
    40d2:	f44f 23ff 	mov.w	r3, #522240	; 0x7f800
        ui32PwrStatEnMask  = AM_HAL_PWRCTRL_PWRONSTATUS_SRAM_24K;
    40d6:	f44f 61e0 	mov.w	r1, #1792	; 0x700
    40da:	e78e      	b.n	3ffa <am_hal_pwrctrl_memory_enable+0x86>
    40dc:	4a24      	ldr	r2, [pc, #144]	; (4170 <am_hal_pwrctrl_memory_enable+0x1fc>)
        ui32PwrStatDisMask = AM_HAL_PWRCTRL_PWRONSTATUS_SRAM_ALL    &
    40de:	4b25      	ldr	r3, [pc, #148]	; (4174 <am_hal_pwrctrl_memory_enable+0x200>)
        ui32PwrStatEnMask  = AM_HAL_PWRCTRL_PWRONSTATUS_SRAM_16K;
    40e0:	f44f 7140 	mov.w	r1, #768	; 0x300
    40e4:	e789      	b.n	3ffa <am_hal_pwrctrl_memory_enable+0x86>
    40e6:	f46f 62fe 	mvn.w	r2, #2032	; 0x7f0
        ui32PwrStatDisMask = AM_HAL_PWRCTRL_PWRONSTATUS_SRAM_ALL    &
    40ea:	f44f 23fe 	mov.w	r3, #520192	; 0x7f000
        ui32PwrStatEnMask  = AM_HAL_PWRCTRL_PWRONSTATUS_SRAM_32K;
    40ee:	f44f 6170 	mov.w	r1, #3840	; 0xf00
    40f2:	e782      	b.n	3ffa <am_hal_pwrctrl_memory_enable+0x86>
    40f4:	f46f 62e0 	mvn.w	r2, #1792	; 0x700
        ui32PwrStatDisMask = AM_HAL_PWRCTRL_PWRONSTATUS_SRAM_ALL    &
    40f8:	f44f 23e0 	mov.w	r3, #458752	; 0x70000
        ui32PwrStatEnMask  = AM_HAL_PWRCTRL_PWRONSTATUS_SRAM_160K;
    40fc:	f44f 417f 	mov.w	r1, #65280	; 0xff00
    4100:	e77b      	b.n	3ffa <am_hal_pwrctrl_memory_enable+0x86>
    4102:	f46f 62fc 	mvn.w	r2, #2016	; 0x7e0
        ui32PwrStatDisMask = AM_HAL_PWRCTRL_PWRONSTATUS_SRAM_ALL    &
    4106:	f44f 23fc 	mov.w	r3, #516096	; 0x7e000
        ui32PwrStatEnMask  = AM_HAL_PWRCTRL_PWRONSTATUS_SRAM_64K;
    410a:	f44f 51f8 	mov.w	r1, #7936	; 0x1f00
    410e:	e774      	b.n	3ffa <am_hal_pwrctrl_memory_enable+0x86>
    4110:	f46f 62f8 	mvn.w	r2, #1984	; 0x7c0
        ui32PwrStatDisMask = AM_HAL_PWRCTRL_PWRONSTATUS_SRAM_ALL    &
    4114:	f44f 23f8 	mov.w	r3, #507904	; 0x7c000
        ui32PwrStatEnMask  = AM_HAL_PWRCTRL_PWRONSTATUS_SRAM_96K;
    4118:	f44f 517c 	mov.w	r1, #16128	; 0x3f00
    411c:	e76d      	b.n	3ffa <am_hal_pwrctrl_memory_enable+0x86>
    411e:	f46f 62f0 	mvn.w	r2, #1920	; 0x780
        ui32PwrStatDisMask = AM_HAL_PWRCTRL_PWRONSTATUS_SRAM_ALL    &
    4122:	f44f 23f0 	mov.w	r3, #491520	; 0x78000
        ui32PwrStatEnMask  = AM_HAL_PWRCTRL_PWRONSTATUS_SRAM_128K;
    4126:	f44f 41fe 	mov.w	r1, #32512	; 0x7f00
    412a:	e766      	b.n	3ffa <am_hal_pwrctrl_memory_enable+0x86>
    412c:	f46f 62c0 	mvn.w	r2, #1536	; 0x600
        ui32PwrStatDisMask = AM_HAL_PWRCTRL_PWRONSTATUS_SRAM_ALL    &
    4130:	f44f 23c0 	mov.w	r3, #393216	; 0x60000
        ui32PwrStatEnMask  = AM_HAL_PWRCTRL_PWRONSTATUS_SRAM_192K;
    4134:	4910      	ldr	r1, [pc, #64]	; (4178 <am_hal_pwrctrl_memory_enable+0x204>)
    4136:	e760      	b.n	3ffa <am_hal_pwrctrl_memory_enable+0x86>
        ui32PwrStatEnMask  = AM_HAL_PWRCTRL_PWRONSTATUS_SRAM_224K;
    4138:	4910      	ldr	r1, [pc, #64]	; (417c <am_hal_pwrctrl_memory_enable+0x208>)
    413a:	f46f 6280 	mvn.w	r2, #1024	; 0x400
        ui32PwrStatDisMask = AM_HAL_PWRCTRL_PWRONSTATUS_SRAM_ALL    &
    413e:	f44f 2380 	mov.w	r3, #262144	; 0x40000
    4142:	e75a      	b.n	3ffa <am_hal_pwrctrl_memory_enable+0x86>
        ui32PwrStatEnMask  = AM_REG_PWRCTRL_PWRONSTATUS_PD_CACHEB2_M    |
    4144:	f44f 1120 	mov.w	r1, #2621440	; 0x280000
    4148:	e7ba      	b.n	40c0 <am_hal_pwrctrl_memory_enable+0x14c>
        AM_REG(PWRCTRL, MEMEN) &= ~ui32MemDisMask;
    414a:	4805      	ldr	r0, [pc, #20]	; (4160 <am_hal_pwrctrl_memory_enable+0x1ec>)
    414c:	6803      	ldr	r3, [r0, #0]
    414e:	f023 4120 	bic.w	r1, r3, #2684354560	; 0xa0000000
    4152:	6001      	str	r1, [r0, #0]
        ui32PwrStatDisMask = AM_REG_PWRCTRL_PWRONSTATUS_PD_CACHEB2_M    |
    4154:	f44f 1320 	mov.w	r3, #2621440	; 0x280000
        ui32PwrStatEnMask  = 0;
    4158:	2100      	movs	r1, #0
    415a:	e758      	b.n	400e <am_hal_pwrctrl_memory_enable+0x9a>
    415c:	0007ff00 	.word	0x0007ff00
    4160:	40021010 	.word	0x40021010
    4164:	40021014 	.word	0x40021014
    4168:	fffff801 	.word	0xfffff801
    416c:	0007fe00 	.word	0x0007fe00
    4170:	fffff803 	.word	0xfffff803
    4174:	0007fc00 	.word	0x0007fc00
    4178:	0001ff00 	.word	0x0001ff00
    417c:	0003ff00 	.word	0x0003ff00

00004180 <am_hal_pwrctrl_bucks_enable>:
am_hal_pwrctrl_bucks_enable(void)
{
    //
    // Check to see if the bucks are already on. If so, we can just return.
    //
    if ( AM_BFR(PWRCTRL, POWERSTATUS, COREBUCKON)   &&
    4180:	4b0b      	ldr	r3, [pc, #44]	; (41b0 <am_hal_pwrctrl_bucks_enable+0x30>)
    4182:	681a      	ldr	r2, [r3, #0]
    4184:	0792      	lsls	r2, r2, #30
    4186:	d502      	bpl.n	418e <am_hal_pwrctrl_bucks_enable+0xe>
         AM_BFR(PWRCTRL, POWERSTATUS, MEMBUCKON) )
    4188:	6818      	ldr	r0, [r3, #0]
    if ( AM_BFR(PWRCTRL, POWERSTATUS, COREBUCKON)   &&
    418a:	07c3      	lsls	r3, r0, #31
    418c:	d40e      	bmi.n	41ac <am_hal_pwrctrl_bucks_enable+0x2c>
    }

    //
    // Enable BUCK power up
    //
    AM_BFW(PWRCTRL, SUPPLYSRC, COREBUCKEN, 1);
    418e:	4b09      	ldr	r3, [pc, #36]	; (41b4 <am_hal_pwrctrl_bucks_enable+0x34>)
    AM_BFW(PWRCTRL, SUPPLYSRC, MEMBUCKEN, 1);

    //
    // Make sure bucks are ready.
    //
    while ( ( AM_REG(PWRCTRL, POWERSTATUS)                      &
    4190:	4a07      	ldr	r2, [pc, #28]	; (41b0 <am_hal_pwrctrl_bucks_enable+0x30>)
    AM_BFW(PWRCTRL, SUPPLYSRC, COREBUCKEN, 1);
    4192:	6819      	ldr	r1, [r3, #0]
    4194:	f041 0002 	orr.w	r0, r1, #2
    4198:	6018      	str	r0, [r3, #0]
    AM_BFW(PWRCTRL, SUPPLYSRC, MEMBUCKEN, 1);
    419a:	6819      	ldr	r1, [r3, #0]
    419c:	f041 0001 	orr.w	r0, r1, #1
    41a0:	6018      	str	r0, [r3, #0]
    while ( ( AM_REG(PWRCTRL, POWERSTATUS)                      &
    41a2:	6813      	ldr	r3, [r2, #0]
    41a4:	f003 0103 	and.w	r1, r3, #3
    41a8:	2903      	cmp	r1, #3
    41aa:	d1fa      	bne.n	41a2 <am_hal_pwrctrl_bucks_enable+0x22>
    41ac:	4770      	bx	lr
    41ae:	bf00      	nop
    41b0:	40021004 	.word	0x40021004
    41b4:	40021000 	.word	0x40021000

000041b8 <am_hal_pwrctrl_bucks_disable>:
am_hal_pwrctrl_bucks_disable(void)
{
    //
    // Check to see if the bucks are already off. If so, we can just return.
    //
    if ( AM_BFR(PWRCTRL, POWERSTATUS, COREBUCKON) == 0  &&
    41b8:	4b12      	ldr	r3, [pc, #72]	; (4204 <am_hal_pwrctrl_bucks_disable+0x4c>)
    41ba:	681a      	ldr	r2, [r3, #0]
    41bc:	0792      	lsls	r2, r2, #30
    41be:	d402      	bmi.n	41c6 <am_hal_pwrctrl_bucks_disable+0xe>
         AM_BFR(PWRCTRL, POWERSTATUS, MEMBUCKON) == 0)
    41c0:	6818      	ldr	r0, [r3, #0]
    if ( AM_BFR(PWRCTRL, POWERSTATUS, COREBUCKON) == 0  &&
    41c2:	07c3      	lsls	r3, r0, #31
    41c4:	d51c      	bpl.n	4200 <am_hal_pwrctrl_bucks_disable+0x48>
    return AM_BFM(MCUCTRL, CHIPREV, REVMAJ) == AM_REG_MCUCTRL_CHIPREV_REVMAJ_B ?
    41c6:	4910      	ldr	r1, [pc, #64]	; (4208 <am_hal_pwrctrl_bucks_disable+0x50>)
    41c8:	680b      	ldr	r3, [r1, #0]
    41ca:	f003 02f0 	and.w	r2, r3, #240	; 0xf0
    }

    //
    // Handle the special case if only the ADC is powered.
    //
    if ( isRev_ADC()  &&
    41ce:	2a20      	cmp	r2, #32
    41d0:	d00b      	beq.n	41ea <am_hal_pwrctrl_bucks_disable+0x32>
    else
    {
        //
        // Power them down
        //
        AM_BFW(PWRCTRL, SUPPLYSRC, COREBUCKEN, 0);
    41d2:	4b0e      	ldr	r3, [pc, #56]	; (420c <am_hal_pwrctrl_bucks_disable+0x54>)
    41d4:	681a      	ldr	r2, [r3, #0]
    41d6:	f022 0002 	bic.w	r0, r2, #2
    41da:	6018      	str	r0, [r3, #0]
        AM_BFW(PWRCTRL, SUPPLYSRC, MEMBUCKEN, 0);
    41dc:	6819      	ldr	r1, [r3, #0]
    41de:	f021 0201 	bic.w	r2, r1, #1
    41e2:	601a      	str	r2, [r3, #0]
    }

    //
    // Wait until BUCKs are disabled.
    //
    am_hal_flash_delay(AM_HAL_PWRCTRL_BUCKDIS_DELAYCYCLES / 3);
    41e4:	200a      	movs	r0, #10
    41e6:	f7fd bba5 	b.w	1934 <am_hal_flash_delay>
         (AM_REG(PWRCTRL, DEVICEEN) == AM_REG_PWRCTRL_DEVICEEN_PWRADC_EN) )
    41ea:	4809      	ldr	r0, [pc, #36]	; (4210 <am_hal_pwrctrl_bucks_disable+0x58>)
    41ec:	6801      	ldr	r1, [r0, #0]
    if ( isRev_ADC()  &&
    41ee:	f5b1 7f00 	cmp.w	r1, #512	; 0x200
    41f2:	d1ee      	bne.n	41d2 <am_hal_pwrctrl_bucks_disable+0x1a>
            AM_REG(PWRCTRL, SUPPLYSRC) &=
    41f4:	4805      	ldr	r0, [pc, #20]	; (420c <am_hal_pwrctrl_bucks_disable+0x54>)
    41f6:	6803      	ldr	r3, [r0, #0]
    41f8:	f003 0105 	and.w	r1, r3, #5
    41fc:	6001      	str	r1, [r0, #0]
    41fe:	e7f1      	b.n	41e4 <am_hal_pwrctrl_bucks_disable+0x2c>
    4200:	4770      	bx	lr
    4202:	bf00      	nop
    4204:	40021004 	.word	0x40021004
    4208:	4002000c 	.word	0x4002000c
    420c:	40021000 	.word	0x40021000
    4210:	40021008 	.word	0x40021008

00004214 <am_hal_pwrctrl_low_power_init>:
am_hal_pwrctrl_low_power_init(void)
{
    //
    // For lowest power, we enable clock gating for all SRAM configuration.
    //
    AM_REG(PWRCTRL, SRAMCTRL) |=
    4214:	4905      	ldr	r1, [pc, #20]	; (422c <am_hal_pwrctrl_low_power_init+0x18>)
        AM_REG_PWRCTRL_SRAMCTRL_SRAM_LIGHT_SLEEP_DIS;

    //
    // For lowest deep sleep power, make sure we stay in BUCK mode.
    //
    AM_REG(PWRCTRL, SUPPLYSRC) &=
    4216:	4a06      	ldr	r2, [pc, #24]	; (4230 <am_hal_pwrctrl_low_power_init+0x1c>)
    AM_REG(PWRCTRL, SRAMCTRL) |=
    4218:	680b      	ldr	r3, [r1, #0]
    421a:	f043 0006 	orr.w	r0, r3, #6
    421e:	6008      	str	r0, [r1, #0]
    AM_REG(PWRCTRL, SUPPLYSRC) &=
    4220:	6811      	ldr	r1, [r2, #0]
    4222:	f021 0304 	bic.w	r3, r1, #4
    4226:	6013      	str	r3, [r2, #0]
    4228:	4770      	bx	lr
    422a:	bf00      	nop
    422c:	40021018 	.word	0x40021018
    4230:	40021000 	.word	0x40021000

00004234 <am_hal_queue_init>:
//
//*****************************************************************************
void
am_hal_queue_init(am_hal_queue_t *psQueue, void *pvData, uint32_t ui32ItemSize,
                  uint32_t ui32ArraySize)
{
    4234:	b410      	push	{r4}
    psQueue->ui32WriteIndex = 0;
    4236:	2400      	movs	r4, #0
    4238:	6004      	str	r4, [r0, #0]
    psQueue->ui32ReadIndex = 0;
    423a:	6044      	str	r4, [r0, #4]
    psQueue->ui32Length = 0;
    423c:	6084      	str	r4, [r0, #8]
    psQueue->ui32Capacity = ui32ArraySize;
    423e:	60c3      	str	r3, [r0, #12]
    psQueue->ui32ItemSize = ui32ItemSize;
    4240:	6102      	str	r2, [r0, #16]
    psQueue->pui8Data = (uint8_t *) pvData;
    4242:	6141      	str	r1, [r0, #20]
}
    4244:	f85d 4b04 	ldr.w	r4, [sp], #4
    4248:	4770      	bx	lr
    424a:	bf00      	nop

0000424c <am_hal_queue_item_add>:
//! didn't have enough space.
//
//*****************************************************************************
bool
am_hal_queue_item_add(am_hal_queue_t *psQueue, const void *pvSource, uint32_t ui32NumItems)
{
    424c:	b5f8      	push	{r3, r4, r5, r6, r7, lr}
    424e:	4604      	mov	r4, r0
    uint32_t i;
    uint8_t *pui8Source;
    uint32_t ui32Bytes = ui32NumItems * psQueue->ui32ItemSize;
    4250:	6907      	ldr	r7, [r0, #16]
{
    4252:	460e      	mov	r6, r1
    uint32_t ui32Bytes = ui32NumItems * psQueue->ui32ItemSize;
    4254:	fb07 f702 	mul.w	r7, r7, r2
    bool bSuccess = false;
    uint32_t ui32Primask;

    pui8Source = (uint8_t *) pvSource;

    ui32Primask = am_hal_interrupt_master_disable();
    4258:	f7fd fc9c 	bl	1b94 <am_hal_interrupt_master_disable>

    //
    // Check to make sure that the buffer isn't already full
    //
    if ( am_hal_queue_space_left(psQueue) >= ui32Bytes )
    425c:	68a5      	ldr	r5, [r4, #8]
    425e:	68e3      	ldr	r3, [r4, #12]
    4260:	1b59      	subs	r1, r3, r5
    4262:	428f      	cmp	r7, r1
    4264:	d87c      	bhi.n	4360 <am_hal_queue_item_add+0x114>
    {
        //
        // Loop over the bytes in the source array.
        //
        for ( i = 0; i < ui32Bytes; i++ )
    4266:	2f00      	cmp	r7, #0
    4268:	d073      	beq.n	4352 <am_hal_queue_item_add+0x106>
        {
            //
            // Write the value to the buffer.
            //
            psQueue->pui8Data[psQueue->ui32WriteIndex] = pui8Source[i];
    426a:	4635      	mov	r5, r6
    426c:	6823      	ldr	r3, [r4, #0]
    426e:	6962      	ldr	r2, [r4, #20]
    4270:	f815 1b01 	ldrb.w	r1, [r5], #1
    4274:	54d1      	strb	r1, [r2, r3]

            //
            // Advance the write index, making sure to wrap if necessary.
            //
            psQueue->ui32WriteIndex = ((psQueue->ui32WriteIndex + 1) %
    4276:	6823      	ldr	r3, [r4, #0]
    4278:	f8d4 e00c 	ldr.w	lr, [r4, #12]
    427c:	1c5a      	adds	r2, r3, #1
    427e:	19f1      	adds	r1, r6, r7
    4280:	f107 3cff 	add.w	ip, r7, #4294967295
    4284:	fbb2 f6fe 	udiv	r6, r2, lr
        for ( i = 0; i < ui32Bytes; i++ )
    4288:	42a9      	cmp	r1, r5
            psQueue->ui32WriteIndex = ((psQueue->ui32WriteIndex + 1) %
    428a:	fb0e 2316 	mls	r3, lr, r6, r2
    428e:	6023      	str	r3, [r4, #0]
    4290:	f00c 0203 	and.w	r2, ip, #3
        for ( i = 0; i < ui32Bytes; i++ )
    4294:	d05c      	beq.n	4350 <am_hal_queue_item_add+0x104>
    4296:	b34a      	cbz	r2, 42ec <am_hal_queue_item_add+0xa0>
    4298:	2a01      	cmp	r2, #1
    429a:	d019      	beq.n	42d0 <am_hal_queue_item_add+0x84>
    429c:	2a02      	cmp	r2, #2
    429e:	d00b      	beq.n	42b8 <am_hal_queue_item_add+0x6c>
            psQueue->pui8Data[psQueue->ui32WriteIndex] = pui8Source[i];
    42a0:	6962      	ldr	r2, [r4, #20]
    42a2:	f815 6b01 	ldrb.w	r6, [r5], #1
    42a6:	54d6      	strb	r6, [r2, r3]
            psQueue->ui32WriteIndex = ((psQueue->ui32WriteIndex + 1) %
    42a8:	6823      	ldr	r3, [r4, #0]
    42aa:	68e6      	ldr	r6, [r4, #12]
    42ac:	1c5a      	adds	r2, r3, #1
    42ae:	fbb2 fef6 	udiv	lr, r2, r6
    42b2:	fb06 231e 	mls	r3, r6, lr, r2
    42b6:	6023      	str	r3, [r4, #0]
            psQueue->pui8Data[psQueue->ui32WriteIndex] = pui8Source[i];
    42b8:	6962      	ldr	r2, [r4, #20]
    42ba:	f815 6b01 	ldrb.w	r6, [r5], #1
    42be:	54d6      	strb	r6, [r2, r3]
            psQueue->ui32WriteIndex = ((psQueue->ui32WriteIndex + 1) %
    42c0:	6823      	ldr	r3, [r4, #0]
    42c2:	68e6      	ldr	r6, [r4, #12]
    42c4:	1c5a      	adds	r2, r3, #1
    42c6:	fbb2 fcf6 	udiv	ip, r2, r6
    42ca:	fb06 231c 	mls	r3, r6, ip, r2
    42ce:	6023      	str	r3, [r4, #0]
            psQueue->pui8Data[psQueue->ui32WriteIndex] = pui8Source[i];
    42d0:	6962      	ldr	r2, [r4, #20]
    42d2:	f815 6b01 	ldrb.w	r6, [r5], #1
    42d6:	54d6      	strb	r6, [r2, r3]
            psQueue->ui32WriteIndex = ((psQueue->ui32WriteIndex + 1) %
    42d8:	6823      	ldr	r3, [r4, #0]
    42da:	68e6      	ldr	r6, [r4, #12]
    42dc:	1c5a      	adds	r2, r3, #1
        for ( i = 0; i < ui32Bytes; i++ )
    42de:	42a9      	cmp	r1, r5
            psQueue->ui32WriteIndex = ((psQueue->ui32WriteIndex + 1) %
    42e0:	fbb2 fef6 	udiv	lr, r2, r6
    42e4:	fb06 231e 	mls	r3, r6, lr, r2
    42e8:	6023      	str	r3, [r4, #0]
        for ( i = 0; i < ui32Bytes; i++ )
    42ea:	d031      	beq.n	4350 <am_hal_queue_item_add+0x104>
            psQueue->pui8Data[psQueue->ui32WriteIndex] = pui8Source[i];
    42ec:	46ac      	mov	ip, r5
    42ee:	6962      	ldr	r2, [r4, #20]
    42f0:	f81c 6b01 	ldrb.w	r6, [ip], #1
    42f4:	54d6      	strb	r6, [r2, r3]
            psQueue->ui32WriteIndex = ((psQueue->ui32WriteIndex + 1) %
    42f6:	6823      	ldr	r3, [r4, #0]
    42f8:	68e2      	ldr	r2, [r4, #12]
    42fa:	1c5e      	adds	r6, r3, #1
    42fc:	fbb6 fef2 	udiv	lr, r6, r2
    4300:	fb02 631e 	mls	r3, r2, lr, r6
    4304:	6023      	str	r3, [r4, #0]
            psQueue->pui8Data[psQueue->ui32WriteIndex] = pui8Source[i];
    4306:	6962      	ldr	r2, [r4, #20]
    4308:	786e      	ldrb	r6, [r5, #1]
    430a:	54d6      	strb	r6, [r2, r3]
            psQueue->ui32WriteIndex = ((psQueue->ui32WriteIndex + 1) %
    430c:	6823      	ldr	r3, [r4, #0]
    430e:	68e2      	ldr	r2, [r4, #12]
    4310:	1c5e      	adds	r6, r3, #1
    4312:	fbb6 fef2 	udiv	lr, r6, r2
    4316:	fb02 631e 	mls	r3, r2, lr, r6
    431a:	6023      	str	r3, [r4, #0]
            psQueue->pui8Data[psQueue->ui32WriteIndex] = pui8Source[i];
    431c:	6962      	ldr	r2, [r4, #20]
    431e:	f89c 6001 	ldrb.w	r6, [ip, #1]
    4322:	54d6      	strb	r6, [r2, r3]
            psQueue->ui32WriteIndex = ((psQueue->ui32WriteIndex + 1) %
    4324:	6823      	ldr	r3, [r4, #0]
    4326:	68e2      	ldr	r2, [r4, #12]
    4328:	1c5e      	adds	r6, r3, #1
    432a:	fbb6 fcf2 	udiv	ip, r6, r2
    432e:	fb02 631c 	mls	r3, r2, ip, r6
    4332:	6023      	str	r3, [r4, #0]
            psQueue->pui8Data[psQueue->ui32WriteIndex] = pui8Source[i];
    4334:	6962      	ldr	r2, [r4, #20]
    4336:	78ee      	ldrb	r6, [r5, #3]
    4338:	54d6      	strb	r6, [r2, r3]
            psQueue->ui32WriteIndex = ((psQueue->ui32WriteIndex + 1) %
    433a:	6823      	ldr	r3, [r4, #0]
    433c:	68e2      	ldr	r2, [r4, #12]
    433e:	1c5e      	adds	r6, r3, #1
    4340:	3504      	adds	r5, #4
    4342:	fbb6 fef2 	udiv	lr, r6, r2
        for ( i = 0; i < ui32Bytes; i++ )
    4346:	42a9      	cmp	r1, r5
            psQueue->ui32WriteIndex = ((psQueue->ui32WriteIndex + 1) %
    4348:	fb02 631e 	mls	r3, r2, lr, r6
    434c:	6023      	str	r3, [r4, #0]
        for ( i = 0; i < ui32Bytes; i++ )
    434e:	d1cd      	bne.n	42ec <am_hal_queue_item_add+0xa0>
    4350:	68a5      	ldr	r5, [r4, #8]
        }

        //
        // Update the length value appropriately.
        //
        psQueue->ui32Length += ui32Bytes;
    4352:	443d      	add	r5, r7
    4354:	60a5      	str	r5, [r4, #8]

        //
        // Report a success.
        //
        bSuccess = true;
    4356:	2401      	movs	r4, #1
        // failure.
        //
        bSuccess = false;
    }

    am_hal_interrupt_master_set(ui32Primask);
    4358:	f7fd fc20 	bl	1b9c <am_hal_interrupt_master_set>

    return bSuccess;
}
    435c:	4620      	mov	r0, r4
    435e:	bdf8      	pop	{r3, r4, r5, r6, r7, pc}
        bSuccess = false;
    4360:	2400      	movs	r4, #0
    am_hal_interrupt_master_set(ui32Primask);
    4362:	f7fd fc1b 	bl	1b9c <am_hal_interrupt_master_set>
}
    4366:	4620      	mov	r0, r4
    4368:	bdf8      	pop	{r3, r4, r5, r6, r7, pc}
    436a:	bf00      	nop

0000436c <am_hal_queue_item_get>:
//! queue, or false if the queue didn't have that many items to pull.
//
//*****************************************************************************
bool
am_hal_queue_item_get(am_hal_queue_t *psQueue, void *pvDest, uint32_t ui32NumItems)
{
    436c:	b5f8      	push	{r3, r4, r5, r6, r7, lr}
    436e:	4604      	mov	r4, r0
    uint32_t i;
    uint8_t *pui8Dest;
    uint32_t ui32Bytes = ui32NumItems * psQueue->ui32ItemSize;
    4370:	6907      	ldr	r7, [r0, #16]
{
    4372:	460e      	mov	r6, r1
    uint32_t ui32Bytes = ui32NumItems * psQueue->ui32ItemSize;
    4374:	fb07 f702 	mul.w	r7, r7, r2
    bool bSuccess = false;
    uint32_t ui32Primask;

    pui8Dest = (uint8_t *) pvDest;

    ui32Primask = am_hal_interrupt_master_disable();
    4378:	f7fd fc0c 	bl	1b94 <am_hal_interrupt_master_disable>

    //
    // Check to make sure that the buffer isn't empty
    //
    if ( am_hal_queue_data_left(psQueue) >= ui32Bytes )
    437c:	68a5      	ldr	r5, [r4, #8]
    437e:	42af      	cmp	r7, r5
    4380:	d87e      	bhi.n	4480 <am_hal_queue_item_get+0x114>
    {
        //
        // Loop over the bytes in the destination array.
        //
        for ( i = 0; i < ui32Bytes; i++ )
    4382:	2f00      	cmp	r7, #0
    4384:	d075      	beq.n	4472 <am_hal_queue_item_get+0x106>
    4386:	6863      	ldr	r3, [r4, #4]
        {
            //
            // Grab the next value from the buffer.
            //
            pui8Dest[i] = psQueue->pui8Data[psQueue->ui32ReadIndex];
    4388:	6962      	ldr	r2, [r4, #20]
    438a:	4635      	mov	r5, r6
    438c:	5cd1      	ldrb	r1, [r2, r3]
    438e:	f805 1b01 	strb.w	r1, [r5], #1

            //
            // Advance the read index, wrapping if needed.
            //
            psQueue->ui32ReadIndex = ((psQueue->ui32ReadIndex + 1) %
    4392:	6863      	ldr	r3, [r4, #4]
    4394:	f8d4 e00c 	ldr.w	lr, [r4, #12]
    4398:	1c5a      	adds	r2, r3, #1
    439a:	19f1      	adds	r1, r6, r7
    439c:	f107 3cff 	add.w	ip, r7, #4294967295
    43a0:	fbb2 f6fe 	udiv	r6, r2, lr
        for ( i = 0; i < ui32Bytes; i++ )
    43a4:	42a9      	cmp	r1, r5
            psQueue->ui32ReadIndex = ((psQueue->ui32ReadIndex + 1) %
    43a6:	fb0e 2316 	mls	r3, lr, r6, r2
    43aa:	6063      	str	r3, [r4, #4]
    43ac:	f00c 0203 	and.w	r2, ip, #3
        for ( i = 0; i < ui32Bytes; i++ )
    43b0:	d05e      	beq.n	4470 <am_hal_queue_item_get+0x104>
    43b2:	b35a      	cbz	r2, 440c <am_hal_queue_item_get+0xa0>
    43b4:	2a01      	cmp	r2, #1
    43b6:	d01a      	beq.n	43ee <am_hal_queue_item_get+0x82>
    43b8:	2a02      	cmp	r2, #2
    43ba:	d00b      	beq.n	43d4 <am_hal_queue_item_get+0x68>
            pui8Dest[i] = psQueue->pui8Data[psQueue->ui32ReadIndex];
    43bc:	6966      	ldr	r6, [r4, #20]
    43be:	5cf3      	ldrb	r3, [r6, r3]
    43c0:	f805 3b01 	strb.w	r3, [r5], #1
            psQueue->ui32ReadIndex = ((psQueue->ui32ReadIndex + 1) %
    43c4:	6862      	ldr	r2, [r4, #4]
    43c6:	68e6      	ldr	r6, [r4, #12]
    43c8:	3201      	adds	r2, #1
    43ca:	fbb2 fef6 	udiv	lr, r2, r6
    43ce:	fb06 231e 	mls	r3, r6, lr, r2
    43d2:	6063      	str	r3, [r4, #4]
            pui8Dest[i] = psQueue->pui8Data[psQueue->ui32ReadIndex];
    43d4:	6966      	ldr	r6, [r4, #20]
    43d6:	f816 c003 	ldrb.w	ip, [r6, r3]
    43da:	f805 cb01 	strb.w	ip, [r5], #1
            psQueue->ui32ReadIndex = ((psQueue->ui32ReadIndex + 1) %
    43de:	6863      	ldr	r3, [r4, #4]
    43e0:	68e6      	ldr	r6, [r4, #12]
    43e2:	1c5a      	adds	r2, r3, #1
    43e4:	fbb2 fef6 	udiv	lr, r2, r6
    43e8:	fb06 231e 	mls	r3, r6, lr, r2
    43ec:	6063      	str	r3, [r4, #4]
            pui8Dest[i] = psQueue->pui8Data[psQueue->ui32ReadIndex];
    43ee:	6966      	ldr	r6, [r4, #20]
    43f0:	f816 c003 	ldrb.w	ip, [r6, r3]
    43f4:	f805 cb01 	strb.w	ip, [r5], #1
            psQueue->ui32ReadIndex = ((psQueue->ui32ReadIndex + 1) %
    43f8:	6863      	ldr	r3, [r4, #4]
    43fa:	68e6      	ldr	r6, [r4, #12]
    43fc:	1c5a      	adds	r2, r3, #1
        for ( i = 0; i < ui32Bytes; i++ )
    43fe:	42a9      	cmp	r1, r5
            psQueue->ui32ReadIndex = ((psQueue->ui32ReadIndex + 1) %
    4400:	fbb2 fef6 	udiv	lr, r2, r6
    4404:	fb06 231e 	mls	r3, r6, lr, r2
    4408:	6063      	str	r3, [r4, #4]
        for ( i = 0; i < ui32Bytes; i++ )
    440a:	d031      	beq.n	4470 <am_hal_queue_item_get+0x104>
            pui8Dest[i] = psQueue->pui8Data[psQueue->ui32ReadIndex];
    440c:	6966      	ldr	r6, [r4, #20]
    440e:	46ac      	mov	ip, r5
    4410:	5cf2      	ldrb	r2, [r6, r3]
    4412:	f80c 2b01 	strb.w	r2, [ip], #1
            psQueue->ui32ReadIndex = ((psQueue->ui32ReadIndex + 1) %
    4416:	6863      	ldr	r3, [r4, #4]
    4418:	68e2      	ldr	r2, [r4, #12]
    441a:	1c5e      	adds	r6, r3, #1
    441c:	fbb6 fef2 	udiv	lr, r6, r2
    4420:	fb02 631e 	mls	r3, r2, lr, r6
            pui8Dest[i] = psQueue->pui8Data[psQueue->ui32ReadIndex];
    4424:	6962      	ldr	r2, [r4, #20]
            psQueue->ui32ReadIndex = ((psQueue->ui32ReadIndex + 1) %
    4426:	6063      	str	r3, [r4, #4]
            pui8Dest[i] = psQueue->pui8Data[psQueue->ui32ReadIndex];
    4428:	5cd6      	ldrb	r6, [r2, r3]
    442a:	706e      	strb	r6, [r5, #1]
            psQueue->ui32ReadIndex = ((psQueue->ui32ReadIndex + 1) %
    442c:	6863      	ldr	r3, [r4, #4]
    442e:	68e2      	ldr	r2, [r4, #12]
    4430:	1c5e      	adds	r6, r3, #1
    4432:	fbb6 fef2 	udiv	lr, r6, r2
    4436:	fb02 631e 	mls	r3, r2, lr, r6
            pui8Dest[i] = psQueue->pui8Data[psQueue->ui32ReadIndex];
    443a:	6962      	ldr	r2, [r4, #20]
            psQueue->ui32ReadIndex = ((psQueue->ui32ReadIndex + 1) %
    443c:	6063      	str	r3, [r4, #4]
            pui8Dest[i] = psQueue->pui8Data[psQueue->ui32ReadIndex];
    443e:	5cd6      	ldrb	r6, [r2, r3]
    4440:	f88c 6001 	strb.w	r6, [ip, #1]
            psQueue->ui32ReadIndex = ((psQueue->ui32ReadIndex + 1) %
    4444:	6863      	ldr	r3, [r4, #4]
    4446:	68e2      	ldr	r2, [r4, #12]
    4448:	1c5e      	adds	r6, r3, #1
    444a:	fbb6 fcf2 	udiv	ip, r6, r2
    444e:	fb02 631c 	mls	r3, r2, ip, r6
            pui8Dest[i] = psQueue->pui8Data[psQueue->ui32ReadIndex];
    4452:	6962      	ldr	r2, [r4, #20]
            psQueue->ui32ReadIndex = ((psQueue->ui32ReadIndex + 1) %
    4454:	6063      	str	r3, [r4, #4]
            pui8Dest[i] = psQueue->pui8Data[psQueue->ui32ReadIndex];
    4456:	5cd6      	ldrb	r6, [r2, r3]
    4458:	70ee      	strb	r6, [r5, #3]
            psQueue->ui32ReadIndex = ((psQueue->ui32ReadIndex + 1) %
    445a:	6863      	ldr	r3, [r4, #4]
    445c:	68e2      	ldr	r2, [r4, #12]
    445e:	1c5e      	adds	r6, r3, #1
    4460:	3504      	adds	r5, #4
    4462:	fbb6 fef2 	udiv	lr, r6, r2
        for ( i = 0; i < ui32Bytes; i++ )
    4466:	42a9      	cmp	r1, r5
            psQueue->ui32ReadIndex = ((psQueue->ui32ReadIndex + 1) %
    4468:	fb02 631e 	mls	r3, r2, lr, r6
    446c:	6063      	str	r3, [r4, #4]
        for ( i = 0; i < ui32Bytes; i++ )
    446e:	d1cd      	bne.n	440c <am_hal_queue_item_get+0xa0>
    4470:	68a5      	ldr	r5, [r4, #8]
        }

        //
        // Adjust the length value to reflect the change.
        //
        psQueue->ui32Length -= ui32Bytes;
    4472:	1be9      	subs	r1, r5, r7
    4474:	60a1      	str	r1, [r4, #8]

        //
        // Report a success.
        //
        bSuccess = true;
    4476:	2401      	movs	r4, #1
        // If the buffer didn't have enough data, just return false.
        //
        bSuccess = false;
    }

    am_hal_interrupt_master_set(ui32Primask);
    4478:	f7fd fb90 	bl	1b9c <am_hal_interrupt_master_set>

    return bSuccess;
}
    447c:	4620      	mov	r0, r4
    447e:	bdf8      	pop	{r3, r4, r5, r6, r7, pc}
        bSuccess = false;
    4480:	2400      	movs	r4, #0
    am_hal_interrupt_master_set(ui32Primask);
    4482:	f7fd fb8b 	bl	1b9c <am_hal_interrupt_master_set>
}
    4486:	4620      	mov	r0, r4
    4488:	bdf8      	pop	{r3, r4, r5, r6, r7, pc}
    448a:	bf00      	nop

0000448c <am_hal_rtc_osc_select>:
    // Set XT if flag is set.
    // Otherwise configure for LFRC.
    //
    if (ui32OSC)
    {
        AM_REG(CLKGEN, OCTRL) |= AM_REG_CLKGEN_OCTRL_OSEL_M;
    448c:	4a05      	ldr	r2, [pc, #20]	; (44a4 <am_hal_rtc_osc_select+0x18>)
    448e:	6813      	ldr	r3, [r2, #0]
    if (ui32OSC)
    4490:	b918      	cbnz	r0, 449a <am_hal_rtc_osc_select+0xe>
    }
    else
    {
        AM_REG(CLKGEN, OCTRL) &= ~AM_REG_CLKGEN_OCTRL_OSEL_M;
    4492:	f023 0080 	bic.w	r0, r3, #128	; 0x80
    4496:	6010      	str	r0, [r2, #0]
    4498:	4770      	bx	lr
        AM_REG(CLKGEN, OCTRL) |= AM_REG_CLKGEN_OCTRL_OSEL_M;
    449a:	f043 0180 	orr.w	r1, r3, #128	; 0x80
    449e:	6011      	str	r1, [r2, #0]
    44a0:	4770      	bx	lr
    44a2:	bf00      	nop
    44a4:	4000400c 	.word	0x4000400c

000044a8 <am_hal_rtc_osc_disable>:
am_hal_rtc_osc_disable(void)
{
    //
    // Stop the RTC Oscillator.
    //
    AM_REG(RTC, RTCCTL) |= AM_REG_RTC_RTCCTL_RSTOP(1);
    44a8:	4a02      	ldr	r2, [pc, #8]	; (44b4 <am_hal_rtc_osc_disable+0xc>)
    44aa:	6813      	ldr	r3, [r2, #0]
    44ac:	f043 0010 	orr.w	r0, r3, #16
    44b0:	6010      	str	r0, [r2, #0]
    44b2:	4770      	bx	lr
    44b4:	40004050 	.word	0x40004050

000044b8 <am_hal_sysctrl_sleep>:
//! @return None.
//
//*****************************************************************************
void
am_hal_sysctrl_sleep(bool bSleepDeep)
{
    44b8:	b5f0      	push	{r4, r5, r6, r7, lr}
    44ba:	b083      	sub	sp, #12
    44bc:	4604      	mov	r4, r0
    volatile uint32_t ui32BuckTimer;

    //
    // Disable interrupts and save the previous interrupt state.
    //
    ui32Critical = am_hal_interrupt_master_disable();
    44be:	f7fd fb69 	bl	1b94 <am_hal_interrupt_master_disable>
    44c2:	4605      	mov	r5, r0

    //
    // If the user selected DEEPSLEEP and the TPIU is off, attempt to enter
    // DEEP SLEEP.
    //
    if ((bSleepDeep == AM_HAL_SYSCTRL_SLEEP_DEEP) &&
    44c4:	b124      	cbz	r4, 44d0 <am_hal_sysctrl_sleep+0x18>
        (AM_BFM(MCUCTRL, TPIUCTRL, ENABLE) == AM_REG_MCUCTRL_TPIUCTRL_ENABLE_DIS))
    44c6:	4b42      	ldr	r3, [pc, #264]	; (45d0 <am_hal_sysctrl_sleep+0x118>)
    44c8:	6818      	ldr	r0, [r3, #0]
    if ((bSleepDeep == AM_HAL_SYSCTRL_SLEEP_DEEP) &&
    44ca:	f010 0c01 	ands.w	ip, r0, #1
    44ce:	d00a      	beq.n	44e6 <am_hal_sysctrl_sleep+0x2e>
    else
    {
        //
        // Prepare the core for normal sleep (write 0 to the DEEPSLEEP bit).
        //
        AM_BFW(SYSCTRL, SCR, SLEEPDEEP, 0);
    44d0:	4a40      	ldr	r2, [pc, #256]	; (45d4 <am_hal_sysctrl_sleep+0x11c>)
    44d2:	6811      	ldr	r1, [r2, #0]
    44d4:	f021 0604 	bic.w	r6, r1, #4
    44d8:	6016      	str	r6, [r2, #0]

        //
        // Go to sleep.
        //
        AM_ASM_WFI;
    44da:	bf30      	wfi
    }

    //
    // Restore the interrupt state.
    //
    am_hal_interrupt_master_set(ui32Critical);
    44dc:	4628      	mov	r0, r5
    44de:	f7fd fb5d 	bl	1b9c <am_hal_interrupt_master_set>
}
    44e2:	b003      	add	sp, #12
    44e4:	bdf0      	pop	{r4, r5, r6, r7, pc}
        AM_BFW(SYSCTRL, SCR, SLEEPDEEP, 1);
    44e6:	4c3b      	ldr	r4, [pc, #236]	; (45d4 <am_hal_sysctrl_sleep+0x11c>)
    g_buckZX_chk = AM_BFM(MCUCTRL, CHIPREV, REVMAJ) == AM_REG_MCUCTRL_CHIPREV_REVMAJ_B ?
    44e8:	4b3b      	ldr	r3, [pc, #236]	; (45d8 <am_hal_sysctrl_sleep+0x120>)
        AM_BFW(SYSCTRL, SCR, SLEEPDEEP, 1);
    44ea:	6820      	ldr	r0, [r4, #0]
    g_buckZX_chk |= ( g_ui32BuckTimer - 1 ) <= BUCK_TIMER_MAX ?
    44ec:	4e3b      	ldr	r6, [pc, #236]	; (45dc <am_hal_sysctrl_sleep+0x124>)
    ui32SupplySrc = AM_REG(PWRCTRL, DEVICEEN);
    44ee:	4f3c      	ldr	r7, [pc, #240]	; (45e0 <am_hal_sysctrl_sleep+0x128>)
    ui32SupplySrc = AM_REG(PWRCTRL, SUPPLYSRC);
    44f0:	f8df e0fc 	ldr.w	lr, [pc, #252]	; 45f0 <am_hal_sysctrl_sleep+0x138>
        AM_BFW(SYSCTRL, SCR, SLEEPDEEP, 1);
    44f4:	f040 0204 	orr.w	r2, r0, #4
    44f8:	6022      	str	r2, [r4, #0]
    g_buckZX_chk = AM_BFM(MCUCTRL, CHIPREV, REVMAJ) == AM_REG_MCUCTRL_CHIPREV_REVMAJ_B ?
    44fa:	681c      	ldr	r4, [r3, #0]
    g_buckZX_chk |= ( g_ui32BuckTimer - 1 ) <= BUCK_TIMER_MAX ?
    44fc:	6833      	ldr	r3, [r6, #0]
    ui32SupplySrc = AM_REG(PWRCTRL, SUPPLYSRC);
    44fe:	f8de 2000 	ldr.w	r2, [lr]
    ui32SupplySrc = AM_REG(PWRCTRL, DEVICEEN);
    4502:	6839      	ldr	r1, [r7, #0]
    g_buckZX_chk = AM_BFM(MCUCTRL, CHIPREV, REVMAJ) == AM_REG_MCUCTRL_CHIPREV_REVMAJ_B ?
    4504:	f004 07f0 	and.w	r7, r4, #240	; 0xf0
                   CHKBUCKZX_REV : 0x0;
    4508:	2f20      	cmp	r7, #32
    g_buckZX_chk |= ( g_ui32BuckTimer - 1 ) <= BUCK_TIMER_MAX ?
    450a:	f103 30ff 	add.w	r0, r3, #4294967295
                   CHKBUCKZX_REV : 0x0;
    450e:	bf14      	ite	ne
    4510:	2700      	movne	r7, #0
    4512:	2702      	moveq	r7, #2
                    CHKBUCKZX_TIMER : 0x0;
    4514:	2803      	cmp	r0, #3
    4516:	bf98      	it	ls
    4518:	f04f 0c04 	movls.w	ip, #4
                     CHKBUCKZX_BUCKS : 0x0;
    451c:	f012 0403 	ands.w	r4, r2, #3
    4520:	bf18      	it	ne
    4522:	2401      	movne	r4, #1
    g_buckZX_chk |= ( ui32SupplySrc &
    4524:	f240 53ff 	movw	r3, #1535	; 0x5ff
    g_buckZX_chk |= (ui32SupplySrc &
    4528:	433c      	orrs	r4, r7
                0x0 : CHKBUCKZX_DEVEN;
    452a:	ea11 0703 	ands.w	r7, r1, r3
    g_buckZX_chk |= (ui32SupplySrc &
    452e:	ea44 040c 	orr.w	r4, r4, ip
                0x0 : CHKBUCKZX_DEVEN;
    4532:	d103      	bne.n	453c <am_hal_sysctrl_sleep+0x84>
    g_buckZX_chk |= ( ui32SupplySrc &
    4534:	f044 0408 	orr.w	r4, r4, #8
        if ( bBuckZX_chk )
    4538:	2c0f      	cmp	r4, #15
    453a:	d00a      	beq.n	4552 <am_hal_sysctrl_sleep+0x9a>
        AM_ASM_WFI;
    453c:	bf30      	wfi
        if ( bBuckZX_chk )
    453e:	2c0f      	cmp	r4, #15
    4540:	d01a      	beq.n	4578 <am_hal_sysctrl_sleep+0xc0>
            g_bBuckRestoreComplete = true;
    4542:	4e28      	ldr	r6, [pc, #160]	; (45e4 <am_hal_sysctrl_sleep+0x12c>)
    4544:	2001      	movs	r0, #1
    4546:	7030      	strb	r0, [r6, #0]
    am_hal_interrupt_master_set(ui32Critical);
    4548:	4628      	mov	r0, r5
    454a:	f7fd fb27 	bl	1b9c <am_hal_interrupt_master_set>
}
    454e:	b003      	add	sp, #12
    4550:	bdf0      	pop	{r4, r5, r6, r7, pc}
            ui32BuckTimer = g_ui32BuckTimer - 1;
    4552:	6832      	ldr	r2, [r6, #0]
    4554:	1e51      	subs	r1, r2, #1
    4556:	9100      	str	r1, [sp, #0]
            am_hal_ctimer_clear(ui32BuckTimer, AM_HAL_CTIMER_BOTH);
    4558:	9800      	ldr	r0, [sp, #0]
    455a:	f04f 31ff 	mov.w	r1, #4294967295
    455e:	f7fd f947 	bl	17f0 <am_hal_ctimer_clear>
            am_hal_ctimer_period_set(ui32BuckTimer,
    4562:	9800      	ldr	r0, [sp, #0]
    4564:	463b      	mov	r3, r7
    4566:	f04f 1201 	mov.w	r2, #65537	; 0x10001
    456a:	f04f 31ff 	mov.w	r1, #4294967295
    456e:	f7fd f953 	bl	1818 <am_hal_ctimer_period_set>
            am_hal_pwrctrl_bucks_disable();
    4572:	f7ff fe21 	bl	41b8 <am_hal_pwrctrl_bucks_disable>
    4576:	e7e1      	b.n	453c <am_hal_sysctrl_sleep+0x84>
    AM_CRITICAL_BEGIN_ASM
    4578:	f7fd fb0c 	bl	1b94 <am_hal_interrupt_master_disable>
    ui32SaveCore = AM_BFR(MCUCTRL, BUCK3, COREBUCKZXTRIM);
    457c:	4b1a      	ldr	r3, [pc, #104]	; (45e8 <am_hal_sysctrl_sleep+0x130>)
    AM_CRITICAL_BEGIN_ASM
    457e:	9001      	str	r0, [sp, #4]
    ui32SaveCore = AM_BFR(MCUCTRL, BUCK3, COREBUCKZXTRIM);
    4580:	681a      	ldr	r2, [r3, #0]
    ui32SaveMem  = AM_BFR(MCUCTRL, BUCK3, MEMBUCKZXTRIM);
    4582:	681a      	ldr	r2, [r3, #0]
            AM_BFW(MCUCTRL, BUCK3, COREBUCKZXTRIM, ui32NewCore);
    4584:	681f      	ldr	r7, [r3, #0]
    4586:	f027 043c 	bic.w	r4, r7, #60	; 0x3c
    458a:	f044 021c 	orr.w	r2, r4, #28
    458e:	601a      	str	r2, [r3, #0]
            AM_BFW(MCUCTRL, BUCK3, MEMBUCKZXTRIM,  ui32NewMem);
    4590:	6819      	ldr	r1, [r3, #0]
            g_bBuckRestoreComplete = false;
    4592:	4c14      	ldr	r4, [pc, #80]	; (45e4 <am_hal_sysctrl_sleep+0x12c>)
            AM_BFW(MCUCTRL, BUCK3, MEMBUCKZXTRIM,  ui32NewMem);
    4594:	f421 30f0 	bic.w	r0, r1, #122880	; 0x1e000
    4598:	f440 4760 	orr.w	r7, r0, #57344	; 0xe000
    459c:	601f      	str	r7, [r3, #0]
    AM_CRITICAL_END_ASM
    459e:	9801      	ldr	r0, [sp, #4]
    45a0:	f7fd fafc 	bl	1b9c <am_hal_interrupt_master_set>
            am_hal_flash_delay( FLASH_CYCLES_US(2) );
    45a4:	201c      	movs	r0, #28
    45a6:	f7fd f9c5 	bl	1934 <am_hal_flash_delay>
            am_hal_pwrctrl_bucks_enable();
    45aa:	f7ff fde9 	bl	4180 <am_hal_pwrctrl_bucks_enable>
            ui32BuckTimer = g_ui32BuckTimer - 1;
    45ae:	6836      	ldr	r6, [r6, #0]
            g_ui32BuckInputs = 0;
    45b0:	490e      	ldr	r1, [pc, #56]	; (45ec <am_hal_sysctrl_sleep+0x134>)
            g_bBuckRestoreComplete = false;
    45b2:	2200      	movs	r2, #0
            ui32BuckTimer = g_ui32BuckTimer - 1;
    45b4:	1e73      	subs	r3, r6, #1
            am_hal_flash_delay( FLASH_CYCLES_US(5) );
    45b6:	204c      	movs	r0, #76	; 0x4c
            ui32BuckTimer = g_ui32BuckTimer - 1;
    45b8:	9300      	str	r3, [sp, #0]
            g_bBuckRestoreComplete = false;
    45ba:	7022      	strb	r2, [r4, #0]
            g_ui32BuckInputs = 0;
    45bc:	600a      	str	r2, [r1, #0]
            am_hal_flash_delay( FLASH_CYCLES_US(5) );
    45be:	f7fd f9b9 	bl	1934 <am_hal_flash_delay>
            am_hal_ctimer_start(ui32BuckTimer, AM_HAL_CTIMER_BOTH);
    45c2:	9800      	ldr	r0, [sp, #0]
    45c4:	f04f 31ff 	mov.w	r1, #4294967295
    45c8:	f7fd f8fa 	bl	17c0 <am_hal_ctimer_start>
    45cc:	e786      	b.n	44dc <am_hal_sysctrl_sleep+0x24>
    45ce:	bf00      	nop
    45d0:	40020250 	.word	0x40020250
    45d4:	e000ed10 	.word	0xe000ed10
    45d8:	4002000c 	.word	0x4002000c
    45dc:	10000868 	.word	0x10000868
    45e0:	40021008 	.word	0x40021008
    45e4:	10000863 	.word	0x10000863
    45e8:	40020068 	.word	0x40020068
    45ec:	10000864 	.word	0x10000864
    45f0:	40021000 	.word	0x40021000

000045f4 <am_hal_uart_config>:
//
//*****************************************************************************
void
am_hal_uart_config(uint32_t ui32Module, am_hal_uart_config_t *psConfig)

{
    45f4:	b5f8      	push	{r3, r4, r5, r6, r7, lr}
    45f6:	460d      	mov	r5, r1
    45f8:	4607      	mov	r7, r0
    uint32_t ui32HFRC;

    //
    // Configure the Baudrate.
    //
    ui32HFRC = am_hal_clkgen_sysclk_get();
    45fa:	f7fd f829 	bl	1650 <am_hal_clkgen_sysclk_get>
    ui32BaudClk = BAUDCLK * ui32Baudrate;
    45fe:	682b      	ldr	r3, [r5, #0]
    ui64IntermediateLong = (ui32UartClkFreq * 64) / ui32BaudClk;
    4600:	0186      	lsls	r6, r0, #6
    ui32BaudClk = BAUDCLK * ui32Baudrate;
    4602:	0159      	lsls	r1, r3, #5
    ui32IntegerDivisor = (uint32_t)(ui32UartClkFreq / ui32BaudClk);
    4604:	fbb0 f4f1 	udiv	r4, r0, r1
    ui64IntermediateLong = (ui32UartClkFreq * 64) / ui32BaudClk;
    4608:	fbb6 f0f1 	udiv	r0, r6, r1
    460c:	eba0 1684 	sub.w	r6, r0, r4, lsl #6
    am_hal_debug_assert_msg(ui32IntegerDivisor > 0, "Integer divisor MUST be greater than or equal to 1.");
    4610:	b924      	cbnz	r4, 461c <am_hal_uart_config+0x28>
    4612:	4a11      	ldr	r2, [pc, #68]	; (4658 <am_hal_uart_config+0x64>)
    4614:	4811      	ldr	r0, [pc, #68]	; (465c <am_hal_uart_config+0x68>)
    4616:	2164      	movs	r1, #100	; 0x64
    4618:	f7fd f98a 	bl	1930 <am_hal_debug_error>
    AM_REGn(UART, ui32Module, IBRD) = ui32IntegerDivisor;
    461c:	f507 2280 	add.w	r2, r7, #262144	; 0x40000
    4620:	321c      	adds	r2, #28
    4622:	0317      	lsls	r7, r2, #12
    ui32ConfigVal |= psConfig->ui32DataBits;

    //
    // OR in the Two Stop bit if used.
    //
    ui32ConfigVal |= psConfig->bTwoStopBits ? AM_REG_UART_LCRH_STP2_M : 0;
    4624:	7a2b      	ldrb	r3, [r5, #8]
    AM_REGn(UART, ui32Module, IBRD) = ui32IntegerDivisor;
    4626:	627c      	str	r4, [r7, #36]	; 0x24
    AM_REGn(UART, ui32Module, IBRD) = ui32IntegerDivisor;
    4628:	627c      	str	r4, [r7, #36]	; 0x24
    AM_REGn(UART, ui32Module, FBRD) = ui32FractionDivisor;
    462a:	62be      	str	r6, [r7, #40]	; 0x28
    ui32ConfigVal |= psConfig->ui32DataBits;
    462c:	6868      	ldr	r0, [r5, #4]
    ui32ConfigVal |= psConfig->ui32Parity;

    //
    // Write config to Line control register.
    //
    AM_REGn(UART, ui32Module, LCRH) |= ui32ConfigVal;
    462e:	68ec      	ldr	r4, [r5, #12]
    4630:	6af9      	ldr	r1, [r7, #44]	; 0x2c
    ui32ConfigVal |= psConfig->bTwoStopBits ? AM_REG_UART_LCRH_STP2_M : 0;
    4632:	2b00      	cmp	r3, #0
    AM_REGn(UART, ui32Module, LCRH) |= ui32ConfigVal;
    4634:	ea40 0004 	orr.w	r0, r0, r4
    4638:	ea40 0001 	orr.w	r0, r0, r1
    ui32ConfigVal |= psConfig->bTwoStopBits ? AM_REG_UART_LCRH_STP2_M : 0;
    463c:	bf14      	ite	ne
    463e:	2108      	movne	r1, #8
    4640:	2100      	moveq	r1, #0
    AM_REGn(UART, ui32Module, LCRH) |= ui32ConfigVal;
    4642:	4308      	orrs	r0, r1
    4644:	62f8      	str	r0, [r7, #44]	; 0x2c

    //
    // Write the flow control settings to the control register.
    //
    AM_REGn(UART, ui32Module, CR) |= psConfig->ui32FlowCtrl;
    4646:	6b3e      	ldr	r6, [r7, #48]	; 0x30
    4648:	692d      	ldr	r5, [r5, #16]
    464a:	432e      	orrs	r6, r5
    464c:	633e      	str	r6, [r7, #48]	; 0x30

    //
    // Set the clock select field for 24MHz from the HFRC
    //
    AM_REGn(UART, ui32Module, CR) |= AM_REG_UART_CR_CLKSEL_24MHZ;
    464e:	6b3a      	ldr	r2, [r7, #48]	; 0x30
    4650:	f042 0310 	orr.w	r3, r2, #16
    4654:	633b      	str	r3, [r7, #48]	; 0x30
    4656:	bdf8      	pop	{r3, r4, r5, r6, r7, pc}
    4658:	00004d4c 	.word	0x00004d4c
    465c:	00004d80 	.word	0x00004d80

00004660 <am_hal_uart_int_status_get>:
    if (bEnabledOnly)
    {
        //
        // Read and return the Masked Interrupt Status.
        //
        return AM_REGn(UART, ui32Module, MIS);
    4660:	f500 2080 	add.w	r0, r0, #262144	; 0x40000
    4664:	301c      	adds	r0, #28
    4666:	0302      	lsls	r2, r0, #12
    if (bEnabledOnly)
    4668:	b909      	cbnz	r1, 466e <am_hal_uart_int_status_get+0xe>
    else
    {
        //
        // Read and return the Raw Interrupt Status.
        //
        return AM_REGn(UART, ui32Module, IES);
    466a:	6bd0      	ldr	r0, [r2, #60]	; 0x3c
    }
}
    466c:	4770      	bx	lr
        return AM_REGn(UART, ui32Module, MIS);
    466e:	6c10      	ldr	r0, [r2, #64]	; 0x40
    4670:	4770      	bx	lr
    4672:	bf00      	nop

00004674 <am_hal_uart_int_clear>:
am_hal_uart_int_clear(uint32_t ui32Module, uint32_t ui32Interrupt)
{
    //
    // Clear the bits.
    //
    AM_REGn(UART, ui32Module, IEC) = ui32Interrupt;
    4674:	f500 2080 	add.w	r0, r0, #262144	; 0x40000
    4678:	301c      	adds	r0, #28
    467a:	0302      	lsls	r2, r0, #12
    467c:	6451      	str	r1, [r2, #68]	; 0x44
    467e:	4770      	bx	lr

00004680 <am_hal_uart_int_enable>:
am_hal_uart_int_enable(uint32_t ui32Module, uint32_t ui32Interrupt)
{
    //
    // Enable the interrupts.
    //
    AM_REGn(UART, ui32Module, IER) |= ui32Interrupt;
    4680:	f500 2080 	add.w	r0, r0, #262144	; 0x40000
    4684:	301c      	adds	r0, #28
    4686:	0302      	lsls	r2, r0, #12
    4688:	6b93      	ldr	r3, [r2, #56]	; 0x38
    468a:	4319      	orrs	r1, r3
    468c:	6391      	str	r1, [r2, #56]	; 0x38
    468e:	4770      	bx	lr

00004690 <am_hal_uart_enable>:
//! @return None.
//
//*****************************************************************************
void
am_hal_uart_enable(uint32_t ui32Module)
{
    4690:	b510      	push	{r4, lr}
    4692:	4604      	mov	r4, r0
    4694:	b082      	sub	sp, #8
    //
    // Enable the UART, RX, and TX.
    //
    AM_REGan_SET(UART, ui32Module, CR, (AM_REG_UART_CR_UARTEN_M   |
    4696:	f7fd fa7d 	bl	1b94 <am_hal_interrupt_master_disable>
    469a:	f504 2380 	add.w	r3, r4, #262144	; 0x40000
    469e:	331c      	adds	r3, #28
    46a0:	0319      	lsls	r1, r3, #12
    46a2:	9001      	str	r0, [sp, #4]
    46a4:	6b0a      	ldr	r2, [r1, #48]	; 0x30
    46a6:	f442 7040 	orr.w	r0, r2, #768	; 0x300
    46aa:	f040 0401 	orr.w	r4, r0, #1
    46ae:	630c      	str	r4, [r1, #48]	; 0x30
    46b0:	9801      	ldr	r0, [sp, #4]
    46b2:	f7fd fa73 	bl	1b9c <am_hal_interrupt_master_set>
                                        AM_REG_UART_CR_RXE_M      |
                                        AM_REG_UART_CR_TXE_M) );
}
    46b6:	b002      	add	sp, #8
    46b8:	bd10      	pop	{r4, pc}
    46ba:	bf00      	nop

000046bc <am_hal_uart_disable>:
//! @return None.
//
//*****************************************************************************
void
am_hal_uart_disable(uint32_t ui32Module)
{
    46bc:	b510      	push	{r4, lr}
    46be:	4604      	mov	r4, r0
    46c0:	b082      	sub	sp, #8
    //
    // Disable the UART.
    //
    AM_REGan_CLR(UART, ui32Module, CR, (AM_REG_UART_CR_UARTEN_M   |
    46c2:	f7fd fa67 	bl	1b94 <am_hal_interrupt_master_disable>
    46c6:	f504 2380 	add.w	r3, r4, #262144	; 0x40000
    46ca:	331c      	adds	r3, #28
    46cc:	0319      	lsls	r1, r3, #12
    46ce:	9001      	str	r0, [sp, #4]
    46d0:	6b0a      	ldr	r2, [r1, #48]	; 0x30
    46d2:	f422 7040 	bic.w	r0, r2, #768	; 0x300
    46d6:	f020 0401 	bic.w	r4, r0, #1
    46da:	630c      	str	r4, [r1, #48]	; 0x30
    46dc:	9801      	ldr	r0, [sp, #4]
    46de:	f7fd fa5d 	bl	1b9c <am_hal_interrupt_master_set>
                                        AM_REG_UART_CR_RXE_M      |
                                        AM_REG_UART_CR_TXE_M) );
}
    46e2:	b002      	add	sp, #8
    46e4:	bd10      	pop	{r4, pc}
    46e6:	bf00      	nop

000046e8 <am_hal_uart_pwrctrl_enable>:
am_hal_uart_pwrctrl_enable(uint32_t ui32Module)
{
    //
    // Check to make sure we're acting on a real UART module.
    //
    am_hal_debug_assert_msg(ui32Module < AM_REG_UART_NUM_MODULES,
    46e8:	2801      	cmp	r0, #1
{
    46ea:	b510      	push	{r4, lr}
    46ec:	4604      	mov	r4, r0
    am_hal_debug_assert_msg(ui32Module < AM_REG_UART_NUM_MODULES,
    46ee:	d905      	bls.n	46fc <am_hal_uart_pwrctrl_enable+0x14>
    46f0:	4a05      	ldr	r2, [pc, #20]	; (4708 <am_hal_uart_pwrctrl_enable+0x20>)
    46f2:	4806      	ldr	r0, [pc, #24]	; (470c <am_hal_uart_pwrctrl_enable+0x24>)
    46f4:	f44f 71d4 	mov.w	r1, #424	; 0x1a8
    46f8:	f7fd f91a 	bl	1930 <am_hal_debug_error>
                            "Trying to disable a UART module that doesn't exist");

    am_hal_pwrctrl_periph_enable(AM_HAL_PWRCTRL_UART0 << ui32Module);
    46fc:	2080      	movs	r0, #128	; 0x80
    46fe:	40a0      	lsls	r0, r4
}
    4700:	e8bd 4010 	ldmia.w	sp!, {r4, lr}
    am_hal_pwrctrl_periph_enable(AM_HAL_PWRCTRL_UART0 << ui32Module);
    4704:	f7ff bbd2 	b.w	3eac <am_hal_pwrctrl_periph_enable>
    4708:	00004d94 	.word	0x00004d94
    470c:	00004d80 	.word	0x00004d80

00004710 <am_hal_uart_clock_enable>:
//! @return None.
//
//*****************************************************************************
void
am_hal_uart_clock_enable(uint32_t ui32Module)
{
    4710:	b510      	push	{r4, lr}
    //
    // Set CLKGEN.UARTEN, clear the field then write the desired enable value
    // Valid enable values are DIS, EN, REDUCE_FREQ, EN_POWER_SAV.
    //
    am_hal_clkgen_uarten_set(ui32Module, AM_HAL_CLKGEN_UARTEN_EN);
    4712:	2101      	movs	r1, #1
{
    4714:	4604      	mov	r4, r0
    am_hal_clkgen_uarten_set(ui32Module, AM_HAL_CLKGEN_UARTEN_EN);
    4716:	f7fc ffb5 	bl	1684 <am_hal_clkgen_uarten_set>

    //
    // Enable the UART clock.
    //
    AM_REGn(UART, ui32Module, CR) |= AM_REG_UART_CR_CLKEN_M;
    471a:	f504 2080 	add.w	r0, r4, #262144	; 0x40000
    471e:	301c      	adds	r0, #28
    4720:	0301      	lsls	r1, r0, #12
    4722:	6b0b      	ldr	r3, [r1, #48]	; 0x30
    4724:	f043 0208 	orr.w	r2, r3, #8
    4728:	630a      	str	r2, [r1, #48]	; 0x30

    //
    // Select default UART clock source
    //
    AM_REGn(UART, ui32Module, CR) |= AM_REG_UART_CR_CLKSEL_24MHZ;
    472a:	6b0c      	ldr	r4, [r1, #48]	; 0x30
    472c:	f044 0010 	orr.w	r0, r4, #16
    4730:	6308      	str	r0, [r1, #48]	; 0x30
    4732:	bd10      	pop	{r4, pc}

00004734 <am_hal_uart_fifo_config>:
am_hal_uart_fifo_config(uint32_t ui32Module, uint32_t ui32LvlCfg)
{
    //
    // Enable the use of FIFOs.
    //
    AM_REGn(UART, ui32Module, LCRH) |= AM_REG_UART_LCRH_FEN_M;
    4734:	f500 2080 	add.w	r0, r0, #262144	; 0x40000
    4738:	301c      	adds	r0, #28
    473a:	0302      	lsls	r2, r0, #12
    473c:	6ad3      	ldr	r3, [r2, #44]	; 0x2c
    473e:	f043 0010 	orr.w	r0, r3, #16
    4742:	62d0      	str	r0, [r2, #44]	; 0x2c

    //
    // Write the FIFO level register.
    //
    AM_REGn(UART, ui32Module, IFLS) = ui32LvlCfg;
    4744:	6351      	str	r1, [r2, #52]	; 0x34
    4746:	4770      	bx	lr

00004748 <am_hal_uart_string_transmit_polled>:
//! @return None.
//
//*****************************************************************************
void
am_hal_uart_string_transmit_polled(uint32_t ui32Module, char *pcString)
{
    4748:	b410      	push	{r4}
    while (*pcString)
    474a:	780c      	ldrb	r4, [r1, #0]
    474c:	b16c      	cbz	r4, 476a <am_hal_uart_string_transmit_polled+0x22>
    474e:	f500 2080 	add.w	r0, r0, #262144	; 0x40000
    4752:	301c      	adds	r0, #28
    4754:	0300      	lsls	r0, r0, #12
    4756:	f100 0218 	add.w	r2, r0, #24
    {
        //
        // Wait for space, i.e.  TX FIFO EMPTY.
        //
        while (AM_BFRn(UART, ui32Module, FR, TXFF));
    475a:	6813      	ldr	r3, [r2, #0]
    475c:	069b      	lsls	r3, r3, #26
    475e:	d4fc      	bmi.n	475a <am_hal_uart_string_transmit_polled+0x12>

        //
        // Write the char.
        //
        AM_REGn(UART, ui32Module, DR) = *pcString++;
    4760:	6004      	str	r4, [r0, #0]
    while (*pcString)
    4762:	f811 4f01 	ldrb.w	r4, [r1, #1]!
    4766:	2c00      	cmp	r4, #0
    4768:	d1f7      	bne.n	475a <am_hal_uart_string_transmit_polled+0x12>
    }
}
    476a:	f85d 4b04 	ldr.w	r4, [sp], #4
    476e:	4770      	bx	lr

00004770 <am_hal_uart_init_buffered>:
//*****************************************************************************
void
am_hal_uart_init_buffered(uint32_t ui32Module,
                          uint8_t *pui8RxArray, uint32_t ui32RxSize,
                          uint8_t *pui8TxArray, uint32_t ui32TxSize)
{
    4770:	e92d 41f0 	stmdb	sp!, {r4, r5, r6, r7, r8, lr}
    4774:	9e06      	ldr	r6, [sp, #24]
    4776:	4604      	mov	r4, r0
    4778:	461d      	mov	r5, r3
    if ( (pui8RxArray != NULL)  &&  (ui32RxSize > 0) )
    477a:	b101      	cbz	r1, 477e <am_hal_uart_init_buffered+0xe>
    477c:	b91a      	cbnz	r2, 4786 <am_hal_uart_init_buffered+0x16>
        // Initialize the RX ring buffer.
        //
        am_hal_queue_init(&g_psRxQueue[ui32Module], pui8RxArray, 1, ui32RxSize);
    }

    if ( (pui8TxArray != NULL)  &&  (ui32TxSize > 0) )
    477e:	b105      	cbz	r5, 4782 <am_hal_uart_init_buffered+0x12>
    4780:	b99e      	cbnz	r6, 47aa <am_hal_uart_init_buffered+0x3a>
    4782:	e8bd 81f0 	ldmia.w	sp!, {r4, r5, r6, r7, r8, pc}
        AM_REGn(UART, ui32Module, IER) |= (AM_REG_UART_IES_RTRIS_M);
    4786:	f500 2380 	add.w	r3, r0, #262144	; 0x40000
    478a:	331c      	adds	r3, #28
    478c:	031f      	lsls	r7, r3, #12
        am_hal_queue_init(&g_psRxQueue[ui32Module], pui8RxArray, 1, ui32RxSize);
    478e:	4613      	mov	r3, r2
        AM_REGn(UART, ui32Module, IER) |= (AM_REG_UART_IES_RTRIS_M);
    4790:	6bba      	ldr	r2, [r7, #56]	; 0x38
        am_hal_queue_init(&g_psRxQueue[ui32Module], pui8RxArray, 1, ui32RxSize);
    4792:	4810      	ldr	r0, [pc, #64]	; (47d4 <am_hal_uart_init_buffered+0x64>)
        AM_REGn(UART, ui32Module, IER) |= (AM_REG_UART_IES_RTRIS_M);
    4794:	f042 0240 	orr.w	r2, r2, #64	; 0x40
    4798:	63ba      	str	r2, [r7, #56]	; 0x38
        am_hal_queue_init(&g_psRxQueue[ui32Module], pui8RxArray, 1, ui32RxSize);
    479a:	eb04 0744 	add.w	r7, r4, r4, lsl #1
    479e:	eb00 00c7 	add.w	r0, r0, r7, lsl #3
    47a2:	2201      	movs	r2, #1
    47a4:	f7ff fd46 	bl	4234 <am_hal_queue_init>
    47a8:	e7e9      	b.n	477e <am_hal_uart_init_buffered+0xe>
    {
        //
        // Enable the UART TX timeout interrupt.
        //
        AM_REGn(UART, ui32Module, IER) |= (AM_REG_UART_IES_TXRIS_M);
    47aa:	f504 2180 	add.w	r1, r4, #262144	; 0x40000
    47ae:	311c      	adds	r1, #28
    47b0:	030a      	lsls	r2, r1, #12

        //
        // Initialize the TX ring buffer.
        //
        am_hal_queue_init(&g_psTxQueue[ui32Module], pui8TxArray, 1, ui32TxSize);
    47b2:	4809      	ldr	r0, [pc, #36]	; (47d8 <am_hal_uart_init_buffered+0x68>)
        AM_REGn(UART, ui32Module, IER) |= (AM_REG_UART_IES_TXRIS_M);
    47b4:	6b93      	ldr	r3, [r2, #56]	; 0x38
        am_hal_queue_init(&g_psTxQueue[ui32Module], pui8TxArray, 1, ui32TxSize);
    47b6:	eb04 0844 	add.w	r8, r4, r4, lsl #1
        AM_REGn(UART, ui32Module, IER) |= (AM_REG_UART_IES_TXRIS_M);
    47ba:	f043 0420 	orr.w	r4, r3, #32
    47be:	6394      	str	r4, [r2, #56]	; 0x38
        am_hal_queue_init(&g_psTxQueue[ui32Module], pui8TxArray, 1, ui32TxSize);
    47c0:	4633      	mov	r3, r6
    47c2:	4629      	mov	r1, r5
    47c4:	eb00 00c8 	add.w	r0, r0, r8, lsl #3
    47c8:	2201      	movs	r2, #1
    }
}
    47ca:	e8bd 41f0 	ldmia.w	sp!, {r4, r5, r6, r7, r8, lr}
        am_hal_queue_init(&g_psTxQueue[ui32Module], pui8TxArray, 1, ui32TxSize);
    47ce:	f7ff bd31 	b.w	4234 <am_hal_queue_init>
    47d2:	bf00      	nop
    47d4:	10000c50 	.word	0x10000c50
    47d8:	10000c80 	.word	0x10000c80

000047dc <am_hal_uart_service_buffered_timeout_save>:
//! @return None
//
//*****************************************************************************
void
am_hal_uart_service_buffered_timeout_save(uint32_t ui32Module, uint32_t ui32Status)
{
    47dc:	e92d 4ff0 	stmdb	sp!, {r4, r5, r6, r7, r8, r9, sl, fp, lr}
    47e0:	b083      	sub	sp, #12
    uint8_t ui8Character = '\x00';
    47e2:	2300      	movs	r3, #0

    //
    // Check to see if we have filled the Rx FIFO past the configured limit, or
    // if we have an 'old' character or two sitting in the FIFO.
    //
    if (ui32Status & (AM_REG_UART_IES_RXRIS_M | AM_REG_UART_IES_RTRIS_M))
    47e4:	f011 0f50 	tst.w	r1, #80	; 0x50
{
    47e8:	468a      	mov	sl, r1
    47ea:	4604      	mov	r4, r0
    uint8_t ui8Character = '\x00';
    47ec:	f88d 3007 	strb.w	r3, [sp, #7]
    if (ui32Status & (AM_REG_UART_IES_RXRIS_M | AM_REG_UART_IES_RTRIS_M))
    47f0:	d06a      	beq.n	48c8 <am_hal_uart_service_buffered_timeout_save+0xec>
    {
        //
        // Check to see what our FIFO configuration setting is.
        //
        uint32_t ui32FifoThreshold;
        uint32_t ui32FifoCfg = AM_BFMn(UART, ui32Module, IFLS, RXIFLSEL);
    47f2:	f500 2580 	add.w	r5, r0, #262144	; 0x40000
    47f6:	351c      	adds	r5, #28
    47f8:	032d      	lsls	r5, r5, #12
    47fa:	6b68      	ldr	r0, [r5, #52]	; 0x34
    47fc:	f000 0138 	and.w	r1, r0, #56	; 0x38
    4800:	2920      	cmp	r1, #32
    4802:	f200 808b 	bhi.w	491c <am_hal_uart_service_buffered_timeout_save+0x140>
    4806:	4a6b      	ldr	r2, [pc, #428]	; (49b4 <am_hal_uart_service_buffered_timeout_save+0x1d8>)
    4808:	f812 8001 	ldrb.w	r8, [r2, r1]
            // the FIFO.
            //
            if ( (ui32FifoEntry & 0xF00) == 0)
            {
                ui8Character = ui32FifoEntry & 0xFF;
                am_hal_queue_item_add(&g_psRxQueue[ui32Module], &ui8Character, 1);
    480c:	4b6a      	ldr	r3, [pc, #424]	; (49b8 <am_hal_uart_service_buffered_timeout_save+0x1dc>)
    480e:	462f      	mov	r7, r5
            }

            //
            // Leave one byte to trigger the RX timeout interrupt.
            //
            if ( ++ui32Count >= (ui32FifoThreshold - 1) )
    4810:	f108 38ff 	add.w	r8, r8, #4294967295
        while (!AM_BFRn(UART, ui32Module, FR, RXFE))
    4814:	f857 6f18 	ldr.w	r6, [r7, #24]!
    4818:	f108 30ff 	add.w	r0, r8, #4294967295
                am_hal_queue_item_add(&g_psRxQueue[ui32Module], &ui8Character, 1);
    481c:	eb04 0144 	add.w	r1, r4, r4, lsl #1
        while (!AM_BFRn(UART, ui32Module, FR, RXFE))
    4820:	06f6      	lsls	r6, r6, #27
    4822:	f000 0b03 	and.w	fp, r0, #3
                am_hal_queue_item_add(&g_psRxQueue[ui32Module], &ui8Character, 1);
    4826:	eb03 09c1 	add.w	r9, r3, r1, lsl #3
        while (!AM_BFRn(UART, ui32Module, FR, RXFE))
    482a:	d44d      	bmi.n	48c8 <am_hal_uart_service_buffered_timeout_save+0xec>
            ui32FifoEntry = AM_REGn(UART, ui32Module, DR);
    482c:	682e      	ldr	r6, [r5, #0]
            if ( (ui32FifoEntry & 0xF00) == 0)
    482e:	f416 6f70 	tst.w	r6, #3840	; 0xf00
    4832:	f000 809a 	beq.w	496a <am_hal_uart_service_buffered_timeout_save+0x18e>
            if ( ++ui32Count >= (ui32FifoThreshold - 1) )
    4836:	2601      	movs	r6, #1
    4838:	4546      	cmp	r6, r8
    483a:	d245      	bcs.n	48c8 <am_hal_uart_service_buffered_timeout_save+0xec>
    483c:	f1bb 0f00 	cmp.w	fp, #0
    4840:	d021      	beq.n	4886 <am_hal_uart_service_buffered_timeout_save+0xaa>
    4842:	45b3      	cmp	fp, r6
    4844:	d014      	beq.n	4870 <am_hal_uart_service_buffered_timeout_save+0x94>
    4846:	f1bb 0f02 	cmp.w	fp, #2
    484a:	d008      	beq.n	485e <am_hal_uart_service_buffered_timeout_save+0x82>
        while (!AM_BFRn(UART, ui32Module, FR, RXFE))
    484c:	683a      	ldr	r2, [r7, #0]
    484e:	06d3      	lsls	r3, r2, #27
    4850:	d43a      	bmi.n	48c8 <am_hal_uart_service_buffered_timeout_save+0xec>
            ui32FifoEntry = AM_REGn(UART, ui32Module, DR);
    4852:	682b      	ldr	r3, [r5, #0]
            if ( (ui32FifoEntry & 0xF00) == 0)
    4854:	f413 6f70 	tst.w	r3, #3840	; 0xf00
    4858:	f000 8090 	beq.w	497c <am_hal_uart_service_buffered_timeout_save+0x1a0>
            if ( ++ui32Count >= (ui32FifoThreshold - 1) )
    485c:	3601      	adds	r6, #1
        while (!AM_BFRn(UART, ui32Module, FR, RXFE))
    485e:	6838      	ldr	r0, [r7, #0]
    4860:	06c0      	lsls	r0, r0, #27
    4862:	d431      	bmi.n	48c8 <am_hal_uart_service_buffered_timeout_save+0xec>
            ui32FifoEntry = AM_REGn(UART, ui32Module, DR);
    4864:	682b      	ldr	r3, [r5, #0]
            if ( (ui32FifoEntry & 0xF00) == 0)
    4866:	f413 6f70 	tst.w	r3, #3840	; 0xf00
    486a:	f000 8090 	beq.w	498e <am_hal_uart_service_buffered_timeout_save+0x1b2>
            if ( ++ui32Count >= (ui32FifoThreshold - 1) )
    486e:	3601      	adds	r6, #1
        while (!AM_BFRn(UART, ui32Module, FR, RXFE))
    4870:	6839      	ldr	r1, [r7, #0]
    4872:	06c9      	lsls	r1, r1, #27
    4874:	d428      	bmi.n	48c8 <am_hal_uart_service_buffered_timeout_save+0xec>
            ui32FifoEntry = AM_REGn(UART, ui32Module, DR);
    4876:	682b      	ldr	r3, [r5, #0]
            if ( (ui32FifoEntry & 0xF00) == 0)
    4878:	f413 6f70 	tst.w	r3, #3840	; 0xf00
    487c:	f000 8090 	beq.w	49a0 <am_hal_uart_service_buffered_timeout_save+0x1c4>
            if ( ++ui32Count >= (ui32FifoThreshold - 1) )
    4880:	3601      	adds	r6, #1
    4882:	4546      	cmp	r6, r8
    4884:	d220      	bcs.n	48c8 <am_hal_uart_service_buffered_timeout_save+0xec>
        while (!AM_BFRn(UART, ui32Module, FR, RXFE))
    4886:	683a      	ldr	r2, [r7, #0]
    4888:	06d0      	lsls	r0, r2, #27
    488a:	d41d      	bmi.n	48c8 <am_hal_uart_service_buffered_timeout_save+0xec>
            ui32FifoEntry = AM_REGn(UART, ui32Module, DR);
    488c:	682b      	ldr	r3, [r5, #0]
            if ( (ui32FifoEntry & 0xF00) == 0)
    488e:	f413 6f70 	tst.w	r3, #3840	; 0xf00
    4892:	d046      	beq.n	4922 <am_hal_uart_service_buffered_timeout_save+0x146>
        while (!AM_BFRn(UART, ui32Module, FR, RXFE))
    4894:	6838      	ldr	r0, [r7, #0]
    4896:	06c3      	lsls	r3, r0, #27
            if ( ++ui32Count >= (ui32FifoThreshold - 1) )
    4898:	f106 0601 	add.w	r6, r6, #1
        while (!AM_BFRn(UART, ui32Module, FR, RXFE))
    489c:	d414      	bmi.n	48c8 <am_hal_uart_service_buffered_timeout_save+0xec>
            ui32FifoEntry = AM_REGn(UART, ui32Module, DR);
    489e:	682b      	ldr	r3, [r5, #0]
            if ( (ui32FifoEntry & 0xF00) == 0)
    48a0:	f413 6f70 	tst.w	r3, #3840	; 0xf00
    48a4:	d046      	beq.n	4934 <am_hal_uart_service_buffered_timeout_save+0x158>
        while (!AM_BFRn(UART, ui32Module, FR, RXFE))
    48a6:	6839      	ldr	r1, [r7, #0]
    48a8:	06ca      	lsls	r2, r1, #27
    48aa:	d40d      	bmi.n	48c8 <am_hal_uart_service_buffered_timeout_save+0xec>
            ui32FifoEntry = AM_REGn(UART, ui32Module, DR);
    48ac:	682b      	ldr	r3, [r5, #0]
            if ( (ui32FifoEntry & 0xF00) == 0)
    48ae:	f413 6f70 	tst.w	r3, #3840	; 0xf00
    48b2:	d048      	beq.n	4946 <am_hal_uart_service_buffered_timeout_save+0x16a>
        while (!AM_BFRn(UART, ui32Module, FR, RXFE))
    48b4:	683a      	ldr	r2, [r7, #0]
    48b6:	06d3      	lsls	r3, r2, #27
    48b8:	d406      	bmi.n	48c8 <am_hal_uart_service_buffered_timeout_save+0xec>
            ui32FifoEntry = AM_REGn(UART, ui32Module, DR);
    48ba:	682b      	ldr	r3, [r5, #0]
            if ( (ui32FifoEntry & 0xF00) == 0)
    48bc:	f413 6f70 	tst.w	r3, #3840	; 0xf00
    48c0:	d04a      	beq.n	4958 <am_hal_uart_service_buffered_timeout_save+0x17c>
            if ( ++ui32Count >= (ui32FifoThreshold - 1) )
    48c2:	3603      	adds	r6, #3
    48c4:	4546      	cmp	r6, r8
    48c6:	d3de      	bcc.n	4886 <am_hal_uart_service_buffered_timeout_save+0xaa>

    //
    // Check to see if our TX buffer has been recently emptied. If so, we
    // should refill it from the TX ring buffer.
    //
    if (ui32Status & AM_REG_UART_IES_TXRIS_M)
    48c8:	f01a 0f20 	tst.w	sl, #32
    48cc:	d023      	beq.n	4916 <am_hal_uart_service_buffered_timeout_save+0x13a>
    {
        //
        // Keep refilling until the fifo is full, or the ring buffer is empty,
        // whichever happens first.
        //
        while (am_hal_queue_data_left(&g_psTxQueue[ui32Module]) &&
    48ce:	4d3b      	ldr	r5, [pc, #236]	; (49bc <am_hal_uart_service_buffered_timeout_save+0x1e0>)
    48d0:	eb04 0744 	add.w	r7, r4, r4, lsl #1
    48d4:	eb05 08c7 	add.w	r8, r5, r7, lsl #3
    48d8:	f8d8 6008 	ldr.w	r6, [r8, #8]
    48dc:	b1de      	cbz	r6, 4916 <am_hal_uart_service_buffered_timeout_save+0x13a>
               !AM_BFRn(UART, ui32Module, FR, TXFF))
    48de:	f504 2480 	add.w	r4, r4, #262144	; 0x40000
    48e2:	341c      	adds	r4, #28
    48e4:	0325      	lsls	r5, r4, #12
    48e6:	f105 0b18 	add.w	fp, r5, #24
    48ea:	69a8      	ldr	r0, [r5, #24]
        while (am_hal_queue_data_left(&g_psTxQueue[ui32Module]) &&
    48ec:	0681      	lsls	r1, r0, #26
    48ee:	d412      	bmi.n	4916 <am_hal_uart_service_buffered_timeout_save+0x13a>
    48f0:	46c1      	mov	r9, r8
    48f2:	e003      	b.n	48fc <am_hal_uart_service_buffered_timeout_save+0x120>
               !AM_BFRn(UART, ui32Module, FR, TXFF))
    48f4:	f8db 3000 	ldr.w	r3, [fp]
        while (am_hal_queue_data_left(&g_psTxQueue[ui32Module]) &&
    48f8:	069a      	lsls	r2, r3, #26
    48fa:	d40c      	bmi.n	4916 <am_hal_uart_service_buffered_timeout_save+0x13a>
        {
            am_hal_queue_item_get(&g_psTxQueue[ui32Module], &ui8Character, 1);
    48fc:	2201      	movs	r2, #1
    48fe:	f10d 0107 	add.w	r1, sp, #7
    4902:	4640      	mov	r0, r8
    4904:	f7ff fd32 	bl	436c <am_hal_queue_item_get>
            AM_REGn(UART, ui32Module , DR) = ui8Character;
    4908:	f89d 1007 	ldrb.w	r1, [sp, #7]
    490c:	6029      	str	r1, [r5, #0]
        while (am_hal_queue_data_left(&g_psTxQueue[ui32Module]) &&
    490e:	f8d9 2008 	ldr.w	r2, [r9, #8]
    4912:	2a00      	cmp	r2, #0
    4914:	d1ee      	bne.n	48f4 <am_hal_uart_service_buffered_timeout_save+0x118>
        }
    }
}
    4916:	b003      	add	sp, #12
    4918:	e8bd 8ff0 	ldmia.w	sp!, {r4, r5, r6, r7, r8, r9, sl, fp, pc}
        uint32_t ui32FifoCfg = AM_BFMn(UART, ui32Module, IFLS, RXIFLSEL);
    491c:	f04f 0820 	mov.w	r8, #32
    4920:	e774      	b.n	480c <am_hal_uart_service_buffered_timeout_save+0x30>
                am_hal_queue_item_add(&g_psRxQueue[ui32Module], &ui8Character, 1);
    4922:	2201      	movs	r2, #1
    4924:	f10d 0107 	add.w	r1, sp, #7
    4928:	4648      	mov	r0, r9
                ui8Character = ui32FifoEntry & 0xFF;
    492a:	f88d 3007 	strb.w	r3, [sp, #7]
                am_hal_queue_item_add(&g_psRxQueue[ui32Module], &ui8Character, 1);
    492e:	f7ff fc8d 	bl	424c <am_hal_queue_item_add>
    4932:	e7af      	b.n	4894 <am_hal_uart_service_buffered_timeout_save+0xb8>
    4934:	2201      	movs	r2, #1
    4936:	f10d 0107 	add.w	r1, sp, #7
    493a:	4648      	mov	r0, r9
                ui8Character = ui32FifoEntry & 0xFF;
    493c:	f88d 3007 	strb.w	r3, [sp, #7]
                am_hal_queue_item_add(&g_psRxQueue[ui32Module], &ui8Character, 1);
    4940:	f7ff fc84 	bl	424c <am_hal_queue_item_add>
    4944:	e7af      	b.n	48a6 <am_hal_uart_service_buffered_timeout_save+0xca>
    4946:	2201      	movs	r2, #1
    4948:	f10d 0107 	add.w	r1, sp, #7
    494c:	4648      	mov	r0, r9
                ui8Character = ui32FifoEntry & 0xFF;
    494e:	f88d 3007 	strb.w	r3, [sp, #7]
                am_hal_queue_item_add(&g_psRxQueue[ui32Module], &ui8Character, 1);
    4952:	f7ff fc7b 	bl	424c <am_hal_queue_item_add>
    4956:	e7ad      	b.n	48b4 <am_hal_uart_service_buffered_timeout_save+0xd8>
    4958:	2201      	movs	r2, #1
    495a:	f10d 0107 	add.w	r1, sp, #7
    495e:	4648      	mov	r0, r9
                ui8Character = ui32FifoEntry & 0xFF;
    4960:	f88d 3007 	strb.w	r3, [sp, #7]
                am_hal_queue_item_add(&g_psRxQueue[ui32Module], &ui8Character, 1);
    4964:	f7ff fc72 	bl	424c <am_hal_queue_item_add>
    4968:	e7ab      	b.n	48c2 <am_hal_uart_service_buffered_timeout_save+0xe6>
    496a:	2201      	movs	r2, #1
    496c:	f10d 0107 	add.w	r1, sp, #7
    4970:	4648      	mov	r0, r9
                ui8Character = ui32FifoEntry & 0xFF;
    4972:	f88d 6007 	strb.w	r6, [sp, #7]
                am_hal_queue_item_add(&g_psRxQueue[ui32Module], &ui8Character, 1);
    4976:	f7ff fc69 	bl	424c <am_hal_queue_item_add>
    497a:	e75c      	b.n	4836 <am_hal_uart_service_buffered_timeout_save+0x5a>
    497c:	4632      	mov	r2, r6
    497e:	f10d 0107 	add.w	r1, sp, #7
    4982:	4648      	mov	r0, r9
                ui8Character = ui32FifoEntry & 0xFF;
    4984:	f88d 3007 	strb.w	r3, [sp, #7]
                am_hal_queue_item_add(&g_psRxQueue[ui32Module], &ui8Character, 1);
    4988:	f7ff fc60 	bl	424c <am_hal_queue_item_add>
    498c:	e766      	b.n	485c <am_hal_uart_service_buffered_timeout_save+0x80>
    498e:	2201      	movs	r2, #1
    4990:	f10d 0107 	add.w	r1, sp, #7
    4994:	4648      	mov	r0, r9
                ui8Character = ui32FifoEntry & 0xFF;
    4996:	f88d 3007 	strb.w	r3, [sp, #7]
                am_hal_queue_item_add(&g_psRxQueue[ui32Module], &ui8Character, 1);
    499a:	f7ff fc57 	bl	424c <am_hal_queue_item_add>
    499e:	e766      	b.n	486e <am_hal_uart_service_buffered_timeout_save+0x92>
    49a0:	2201      	movs	r2, #1
    49a2:	f10d 0107 	add.w	r1, sp, #7
    49a6:	4648      	mov	r0, r9
                ui8Character = ui32FifoEntry & 0xFF;
    49a8:	f88d 3007 	strb.w	r3, [sp, #7]
                am_hal_queue_item_add(&g_psRxQueue[ui32Module], &ui8Character, 1);
    49ac:	f7ff fc4e 	bl	424c <am_hal_queue_item_add>
    49b0:	e766      	b.n	4880 <am_hal_uart_service_buffered_timeout_save+0xa4>
    49b2:	bf00      	nop
    49b4:	00004d28 	.word	0x00004d28
    49b8:	10000c50 	.word	0x10000c50
    49bc:	10000c80 	.word	0x10000c80

000049c0 <am_hal_uart_char_transmit_buffered>:
//! @return None.
//
//*****************************************************************************
void
am_hal_uart_char_transmit_buffered(uint32_t ui32Module, char cChar)
{
    49c0:	b510      	push	{r4, lr}
    //
    // Check the status of the Tx fifo and the Tx ring buffer.
    //
    if (am_hal_queue_empty(&g_psTxQueue[ui32Module]) &&
    49c2:	0042      	lsls	r2, r0, #1
{
    49c4:	b082      	sub	sp, #8
    if (am_hal_queue_empty(&g_psTxQueue[ui32Module]) &&
    49c6:	4c0f      	ldr	r4, [pc, #60]	; (4a04 <am_hal_uart_char_transmit_buffered+0x44>)
{
    49c8:	f88d 1007 	strb.w	r1, [sp, #7]
    if (am_hal_queue_empty(&g_psTxQueue[ui32Module]) &&
    49cc:	1813      	adds	r3, r2, r0
    49ce:	eb04 01c3 	add.w	r1, r4, r3, lsl #3
    49d2:	688b      	ldr	r3, [r1, #8]
    49d4:	b933      	cbnz	r3, 49e4 <am_hal_uart_char_transmit_buffered+0x24>
        !AM_BFRn(UART, ui32Module, FR, TXFF))
    49d6:	f500 2180 	add.w	r1, r0, #262144	; 0x40000
    49da:	311c      	adds	r1, #28
    49dc:	030b      	lsls	r3, r1, #12
    49de:	6999      	ldr	r1, [r3, #24]
    if (am_hal_queue_empty(&g_psTxQueue[ui32Module]) &&
    49e0:	0689      	lsls	r1, r1, #26
    49e2:	d509      	bpl.n	49f8 <am_hal_uart_char_transmit_buffered+0x38>
        // already in use. In either case, we need to use the ring buffer
        // to make sure that the transmitted data gets sent in the right
        // order. If the buffer is already full, we will simply lose this
        // byte.
        //
        am_hal_queue_item_add(&g_psTxQueue[ui32Module], &cChar, 1);
    49e4:	4410      	add	r0, r2
    49e6:	eb04 00c0 	add.w	r0, r4, r0, lsl #3
    49ea:	2201      	movs	r2, #1
    49ec:	f10d 0107 	add.w	r1, sp, #7
    49f0:	f7ff fc2c 	bl	424c <am_hal_queue_item_add>
    }
}
    49f4:	b002      	add	sp, #8
    49f6:	bd10      	pop	{r4, pc}
        AM_REGn(UART, ui32Module, DR) = cChar;
    49f8:	f89d 0007 	ldrb.w	r0, [sp, #7]
    49fc:	6018      	str	r0, [r3, #0]
}
    49fe:	b002      	add	sp, #8
    4a00:	bd10      	pop	{r4, pc}
    4a02:	bf00      	nop
    4a04:	10000c80 	.word	0x10000c80

00004a08 <am_hal_uart_char_receive_buffered>:
//*****************************************************************************
uint32_t
am_hal_uart_char_receive_buffered(uint32_t ui32Module,
                                  char *pcString,
                                  uint32_t ui32MaxChars)
{
    4a08:	e92d 47f0 	stmdb	sp!, {r4, r5, r6, r7, r8, r9, sl, lr}
    uint32_t ui32NumChars = 0;

    //
    // Loop until ui32MaxChars or until empty.
    //
    while (am_hal_queue_data_left(&g_psRxQueue[ui32Module]) && ui32MaxChars)
    4a0c:	4c3a      	ldr	r4, [pc, #232]	; (4af8 <am_hal_uart_char_receive_buffered+0xf0>)
    4a0e:	eb00 0040 	add.w	r0, r0, r0, lsl #1
    4a12:	eb04 04c0 	add.w	r4, r4, r0, lsl #3
    4a16:	f8d4 9008 	ldr.w	r9, [r4, #8]
    4a1a:	f1b9 0f00 	cmp.w	r9, #0
    4a1e:	d066      	beq.n	4aee <am_hal_uart_char_receive_buffered+0xe6>
    4a20:	2a00      	cmp	r2, #0
    4a22:	d067      	beq.n	4af4 <am_hal_uart_char_receive_buffered+0xec>
    4a24:	46a2      	mov	sl, r4
    4a26:	1e53      	subs	r3, r2, #1
    4a28:	4617      	mov	r7, r2
    {
        //
        // Pull a char out of the ring buffer.
        //
        am_hal_queue_item_get(&g_psRxQueue[ui32Module], pcString, 1);
    4a2a:	4620      	mov	r0, r4
    4a2c:	2201      	movs	r2, #1
    4a2e:	460d      	mov	r5, r1
    4a30:	f003 0803 	and.w	r8, r3, #3
    4a34:	f7ff fc9a 	bl	436c <am_hal_queue_item_get>
    while (am_hal_queue_data_left(&g_psRxQueue[ui32Module]) && ui32MaxChars)
    4a38:	f85a 1f08 	ldr.w	r1, [sl, #8]!
    4a3c:	4626      	mov	r6, r4
        // Subtract from ui32MaxChars.
        // Add to ui32NumChars.
        // Move pointer in buffer.
        //
        ui32MaxChars--;
        ui32NumChars++;
    4a3e:	f04f 0901 	mov.w	r9, #1
    while (am_hal_queue_data_left(&g_psRxQueue[ui32Module]) && ui32MaxChars)
    4a42:	2900      	cmp	r1, #0
    4a44:	d053      	beq.n	4aee <am_hal_uart_char_receive_buffered+0xe6>
    4a46:	2f01      	cmp	r7, #1
    4a48:	d051      	beq.n	4aee <am_hal_uart_char_receive_buffered+0xe6>
    4a4a:	f1b8 0f00 	cmp.w	r8, #0
    4a4e:	d026      	beq.n	4a9e <am_hal_uart_char_receive_buffered+0x96>
    4a50:	f1b8 0f01 	cmp.w	r8, #1
    4a54:	d017      	beq.n	4a86 <am_hal_uart_char_receive_buffered+0x7e>
    4a56:	f1b8 0f02 	cmp.w	r8, #2
    4a5a:	d00a      	beq.n	4a72 <am_hal_uart_char_receive_buffered+0x6a>
        am_hal_queue_item_get(&g_psRxQueue[ui32Module], pcString, 1);
    4a5c:	464a      	mov	r2, r9
    4a5e:	1c69      	adds	r1, r5, #1
    4a60:	4620      	mov	r0, r4
    4a62:	f7ff fc83 	bl	436c <am_hal_queue_item_get>
    while (am_hal_queue_data_left(&g_psRxQueue[ui32Module]) && ui32MaxChars)
    4a66:	f8da 2000 	ldr.w	r2, [sl]
        ui32NumChars++;
    4a6a:	f04f 0902 	mov.w	r9, #2
    while (am_hal_queue_data_left(&g_psRxQueue[ui32Module]) && ui32MaxChars)
    4a6e:	2a00      	cmp	r2, #0
    4a70:	d03d      	beq.n	4aee <am_hal_uart_char_receive_buffered+0xe6>
        am_hal_queue_item_get(&g_psRxQueue[ui32Module], pcString, 1);
    4a72:	eb05 0109 	add.w	r1, r5, r9
    4a76:	2201      	movs	r2, #1
    4a78:	4620      	mov	r0, r4
    4a7a:	f7ff fc77 	bl	436c <am_hal_queue_item_get>
    while (am_hal_queue_data_left(&g_psRxQueue[ui32Module]) && ui32MaxChars)
    4a7e:	68b0      	ldr	r0, [r6, #8]
        ui32NumChars++;
    4a80:	f109 0901 	add.w	r9, r9, #1
    while (am_hal_queue_data_left(&g_psRxQueue[ui32Module]) && ui32MaxChars)
    4a84:	b398      	cbz	r0, 4aee <am_hal_uart_char_receive_buffered+0xe6>
        am_hal_queue_item_get(&g_psRxQueue[ui32Module], pcString, 1);
    4a86:	eb05 0109 	add.w	r1, r5, r9
    4a8a:	2201      	movs	r2, #1
    4a8c:	4620      	mov	r0, r4
    4a8e:	f7ff fc6d 	bl	436c <am_hal_queue_item_get>
    while (am_hal_queue_data_left(&g_psRxQueue[ui32Module]) && ui32MaxChars)
    4a92:	68b3      	ldr	r3, [r6, #8]
        ui32NumChars++;
    4a94:	f109 0901 	add.w	r9, r9, #1
    while (am_hal_queue_data_left(&g_psRxQueue[ui32Module]) && ui32MaxChars)
    4a98:	b34b      	cbz	r3, 4aee <am_hal_uart_char_receive_buffered+0xe6>
    4a9a:	454f      	cmp	r7, r9
    4a9c:	d027      	beq.n	4aee <am_hal_uart_char_receive_buffered+0xe6>
        am_hal_queue_item_get(&g_psRxQueue[ui32Module], pcString, 1);
    4a9e:	eb05 0109 	add.w	r1, r5, r9
    4aa2:	2201      	movs	r2, #1
    4aa4:	4620      	mov	r0, r4
    4aa6:	f7ff fc61 	bl	436c <am_hal_queue_item_get>
    4aaa:	2201      	movs	r2, #1
    while (am_hal_queue_data_left(&g_psRxQueue[ui32Module]) && ui32MaxChars)
    4aac:	68b3      	ldr	r3, [r6, #8]
        ui32NumChars++;
    4aae:	4491      	add	r9, r2
        am_hal_queue_item_get(&g_psRxQueue[ui32Module], pcString, 1);
    4ab0:	4620      	mov	r0, r4
    4ab2:	eb05 0109 	add.w	r1, r5, r9
        ui32NumChars++;
    4ab6:	46ca      	mov	sl, r9
    while (am_hal_queue_data_left(&g_psRxQueue[ui32Module]) && ui32MaxChars)
    4ab8:	b1cb      	cbz	r3, 4aee <am_hal_uart_char_receive_buffered+0xe6>
        am_hal_queue_item_get(&g_psRxQueue[ui32Module], pcString, 1);
    4aba:	f7ff fc57 	bl	436c <am_hal_queue_item_get>
    4abe:	2201      	movs	r2, #1
    while (am_hal_queue_data_left(&g_psRxQueue[ui32Module]) && ui32MaxChars)
    4ac0:	68b3      	ldr	r3, [r6, #8]
        ui32NumChars++;
    4ac2:	4491      	add	r9, r2
        am_hal_queue_item_get(&g_psRxQueue[ui32Module], pcString, 1);
    4ac4:	4620      	mov	r0, r4
    4ac6:	eb05 0109 	add.w	r1, r5, r9
    while (am_hal_queue_data_left(&g_psRxQueue[ui32Module]) && ui32MaxChars)
    4aca:	b183      	cbz	r3, 4aee <am_hal_uart_char_receive_buffered+0xe6>
        am_hal_queue_item_get(&g_psRxQueue[ui32Module], pcString, 1);
    4acc:	f7ff fc4e 	bl	436c <am_hal_queue_item_get>
    while (am_hal_queue_data_left(&g_psRxQueue[ui32Module]) && ui32MaxChars)
    4ad0:	68b3      	ldr	r3, [r6, #8]
        ui32NumChars++;
    4ad2:	f10a 0902 	add.w	r9, sl, #2
        am_hal_queue_item_get(&g_psRxQueue[ui32Module], pcString, 1);
    4ad6:	2201      	movs	r2, #1
    4ad8:	4620      	mov	r0, r4
    4ada:	eb05 0109 	add.w	r1, r5, r9
    while (am_hal_queue_data_left(&g_psRxQueue[ui32Module]) && ui32MaxChars)
    4ade:	b133      	cbz	r3, 4aee <am_hal_uart_char_receive_buffered+0xe6>
        am_hal_queue_item_get(&g_psRxQueue[ui32Module], pcString, 1);
    4ae0:	f7ff fc44 	bl	436c <am_hal_queue_item_get>
    while (am_hal_queue_data_left(&g_psRxQueue[ui32Module]) && ui32MaxChars)
    4ae4:	68b1      	ldr	r1, [r6, #8]
        ui32NumChars++;
    4ae6:	f10a 0903 	add.w	r9, sl, #3
    while (am_hal_queue_data_left(&g_psRxQueue[ui32Module]) && ui32MaxChars)
    4aea:	2900      	cmp	r1, #0
    4aec:	d1d5      	bne.n	4a9a <am_hal_uart_char_receive_buffered+0x92>

    //
    // return the number of chars received.
    //
    return ui32NumChars;
}
    4aee:	4648      	mov	r0, r9
    4af0:	e8bd 87f0 	ldmia.w	sp!, {r4, r5, r6, r7, r8, r9, sl, pc}
    uint32_t ui32NumChars = 0;
    4af4:	4691      	mov	r9, r2
    return ui32NumChars;
    4af6:	e7fa      	b.n	4aee <am_hal_uart_char_receive_buffered+0xe6>
    4af8:	10000c50 	.word	0x10000c50

00004afc <am_hal_vcomp_disable>:
//
//*****************************************************************************
void
am_hal_vcomp_disable(void)
{
    AM_REG(VCOMP, PWDKEY) = AM_REG_VCOMP_PWDKEY_KEYVAL;
    4afc:	4b01      	ldr	r3, [pc, #4]	; (4b04 <am_hal_vcomp_disable+0x8>)
    4afe:	2237      	movs	r2, #55	; 0x37
    4b00:	601a      	str	r2, [r3, #0]
    4b02:	4770      	bx	lr
    4b04:	4000c008 	.word	0x4000c008

00004b08 <memcpy>:
    4b08:	b510      	push	{r4, lr}
    4b0a:	1e43      	subs	r3, r0, #1
    4b0c:	440a      	add	r2, r1
    4b0e:	4291      	cmp	r1, r2
    4b10:	d100      	bne.n	4b14 <memcpy+0xc>
    4b12:	bd10      	pop	{r4, pc}
    4b14:	f811 4b01 	ldrb.w	r4, [r1], #1
    4b18:	f803 4f01 	strb.w	r4, [r3, #1]!
    4b1c:	e7f7      	b.n	4b0e <memcpy+0x6>
	...

00004b20 <g_sEm9304IOMConfigSPI>:
    4b20:	0001 0000 1200 007a 0000 1414               ......z.....

00004b2c <g_sEm9304>:
    4b2c:	0000 0000 0005 0000 002d 0000 001a 0000     ........-.......

00004b3c <am_hal_cachectrl_defaults>:
    4b3c:	0001 5000 0300 0001 0101 0001 6d61 685f     ...P........am_h
    4b4c:	6c61 635f 6b6c 6567 5f6e 7973 6373 6b6c     al_clkgen_sysclk
    4b5c:	735f 6c65 6365 2874 3a29 6920 766e 6c61     _select(): inval
    4b6c:	6469 6320 6f6c 6b63 7320 7465 6974 676e     id clock setting
    4b7c:	002e 0000 2e2e 2e5c 5c2e 6d61 685f 6c61     ......\..\am_hal
    4b8c:	635f 6b6c 6567 2e6e 0063 0000 6854 2065     _clkgen.c...The 
    4b9c:	6966 6f66 6320 756f 646c 276e 2074 6966     fifo couldn't fi
    4bac:	2074 6874 2065 6572 7571 7365 6574 2064     t the requested 
    4bbc:	756e 626d 7265 6f20 2066 7962 6574 0073     number of bytes.
    4bcc:	2e2e 2e5c 5c2e 6d61 685f 6c61 695f 6d6f     ..\..\am_hal_iom
    4bdc:	632e 0000 6854 2065 6966 6f66 6420 656f     .c..The fifo doe
    4bec:	6e73 7427 6320 6e6f 6174 6e69 7420 6568     sn't contain the
    4bfc:	7220 7165 6575 7473 6465 6e20 6d75 6562      requested numbe
    4c0c:	2072 666f 6220 7479 7365 002e 7254 6979     r of bytes..Tryi
    4c1c:	676e 7420 206f 6964 6173 6c62 2065 6e61     ng to disable an
    4c2c:	4920 4d4f 6d20 646f 6c75 2065 6874 7461      IOM module that
    4c3c:	6420 656f 6e73 7427 6520 6978 7473 002e      doesn't exist..
    4c4c:	7254 6979 676e 7420 206f 6e65 6261 656c     Trying to enable
    4c5c:	6120 206e 4f49 204d 6f6d 7564 656c 7420      an IOM module t
    4c6c:	6168 2074 6f64 7365 276e 2074 7865 7369     hat doesn't exis
    4c7c:	2e74 0000 7254 6979 676e 7420 206f 6f64     t...Trying to do
    4c8c:	6120 3020 6220 7479 2065 7274 6e61 6173      a 0 byte transa
    4c9c:	7463 6f69 006e 0000 5053 2049 7274 6e61     ction...SPI tran
    4cac:	6673 7265 7420 6f6f 6220 6769 002e 0000     sfer too big....
    4cbc:	6e49 6176 696c 2064 6948 4620 6572 7571     Invalid Hi Frequ
    4ccc:	6e65 7963 6620 726f 4920 4d4f 002e 0000     ency for IOM....
    4cdc:	6143 6e6e 746f 6520 616e 6c62 2065 6f6d     Cannot enable mo
    4cec:	6572 7420 6168 206e 6e6f 2065 6570 6972     re than one peri
    4cfc:	6870 7265 6c61 6120 2074 2061 6974 656d     pheral at a time
    4d0c:	002e 0000 2e2e 2e5c 5c2e 6d61 685f 6c61     ......\..\am_hal
    4d1c:	705f 7277 7463 6c72 632e 0000               _pwrctrl.c..

00004d28 <CSWTCH.39>:
    4d28:	2004 2020 2020 2020 2008 2020 2020 2020     .       .       
    4d38:	2010 2020 2020 2020 2018 2020 2020 2020     .       .       
    4d48:	001c 0000 6e49 6574 6567 2072 6964 6976     ....Integer divi
    4d58:	6f73 2072 554d 5453 6220 2065 7267 6165     sor MUST be grea
    4d68:	6574 2072 6874 6e61 6f20 2072 7165 6175     ter than or equa
    4d78:	206c 6f74 3120 002e 2e2e 2e5c 5c2e 6d61     l to 1....\..\am
    4d88:	685f 6c61 755f 7261 2e74 0063 7254 6979     _hal_uart.c.Tryi
    4d98:	676e 7420 206f 6964 6173 6c62 2065 2061     ng to disable a 
    4da8:	4155 5452 6d20 646f 6c75 2065 6874 7461     UART module that
    4db8:	6420 656f 6e73 7427 6520 6978 7473 0000      doesn't exist..
