
bin/audio_experiment.axf:     file format elf32-littlearm


Disassembly of section .text:

0000c000 <g_am_pfnVectors>:
    c000:	00 c0 00 10 bd e0 00 00 b5 e0 00 00 55 ce 00 00     ............U...
    c010:	55 ce 00 00 55 ce 00 00 55 ce 00 00 00 00 00 00     U...U...U.......
	...
    c02c:	b9 e0 00 00 b9 e0 00 00 00 00 00 00 b9 e0 00 00     ................
    c03c:	b9 e0 00 00 b9 e0 00 00 b9 e0 00 00 b9 e0 00 00     ................
    c04c:	b9 e0 00 00 b9 e0 00 00 b9 e0 00 00 b9 e0 00 00     ................
    c05c:	b9 e0 00 00 b9 e0 00 00 b9 e0 00 00 b9 e0 00 00     ................
    c06c:	b9 e0 00 00 b9 e0 00 00 f1 e2 00 00 a9 e2 00 00     ................
    c07c:	b9 e0 00 00 b9 e0 00 00 b9 e0 00 00 b9 e0 00 00     ................
    c08c:	c5 e3 00 00 b9 e0 00 00 b9 e0 00 00 b9 e0 00 00     ................
    c09c:	b9 e0 00 00 b9 e0 00 00 b9 e0 00 00 b9 e0 00 00     ................
    c0ac:	b9 e0 00 00 b9 e0 00 00 b9 e0 00 00 b9 e0 00 00     ................
    c0bc:	b9 e0 00 00                                         ....

0000c0c0 <__Patchable>:
	...

0000c100 <arm_bitreversal_32>:
    c100:	1c4b      	adds	r3, r1, #1
    c102:	2b01      	cmp	r3, #1
    c104:	bf98      	it	ls
    c106:	4770      	bxls	lr
    c108:	e92d 03f0 	stmdb	sp!, {r4, r5, r6, r7, r8, r9}
    c10c:	1c91      	adds	r1, r2, #2
    c10e:	089b      	lsrs	r3, r3, #2

0000c110 <arm_bitreversal_32_0>:
    c110:	f8b1 8004 	ldrh.w	r8, [r1, #4]
    c114:	f8b1 9002 	ldrh.w	r9, [r1, #2]
    c118:	880a      	ldrh	r2, [r1, #0]
    c11a:	f831 cc02 	ldrh.w	ip, [r1, #-2]
    c11e:	4480      	add	r8, r0
    c120:	4481      	add	r9, r0
    c122:	4402      	add	r2, r0
    c124:	4484      	add	ip, r0
    c126:	f8d9 7000 	ldr.w	r7, [r9]
    c12a:	f8d8 6000 	ldr.w	r6, [r8]
    c12e:	6815      	ldr	r5, [r2, #0]
    c130:	f8dc 4000 	ldr.w	r4, [ip]
    c134:	f8c9 6000 	str.w	r6, [r9]
    c138:	f8c8 7000 	str.w	r7, [r8]
    c13c:	f8cc 5000 	str.w	r5, [ip]
    c140:	6014      	str	r4, [r2, #0]
    c142:	f8d9 7004 	ldr.w	r7, [r9, #4]
    c146:	f8d8 6004 	ldr.w	r6, [r8, #4]
    c14a:	6855      	ldr	r5, [r2, #4]
    c14c:	f8dc 4004 	ldr.w	r4, [ip, #4]
    c150:	f8c9 6004 	str.w	r6, [r9, #4]
    c154:	f8c8 7004 	str.w	r7, [r8, #4]
    c158:	f8cc 5004 	str.w	r5, [ip, #4]
    c15c:	6054      	str	r4, [r2, #4]
    c15e:	3108      	adds	r1, #8
    c160:	3b01      	subs	r3, #1
    c162:	d1d5      	bne.n	c110 <arm_bitreversal_32_0>
    c164:	e8bd 03f0 	ldmia.w	sp!, {r4, r5, r6, r7, r8, r9}
    c168:	4770      	bx	lr

0000c16a <arm_bitreversal_16>:
    c16a:	1c4b      	adds	r3, r1, #1
    c16c:	2b01      	cmp	r3, #1
    c16e:	bf98      	it	ls
    c170:	4770      	bxls	lr
    c172:	e92d 03f0 	stmdb	sp!, {r4, r5, r6, r7, r8, r9}
    c176:	1c91      	adds	r1, r2, #2
    c178:	089b      	lsrs	r3, r3, #2

0000c17a <arm_bitreversal_16_0>:
    c17a:	f8b1 8004 	ldrh.w	r8, [r1, #4]
    c17e:	f8b1 9002 	ldrh.w	r9, [r1, #2]
    c182:	880a      	ldrh	r2, [r1, #0]
    c184:	f831 cc02 	ldrh.w	ip, [r1, #-2]
    c188:	eb00 0858 	add.w	r8, r0, r8, lsr #1
    c18c:	eb00 0959 	add.w	r9, r0, r9, lsr #1
    c190:	eb00 0252 	add.w	r2, r0, r2, lsr #1
    c194:	eb00 0c5c 	add.w	ip, r0, ip, lsr #1
    c198:	f8d9 7000 	ldr.w	r7, [r9]
    c19c:	f8d8 6000 	ldr.w	r6, [r8]
    c1a0:	6815      	ldr	r5, [r2, #0]
    c1a2:	f8dc 4000 	ldr.w	r4, [ip]
    c1a6:	f8c9 6000 	str.w	r6, [r9]
    c1aa:	f8c8 7000 	str.w	r7, [r8]
    c1ae:	f8cc 5000 	str.w	r5, [ip]
    c1b2:	6014      	str	r4, [r2, #0]
    c1b4:	3108      	adds	r1, #8
    c1b6:	3b01      	subs	r3, #1
    c1b8:	d1df      	bne.n	c17a <arm_bitreversal_16_0>
    c1ba:	e8bd 03f0 	ldmia.w	sp!, {r4, r5, r6, r7, r8, r9}
    c1be:	4770      	bx	lr

0000c1c0 <memcpy>:
    c1c0:	4684      	mov	ip, r0
    c1c2:	ea41 0300 	orr.w	r3, r1, r0
    c1c6:	f013 0303 	ands.w	r3, r3, #3
    c1ca:	d16d      	bne.n	c2a8 <memcpy+0xe8>
    c1cc:	3a40      	subs	r2, #64	; 0x40
    c1ce:	d341      	bcc.n	c254 <memcpy+0x94>
    c1d0:	f851 3b04 	ldr.w	r3, [r1], #4
    c1d4:	f840 3b04 	str.w	r3, [r0], #4
    c1d8:	f851 3b04 	ldr.w	r3, [r1], #4
    c1dc:	f840 3b04 	str.w	r3, [r0], #4
    c1e0:	f851 3b04 	ldr.w	r3, [r1], #4
    c1e4:	f840 3b04 	str.w	r3, [r0], #4
    c1e8:	f851 3b04 	ldr.w	r3, [r1], #4
    c1ec:	f840 3b04 	str.w	r3, [r0], #4
    c1f0:	f851 3b04 	ldr.w	r3, [r1], #4
    c1f4:	f840 3b04 	str.w	r3, [r0], #4
    c1f8:	f851 3b04 	ldr.w	r3, [r1], #4
    c1fc:	f840 3b04 	str.w	r3, [r0], #4
    c200:	f851 3b04 	ldr.w	r3, [r1], #4
    c204:	f840 3b04 	str.w	r3, [r0], #4
    c208:	f851 3b04 	ldr.w	r3, [r1], #4
    c20c:	f840 3b04 	str.w	r3, [r0], #4
    c210:	f851 3b04 	ldr.w	r3, [r1], #4
    c214:	f840 3b04 	str.w	r3, [r0], #4
    c218:	f851 3b04 	ldr.w	r3, [r1], #4
    c21c:	f840 3b04 	str.w	r3, [r0], #4
    c220:	f851 3b04 	ldr.w	r3, [r1], #4
    c224:	f840 3b04 	str.w	r3, [r0], #4
    c228:	f851 3b04 	ldr.w	r3, [r1], #4
    c22c:	f840 3b04 	str.w	r3, [r0], #4
    c230:	f851 3b04 	ldr.w	r3, [r1], #4
    c234:	f840 3b04 	str.w	r3, [r0], #4
    c238:	f851 3b04 	ldr.w	r3, [r1], #4
    c23c:	f840 3b04 	str.w	r3, [r0], #4
    c240:	f851 3b04 	ldr.w	r3, [r1], #4
    c244:	f840 3b04 	str.w	r3, [r0], #4
    c248:	f851 3b04 	ldr.w	r3, [r1], #4
    c24c:	f840 3b04 	str.w	r3, [r0], #4
    c250:	3a40      	subs	r2, #64	; 0x40
    c252:	d2bd      	bcs.n	c1d0 <memcpy+0x10>
    c254:	3230      	adds	r2, #48	; 0x30
    c256:	d311      	bcc.n	c27c <memcpy+0xbc>
    c258:	f851 3b04 	ldr.w	r3, [r1], #4
    c25c:	f840 3b04 	str.w	r3, [r0], #4
    c260:	f851 3b04 	ldr.w	r3, [r1], #4
    c264:	f840 3b04 	str.w	r3, [r0], #4
    c268:	f851 3b04 	ldr.w	r3, [r1], #4
    c26c:	f840 3b04 	str.w	r3, [r0], #4
    c270:	f851 3b04 	ldr.w	r3, [r1], #4
    c274:	f840 3b04 	str.w	r3, [r0], #4
    c278:	3a10      	subs	r2, #16
    c27a:	d2ed      	bcs.n	c258 <memcpy+0x98>
    c27c:	320c      	adds	r2, #12
    c27e:	d305      	bcc.n	c28c <memcpy+0xcc>
    c280:	f851 3b04 	ldr.w	r3, [r1], #4
    c284:	f840 3b04 	str.w	r3, [r0], #4
    c288:	3a04      	subs	r2, #4
    c28a:	d2f9      	bcs.n	c280 <memcpy+0xc0>
    c28c:	3204      	adds	r2, #4
    c28e:	d008      	beq.n	c2a2 <memcpy+0xe2>
    c290:	07d2      	lsls	r2, r2, #31
    c292:	bf1c      	itt	ne
    c294:	f811 3b01 	ldrbne.w	r3, [r1], #1
    c298:	f800 3b01 	strbne.w	r3, [r0], #1
    c29c:	d301      	bcc.n	c2a2 <memcpy+0xe2>
    c29e:	880b      	ldrh	r3, [r1, #0]
    c2a0:	8003      	strh	r3, [r0, #0]
    c2a2:	4660      	mov	r0, ip
    c2a4:	4770      	bx	lr
    c2a6:	bf00      	nop
    c2a8:	2a08      	cmp	r2, #8
    c2aa:	d313      	bcc.n	c2d4 <memcpy+0x114>
    c2ac:	078b      	lsls	r3, r1, #30
    c2ae:	d08d      	beq.n	c1cc <memcpy+0xc>
    c2b0:	f010 0303 	ands.w	r3, r0, #3
    c2b4:	d08a      	beq.n	c1cc <memcpy+0xc>
    c2b6:	f1c3 0304 	rsb	r3, r3, #4
    c2ba:	1ad2      	subs	r2, r2, r3
    c2bc:	07db      	lsls	r3, r3, #31
    c2be:	bf1c      	itt	ne
    c2c0:	f811 3b01 	ldrbne.w	r3, [r1], #1
    c2c4:	f800 3b01 	strbne.w	r3, [r0], #1
    c2c8:	d380      	bcc.n	c1cc <memcpy+0xc>
    c2ca:	f831 3b02 	ldrh.w	r3, [r1], #2
    c2ce:	f820 3b02 	strh.w	r3, [r0], #2
    c2d2:	e77b      	b.n	c1cc <memcpy+0xc>
    c2d4:	3a04      	subs	r2, #4
    c2d6:	d3d9      	bcc.n	c28c <memcpy+0xcc>
    c2d8:	3a01      	subs	r2, #1
    c2da:	f811 3b01 	ldrb.w	r3, [r1], #1
    c2de:	f800 3b01 	strb.w	r3, [r0], #1
    c2e2:	d2f9      	bcs.n	c2d8 <memcpy+0x118>
    c2e4:	780b      	ldrb	r3, [r1, #0]
    c2e6:	7003      	strb	r3, [r0, #0]
    c2e8:	784b      	ldrb	r3, [r1, #1]
    c2ea:	7043      	strb	r3, [r0, #1]
    c2ec:	788b      	ldrb	r3, [r1, #2]
    c2ee:	7083      	strb	r3, [r0, #2]
    c2f0:	4660      	mov	r0, ip
    c2f2:	4770      	bx	lr

0000c2f4 <__aeabi_drsub>:
    c2f4:	f081 4100 	eor.w	r1, r1, #2147483648	; 0x80000000
    c2f8:	e002      	b.n	c300 <__adddf3>
    c2fa:	bf00      	nop

0000c2fc <__aeabi_dsub>:
    c2fc:	f083 4300 	eor.w	r3, r3, #2147483648	; 0x80000000

0000c300 <__adddf3>:
    c300:	b530      	push	{r4, r5, lr}
    c302:	ea4f 0441 	mov.w	r4, r1, lsl #1
    c306:	ea4f 0543 	mov.w	r5, r3, lsl #1
    c30a:	ea94 0f05 	teq	r4, r5
    c30e:	bf08      	it	eq
    c310:	ea90 0f02 	teqeq	r0, r2
    c314:	bf1f      	itttt	ne
    c316:	ea54 0c00 	orrsne.w	ip, r4, r0
    c31a:	ea55 0c02 	orrsne.w	ip, r5, r2
    c31e:	ea7f 5c64 	mvnsne.w	ip, r4, asr #21
    c322:	ea7f 5c65 	mvnsne.w	ip, r5, asr #21
    c326:	f000 80e2 	beq.w	c4ee <__adddf3+0x1ee>
    c32a:	ea4f 5454 	mov.w	r4, r4, lsr #21
    c32e:	ebd4 5555 	rsbs	r5, r4, r5, lsr #21
    c332:	bfb8      	it	lt
    c334:	426d      	neglt	r5, r5
    c336:	dd0c      	ble.n	c352 <__adddf3+0x52>
    c338:	442c      	add	r4, r5
    c33a:	ea80 0202 	eor.w	r2, r0, r2
    c33e:	ea81 0303 	eor.w	r3, r1, r3
    c342:	ea82 0000 	eor.w	r0, r2, r0
    c346:	ea83 0101 	eor.w	r1, r3, r1
    c34a:	ea80 0202 	eor.w	r2, r0, r2
    c34e:	ea81 0303 	eor.w	r3, r1, r3
    c352:	2d36      	cmp	r5, #54	; 0x36
    c354:	bf88      	it	hi
    c356:	bd30      	pophi	{r4, r5, pc}
    c358:	f011 4f00 	tst.w	r1, #2147483648	; 0x80000000
    c35c:	ea4f 3101 	mov.w	r1, r1, lsl #12
    c360:	f44f 1c80 	mov.w	ip, #1048576	; 0x100000
    c364:	ea4c 3111 	orr.w	r1, ip, r1, lsr #12
    c368:	d002      	beq.n	c370 <__adddf3+0x70>
    c36a:	4240      	negs	r0, r0
    c36c:	eb61 0141 	sbc.w	r1, r1, r1, lsl #1
    c370:	f013 4f00 	tst.w	r3, #2147483648	; 0x80000000
    c374:	ea4f 3303 	mov.w	r3, r3, lsl #12
    c378:	ea4c 3313 	orr.w	r3, ip, r3, lsr #12
    c37c:	d002      	beq.n	c384 <__adddf3+0x84>
    c37e:	4252      	negs	r2, r2
    c380:	eb63 0343 	sbc.w	r3, r3, r3, lsl #1
    c384:	ea94 0f05 	teq	r4, r5
    c388:	f000 80a7 	beq.w	c4da <__adddf3+0x1da>
    c38c:	f1a4 0401 	sub.w	r4, r4, #1
    c390:	f1d5 0e20 	rsbs	lr, r5, #32
    c394:	db0d      	blt.n	c3b2 <__adddf3+0xb2>
    c396:	fa02 fc0e 	lsl.w	ip, r2, lr
    c39a:	fa22 f205 	lsr.w	r2, r2, r5
    c39e:	1880      	adds	r0, r0, r2
    c3a0:	f141 0100 	adc.w	r1, r1, #0
    c3a4:	fa03 f20e 	lsl.w	r2, r3, lr
    c3a8:	1880      	adds	r0, r0, r2
    c3aa:	fa43 f305 	asr.w	r3, r3, r5
    c3ae:	4159      	adcs	r1, r3
    c3b0:	e00e      	b.n	c3d0 <__adddf3+0xd0>
    c3b2:	f1a5 0520 	sub.w	r5, r5, #32
    c3b6:	f10e 0e20 	add.w	lr, lr, #32
    c3ba:	2a01      	cmp	r2, #1
    c3bc:	fa03 fc0e 	lsl.w	ip, r3, lr
    c3c0:	bf28      	it	cs
    c3c2:	f04c 0c02 	orrcs.w	ip, ip, #2
    c3c6:	fa43 f305 	asr.w	r3, r3, r5
    c3ca:	18c0      	adds	r0, r0, r3
    c3cc:	eb51 71e3 	adcs.w	r1, r1, r3, asr #31
    c3d0:	f001 4500 	and.w	r5, r1, #2147483648	; 0x80000000
    c3d4:	d507      	bpl.n	c3e6 <__adddf3+0xe6>
    c3d6:	f04f 0e00 	mov.w	lr, #0
    c3da:	f1dc 0c00 	rsbs	ip, ip, #0
    c3de:	eb7e 0000 	sbcs.w	r0, lr, r0
    c3e2:	eb6e 0101 	sbc.w	r1, lr, r1
    c3e6:	f5b1 1f80 	cmp.w	r1, #1048576	; 0x100000
    c3ea:	d31b      	bcc.n	c424 <__adddf3+0x124>
    c3ec:	f5b1 1f00 	cmp.w	r1, #2097152	; 0x200000
    c3f0:	d30c      	bcc.n	c40c <__adddf3+0x10c>
    c3f2:	0849      	lsrs	r1, r1, #1
    c3f4:	ea5f 0030 	movs.w	r0, r0, rrx
    c3f8:	ea4f 0c3c 	mov.w	ip, ip, rrx
    c3fc:	f104 0401 	add.w	r4, r4, #1
    c400:	ea4f 5244 	mov.w	r2, r4, lsl #21
    c404:	f512 0f80 	cmn.w	r2, #4194304	; 0x400000
    c408:	f080 809a 	bcs.w	c540 <__adddf3+0x240>
    c40c:	f1bc 4f00 	cmp.w	ip, #2147483648	; 0x80000000
    c410:	bf08      	it	eq
    c412:	ea5f 0c50 	movseq.w	ip, r0, lsr #1
    c416:	f150 0000 	adcs.w	r0, r0, #0
    c41a:	eb41 5104 	adc.w	r1, r1, r4, lsl #20
    c41e:	ea41 0105 	orr.w	r1, r1, r5
    c422:	bd30      	pop	{r4, r5, pc}
    c424:	ea5f 0c4c 	movs.w	ip, ip, lsl #1
    c428:	4140      	adcs	r0, r0
    c42a:	eb41 0101 	adc.w	r1, r1, r1
    c42e:	f411 1f80 	tst.w	r1, #1048576	; 0x100000
    c432:	f1a4 0401 	sub.w	r4, r4, #1
    c436:	d1e9      	bne.n	c40c <__adddf3+0x10c>
    c438:	f091 0f00 	teq	r1, #0
    c43c:	bf04      	itt	eq
    c43e:	4601      	moveq	r1, r0
    c440:	2000      	moveq	r0, #0
    c442:	fab1 f381 	clz	r3, r1
    c446:	bf08      	it	eq
    c448:	3320      	addeq	r3, #32
    c44a:	f1a3 030b 	sub.w	r3, r3, #11
    c44e:	f1b3 0220 	subs.w	r2, r3, #32
    c452:	da0c      	bge.n	c46e <__adddf3+0x16e>
    c454:	320c      	adds	r2, #12
    c456:	dd08      	ble.n	c46a <__adddf3+0x16a>
    c458:	f102 0c14 	add.w	ip, r2, #20
    c45c:	f1c2 020c 	rsb	r2, r2, #12
    c460:	fa01 f00c 	lsl.w	r0, r1, ip
    c464:	fa21 f102 	lsr.w	r1, r1, r2
    c468:	e00c      	b.n	c484 <__adddf3+0x184>
    c46a:	f102 0214 	add.w	r2, r2, #20
    c46e:	bfd8      	it	le
    c470:	f1c2 0c20 	rsble	ip, r2, #32
    c474:	fa01 f102 	lsl.w	r1, r1, r2
    c478:	fa20 fc0c 	lsr.w	ip, r0, ip
    c47c:	bfdc      	itt	le
    c47e:	ea41 010c 	orrle.w	r1, r1, ip
    c482:	4090      	lslle	r0, r2
    c484:	1ae4      	subs	r4, r4, r3
    c486:	bfa2      	ittt	ge
    c488:	eb01 5104 	addge.w	r1, r1, r4, lsl #20
    c48c:	4329      	orrge	r1, r5
    c48e:	bd30      	popge	{r4, r5, pc}
    c490:	ea6f 0404 	mvn.w	r4, r4
    c494:	3c1f      	subs	r4, #31
    c496:	da1c      	bge.n	c4d2 <__adddf3+0x1d2>
    c498:	340c      	adds	r4, #12
    c49a:	dc0e      	bgt.n	c4ba <__adddf3+0x1ba>
    c49c:	f104 0414 	add.w	r4, r4, #20
    c4a0:	f1c4 0220 	rsb	r2, r4, #32
    c4a4:	fa20 f004 	lsr.w	r0, r0, r4
    c4a8:	fa01 f302 	lsl.w	r3, r1, r2
    c4ac:	ea40 0003 	orr.w	r0, r0, r3
    c4b0:	fa21 f304 	lsr.w	r3, r1, r4
    c4b4:	ea45 0103 	orr.w	r1, r5, r3
    c4b8:	bd30      	pop	{r4, r5, pc}
    c4ba:	f1c4 040c 	rsb	r4, r4, #12
    c4be:	f1c4 0220 	rsb	r2, r4, #32
    c4c2:	fa20 f002 	lsr.w	r0, r0, r2
    c4c6:	fa01 f304 	lsl.w	r3, r1, r4
    c4ca:	ea40 0003 	orr.w	r0, r0, r3
    c4ce:	4629      	mov	r1, r5
    c4d0:	bd30      	pop	{r4, r5, pc}
    c4d2:	fa21 f004 	lsr.w	r0, r1, r4
    c4d6:	4629      	mov	r1, r5
    c4d8:	bd30      	pop	{r4, r5, pc}
    c4da:	f094 0f00 	teq	r4, #0
    c4de:	f483 1380 	eor.w	r3, r3, #1048576	; 0x100000
    c4e2:	bf06      	itte	eq
    c4e4:	f481 1180 	eoreq.w	r1, r1, #1048576	; 0x100000
    c4e8:	3401      	addeq	r4, #1
    c4ea:	3d01      	subne	r5, #1
    c4ec:	e74e      	b.n	c38c <__adddf3+0x8c>
    c4ee:	ea7f 5c64 	mvns.w	ip, r4, asr #21
    c4f2:	bf18      	it	ne
    c4f4:	ea7f 5c65 	mvnsne.w	ip, r5, asr #21
    c4f8:	d029      	beq.n	c54e <__adddf3+0x24e>
    c4fa:	ea94 0f05 	teq	r4, r5
    c4fe:	bf08      	it	eq
    c500:	ea90 0f02 	teqeq	r0, r2
    c504:	d005      	beq.n	c512 <__adddf3+0x212>
    c506:	ea54 0c00 	orrs.w	ip, r4, r0
    c50a:	bf04      	itt	eq
    c50c:	4619      	moveq	r1, r3
    c50e:	4610      	moveq	r0, r2
    c510:	bd30      	pop	{r4, r5, pc}
    c512:	ea91 0f03 	teq	r1, r3
    c516:	bf1e      	ittt	ne
    c518:	2100      	movne	r1, #0
    c51a:	2000      	movne	r0, #0
    c51c:	bd30      	popne	{r4, r5, pc}
    c51e:	ea5f 5c54 	movs.w	ip, r4, lsr #21
    c522:	d105      	bne.n	c530 <__adddf3+0x230>
    c524:	0040      	lsls	r0, r0, #1
    c526:	4149      	adcs	r1, r1
    c528:	bf28      	it	cs
    c52a:	f041 4100 	orrcs.w	r1, r1, #2147483648	; 0x80000000
    c52e:	bd30      	pop	{r4, r5, pc}
    c530:	f514 0480 	adds.w	r4, r4, #4194304	; 0x400000
    c534:	bf3c      	itt	cc
    c536:	f501 1180 	addcc.w	r1, r1, #1048576	; 0x100000
    c53a:	bd30      	popcc	{r4, r5, pc}
    c53c:	f001 4500 	and.w	r5, r1, #2147483648	; 0x80000000
    c540:	f045 41fe 	orr.w	r1, r5, #2130706432	; 0x7f000000
    c544:	f441 0170 	orr.w	r1, r1, #15728640	; 0xf00000
    c548:	f04f 0000 	mov.w	r0, #0
    c54c:	bd30      	pop	{r4, r5, pc}
    c54e:	ea7f 5c64 	mvns.w	ip, r4, asr #21
    c552:	bf1a      	itte	ne
    c554:	4619      	movne	r1, r3
    c556:	4610      	movne	r0, r2
    c558:	ea7f 5c65 	mvnseq.w	ip, r5, asr #21
    c55c:	bf1c      	itt	ne
    c55e:	460b      	movne	r3, r1
    c560:	4602      	movne	r2, r0
    c562:	ea50 3401 	orrs.w	r4, r0, r1, lsl #12
    c566:	bf06      	itte	eq
    c568:	ea52 3503 	orrseq.w	r5, r2, r3, lsl #12
    c56c:	ea91 0f03 	teqeq	r1, r3
    c570:	f441 2100 	orrne.w	r1, r1, #524288	; 0x80000
    c574:	bd30      	pop	{r4, r5, pc}
    c576:	bf00      	nop

0000c578 <__aeabi_ui2d>:
    c578:	f090 0f00 	teq	r0, #0
    c57c:	bf04      	itt	eq
    c57e:	2100      	moveq	r1, #0
    c580:	4770      	bxeq	lr
    c582:	b530      	push	{r4, r5, lr}
    c584:	f44f 6480 	mov.w	r4, #1024	; 0x400
    c588:	f104 0432 	add.w	r4, r4, #50	; 0x32
    c58c:	f04f 0500 	mov.w	r5, #0
    c590:	f04f 0100 	mov.w	r1, #0
    c594:	e750      	b.n	c438 <__adddf3+0x138>
    c596:	bf00      	nop

0000c598 <__aeabi_i2d>:
    c598:	f090 0f00 	teq	r0, #0
    c59c:	bf04      	itt	eq
    c59e:	2100      	moveq	r1, #0
    c5a0:	4770      	bxeq	lr
    c5a2:	b530      	push	{r4, r5, lr}
    c5a4:	f44f 6480 	mov.w	r4, #1024	; 0x400
    c5a8:	f104 0432 	add.w	r4, r4, #50	; 0x32
    c5ac:	f010 4500 	ands.w	r5, r0, #2147483648	; 0x80000000
    c5b0:	bf48      	it	mi
    c5b2:	4240      	negmi	r0, r0
    c5b4:	f04f 0100 	mov.w	r1, #0
    c5b8:	e73e      	b.n	c438 <__adddf3+0x138>
    c5ba:	bf00      	nop

0000c5bc <__aeabi_f2d>:
    c5bc:	0042      	lsls	r2, r0, #1
    c5be:	ea4f 01e2 	mov.w	r1, r2, asr #3
    c5c2:	ea4f 0131 	mov.w	r1, r1, rrx
    c5c6:	ea4f 7002 	mov.w	r0, r2, lsl #28
    c5ca:	bf1f      	itttt	ne
    c5cc:	f012 437f 	andsne.w	r3, r2, #4278190080	; 0xff000000
    c5d0:	f093 4f7f 	teqne	r3, #4278190080	; 0xff000000
    c5d4:	f081 5160 	eorne.w	r1, r1, #939524096	; 0x38000000
    c5d8:	4770      	bxne	lr
    c5da:	f032 427f 	bics.w	r2, r2, #4278190080	; 0xff000000
    c5de:	bf08      	it	eq
    c5e0:	4770      	bxeq	lr
    c5e2:	f093 4f7f 	teq	r3, #4278190080	; 0xff000000
    c5e6:	bf04      	itt	eq
    c5e8:	f441 2100 	orreq.w	r1, r1, #524288	; 0x80000
    c5ec:	4770      	bxeq	lr
    c5ee:	b530      	push	{r4, r5, lr}
    c5f0:	f44f 7460 	mov.w	r4, #896	; 0x380
    c5f4:	f001 4500 	and.w	r5, r1, #2147483648	; 0x80000000
    c5f8:	f021 4100 	bic.w	r1, r1, #2147483648	; 0x80000000
    c5fc:	e71c      	b.n	c438 <__adddf3+0x138>
    c5fe:	bf00      	nop

0000c600 <__aeabi_ul2d>:
    c600:	ea50 0201 	orrs.w	r2, r0, r1
    c604:	bf08      	it	eq
    c606:	4770      	bxeq	lr
    c608:	b530      	push	{r4, r5, lr}
    c60a:	f04f 0500 	mov.w	r5, #0
    c60e:	e00a      	b.n	c626 <__aeabi_l2d+0x16>

0000c610 <__aeabi_l2d>:
    c610:	ea50 0201 	orrs.w	r2, r0, r1
    c614:	bf08      	it	eq
    c616:	4770      	bxeq	lr
    c618:	b530      	push	{r4, r5, lr}
    c61a:	f011 4500 	ands.w	r5, r1, #2147483648	; 0x80000000
    c61e:	d502      	bpl.n	c626 <__aeabi_l2d+0x16>
    c620:	4240      	negs	r0, r0
    c622:	eb61 0141 	sbc.w	r1, r1, r1, lsl #1
    c626:	f44f 6480 	mov.w	r4, #1024	; 0x400
    c62a:	f104 0432 	add.w	r4, r4, #50	; 0x32
    c62e:	ea5f 5c91 	movs.w	ip, r1, lsr #22
    c632:	f43f aed8 	beq.w	c3e6 <__adddf3+0xe6>
    c636:	f04f 0203 	mov.w	r2, #3
    c63a:	ea5f 0cdc 	movs.w	ip, ip, lsr #3
    c63e:	bf18      	it	ne
    c640:	3203      	addne	r2, #3
    c642:	ea5f 0cdc 	movs.w	ip, ip, lsr #3
    c646:	bf18      	it	ne
    c648:	3203      	addne	r2, #3
    c64a:	eb02 02dc 	add.w	r2, r2, ip, lsr #3
    c64e:	f1c2 0320 	rsb	r3, r2, #32
    c652:	fa00 fc03 	lsl.w	ip, r0, r3
    c656:	fa20 f002 	lsr.w	r0, r0, r2
    c65a:	fa01 fe03 	lsl.w	lr, r1, r3
    c65e:	ea40 000e 	orr.w	r0, r0, lr
    c662:	fa21 f102 	lsr.w	r1, r1, r2
    c666:	4414      	add	r4, r2
    c668:	e6bd      	b.n	c3e6 <__adddf3+0xe6>
    c66a:	bf00      	nop

0000c66c <__aeabi_dmul>:
    c66c:	b570      	push	{r4, r5, r6, lr}
    c66e:	f04f 0cff 	mov.w	ip, #255	; 0xff
    c672:	f44c 6ce0 	orr.w	ip, ip, #1792	; 0x700
    c676:	ea1c 5411 	ands.w	r4, ip, r1, lsr #20
    c67a:	bf1d      	ittte	ne
    c67c:	ea1c 5513 	andsne.w	r5, ip, r3, lsr #20
    c680:	ea94 0f0c 	teqne	r4, ip
    c684:	ea95 0f0c 	teqne	r5, ip
    c688:	f000 f8de 	bleq	c848 <__aeabi_dmul+0x1dc>
    c68c:	442c      	add	r4, r5
    c68e:	ea81 0603 	eor.w	r6, r1, r3
    c692:	ea21 514c 	bic.w	r1, r1, ip, lsl #21
    c696:	ea23 534c 	bic.w	r3, r3, ip, lsl #21
    c69a:	ea50 3501 	orrs.w	r5, r0, r1, lsl #12
    c69e:	bf18      	it	ne
    c6a0:	ea52 3503 	orrsne.w	r5, r2, r3, lsl #12
    c6a4:	f441 1180 	orr.w	r1, r1, #1048576	; 0x100000
    c6a8:	f443 1380 	orr.w	r3, r3, #1048576	; 0x100000
    c6ac:	d038      	beq.n	c720 <__aeabi_dmul+0xb4>
    c6ae:	fba0 ce02 	umull	ip, lr, r0, r2
    c6b2:	f04f 0500 	mov.w	r5, #0
    c6b6:	fbe1 e502 	umlal	lr, r5, r1, r2
    c6ba:	f006 4200 	and.w	r2, r6, #2147483648	; 0x80000000
    c6be:	fbe0 e503 	umlal	lr, r5, r0, r3
    c6c2:	f04f 0600 	mov.w	r6, #0
    c6c6:	fbe1 5603 	umlal	r5, r6, r1, r3
    c6ca:	f09c 0f00 	teq	ip, #0
    c6ce:	bf18      	it	ne
    c6d0:	f04e 0e01 	orrne.w	lr, lr, #1
    c6d4:	f1a4 04ff 	sub.w	r4, r4, #255	; 0xff
    c6d8:	f5b6 7f00 	cmp.w	r6, #512	; 0x200
    c6dc:	f564 7440 	sbc.w	r4, r4, #768	; 0x300
    c6e0:	d204      	bcs.n	c6ec <__aeabi_dmul+0x80>
    c6e2:	ea5f 0e4e 	movs.w	lr, lr, lsl #1
    c6e6:	416d      	adcs	r5, r5
    c6e8:	eb46 0606 	adc.w	r6, r6, r6
    c6ec:	ea42 21c6 	orr.w	r1, r2, r6, lsl #11
    c6f0:	ea41 5155 	orr.w	r1, r1, r5, lsr #21
    c6f4:	ea4f 20c5 	mov.w	r0, r5, lsl #11
    c6f8:	ea40 505e 	orr.w	r0, r0, lr, lsr #21
    c6fc:	ea4f 2ece 	mov.w	lr, lr, lsl #11
    c700:	f1b4 0cfd 	subs.w	ip, r4, #253	; 0xfd
    c704:	bf88      	it	hi
    c706:	f5bc 6fe0 	cmphi.w	ip, #1792	; 0x700
    c70a:	d81e      	bhi.n	c74a <__aeabi_dmul+0xde>
    c70c:	f1be 4f00 	cmp.w	lr, #2147483648	; 0x80000000
    c710:	bf08      	it	eq
    c712:	ea5f 0e50 	movseq.w	lr, r0, lsr #1
    c716:	f150 0000 	adcs.w	r0, r0, #0
    c71a:	eb41 5104 	adc.w	r1, r1, r4, lsl #20
    c71e:	bd70      	pop	{r4, r5, r6, pc}
    c720:	f006 4600 	and.w	r6, r6, #2147483648	; 0x80000000
    c724:	ea46 0101 	orr.w	r1, r6, r1
    c728:	ea40 0002 	orr.w	r0, r0, r2
    c72c:	ea81 0103 	eor.w	r1, r1, r3
    c730:	ebb4 045c 	subs.w	r4, r4, ip, lsr #1
    c734:	bfc2      	ittt	gt
    c736:	ebd4 050c 	rsbsgt	r5, r4, ip
    c73a:	ea41 5104 	orrgt.w	r1, r1, r4, lsl #20
    c73e:	bd70      	popgt	{r4, r5, r6, pc}
    c740:	f441 1180 	orr.w	r1, r1, #1048576	; 0x100000
    c744:	f04f 0e00 	mov.w	lr, #0
    c748:	3c01      	subs	r4, #1
    c74a:	f300 80ab 	bgt.w	c8a4 <__aeabi_dmul+0x238>
    c74e:	f114 0f36 	cmn.w	r4, #54	; 0x36
    c752:	bfde      	ittt	le
    c754:	2000      	movle	r0, #0
    c756:	f001 4100 	andle.w	r1, r1, #2147483648	; 0x80000000
    c75a:	bd70      	pople	{r4, r5, r6, pc}
    c75c:	f1c4 0400 	rsb	r4, r4, #0
    c760:	3c20      	subs	r4, #32
    c762:	da35      	bge.n	c7d0 <__aeabi_dmul+0x164>
    c764:	340c      	adds	r4, #12
    c766:	dc1b      	bgt.n	c7a0 <__aeabi_dmul+0x134>
    c768:	f104 0414 	add.w	r4, r4, #20
    c76c:	f1c4 0520 	rsb	r5, r4, #32
    c770:	fa00 f305 	lsl.w	r3, r0, r5
    c774:	fa20 f004 	lsr.w	r0, r0, r4
    c778:	fa01 f205 	lsl.w	r2, r1, r5
    c77c:	ea40 0002 	orr.w	r0, r0, r2
    c780:	f001 4200 	and.w	r2, r1, #2147483648	; 0x80000000
    c784:	f021 4100 	bic.w	r1, r1, #2147483648	; 0x80000000
    c788:	eb10 70d3 	adds.w	r0, r0, r3, lsr #31
    c78c:	fa21 f604 	lsr.w	r6, r1, r4
    c790:	eb42 0106 	adc.w	r1, r2, r6
    c794:	ea5e 0e43 	orrs.w	lr, lr, r3, lsl #1
    c798:	bf08      	it	eq
    c79a:	ea20 70d3 	biceq.w	r0, r0, r3, lsr #31
    c79e:	bd70      	pop	{r4, r5, r6, pc}
    c7a0:	f1c4 040c 	rsb	r4, r4, #12
    c7a4:	f1c4 0520 	rsb	r5, r4, #32
    c7a8:	fa00 f304 	lsl.w	r3, r0, r4
    c7ac:	fa20 f005 	lsr.w	r0, r0, r5
    c7b0:	fa01 f204 	lsl.w	r2, r1, r4
    c7b4:	ea40 0002 	orr.w	r0, r0, r2
    c7b8:	f001 4100 	and.w	r1, r1, #2147483648	; 0x80000000
    c7bc:	eb10 70d3 	adds.w	r0, r0, r3, lsr #31
    c7c0:	f141 0100 	adc.w	r1, r1, #0
    c7c4:	ea5e 0e43 	orrs.w	lr, lr, r3, lsl #1
    c7c8:	bf08      	it	eq
    c7ca:	ea20 70d3 	biceq.w	r0, r0, r3, lsr #31
    c7ce:	bd70      	pop	{r4, r5, r6, pc}
    c7d0:	f1c4 0520 	rsb	r5, r4, #32
    c7d4:	fa00 f205 	lsl.w	r2, r0, r5
    c7d8:	ea4e 0e02 	orr.w	lr, lr, r2
    c7dc:	fa20 f304 	lsr.w	r3, r0, r4
    c7e0:	fa01 f205 	lsl.w	r2, r1, r5
    c7e4:	ea43 0302 	orr.w	r3, r3, r2
    c7e8:	fa21 f004 	lsr.w	r0, r1, r4
    c7ec:	f001 4100 	and.w	r1, r1, #2147483648	; 0x80000000
    c7f0:	fa21 f204 	lsr.w	r2, r1, r4
    c7f4:	ea20 0002 	bic.w	r0, r0, r2
    c7f8:	eb00 70d3 	add.w	r0, r0, r3, lsr #31
    c7fc:	ea5e 0e43 	orrs.w	lr, lr, r3, lsl #1
    c800:	bf08      	it	eq
    c802:	ea20 70d3 	biceq.w	r0, r0, r3, lsr #31
    c806:	bd70      	pop	{r4, r5, r6, pc}
    c808:	f094 0f00 	teq	r4, #0
    c80c:	d10f      	bne.n	c82e <__aeabi_dmul+0x1c2>
    c80e:	f001 4600 	and.w	r6, r1, #2147483648	; 0x80000000
    c812:	0040      	lsls	r0, r0, #1
    c814:	eb41 0101 	adc.w	r1, r1, r1
    c818:	f411 1f80 	tst.w	r1, #1048576	; 0x100000
    c81c:	bf08      	it	eq
    c81e:	3c01      	subeq	r4, #1
    c820:	d0f7      	beq.n	c812 <__aeabi_dmul+0x1a6>
    c822:	ea41 0106 	orr.w	r1, r1, r6
    c826:	f095 0f00 	teq	r5, #0
    c82a:	bf18      	it	ne
    c82c:	4770      	bxne	lr
    c82e:	f003 4600 	and.w	r6, r3, #2147483648	; 0x80000000
    c832:	0052      	lsls	r2, r2, #1
    c834:	eb43 0303 	adc.w	r3, r3, r3
    c838:	f413 1f80 	tst.w	r3, #1048576	; 0x100000
    c83c:	bf08      	it	eq
    c83e:	3d01      	subeq	r5, #1
    c840:	d0f7      	beq.n	c832 <__aeabi_dmul+0x1c6>
    c842:	ea43 0306 	orr.w	r3, r3, r6
    c846:	4770      	bx	lr
    c848:	ea94 0f0c 	teq	r4, ip
    c84c:	ea0c 5513 	and.w	r5, ip, r3, lsr #20
    c850:	bf18      	it	ne
    c852:	ea95 0f0c 	teqne	r5, ip
    c856:	d00c      	beq.n	c872 <__aeabi_dmul+0x206>
    c858:	ea50 0641 	orrs.w	r6, r0, r1, lsl #1
    c85c:	bf18      	it	ne
    c85e:	ea52 0643 	orrsne.w	r6, r2, r3, lsl #1
    c862:	d1d1      	bne.n	c808 <__aeabi_dmul+0x19c>
    c864:	ea81 0103 	eor.w	r1, r1, r3
    c868:	f001 4100 	and.w	r1, r1, #2147483648	; 0x80000000
    c86c:	f04f 0000 	mov.w	r0, #0
    c870:	bd70      	pop	{r4, r5, r6, pc}
    c872:	ea50 0641 	orrs.w	r6, r0, r1, lsl #1
    c876:	bf06      	itte	eq
    c878:	4610      	moveq	r0, r2
    c87a:	4619      	moveq	r1, r3
    c87c:	ea52 0643 	orrsne.w	r6, r2, r3, lsl #1
    c880:	d019      	beq.n	c8b6 <__aeabi_dmul+0x24a>
    c882:	ea94 0f0c 	teq	r4, ip
    c886:	d102      	bne.n	c88e <__aeabi_dmul+0x222>
    c888:	ea50 3601 	orrs.w	r6, r0, r1, lsl #12
    c88c:	d113      	bne.n	c8b6 <__aeabi_dmul+0x24a>
    c88e:	ea95 0f0c 	teq	r5, ip
    c892:	d105      	bne.n	c8a0 <__aeabi_dmul+0x234>
    c894:	ea52 3603 	orrs.w	r6, r2, r3, lsl #12
    c898:	bf1c      	itt	ne
    c89a:	4610      	movne	r0, r2
    c89c:	4619      	movne	r1, r3
    c89e:	d10a      	bne.n	c8b6 <__aeabi_dmul+0x24a>
    c8a0:	ea81 0103 	eor.w	r1, r1, r3
    c8a4:	f001 4100 	and.w	r1, r1, #2147483648	; 0x80000000
    c8a8:	f041 41fe 	orr.w	r1, r1, #2130706432	; 0x7f000000
    c8ac:	f441 0170 	orr.w	r1, r1, #15728640	; 0xf00000
    c8b0:	f04f 0000 	mov.w	r0, #0
    c8b4:	bd70      	pop	{r4, r5, r6, pc}
    c8b6:	f041 41fe 	orr.w	r1, r1, #2130706432	; 0x7f000000
    c8ba:	f441 0178 	orr.w	r1, r1, #16252928	; 0xf80000
    c8be:	bd70      	pop	{r4, r5, r6, pc}

0000c8c0 <__aeabi_ddiv>:
    c8c0:	b570      	push	{r4, r5, r6, lr}
    c8c2:	f04f 0cff 	mov.w	ip, #255	; 0xff
    c8c6:	f44c 6ce0 	orr.w	ip, ip, #1792	; 0x700
    c8ca:	ea1c 5411 	ands.w	r4, ip, r1, lsr #20
    c8ce:	bf1d      	ittte	ne
    c8d0:	ea1c 5513 	andsne.w	r5, ip, r3, lsr #20
    c8d4:	ea94 0f0c 	teqne	r4, ip
    c8d8:	ea95 0f0c 	teqne	r5, ip
    c8dc:	f000 f8a7 	bleq	ca2e <__aeabi_ddiv+0x16e>
    c8e0:	eba4 0405 	sub.w	r4, r4, r5
    c8e4:	ea81 0e03 	eor.w	lr, r1, r3
    c8e8:	ea52 3503 	orrs.w	r5, r2, r3, lsl #12
    c8ec:	ea4f 3101 	mov.w	r1, r1, lsl #12
    c8f0:	f000 8088 	beq.w	ca04 <__aeabi_ddiv+0x144>
    c8f4:	ea4f 3303 	mov.w	r3, r3, lsl #12
    c8f8:	f04f 5580 	mov.w	r5, #268435456	; 0x10000000
    c8fc:	ea45 1313 	orr.w	r3, r5, r3, lsr #4
    c900:	ea43 6312 	orr.w	r3, r3, r2, lsr #24
    c904:	ea4f 2202 	mov.w	r2, r2, lsl #8
    c908:	ea45 1511 	orr.w	r5, r5, r1, lsr #4
    c90c:	ea45 6510 	orr.w	r5, r5, r0, lsr #24
    c910:	ea4f 2600 	mov.w	r6, r0, lsl #8
    c914:	f00e 4100 	and.w	r1, lr, #2147483648	; 0x80000000
    c918:	429d      	cmp	r5, r3
    c91a:	bf08      	it	eq
    c91c:	4296      	cmpeq	r6, r2
    c91e:	f144 04fd 	adc.w	r4, r4, #253	; 0xfd
    c922:	f504 7440 	add.w	r4, r4, #768	; 0x300
    c926:	d202      	bcs.n	c92e <__aeabi_ddiv+0x6e>
    c928:	085b      	lsrs	r3, r3, #1
    c92a:	ea4f 0232 	mov.w	r2, r2, rrx
    c92e:	1ab6      	subs	r6, r6, r2
    c930:	eb65 0503 	sbc.w	r5, r5, r3
    c934:	085b      	lsrs	r3, r3, #1
    c936:	ea4f 0232 	mov.w	r2, r2, rrx
    c93a:	f44f 1080 	mov.w	r0, #1048576	; 0x100000
    c93e:	f44f 2c00 	mov.w	ip, #524288	; 0x80000
    c942:	ebb6 0e02 	subs.w	lr, r6, r2
    c946:	eb75 0e03 	sbcs.w	lr, r5, r3
    c94a:	bf22      	ittt	cs
    c94c:	1ab6      	subcs	r6, r6, r2
    c94e:	4675      	movcs	r5, lr
    c950:	ea40 000c 	orrcs.w	r0, r0, ip
    c954:	085b      	lsrs	r3, r3, #1
    c956:	ea4f 0232 	mov.w	r2, r2, rrx
    c95a:	ebb6 0e02 	subs.w	lr, r6, r2
    c95e:	eb75 0e03 	sbcs.w	lr, r5, r3
    c962:	bf22      	ittt	cs
    c964:	1ab6      	subcs	r6, r6, r2
    c966:	4675      	movcs	r5, lr
    c968:	ea40 005c 	orrcs.w	r0, r0, ip, lsr #1
    c96c:	085b      	lsrs	r3, r3, #1
    c96e:	ea4f 0232 	mov.w	r2, r2, rrx
    c972:	ebb6 0e02 	subs.w	lr, r6, r2
    c976:	eb75 0e03 	sbcs.w	lr, r5, r3
    c97a:	bf22      	ittt	cs
    c97c:	1ab6      	subcs	r6, r6, r2
    c97e:	4675      	movcs	r5, lr
    c980:	ea40 009c 	orrcs.w	r0, r0, ip, lsr #2
    c984:	085b      	lsrs	r3, r3, #1
    c986:	ea4f 0232 	mov.w	r2, r2, rrx
    c98a:	ebb6 0e02 	subs.w	lr, r6, r2
    c98e:	eb75 0e03 	sbcs.w	lr, r5, r3
    c992:	bf22      	ittt	cs
    c994:	1ab6      	subcs	r6, r6, r2
    c996:	4675      	movcs	r5, lr
    c998:	ea40 00dc 	orrcs.w	r0, r0, ip, lsr #3
    c99c:	ea55 0e06 	orrs.w	lr, r5, r6
    c9a0:	d018      	beq.n	c9d4 <__aeabi_ddiv+0x114>
    c9a2:	ea4f 1505 	mov.w	r5, r5, lsl #4
    c9a6:	ea45 7516 	orr.w	r5, r5, r6, lsr #28
    c9aa:	ea4f 1606 	mov.w	r6, r6, lsl #4
    c9ae:	ea4f 03c3 	mov.w	r3, r3, lsl #3
    c9b2:	ea43 7352 	orr.w	r3, r3, r2, lsr #29
    c9b6:	ea4f 02c2 	mov.w	r2, r2, lsl #3
    c9ba:	ea5f 1c1c 	movs.w	ip, ip, lsr #4
    c9be:	d1c0      	bne.n	c942 <__aeabi_ddiv+0x82>
    c9c0:	f411 1f80 	tst.w	r1, #1048576	; 0x100000
    c9c4:	d10b      	bne.n	c9de <__aeabi_ddiv+0x11e>
    c9c6:	ea41 0100 	orr.w	r1, r1, r0
    c9ca:	f04f 0000 	mov.w	r0, #0
    c9ce:	f04f 4c00 	mov.w	ip, #2147483648	; 0x80000000
    c9d2:	e7b6      	b.n	c942 <__aeabi_ddiv+0x82>
    c9d4:	f411 1f80 	tst.w	r1, #1048576	; 0x100000
    c9d8:	bf04      	itt	eq
    c9da:	4301      	orreq	r1, r0
    c9dc:	2000      	moveq	r0, #0
    c9de:	f1b4 0cfd 	subs.w	ip, r4, #253	; 0xfd
    c9e2:	bf88      	it	hi
    c9e4:	f5bc 6fe0 	cmphi.w	ip, #1792	; 0x700
    c9e8:	f63f aeaf 	bhi.w	c74a <__aeabi_dmul+0xde>
    c9ec:	ebb5 0c03 	subs.w	ip, r5, r3
    c9f0:	bf04      	itt	eq
    c9f2:	ebb6 0c02 	subseq.w	ip, r6, r2
    c9f6:	ea5f 0c50 	movseq.w	ip, r0, lsr #1
    c9fa:	f150 0000 	adcs.w	r0, r0, #0
    c9fe:	eb41 5104 	adc.w	r1, r1, r4, lsl #20
    ca02:	bd70      	pop	{r4, r5, r6, pc}
    ca04:	f00e 4e00 	and.w	lr, lr, #2147483648	; 0x80000000
    ca08:	ea4e 3111 	orr.w	r1, lr, r1, lsr #12
    ca0c:	eb14 045c 	adds.w	r4, r4, ip, lsr #1
    ca10:	bfc2      	ittt	gt
    ca12:	ebd4 050c 	rsbsgt	r5, r4, ip
    ca16:	ea41 5104 	orrgt.w	r1, r1, r4, lsl #20
    ca1a:	bd70      	popgt	{r4, r5, r6, pc}
    ca1c:	f441 1180 	orr.w	r1, r1, #1048576	; 0x100000
    ca20:	f04f 0e00 	mov.w	lr, #0
    ca24:	3c01      	subs	r4, #1
    ca26:	e690      	b.n	c74a <__aeabi_dmul+0xde>
    ca28:	ea45 0e06 	orr.w	lr, r5, r6
    ca2c:	e68d      	b.n	c74a <__aeabi_dmul+0xde>
    ca2e:	ea0c 5513 	and.w	r5, ip, r3, lsr #20
    ca32:	ea94 0f0c 	teq	r4, ip
    ca36:	bf08      	it	eq
    ca38:	ea95 0f0c 	teqeq	r5, ip
    ca3c:	f43f af3b 	beq.w	c8b6 <__aeabi_dmul+0x24a>
    ca40:	ea94 0f0c 	teq	r4, ip
    ca44:	d10a      	bne.n	ca5c <__aeabi_ddiv+0x19c>
    ca46:	ea50 3401 	orrs.w	r4, r0, r1, lsl #12
    ca4a:	f47f af34 	bne.w	c8b6 <__aeabi_dmul+0x24a>
    ca4e:	ea95 0f0c 	teq	r5, ip
    ca52:	f47f af25 	bne.w	c8a0 <__aeabi_dmul+0x234>
    ca56:	4610      	mov	r0, r2
    ca58:	4619      	mov	r1, r3
    ca5a:	e72c      	b.n	c8b6 <__aeabi_dmul+0x24a>
    ca5c:	ea95 0f0c 	teq	r5, ip
    ca60:	d106      	bne.n	ca70 <__aeabi_ddiv+0x1b0>
    ca62:	ea52 3503 	orrs.w	r5, r2, r3, lsl #12
    ca66:	f43f aefd 	beq.w	c864 <__aeabi_dmul+0x1f8>
    ca6a:	4610      	mov	r0, r2
    ca6c:	4619      	mov	r1, r3
    ca6e:	e722      	b.n	c8b6 <__aeabi_dmul+0x24a>
    ca70:	ea50 0641 	orrs.w	r6, r0, r1, lsl #1
    ca74:	bf18      	it	ne
    ca76:	ea52 0643 	orrsne.w	r6, r2, r3, lsl #1
    ca7a:	f47f aec5 	bne.w	c808 <__aeabi_dmul+0x19c>
    ca7e:	ea50 0441 	orrs.w	r4, r0, r1, lsl #1
    ca82:	f47f af0d 	bne.w	c8a0 <__aeabi_dmul+0x234>
    ca86:	ea52 0543 	orrs.w	r5, r2, r3, lsl #1
    ca8a:	f47f aeeb 	bne.w	c864 <__aeabi_dmul+0x1f8>
    ca8e:	e712      	b.n	c8b6 <__aeabi_dmul+0x24a>

0000ca90 <__gedf2>:
    ca90:	f04f 3cff 	mov.w	ip, #4294967295	; 0xffffffff
    ca94:	e006      	b.n	caa4 <__cmpdf2+0x4>
    ca96:	bf00      	nop

0000ca98 <__ledf2>:
    ca98:	f04f 0c01 	mov.w	ip, #1
    ca9c:	e002      	b.n	caa4 <__cmpdf2+0x4>
    ca9e:	bf00      	nop

0000caa0 <__cmpdf2>:
    caa0:	f04f 0c01 	mov.w	ip, #1
    caa4:	f84d cd04 	str.w	ip, [sp, #-4]!
    caa8:	ea4f 0c41 	mov.w	ip, r1, lsl #1
    caac:	ea7f 5c6c 	mvns.w	ip, ip, asr #21
    cab0:	ea4f 0c43 	mov.w	ip, r3, lsl #1
    cab4:	bf18      	it	ne
    cab6:	ea7f 5c6c 	mvnsne.w	ip, ip, asr #21
    caba:	d01b      	beq.n	caf4 <__cmpdf2+0x54>
    cabc:	b001      	add	sp, #4
    cabe:	ea50 0c41 	orrs.w	ip, r0, r1, lsl #1
    cac2:	bf0c      	ite	eq
    cac4:	ea52 0c43 	orrseq.w	ip, r2, r3, lsl #1
    cac8:	ea91 0f03 	teqne	r1, r3
    cacc:	bf02      	ittt	eq
    cace:	ea90 0f02 	teqeq	r0, r2
    cad2:	2000      	moveq	r0, #0
    cad4:	4770      	bxeq	lr
    cad6:	f110 0f00 	cmn.w	r0, #0
    cada:	ea91 0f03 	teq	r1, r3
    cade:	bf58      	it	pl
    cae0:	4299      	cmppl	r1, r3
    cae2:	bf08      	it	eq
    cae4:	4290      	cmpeq	r0, r2
    cae6:	bf2c      	ite	cs
    cae8:	17d8      	asrcs	r0, r3, #31
    caea:	ea6f 70e3 	mvncc.w	r0, r3, asr #31
    caee:	f040 0001 	orr.w	r0, r0, #1
    caf2:	4770      	bx	lr
    caf4:	ea4f 0c41 	mov.w	ip, r1, lsl #1
    caf8:	ea7f 5c6c 	mvns.w	ip, ip, asr #21
    cafc:	d102      	bne.n	cb04 <__cmpdf2+0x64>
    cafe:	ea50 3c01 	orrs.w	ip, r0, r1, lsl #12
    cb02:	d107      	bne.n	cb14 <__cmpdf2+0x74>
    cb04:	ea4f 0c43 	mov.w	ip, r3, lsl #1
    cb08:	ea7f 5c6c 	mvns.w	ip, ip, asr #21
    cb0c:	d1d6      	bne.n	cabc <__cmpdf2+0x1c>
    cb0e:	ea52 3c03 	orrs.w	ip, r2, r3, lsl #12
    cb12:	d0d3      	beq.n	cabc <__cmpdf2+0x1c>
    cb14:	f85d 0b04 	ldr.w	r0, [sp], #4
    cb18:	4770      	bx	lr
    cb1a:	bf00      	nop

0000cb1c <__aeabi_cdrcmple>:
    cb1c:	4684      	mov	ip, r0
    cb1e:	4610      	mov	r0, r2
    cb20:	4662      	mov	r2, ip
    cb22:	468c      	mov	ip, r1
    cb24:	4619      	mov	r1, r3
    cb26:	4663      	mov	r3, ip
    cb28:	e000      	b.n	cb2c <__aeabi_cdcmpeq>
    cb2a:	bf00      	nop

0000cb2c <__aeabi_cdcmpeq>:
    cb2c:	b501      	push	{r0, lr}
    cb2e:	f7ff ffb7 	bl	caa0 <__cmpdf2>
    cb32:	2800      	cmp	r0, #0
    cb34:	bf48      	it	mi
    cb36:	f110 0f00 	cmnmi.w	r0, #0
    cb3a:	bd01      	pop	{r0, pc}

0000cb3c <__aeabi_dcmpeq>:
    cb3c:	f84d ed08 	str.w	lr, [sp, #-8]!
    cb40:	f7ff fff4 	bl	cb2c <__aeabi_cdcmpeq>
    cb44:	bf0c      	ite	eq
    cb46:	2001      	moveq	r0, #1
    cb48:	2000      	movne	r0, #0
    cb4a:	f85d fb08 	ldr.w	pc, [sp], #8
    cb4e:	bf00      	nop

0000cb50 <__aeabi_dcmplt>:
    cb50:	f84d ed08 	str.w	lr, [sp, #-8]!
    cb54:	f7ff ffea 	bl	cb2c <__aeabi_cdcmpeq>
    cb58:	bf34      	ite	cc
    cb5a:	2001      	movcc	r0, #1
    cb5c:	2000      	movcs	r0, #0
    cb5e:	f85d fb08 	ldr.w	pc, [sp], #8
    cb62:	bf00      	nop

0000cb64 <__aeabi_dcmple>:
    cb64:	f84d ed08 	str.w	lr, [sp, #-8]!
    cb68:	f7ff ffe0 	bl	cb2c <__aeabi_cdcmpeq>
    cb6c:	bf94      	ite	ls
    cb6e:	2001      	movls	r0, #1
    cb70:	2000      	movhi	r0, #0
    cb72:	f85d fb08 	ldr.w	pc, [sp], #8
    cb76:	bf00      	nop

0000cb78 <__aeabi_dcmpge>:
    cb78:	f84d ed08 	str.w	lr, [sp, #-8]!
    cb7c:	f7ff ffce 	bl	cb1c <__aeabi_cdrcmple>
    cb80:	bf94      	ite	ls
    cb82:	2001      	movls	r0, #1
    cb84:	2000      	movhi	r0, #0
    cb86:	f85d fb08 	ldr.w	pc, [sp], #8
    cb8a:	bf00      	nop

0000cb8c <__aeabi_dcmpgt>:
    cb8c:	f84d ed08 	str.w	lr, [sp, #-8]!
    cb90:	f7ff ffc4 	bl	cb1c <__aeabi_cdrcmple>
    cb94:	bf34      	ite	cc
    cb96:	2001      	movcc	r0, #1
    cb98:	2000      	movcs	r0, #0
    cb9a:	f85d fb08 	ldr.w	pc, [sp], #8
    cb9e:	bf00      	nop

0000cba0 <__aeabi_dcmpun>:
    cba0:	ea4f 0c41 	mov.w	ip, r1, lsl #1
    cba4:	ea7f 5c6c 	mvns.w	ip, ip, asr #21
    cba8:	d102      	bne.n	cbb0 <__aeabi_dcmpun+0x10>
    cbaa:	ea50 3c01 	orrs.w	ip, r0, r1, lsl #12
    cbae:	d10a      	bne.n	cbc6 <__aeabi_dcmpun+0x26>
    cbb0:	ea4f 0c43 	mov.w	ip, r3, lsl #1
    cbb4:	ea7f 5c6c 	mvns.w	ip, ip, asr #21
    cbb8:	d102      	bne.n	cbc0 <__aeabi_dcmpun+0x20>
    cbba:	ea52 3c03 	orrs.w	ip, r2, r3, lsl #12
    cbbe:	d102      	bne.n	cbc6 <__aeabi_dcmpun+0x26>
    cbc0:	f04f 0000 	mov.w	r0, #0
    cbc4:	4770      	bx	lr
    cbc6:	f04f 0001 	mov.w	r0, #1
    cbca:	4770      	bx	lr

0000cbcc <__aeabi_d2f>:
    cbcc:	ea4f 0241 	mov.w	r2, r1, lsl #1
    cbd0:	f1b2 43e0 	subs.w	r3, r2, #1879048192	; 0x70000000
    cbd4:	bf24      	itt	cs
    cbd6:	f5b3 1c00 	subscs.w	ip, r3, #2097152	; 0x200000
    cbda:	f1dc 5cfe 	rsbscs	ip, ip, #532676608	; 0x1fc00000
    cbde:	d90d      	bls.n	cbfc <__aeabi_d2f+0x30>
    cbe0:	f001 4c00 	and.w	ip, r1, #2147483648	; 0x80000000
    cbe4:	ea4f 02c0 	mov.w	r2, r0, lsl #3
    cbe8:	ea4c 7050 	orr.w	r0, ip, r0, lsr #29
    cbec:	f1b2 4f00 	cmp.w	r2, #2147483648	; 0x80000000
    cbf0:	eb40 0083 	adc.w	r0, r0, r3, lsl #2
    cbf4:	bf08      	it	eq
    cbf6:	f020 0001 	biceq.w	r0, r0, #1
    cbfa:	4770      	bx	lr
    cbfc:	f011 4f80 	tst.w	r1, #1073741824	; 0x40000000
    cc00:	d121      	bne.n	cc46 <__aeabi_d2f+0x7a>
    cc02:	f113 7238 	adds.w	r2, r3, #48234496	; 0x2e00000
    cc06:	bfbc      	itt	lt
    cc08:	f001 4000 	andlt.w	r0, r1, #2147483648	; 0x80000000
    cc0c:	4770      	bxlt	lr
    cc0e:	f441 1180 	orr.w	r1, r1, #1048576	; 0x100000
    cc12:	ea4f 5252 	mov.w	r2, r2, lsr #21
    cc16:	f1c2 0218 	rsb	r2, r2, #24
    cc1a:	f1c2 0c20 	rsb	ip, r2, #32
    cc1e:	fa10 f30c 	lsls.w	r3, r0, ip
    cc22:	fa20 f002 	lsr.w	r0, r0, r2
    cc26:	bf18      	it	ne
    cc28:	f040 0001 	orrne.w	r0, r0, #1
    cc2c:	ea4f 23c1 	mov.w	r3, r1, lsl #11
    cc30:	ea4f 23d3 	mov.w	r3, r3, lsr #11
    cc34:	fa03 fc0c 	lsl.w	ip, r3, ip
    cc38:	ea40 000c 	orr.w	r0, r0, ip
    cc3c:	fa23 f302 	lsr.w	r3, r3, r2
    cc40:	ea4f 0343 	mov.w	r3, r3, lsl #1
    cc44:	e7cc      	b.n	cbe0 <__aeabi_d2f+0x14>
    cc46:	ea7f 5362 	mvns.w	r3, r2, asr #21
    cc4a:	d107      	bne.n	cc5c <__aeabi_d2f+0x90>
    cc4c:	ea50 3301 	orrs.w	r3, r0, r1, lsl #12
    cc50:	bf1e      	ittt	ne
    cc52:	f04f 40fe 	movne.w	r0, #2130706432	; 0x7f000000
    cc56:	f440 0040 	orrne.w	r0, r0, #12582912	; 0xc00000
    cc5a:	4770      	bxne	lr
    cc5c:	f001 4000 	and.w	r0, r1, #2147483648	; 0x80000000
    cc60:	f040 40fe 	orr.w	r0, r0, #2130706432	; 0x7f000000
    cc64:	f440 0000 	orr.w	r0, r0, #8388608	; 0x800000
    cc68:	4770      	bx	lr
    cc6a:	bf00      	nop

0000cc6c <main>:
uint32_t g_ui32ProcessedFrames = 0;

#endif // AM_AEP_PREPROCESS_EVAL

int main(void)
{
    cc6c:	e92d 4ff0 	stmdb	sp!, {r4, r5, r6, r7, r8, r9, sl, fp, lr}
    cc70:	4c5d      	ldr	r4, [pc, #372]	; (cde8 <main+0x17c>)
    cc72:	f8df 91ac 	ldr.w	r9, [pc, #428]	; ce20 <main+0x1b4>
    cc76:	f8df 81ac 	ldr.w	r8, [pc, #428]	; ce24 <main+0x1b8>
    cc7a:	b0d1      	sub	sp, #324	; 0x144
    am_app_AEP_sys_init();
    cc7c:	f001 fa5e 	bl	e13c <am_app_AEP_sys_init>


    //
    // Print the banner.
    //
    DebugLog("Audio test starts!\r\n\n");
    cc80:	485a      	ldr	r0, [pc, #360]	; (cdec <main+0x180>)
    cc82:	f001 fa4f 	bl	e124 <DebugLog>
//am_util_stdio_printf("The calculated result: %f, %f, %f, %f, %f, %f\n\r", test_result[0], test_result[1], test_result[2], test_result[3], test_result[4], test_result[5]);
#endif // AM_AEP_BEAMFORMING_TEST

#if AM_AEP_PREPROCESS_EVAL
    uint32_t g_pui32AudioProBuff[AUDIO_PREPROCESS_HOP_SIZE];
    am_audio_preprocess_init(&VOS_Instance);
    cc86:	4620      	mov	r0, r4
    cc88:	f001 fbde 	bl	e448 <am_audio_preprocess_init>
    cc8c:	ad4f      	add	r5, sp, #316	; 0x13c
    cc8e:	e005      	b.n	cc9c <main+0x30>
        
//
// Board key interface for debug using
//

        if(g_sysKeyValue == AM_APP_KEY_0)
    cc90:	4b57      	ldr	r3, [pc, #348]	; (cdf0 <main+0x184>)
    cc92:	781b      	ldrb	r3, [r3, #0]
    cc94:	b2db      	uxtb	r3, r3
    cc96:	2b01      	cmp	r3, #1
    cc98:	f000 8096 	beq.w	cdc8 <main+0x15c>
        if (g_ui32TimerCount >=1000)
    cc9c:	4b55      	ldr	r3, [pc, #340]	; (cdf4 <main+0x188>)
    cc9e:	681b      	ldr	r3, [r3, #0]
    cca0:	f5b3 7f7a 	cmp.w	r3, #1000	; 0x3e8
    cca4:	d306      	bcc.n	ccb4 <main+0x48>
            g_ui32TimerCount = 0;
    cca6:	2300      	movs	r3, #0
    cca8:	4a52      	ldr	r2, [pc, #328]	; (cdf4 <main+0x188>)
            am_devices_led_toggle(am_bsp_psLEDs, 0);
    ccaa:	4853      	ldr	r0, [pc, #332]	; (cdf8 <main+0x18c>)
            g_ui32TimerCount = 0;
    ccac:	6013      	str	r3, [r2, #0]
            am_devices_led_toggle(am_bsp_psLEDs, 0);
    ccae:	4619      	mov	r1, r3
    ccb0:	f001 f9d8 	bl	e064 <am_devices_led_toggle>
    if(g_ui32DMicDataCollectFlag == 1)
    ccb4:	4b51      	ldr	r3, [pc, #324]	; (cdfc <main+0x190>)
    ccb6:	681e      	ldr	r6, [r3, #0]
    ccb8:	2e01      	cmp	r6, #1
    ccba:	d1e9      	bne.n	cc90 <main+0x24>
        AM_APP_LOG_INFO("Start to record audio in 2 secs...\n\r");
    ccbc:	4850      	ldr	r0, [pc, #320]	; (ce00 <main+0x194>)
    ccbe:	f001 f811 	bl	dce4 <am_util_stdio_printf>
        am_util_delay_ms(2000);
    ccc2:	f44f 60fa 	mov.w	r0, #2000	; 0x7d0
    ccc6:	f000 f8b1 	bl	ce2c <am_util_delay_ms>
        g_audioRunningFlag = 1;
    ccca:	4b4e      	ldr	r3, [pc, #312]	; (ce04 <main+0x198>)
    cccc:	701e      	strb	r6, [r3, #0]
        while(g_ui8PcmDataReadyFlag == 0);
    ccce:	4b4e      	ldr	r3, [pc, #312]	; (ce08 <main+0x19c>)
    ccd0:	781b      	ldrb	r3, [r3, #0]
    ccd2:	2b00      	cmp	r3, #0
    ccd4:	d0fb      	beq.n	ccce <main+0x62>
        if(g_ui8PcmDataReadyFlag ==1)
    ccd6:	4b4c      	ldr	r3, [pc, #304]	; (ce08 <main+0x19c>)
    ccd8:	781b      	ldrb	r3, [r3, #0]
    ccda:	2b01      	cmp	r3, #1
    ccdc:	d1d8      	bne.n	cc90 <main+0x24>
            g_audioRunningFlag = 0;
    ccde:	4a49      	ldr	r2, [pc, #292]	; (ce04 <main+0x198>)
            am_devices_led_off(am_bsp_psLEDs, 3);
    cce0:	4845      	ldr	r0, [pc, #276]	; (cdf8 <main+0x18c>)
                am_audio_preprocess_handler(&VOS_Instance);
    cce2:	4f41      	ldr	r7, [pc, #260]	; (cde8 <main+0x17c>)
                        DebugLog(" ");
    cce4:	4e49      	ldr	r6, [pc, #292]	; (ce0c <main+0x1a0>)
            g_audioRunningFlag = 0;
    cce6:	2300      	movs	r3, #0
    cce8:	7013      	strb	r3, [r2, #0]
            g_ui32DMicDataCollectFlag = 0;
    ccea:	4a44      	ldr	r2, [pc, #272]	; (cdfc <main+0x190>)
    ccec:	6013      	str	r3, [r2, #0]
            g_ui8PcmDataReadyFlag = 0;
    ccee:	4a46      	ldr	r2, [pc, #280]	; (ce08 <main+0x19c>)
    ccf0:	7013      	strb	r3, [r2, #0]
            g_ui32AudioFrameSum = 0;
    ccf2:	4a47      	ldr	r2, [pc, #284]	; (ce10 <main+0x1a4>)
            am_devices_led_off(am_bsp_psLEDs, 3);
    ccf4:	2103      	movs	r1, #3
            g_ui32AudioFrameSum = 0;
    ccf6:	6013      	str	r3, [r2, #0]
            am_devices_led_off(am_bsp_psLEDs, 3);
    ccf8:	f001 f99c 	bl	e034 <am_devices_led_off>
            AM_APP_LOG_INFO("Audio recording is terminated and data starts to upload:\n\r");
    ccfc:	4845      	ldr	r0, [pc, #276]	; (ce14 <main+0x1a8>)
    ccfe:	f000 fff1 	bl	dce4 <am_util_stdio_printf>
            while(!am_app_utils_ring_buffer_empty(&am_sys_ring_buffers[AM_APP_RINGBUFF_PCM]))
    cd02:	f8d8 2018 	ldr.w	r2, [r8, #24]
    cd06:	f8d8 301c 	ldr.w	r3, [r8, #28]
    cd0a:	429a      	cmp	r2, r3
    cd0c:	d04f      	beq.n	cdae <main+0x142>
                am_app_utils_ring_buffer_pop(&am_sys_ring_buffers[AM_APP_RINGBUFF_PCM], g_pui32AudioProBuff, AUDIO_PREPROCESS_HOP_SIZE*PCM_DATA_BYTES);
    cd0e:	f44f 72a0 	mov.w	r2, #320	; 0x140
    cd12:	4669      	mov	r1, sp
    cd14:	4840      	ldr	r0, [pc, #256]	; (ce18 <main+0x1ac>)
    cd16:	f001 f8e5 	bl	dee4 <am_app_utils_ring_buffer_pop>
                g_ui32ProcessedFrames ++;
    cd1a:	f8d9 3000 	ldr.w	r3, [r9]
    cd1e:	e9d4 0100 	ldrd	r0, r1, [r4]
    cd22:	3301      	adds	r3, #1
                if(g_ui32ProcessedFrames >= (NUM_PCM_FRAMES)/2)
    cd24:	f5b3 7f96 	cmp.w	r3, #300	; 0x12c
                g_ui32ProcessedFrames ++;
    cd28:	f8c9 3000 	str.w	r3, [r9]
                    VOS_Instance.ui32ScnrEnable = 0;
    cd2c:	bf24      	itt	cs
    cd2e:	2300      	movcs	r3, #0
    cd30:	6163      	strcs	r3, [r4, #20]
    cd32:	3802      	subs	r0, #2
    cd34:	3902      	subs	r1, #2
    cd36:	f1ad 0204 	sub.w	r2, sp, #4
                    VOS_Instance.audio_leftCh[k] = g_pui32AudioProBuff[k] & 0x0000FFFF; 
    cd3a:	f852 3f04 	ldr.w	r3, [r2, #4]!
    cd3e:	f820 3f02 	strh.w	r3, [r0, #2]!
                for(uint32_t k=0; k<AUDIO_PREPROCESS_HOP_SIZE; k++)
    cd42:	42aa      	cmp	r2, r5
                    VOS_Instance.audio_rightCh[k] = (g_pui32AudioProBuff[k]>>16) & 0x0000FFFF;
    cd44:	ea4f 4313 	mov.w	r3, r3, lsr #16
    cd48:	f821 3f02 	strh.w	r3, [r1, #2]!
                for(uint32_t k=0; k<AUDIO_PREPROCESS_HOP_SIZE; k++)
    cd4c:	d1f5      	bne.n	cd3a <main+0xce>
                am_hal_gpio_state_write(48, AM_HAL_GPIO_OUTPUT_SET);
    cd4e:	2101      	movs	r1, #1
    cd50:	2030      	movs	r0, #48	; 0x30
    cd52:	f002 fc7d 	bl	f650 <am_hal_gpio_state_write>
                am_audio_preprocess_handler(&VOS_Instance);
    cd56:	4638      	mov	r0, r7
    cd58:	f001 fbbe 	bl	e4d8 <am_audio_preprocess_handler>
                am_hal_gpio_state_write(48, AM_HAL_GPIO_OUTPUT_CLEAR);
    cd5c:	2100      	movs	r1, #0
    cd5e:	2030      	movs	r0, #48	; 0x30
    cd60:	f002 fc76 	bl	f650 <am_hal_gpio_state_write>
                        DebugLogInt16(VOS_Instance.mono_out[indx]);
    cd64:	68a3      	ldr	r3, [r4, #8]
                            DebugLog("\n\r");
    cd66:	f8df b0c0 	ldr.w	fp, [pc, #192]	; ce28 <main+0x1bc>
                        DebugLogInt16(VOS_Instance.mono_out[indx]);
    cd6a:	f9b3 0000 	ldrsh.w	r0, [r3]
    cd6e:	f001 f9df 	bl	e130 <DebugLogInt16>
                        DebugLog(" ");
    cd72:	4630      	mov	r0, r6
    cd74:	f001 f9d6 	bl	e124 <DebugLog>
                        if((indx+1)%8==0)
    cd78:	f04f 0a01 	mov.w	sl, #1
                        DebugLogInt16(VOS_Instance.mono_out[indx]);
    cd7c:	68a3      	ldr	r3, [r4, #8]
    cd7e:	f933 001a 	ldrsh.w	r0, [r3, sl, lsl #1]
    cd82:	f001 f9d5 	bl	e130 <DebugLogInt16>
                        if((indx+1)%8==0)
    cd86:	f10a 0a01 	add.w	sl, sl, #1
                        DebugLog(" ");
    cd8a:	4630      	mov	r0, r6
    cd8c:	f001 f9ca 	bl	e124 <DebugLog>
                        if((indx+1)%8==0)
    cd90:	f01a 0f07 	tst.w	sl, #7
    cd94:	d102      	bne.n	cd9c <main+0x130>
                            DebugLog("\n\r");
    cd96:	4658      	mov	r0, fp
    cd98:	f001 f9c4 	bl	e124 <DebugLog>
                    for(uint32_t indx =0; indx<AUDIO_PREPROCESS_HOP_SIZE; indx++)
    cd9c:	f1ba 0f50 	cmp.w	sl, #80	; 0x50
    cda0:	d1ec      	bne.n	cd7c <main+0x110>
            while(!am_app_utils_ring_buffer_empty(&am_sys_ring_buffers[AM_APP_RINGBUFF_PCM]))
    cda2:	f8d8 2018 	ldr.w	r2, [r8, #24]
    cda6:	f8d8 301c 	ldr.w	r3, [r8, #28]
    cdaa:	429a      	cmp	r2, r3
    cdac:	d1af      	bne.n	cd0e <main+0xa2>
    cdae:	f8d8 3020 	ldr.w	r3, [r8, #32]
    cdb2:	2b00      	cmp	r3, #0
    cdb4:	d1ab      	bne.n	cd0e <main+0xa2>
            DebugLog("The end of data transfer...\n\r");
    cdb6:	4819      	ldr	r0, [pc, #100]	; (ce1c <main+0x1b0>)
    cdb8:	f001 f9b4 	bl	e124 <DebugLog>
        if(g_sysKeyValue == AM_APP_KEY_0)
    cdbc:	4b0c      	ldr	r3, [pc, #48]	; (cdf0 <main+0x184>)
    cdbe:	781b      	ldrb	r3, [r3, #0]
    cdc0:	b2db      	uxtb	r3, r3
    cdc2:	2b01      	cmp	r3, #1
    cdc4:	f47f af6a 	bne.w	cc9c <main+0x30>
        am_devices_led_on(am_bsp_psLEDs, 3);
    }
#endif // AM_AEP_BEAMFORMING_TEST

#if AM_AEP_PREPROCESS_EVAL
    if(g_ui32DMicDataCollectFlag == 0)
    cdc8:	4a0c      	ldr	r2, [pc, #48]	; (cdfc <main+0x190>)
            g_sysKeyValue = AM_APP_KEY_NONE;
    cdca:	4809      	ldr	r0, [pc, #36]	; (cdf0 <main+0x184>)
    if(g_ui32DMicDataCollectFlag == 0)
    cdcc:	6812      	ldr	r2, [r2, #0]
            g_sysKeyValue = AM_APP_KEY_NONE;
    cdce:	2100      	movs	r1, #0
    cdd0:	7001      	strb	r1, [r0, #0]
    if(g_ui32DMicDataCollectFlag == 0)
    cdd2:	2a00      	cmp	r2, #0
    cdd4:	f47f af62 	bne.w	cc9c <main+0x30>
    {
        g_ui32DMicDataCollectFlag = 1;
    cdd8:	4a08      	ldr	r2, [pc, #32]	; (cdfc <main+0x190>)
        am_devices_led_on(am_bsp_psLEDs, 3);
    cdda:	4807      	ldr	r0, [pc, #28]	; (cdf8 <main+0x18c>)
        g_ui32DMicDataCollectFlag = 1;
    cddc:	6013      	str	r3, [r2, #0]
        am_devices_led_on(am_bsp_psLEDs, 3);
    cdde:	2103      	movs	r1, #3
    cde0:	f001 f912 	bl	e008 <am_devices_led_on>
    cde4:	e75a      	b.n	cc9c <main+0x30>
    cde6:	bf00      	nop
    cde8:	1000c5b4 	.word	0x1000c5b4
    cdec:	00012c48 	.word	0x00012c48
    cdf0:	1000c58c 	.word	0x1000c58c
    cdf4:	1000c594 	.word	0x1000c594
    cdf8:	1000c00c 	.word	0x1000c00c
    cdfc:	1000c480 	.word	0x1000c480
    ce00:	00012c60 	.word	0x00012c60
    ce04:	1000c599 	.word	0x1000c599
    ce08:	1000c5a0 	.word	0x1000c5a0
    ce0c:	00012cc4 	.word	0x00012cc4
    ce10:	1000c59c 	.word	0x1000c59c
    ce14:	00012c88 	.word	0x00012c88
    ce18:	1003b448 	.word	0x1003b448
    ce1c:	00012cc8 	.word	0x00012cc8
    ce20:	1000c484 	.word	0x1000c484
    ce24:	1003b434 	.word	0x1003b434
    ce28:	00012cc0 	.word	0x00012cc0

0000ce2c <am_util_delay_ms>:
//! @returns None
//
//*****************************************************************************
void
am_util_delay_ms(uint32_t ui32MilliSeconds)
{
    ce2c:	b510      	push	{r4, lr}
    ce2e:	b084      	sub	sp, #16
    ce30:	4604      	mov	r4, r0
    uint32_t ui32Loops, ui32HFRC;

#if AM_APOLLO3_CLKGEN
    am_hal_clkgen_status_t sClkgenStatus;
    am_hal_clkgen_status_get(&sClkgenStatus);
    ce32:	a801      	add	r0, sp, #4
    ce34:	f002 f944 	bl	f0c0 <am_hal_clkgen_status_get>
    ui32HFRC = sClkgenStatus.ui32SysclkFreq;
#else // AM_APOLLO3_CLKGEN
    ui32HFRC = am_hal_clkgen_sysclk_get();
#endif // AM_APOLLO3_CLKGEN
    ui32Loops = ui32MilliSeconds * (ui32HFRC / 3000);
    ce38:	9801      	ldr	r0, [sp, #4]
    ce3a:	4b05      	ldr	r3, [pc, #20]	; (ce50 <am_util_delay_ms+0x24>)
    ce3c:	fba3 3000 	umull	r3, r0, r3, r0
    ce40:	0980      	lsrs	r0, r0, #6

    //
    // Call the BOOTROM cycle delay function
    //
    am_hal_flash_delay(ui32Loops);
    ce42:	fb04 f000 	mul.w	r0, r4, r0
    ce46:	f002 fa41 	bl	f2cc <am_hal_flash_delay>
}
    ce4a:	b004      	add	sp, #16
    ce4c:	bd10      	pop	{r4, pc}
    ce4e:	bf00      	nop
    ce50:	057619f1 	.word	0x057619f1

0000ce54 <HardFault_Handler>:
HardFault_Handler(void)
#else // AM_CMSIS_REGS
am_fault_isr(void)
#endif // AM_CMSIS_REGS
{
    __asm("    push    {r0,lr}");       // Always pushes to MSP stack
    ce54:	b501      	push	{r0, lr}
    __asm("    tst     lr, #4");        // Check if we should use MSP or PSP
    ce56:	f01e 0f04 	tst.w	lr, #4
    __asm("    itet    eq");            // Instrs executed when: eq,ne,eq
    ce5a:	bf0a      	itet	eq
    __asm("    mrseq   r0, msp");       //    bit2=0 indicating MSP stack
    ce5c:	f3ef 8008 	mrseq	r0, MSP
    __asm("    mrsne   r0, psp");       // e: bit2=1 indicating PSP stack
    ce60:	f3ef 8009 	mrsne	r0, PSP
    __asm("    addseq  r0, r0, #8");    // t: bit2=0, adjust for pushes to MSP stack
    ce64:	f110 0008 	addseq.w	r0, r0, #8
    __asm("    bl      am_util_faultisr_collect_data");
    ce68:	f000 f806 	bl	ce78 <am_util_faultisr_collect_data>
    __asm("    pop     {r0,pc}");       // Restore from MSP stack
    ce6c:	bd01      	pop	{r0, pc}
    ce6e:	bf00      	nop

0000ce70 <getStackedReg>:
}

uint32_t __attribute__((naked))
getStackedReg(uint32_t regnum, uint32_t u32SP)
{
    __asm("    lsls    r0, r0, #2");
    ce70:	0080      	lsls	r0, r0, #2
    __asm("    adds    r0, r1");
    ce72:	1840      	adds	r0, r0, r1
    __asm("    ldr     r0, [r0]");
    ce74:	6800      	ldr	r0, [r0, #0]
    __asm("    bx      lr");
    ce76:	4770      	bx	lr

0000ce78 <am_util_faultisr_collect_data>:
// HardFault_Handler() was called.
//
//*****************************************************************************
void
am_util_faultisr_collect_data(uint32_t u32IsrSP)
{
    ce78:	b500      	push	{lr}
    volatile am_fault_t sFaultData;
    am_hal_mcuctrl_fault_t sHalFaultData = {0};
    ce7a:	2300      	movs	r3, #0
{
    ce7c:	b093      	sub	sp, #76	; 0x4c
    am_hal_mcuctrl_fault_t sHalFaultData = {0};
    ce7e:	e9cd 3300 	strd	r3, r3, [sp]
    ce82:	e9cd 3302 	strd	r3, r3, [sp, #8]
    ce86:	e9cd 3304 	strd	r3, r3, [sp, #16]
    // a breakpoint at the end of the routine.  If the printing is not used,
    // we'll get a compiler warning; so to avoid that warning, we'll use it
    // in a dummy assignment here.
    //
    sFaultData.u32CFSR = u32Mask;       // Avoid compiler warning
    sFaultData.u32CFSR = AM_REGVAL(AM_REG_SYSCTRL_CFSR_O);
    ce8a:	4a27      	ldr	r2, [pc, #156]	; (cf28 <am_util_faultisr_collect_data+0xb0>)
    sFaultData.u32CFSR = u32Mask;       // Avoid compiler warning
    ce8c:	9310      	str	r3, [sp, #64]	; 0x40
    sFaultData.u32CFSR = AM_REGVAL(AM_REG_SYSCTRL_CFSR_O);
    ce8e:	6813      	ldr	r3, [r2, #0]
    ce90:	9310      	str	r3, [sp, #64]	; 0x40
    sFaultData.u8MMSR  = (sFaultData.u32CFSR >> 0)  & 0xff;
    ce92:	9b10      	ldr	r3, [sp, #64]	; 0x40
    ce94:	b2db      	uxtb	r3, r3
    ce96:	f88d 3044 	strb.w	r3, [sp, #68]	; 0x44
    sFaultData.u8BFSR  = (sFaultData.u32CFSR >> 8)  & 0xff;
    ce9a:	9b10      	ldr	r3, [sp, #64]	; 0x40
    ce9c:	f3c3 2307 	ubfx	r3, r3, #8, #8
    cea0:	f88d 3045 	strb.w	r3, [sp, #69]	; 0x45
    sFaultData.u16UFSR = (sFaultData.u32CFSR >> 16) & 0xffff;
    cea4:	9b10      	ldr	r3, [sp, #64]	; 0x40
    cea6:	0c1b      	lsrs	r3, r3, #16
    cea8:	f8ad 3046 	strh.w	r3, [sp, #70]	; 0x46

    //
    // The address of the location that caused the fault.  e.g. if accessing an
    // invalid data location caused the fault, that address will appear here.
    //
    sFaultData.u32BFAR = AM_REGVAL(AM_REG_SYSCTRL_BFAR_O);
    ceac:	6913      	ldr	r3, [r2, #16]
    ceae:	930f      	str	r3, [sp, #60]	; 0x3c

    //
    // The address of the instruction that caused the fault is the stacked PC
    // if BFSR bit1 is set.
    //
    sFaultData.u32FaultAddr = (sFaultData.u8BFSR & 0x02) ? getStackedReg(6, u32IsrSP) : 0xffffffff;
    ceb0:	f89d 2045 	ldrb.w	r2, [sp, #69]	; 0x45
    ceb4:	0792      	lsls	r2, r2, #30
{
    ceb6:	4603      	mov	r3, r0
    sFaultData.u32FaultAddr = (sFaultData.u8BFSR & 0x02) ? getStackedReg(6, u32IsrSP) : 0xffffffff;
    ceb8:	d430      	bmi.n	cf1c <am_util_faultisr_collect_data+0xa4>
    ceba:	f04f 32ff 	mov.w	r2, #4294967295	; 0xffffffff

    //
    // Get the stacked registers.
    // Note - the address of the instruction that caused the fault is u32PC.
    //
    sFaultData.u32R0  = getStackedReg(0, u32IsrSP);
    cebe:	4619      	mov	r1, r3
    cec0:	2000      	movs	r0, #0
    sFaultData.u32FaultAddr = (sFaultData.u8BFSR & 0x02) ? getStackedReg(6, u32IsrSP) : 0xffffffff;
    cec2:	920e      	str	r2, [sp, #56]	; 0x38
    sFaultData.u32R0  = getStackedReg(0, u32IsrSP);
    cec4:	f7ff ffd4 	bl	ce70 <getStackedReg>
    cec8:	4602      	mov	r2, r0
    sFaultData.u32R1  = getStackedReg(1, u32IsrSP);
    ceca:	2001      	movs	r0, #1
    sFaultData.u32R0  = getStackedReg(0, u32IsrSP);
    cecc:	9206      	str	r2, [sp, #24]
    sFaultData.u32R1  = getStackedReg(1, u32IsrSP);
    cece:	f7ff ffcf 	bl	ce70 <getStackedReg>
    ced2:	4602      	mov	r2, r0
    sFaultData.u32R2  = getStackedReg(2, u32IsrSP);
    ced4:	2002      	movs	r0, #2
    sFaultData.u32R1  = getStackedReg(1, u32IsrSP);
    ced6:	9207      	str	r2, [sp, #28]
    sFaultData.u32R2  = getStackedReg(2, u32IsrSP);
    ced8:	f7ff ffca 	bl	ce70 <getStackedReg>
    cedc:	4602      	mov	r2, r0
    sFaultData.u32R3  = getStackedReg(3, u32IsrSP);
    cede:	2003      	movs	r0, #3
    sFaultData.u32R2  = getStackedReg(2, u32IsrSP);
    cee0:	9208      	str	r2, [sp, #32]
    sFaultData.u32R3  = getStackedReg(3, u32IsrSP);
    cee2:	f7ff ffc5 	bl	ce70 <getStackedReg>
    cee6:	4602      	mov	r2, r0
    sFaultData.u32R12 = getStackedReg(4, u32IsrSP);
    cee8:	2004      	movs	r0, #4
    sFaultData.u32R3  = getStackedReg(3, u32IsrSP);
    ceea:	9209      	str	r2, [sp, #36]	; 0x24
    sFaultData.u32R12 = getStackedReg(4, u32IsrSP);
    ceec:	f7ff ffc0 	bl	ce70 <getStackedReg>
    cef0:	4602      	mov	r2, r0
    sFaultData.u32LR  = getStackedReg(5, u32IsrSP);
    cef2:	2005      	movs	r0, #5
    sFaultData.u32R12 = getStackedReg(4, u32IsrSP);
    cef4:	920a      	str	r2, [sp, #40]	; 0x28
    sFaultData.u32LR  = getStackedReg(5, u32IsrSP);
    cef6:	f7ff ffbb 	bl	ce70 <getStackedReg>
    cefa:	4602      	mov	r2, r0
    sFaultData.u32PC  = getStackedReg(6, u32IsrSP);
    cefc:	2006      	movs	r0, #6
    sFaultData.u32LR  = getStackedReg(5, u32IsrSP);
    cefe:	920b      	str	r2, [sp, #44]	; 0x2c
    sFaultData.u32PC  = getStackedReg(6, u32IsrSP);
    cf00:	f7ff ffb6 	bl	ce70 <getStackedReg>
    cf04:	4602      	mov	r2, r0
    sFaultData.u32PSR = getStackedReg(7, u32IsrSP);
    cf06:	2007      	movs	r0, #7
    sFaultData.u32PC  = getStackedReg(6, u32IsrSP);
    cf08:	920c      	str	r2, [sp, #48]	; 0x30
    sFaultData.u32PSR = getStackedReg(7, u32IsrSP);
    cf0a:	f7ff ffb1 	bl	ce70 <getStackedReg>

    //
    // Use the HAL MCUCTRL functions to read the fault data.
    //
#if AM_APOLLO3_MCUCTRL
    am_hal_mcuctrl_info_get(AM_HAL_MCUCTRL_INFO_FAULT_STATUS, &sHalFaultData);
    cf0e:	4669      	mov	r1, sp
    sFaultData.u32PSR = getStackedReg(7, u32IsrSP);
    cf10:	4603      	mov	r3, r0
    am_hal_mcuctrl_info_get(AM_HAL_MCUCTRL_INFO_FAULT_STATUS, &sHalFaultData);
    cf12:	2002      	movs	r0, #2
    sFaultData.u32PSR = getStackedReg(7, u32IsrSP);
    cf14:	930d      	str	r3, [sp, #52]	; 0x34
    am_hal_mcuctrl_info_get(AM_HAL_MCUCTRL_INFO_FAULT_STATUS, &sHalFaultData);
    cf16:	f002 fc2d 	bl	f774 <am_hal_mcuctrl_info_get>
    cf1a:	e7fe      	b.n	cf1a <am_util_faultisr_collect_data+0xa2>
    sFaultData.u32FaultAddr = (sFaultData.u8BFSR & 0x02) ? getStackedReg(6, u32IsrSP) : 0xffffffff;
    cf1c:	4601      	mov	r1, r0
    cf1e:	2006      	movs	r0, #6
    cf20:	f7ff ffa6 	bl	ce70 <getStackedReg>
    cf24:	4602      	mov	r2, r0
    cf26:	e7ca      	b.n	cebe <am_util_faultisr_collect_data+0x46>
    cf28:	e000ed28 	.word	0xe000ed28

0000cf2c <uint64_to_str>:
// written).
//
//*****************************************************************************
static int
uint64_to_str(uint64_t ui64Val, char *pcBuf)
{
    cf2c:	e92d 4ff0 	stmdb	sp!, {r4, r5, r6, r7, r8, r9, sl, fp, lr}
    cf30:	b097      	sub	sp, #92	; 0x5c
    cf32:	4682      	mov	sl, r0
    cf34:	468b      	mov	fp, r1
    char tbuf[25];
    int ix = 0, iNumDig = 0;
    cf36:	2300      	movs	r3, #0
{
    cf38:	920d      	str	r2, [sp, #52]	; 0x34
    cf3a:	469c      	mov	ip, r3
    cf3c:	e9cd ab00 	strd	sl, fp, [sp]
    cf40:	4606      	mov	r6, r0
    cf42:	460f      	mov	r7, r1
    cf44:	e00b      	b.n	cf5e <uint64_to_str+0x32>
        //
        // Get modulus
        //
        uMod = ui64Val - (u64Tmp * 10);

        tbuf[ix++] = uMod + '0';
    cf46:	f80b 2c01 	strb.w	r2, [fp, #-1]
        return (uint64_t)(q32 + ((r32 + 6) >> 4));
    cf4a:	4619      	mov	r1, r3
    cf4c:	2200      	movs	r2, #0
    cf4e:	e9cd 1200 	strd	r1, r2, [sp]
        ui64Val = u64Tmp;
    } while ( ui64Val );
    cf52:	2b00      	cmp	r3, #0
    cf54:	f000 80a5 	beq.w	d0a2 <uint64_to_str+0x176>
    cf58:	e9dd 6700 	ldrd	r6, r7, [sp]
{
    cf5c:	46f4      	mov	ip, lr
        q64 += (q64 >> 4);
    cf5e:	2300      	movs	r3, #0
    cf60:	2400      	movs	r4, #0
    cf62:	e9cd 3402 	strd	r3, r4, [sp, #8]
        q64 += (q64 >> 8);
    cf66:	e9cd 3404 	strd	r3, r4, [sp, #16]
        q64 += (q64 >> 16);
    cf6a:	e9cd 3406 	strd	r3, r4, [sp, #24]
        q64 += (q64 >> 32);
    cf6e:	e9cd 340a 	strd	r3, r4, [sp, #40]	; 0x28
        q64 >>= 3;
    cf72:	4698      	mov	r8, r3
        q32 = (ui32Val>>1) + (ui32Val>>2);
    cf74:	08b3      	lsrs	r3, r6, #2
    cf76:	eb03 0356 	add.w	r3, r3, r6, lsr #1
        q32 += (q32 >> 4);
    cf7a:	eb03 1313 	add.w	r3, r3, r3, lsr #4
        q32 += (q32 >> 8);
    cf7e:	eb03 2313 	add.w	r3, r3, r3, lsr #8
        q64 >>= 3;
    cf82:	46a1      	mov	r9, r4
        q32 += (q32 >> 16);
    cf84:	eb03 4313 	add.w	r3, r3, r3, lsr #16
        q32 >>= 3;
    cf88:	08da      	lsrs	r2, r3, #3
        return q64 + ((r64 + 6) >> 4);
    cf8a:	4644      	mov	r4, r8
    cf8c:	464d      	mov	r5, r9
        return (uint64_t)(q32 + ((r32 + 6) >> 4));
    cf8e:	4633      	mov	r3, r6
        q64 = (ui64Val>>1) + (ui64Val>>2);
    cf90:	08b0      	lsrs	r0, r6, #2
        return q64 + ((r64 + 6) >> 4);
    cf92:	e9cd 4508 	strd	r4, r5, [sp, #32]
        return (uint64_t)(q32 + ((r32 + 6) >> 4));
    cf96:	3306      	adds	r3, #6
        r32 = ui32Val - q32*10;
    cf98:	eb02 0482 	add.w	r4, r2, r2, lsl #2
    cf9c:	f10c 0e01 	add.w	lr, ip, #1
        tbuf[ix++] = uMod + '0';
    cfa0:	ae0f      	add	r6, sp, #60	; 0x3c
    cfa2:	4476      	add	r6, lr
        return (uint64_t)(q32 + ((r32 + 6) >> 4));
    cfa4:	eba3 0344 	sub.w	r3, r3, r4, lsl #1
        q64 = (ui64Val>>1) + (ui64Val>>2);
    cfa8:	ea40 7087 	orr.w	r0, r0, r7, lsl #30
    if ( ui64Val >> 32 )
    cfac:	463c      	mov	r4, r7
        q64 = (ui64Val>>1) + (ui64Val>>2);
    cfae:	08b9      	lsrs	r1, r7, #2
        return (uint64_t)(q32 + ((r32 + 6) >> 4));
    cfb0:	eb02 1313 	add.w	r3, r2, r3, lsr #4
        tbuf[ix++] = uMod + '0';
    cfb4:	46b3      	mov	fp, r6
    cfb6:	4637      	mov	r7, r6
    cfb8:	9e00      	ldr	r6, [sp, #0]
        uMod = ui64Val - (u64Tmp * 10);
    cfba:	eb03 0283 	add.w	r2, r3, r3, lsl #2
    if ( ui64Val >> 32 )
    cfbe:	2500      	movs	r5, #0
        uMod = ui64Val - (u64Tmp * 10);
    cfc0:	eba6 0242 	sub.w	r2, r6, r2, lsl #1
    if ( ui64Val >> 32 )
    cfc4:	ea54 0a05 	orrs.w	sl, r4, r5
        tbuf[ix++] = uMod + '0';
    cfc8:	f102 0230 	add.w	r2, r2, #48	; 0x30
    if ( ui64Val >> 32 )
    cfcc:	d0bb      	beq.n	cf46 <uint64_to_str+0x1a>
        q64 = (ui64Val>>1) + (ui64Val>>2);
    cfce:	e9dd 2300 	ldrd	r2, r3, [sp]
    cfd2:	085b      	lsrs	r3, r3, #1
    cfd4:	ea4f 0232 	mov.w	r2, r2, rrx
    cfd8:	eb12 0a00 	adds.w	sl, r2, r0
    cfdc:	eb43 0b01 	adc.w	fp, r3, r1
        q64 += (q64 >> 4);
    cfe0:	ea4f 131a 	mov.w	r3, sl, lsr #4
    cfe4:	ea43 730b 	orr.w	r3, r3, fp, lsl #28
    cfe8:	9302      	str	r3, [sp, #8]
    cfea:	ea4f 131b 	mov.w	r3, fp, lsr #4
    cfee:	9303      	str	r3, [sp, #12]
    cff0:	e9dd 2302 	ldrd	r2, r3, [sp, #8]
    cff4:	eb12 020a 	adds.w	r2, r2, sl
    cff8:	eb43 030b 	adc.w	r3, r3, fp
        q64 += (q64 >> 8);
    cffc:	0a11      	lsrs	r1, r2, #8
    cffe:	ea41 6103 	orr.w	r1, r1, r3, lsl #24
    d002:	9104      	str	r1, [sp, #16]
    d004:	0a19      	lsrs	r1, r3, #8
    d006:	9105      	str	r1, [sp, #20]
    d008:	e9dd 0104 	ldrd	r0, r1, [sp, #16]
    d00c:	1880      	adds	r0, r0, r2
    d00e:	4159      	adcs	r1, r3
    d010:	460b      	mov	r3, r1
        q64 += (q64 >> 16);
    d012:	0c01      	lsrs	r1, r0, #16
    d014:	ea41 4103 	orr.w	r1, r1, r3, lsl #16
    d018:	9106      	str	r1, [sp, #24]
    d01a:	0c19      	lsrs	r1, r3, #16
    d01c:	9107      	str	r1, [sp, #28]
        q64 += (q64 >> 8);
    d01e:	4602      	mov	r2, r0
        q64 += (q64 >> 16);
    d020:	e9dd 0106 	ldrd	r0, r1, [sp, #24]
    d024:	1880      	adds	r0, r0, r2
    d026:	4159      	adcs	r1, r3
        q64 += (q64 >> 32);
    d028:	e9cd 150a 	strd	r1, r5, [sp, #40]	; 0x28
        q64 += (q64 >> 16);
    d02c:	4602      	mov	r2, r0
    d02e:	460b      	mov	r3, r1
        q64 += (q64 >> 32);
    d030:	e9dd 010a 	ldrd	r0, r1, [sp, #40]	; 0x28
    d034:	1880      	adds	r0, r0, r2
    d036:	4159      	adcs	r1, r3
        q64 >>= 3;
    d038:	ea4f 08d0 	mov.w	r8, r0, lsr #3
    d03c:	ea48 7841 	orr.w	r8, r8, r1, lsl #29
    d040:	ea4f 09d1 	mov.w	r9, r1, lsr #3
        return q64 + ((r64 + 6) >> 4);
    d044:	e9dd ab00 	ldrd	sl, fp, [sp]
        r64 = ui64Val - q64*10;
    d048:	ea4f 0189 	mov.w	r1, r9, lsl #2
    d04c:	ea4f 0288 	mov.w	r2, r8, lsl #2
    d050:	eb12 0008 	adds.w	r0, r2, r8
    d054:	ea41 7398 	orr.w	r3, r1, r8, lsr #30
    d058:	eb43 0109 	adc.w	r1, r3, r9
        return q64 + ((r64 + 6) >> 4);
    d05c:	f11a 0a06 	adds.w	sl, sl, #6
    d060:	f14b 0b00 	adc.w	fp, fp, #0
        r64 = ui64Val - q64*10;
    d064:	1802      	adds	r2, r0, r0
    d066:	eb41 0301 	adc.w	r3, r1, r1
        return q64 + ((r64 + 6) >> 4);
    d06a:	ebba 0002 	subs.w	r0, sl, r2
    d06e:	eb6b 0103 	sbc.w	r1, fp, r3
    d072:	0903      	lsrs	r3, r0, #4
    d074:	ea43 7301 	orr.w	r3, r3, r1, lsl #28
    d078:	9308      	str	r3, [sp, #32]
    d07a:	090b      	lsrs	r3, r1, #4
    d07c:	9309      	str	r3, [sp, #36]	; 0x24
    d07e:	e9dd ab08 	ldrd	sl, fp, [sp, #32]
    d082:	eb1a 0a08 	adds.w	sl, sl, r8
    d086:	eb4b 0b09 	adc.w	fp, fp, r9
    d08a:	4653      	mov	r3, sl
    d08c:	465c      	mov	r4, fp
    d08e:	e9cd 3400 	strd	r3, r4, [sp]
        uMod = ui64Val - (u64Tmp * 10);
    d092:	eb0a 038a 	add.w	r3, sl, sl, lsl #2
    d096:	eba6 0643 	sub.w	r6, r6, r3, lsl #1
        tbuf[ix++] = uMod + '0';
    d09a:	3630      	adds	r6, #48	; 0x30
    d09c:	f807 6c01 	strb.w	r6, [r7, #-1]
    d0a0:	e75a      	b.n	cf58 <uint64_to_str+0x2c>
    iNumDig = ix;

    //
    // Now, reverse the buffer when saving to the caller's buffer.
    //
    if ( pcBuf )
    d0a2:	9a0d      	ldr	r2, [sp, #52]	; 0x34
    d0a4:	4660      	mov	r0, ip
    d0a6:	b16a      	cbz	r2, d0c4 <uint64_to_str+0x198>
    d0a8:	465b      	mov	r3, fp
    d0aa:	3a01      	subs	r2, #1
    {
        while ( ix-- )
        {
            *pcBuf++ = tbuf[ix];
    d0ac:	f813 1d01 	ldrb.w	r1, [r3, #-1]!
    d0b0:	f802 1f01 	strb.w	r1, [r2, #1]!
        while ( ix-- )
    d0b4:	a90f      	add	r1, sp, #60	; 0x3c
    d0b6:	4299      	cmp	r1, r3
    d0b8:	d1f8      	bne.n	d0ac <uint64_to_str+0x180>
        }

        //
        // Terminate the caller's buffer
        //
        *pcBuf = 0x00;
    d0ba:	9b0d      	ldr	r3, [sp, #52]	; 0x34
    d0bc:	4403      	add	r3, r0
    d0be:	461a      	mov	r2, r3
    d0c0:	2300      	movs	r3, #0
    d0c2:	7053      	strb	r3, [r2, #1]
    }

    return iNumDig;
}
    d0c4:	4670      	mov	r0, lr
    d0c6:	b017      	add	sp, #92	; 0x5c
    d0c8:	e8bd 8ff0 	ldmia.w	sp!, {r4, r5, r6, r7, r8, r9, sl, fp, pc}

0000d0cc <am_util_stdio_printf_init>:
    g_pfnCharPrint = pfnCharPrint;
    d0cc:	4b01      	ldr	r3, [pc, #4]	; (d0d4 <am_util_stdio_printf_init+0x8>)
    d0ce:	6018      	str	r0, [r3, #0]
}
    d0d0:	4770      	bx	lr
    d0d2:	bf00      	nop
    d0d4:	1000c62c 	.word	0x1000c62c

0000d0d8 <am_util_stdio_vsprintf>:
//! @return uint32_t representing the number of characters printed.
//
//******************************************************************************
uint32_t
am_util_stdio_vsprintf(char *pcBuf, const char *pcFmt, va_list pArgs)
{
    d0d8:	e92d 4ff0 	stmdb	sp!, {r4, r5, r6, r7, r8, r9, sl, fp, lr}
    d0dc:	b09b      	sub	sp, #108	; 0x6c
    d0de:	4682      	mov	sl, r0
    d0e0:	4689      	mov	r9, r1
    d0e2:	9201      	str	r2, [sp, #4]
    char *pcStr;
    uint64_t ui64Val;
    int64_t i64Val;
    uint32_t ui32NumChars, ui32CharCnt = 0;
    d0e4:	f04f 0b00 	mov.w	fp, #0
    int iWidth, iVal, iPrecision;
    uint8_t ui8CharSpecifier, ui8PadChar;
    bool bLower, bLongLong, bNeg;
    uint32_t ui32strlen = 0;

    while ( *pcFmt != 0x0 )
    d0e8:	f899 3000 	ldrb.w	r3, [r9]
    d0ec:	b1bb      	cbz	r3, d11e <am_util_stdio_vsprintf+0x46>
    {
        iPrecision = 6;             // printf() default precision for %f is 6

        if ( *pcFmt != '%' )
    d0ee:	2b25      	cmp	r3, #37	; 0x25
    d0f0:	f109 0501 	add.w	r5, r9, #1
    d0f4:	d01c      	beq.n	d130 <am_util_stdio_vsprintf+0x58>
    d0f6:	f10b 0201 	add.w	r2, fp, #1
        {
            //
            // Accumulate the string portion of the format specification.
            //
            if ( pcBuf )
    d0fa:	f1ba 0f00 	cmp.w	sl, #0
    d0fe:	f000 8091 	beq.w	d224 <am_util_stdio_vsprintf+0x14c>
            {
                // If '\n', convert to '\r\n'
                if ( *pcFmt == '\n'  &&  g_bTxtXlate )
    d102:	2b0a      	cmp	r3, #10
    d104:	f10a 0101 	add.w	r1, sl, #1
    d108:	f000 808f 	beq.w	d22a <am_util_stdio_vsprintf+0x152>
                {
                    *pcBuf++ = '\r';
                    ++ui32CharCnt;
                }
                *pcBuf++ = *pcFmt;
    d10c:	f88a 3000 	strb.w	r3, [sl]
    d110:	4693      	mov	fp, r2
    d112:	468a      	mov	sl, r1
            }

            ++pcFmt;
    d114:	46a9      	mov	r9, r5
    while ( *pcFmt != 0x0 )
    d116:	f899 3000 	ldrb.w	r3, [r9]
    d11a:	2b00      	cmp	r3, #0
    d11c:	d1e7      	bne.n	d0ee <am_util_stdio_vsprintf+0x16>
    } // while ()

    //
    // Terminate the string
    //
    if ( pcBuf )
    d11e:	f1ba 0f00 	cmp.w	sl, #0
    d122:	d001      	beq.n	d128 <am_util_stdio_vsprintf+0x50>
    {
        *pcBuf = 0x0;
    d124:	f88a 3000 	strb.w	r3, [sl]
    }

    return (ui32CharCnt);
}
    d128:	4658      	mov	r0, fp
    d12a:	b01b      	add	sp, #108	; 0x6c
    d12c:	e8bd 8ff0 	ldmia.w	sp!, {r4, r5, r6, r7, r8, r9, sl, fp, pc}
        if ( *pcFmt == '0' )
    d130:	f899 3001 	ldrb.w	r3, [r9, #1]
    d134:	2b30      	cmp	r3, #48	; 0x30
    d136:	bf03      	ittte	eq
    d138:	f899 3002 	ldrbeq.w	r3, [r9, #2]
            ++pcFmt;
    d13c:	f109 0502 	addeq.w	r5, r9, #2
            ui8PadChar = '0';
    d140:	f04f 0830 	moveq.w	r8, #48	; 0x30
        ui8PadChar = ' ';
    d144:	f04f 0820 	movne.w	r8, #32
    if ( *pcStr == '-')
    d148:	2b2d      	cmp	r3, #45	; 0x2d
    d14a:	d07e      	beq.n	d24a <am_util_stdio_vsprintf+0x172>
    uint32_t ui32Val = 0, uCnt = 0;
    d14c:	2100      	movs	r1, #0
    bool bNeg = false;
    d14e:	460e      	mov	r6, r1
    if ( *pcStr == '-')
    d150:	462a      	mov	r2, r5
    while ( *pcStr >= '0'  &&  *pcStr <= '9' )
    d152:	f1a3 0030 	sub.w	r0, r3, #48	; 0x30
    d156:	2809      	cmp	r0, #9
    d158:	f04f 0400 	mov.w	r4, #0
    d15c:	d80f      	bhi.n	d17e <am_util_stdio_vsprintf+0xa6>
        ui32Val *= 10;
    d15e:	eb04 0484 	add.w	r4, r4, r4, lsl #2
        ui32Val += (*pcStr - '0');
    d162:	eb03 0444 	add.w	r4, r3, r4, lsl #1
    while ( *pcStr >= '0'  &&  *pcStr <= '9' )
    d166:	f812 3f01 	ldrb.w	r3, [r2, #1]!
    d16a:	f1a3 0030 	sub.w	r0, r3, #48	; 0x30
    d16e:	2809      	cmp	r0, #9
        ui32Val += (*pcStr - '0');
    d170:	f1a4 0430 	sub.w	r4, r4, #48	; 0x30
        ++uCnt;
    d174:	f101 0101 	add.w	r1, r1, #1
    while ( *pcStr >= '0'  &&  *pcStr <= '9' )
    d178:	d9f1      	bls.n	d15e <am_util_stdio_vsprintf+0x86>
    d17a:	5c6b      	ldrb	r3, [r5, r1]
    d17c:	186a      	adds	r2, r5, r1
    return bNeg ? -ui32Val : ui32Val;
    d17e:	b106      	cbz	r6, d182 <am_util_stdio_vsprintf+0xaa>
    d180:	4264      	negs	r4, r4
        if ( ( *pcFmt != 's' )  &&  ( iWidth < 0 ) )
    d182:	2b73      	cmp	r3, #115	; 0x73
        iWidth = decstr_to_int(pcFmt, &ui32NumChars);
    d184:	4621      	mov	r1, r4
    d186:	f102 0901 	add.w	r9, r2, #1
        if ( ( *pcFmt != 's' )  &&  ( iWidth < 0 ) )
    d18a:	f000 8167 	beq.w	d45c <am_util_stdio_vsprintf+0x384>
    d18e:	ea84 71e4 	eor.w	r1, r4, r4, asr #31
    d192:	eba1 71e4 	sub.w	r1, r1, r4, asr #31
        if (*pcFmt == '.')
    d196:	2b2e      	cmp	r3, #46	; 0x2e
    d198:	910e      	str	r1, [sp, #56]	; 0x38
    d19a:	f000 813b 	beq.w	d414 <am_util_stdio_vsprintf+0x33c>
        iPrecision = 6;             // printf() default precision for %f is 6
    d19e:	2506      	movs	r5, #6
        if ( *pcFmt == 'l' )
    d1a0:	2b6c      	cmp	r3, #108	; 0x6c
    d1a2:	d157      	bne.n	d254 <am_util_stdio_vsprintf+0x17c>
            if ( *pcFmt == 'l' )    // "ll" (long long)
    d1a4:	7853      	ldrb	r3, [r2, #1]
    d1a6:	2b6c      	cmp	r3, #108	; 0x6c
    d1a8:	f000 808e 	beq.w	d2c8 <am_util_stdio_vsprintf+0x1f0>
        switch ( *pcFmt )
    d1ac:	f1a3 0246 	sub.w	r2, r3, #70	; 0x46
    d1b0:	f109 0901 	add.w	r9, r9, #1
    d1b4:	2a32      	cmp	r2, #50	; 0x32
    d1b6:	f200 8123 	bhi.w	d400 <am_util_stdio_vsprintf+0x328>
    d1ba:	e8df f012 	tbh	[pc, r2, lsl #1]
    d1be:	00c2      	.short	0x00c2
    d1c0:	01210121 	.word	0x01210121
    d1c4:	01210121 	.word	0x01210121
    d1c8:	01210121 	.word	0x01210121
    d1cc:	01210121 	.word	0x01210121
    d1d0:	01210121 	.word	0x01210121
    d1d4:	01210121 	.word	0x01210121
    d1d8:	01210121 	.word	0x01210121
    d1dc:	01210121 	.word	0x01210121
    d1e0:	01990121 	.word	0x01990121
    d1e4:	01210121 	.word	0x01210121
    d1e8:	01210121 	.word	0x01210121
    d1ec:	01210121 	.word	0x01210121
    d1f0:	01210121 	.word	0x01210121
    d1f4:	01210121 	.word	0x01210121
    d1f8:	01b60113 	.word	0x01b60113
    d1fc:	00c20121 	.word	0x00c20121
    d200:	01210121 	.word	0x01210121
    d204:	012101b6 	.word	0x012101b6
    d208:	01210121 	.word	0x01210121
    d20c:	01210121 	.word	0x01210121
    d210:	01210121 	.word	0x01210121
    d214:	01210121 	.word	0x01210121
    d218:	0121014e 	.word	0x0121014e
    d21c:	01210235 	.word	0x01210235
    d220:	024e0121 	.word	0x024e0121
    d224:	4693      	mov	fp, r2
            ++pcFmt;
    d226:	46a9      	mov	r9, r5
    d228:	e775      	b.n	d116 <am_util_stdio_vsprintf+0x3e>
                if ( *pcFmt == '\n'  &&  g_bTxtXlate )
    d22a:	48a6      	ldr	r0, [pc, #664]	; (d4c4 <am_util_stdio_vsprintf+0x3ec>)
    d22c:	7800      	ldrb	r0, [r0, #0]
    d22e:	2800      	cmp	r0, #0
    d230:	f43f af6c 	beq.w	d10c <am_util_stdio_vsprintf+0x34>
                    *pcBuf++ = '\r';
    d234:	4650      	mov	r0, sl
    d236:	230d      	movs	r3, #13
    d238:	f800 3b02 	strb.w	r3, [r0], #2
    d23c:	468a      	mov	sl, r1
    d23e:	f899 3000 	ldrb.w	r3, [r9]
    d242:	f10b 0202 	add.w	r2, fp, #2
    d246:	4601      	mov	r1, r0
    d248:	e760      	b.n	d10c <am_util_stdio_vsprintf+0x34>
        uCnt++;
    d24a:	2101      	movs	r1, #1
        bNeg = true;
    d24c:	460e      	mov	r6, r1
        pcStr++;
    d24e:	186a      	adds	r2, r5, r1
    d250:	786b      	ldrb	r3, [r5, #1]
    d252:	e77e      	b.n	d152 <am_util_stdio_vsprintf+0x7a>
        switch ( *pcFmt )
    d254:	f1a3 0246 	sub.w	r2, r3, #70	; 0x46
    d258:	2a32      	cmp	r2, #50	; 0x32
    d25a:	f200 80d1 	bhi.w	d400 <am_util_stdio_vsprintf+0x328>
    d25e:	e8df f012 	tbh	[pc, r2, lsl #1]
    d262:	0070      	.short	0x0070
    d264:	00cf00cf 	.word	0x00cf00cf
    d268:	00cf00cf 	.word	0x00cf00cf
    d26c:	00cf00cf 	.word	0x00cf00cf
    d270:	00cf00cf 	.word	0x00cf00cf
    d274:	00cf00cf 	.word	0x00cf00cf
    d278:	00cf00cf 	.word	0x00cf00cf
    d27c:	00cf00cf 	.word	0x00cf00cf
    d280:	00cf00cf 	.word	0x00cf00cf
    d284:	014700cf 	.word	0x014700cf
    d288:	00cf00cf 	.word	0x00cf00cf
    d28c:	00cf00cf 	.word	0x00cf00cf
    d290:	00cf00cf 	.word	0x00cf00cf
    d294:	00cf00cf 	.word	0x00cf00cf
    d298:	00cf00cf 	.word	0x00cf00cf
    d29c:	016400c1 	.word	0x016400c1
    d2a0:	007000cf 	.word	0x007000cf
    d2a4:	00cf00cf 	.word	0x00cf00cf
    d2a8:	00cf0164 	.word	0x00cf0164
    d2ac:	00cf00cf 	.word	0x00cf00cf
    d2b0:	00cf00cf 	.word	0x00cf00cf
    d2b4:	00cf00cf 	.word	0x00cf00cf
    d2b8:	00cf00cf 	.word	0x00cf00cf
    d2bc:	00cf00fc 	.word	0x00cf00fc
    d2c0:	00cf01e3 	.word	0x00cf01e3
    d2c4:	01fa00cf 	.word	0x01fa00cf
    d2c8:	7893      	ldrb	r3, [r2, #2]
    d2ca:	f1a3 0146 	sub.w	r1, r3, #70	; 0x46
    d2ce:	f102 0903 	add.w	r9, r2, #3
    d2d2:	2932      	cmp	r1, #50	; 0x32
    d2d4:	f200 8094 	bhi.w	d400 <am_util_stdio_vsprintf+0x328>
    d2d8:	e8df f011 	tbh	[pc, r1, lsl #1]
    d2dc:	00920033 	.word	0x00920033
    d2e0:	00920092 	.word	0x00920092
    d2e4:	00920092 	.word	0x00920092
    d2e8:	00920092 	.word	0x00920092
    d2ec:	00920092 	.word	0x00920092
    d2f0:	00920092 	.word	0x00920092
    d2f4:	00920092 	.word	0x00920092
    d2f8:	00920092 	.word	0x00920092
    d2fc:	00920092 	.word	0x00920092
    d300:	00920414 	.word	0x00920414
    d304:	00920092 	.word	0x00920092
    d308:	00920092 	.word	0x00920092
    d30c:	00920092 	.word	0x00920092
    d310:	00920092 	.word	0x00920092
    d314:	00840092 	.word	0x00840092
    d318:	00920222 	.word	0x00920222
    d31c:	00920033 	.word	0x00920033
    d320:	02220092 	.word	0x02220092
    d324:	00920092 	.word	0x00920092
    d328:	00920092 	.word	0x00920092
    d32c:	00920092 	.word	0x00920092
    d330:	00920092 	.word	0x00920092
    d334:	00bf0092 	.word	0x00bf0092
    d338:	02160092 	.word	0x02160092
    d33c:	00920092 	.word	0x00920092
    d340:	0412      	.short	0x0412
                if ( pcBuf )
    d342:	f1ba 0f00 	cmp.w	sl, #0
    d346:	f43f aecf 	beq.w	d0e8 <am_util_stdio_vsprintf+0x10>
                    float fValue = va_arg(pArgs, double);
    d34a:	9b01      	ldr	r3, [sp, #4]
    d34c:	3307      	adds	r3, #7
    d34e:	f023 0307 	bic.w	r3, r3, #7
    d352:	e9d3 0100 	ldrd	r0, r1, [r3]
    d356:	3308      	adds	r3, #8
    d358:	9301      	str	r3, [sp, #4]
    d35a:	f7ff fc37 	bl	cbcc <__aeabi_d2f>
    d35e:	ee07 0a90 	vmov	s15, r0
    if (fValue == 0.0f)
    d362:	eef5 7a40 	vcmp.f32	s15, #0.0
                    *(uint32_t*)pcBuf = 20;
    d366:	2314      	movs	r3, #20
    if (fValue == 0.0f)
    d368:	eef1 fa10 	vmrs	APSR_nzcv, fpscr
                    *(uint32_t*)pcBuf = 20;
    d36c:	f8ca 3000 	str.w	r3, [sl]
    if (fValue == 0.0f)
    d370:	f000 843e 	beq.w	dbf0 <am_util_stdio_vsprintf+0xb18>
    iExp2 = ((unFloatValue.I32 >> 23) & 0x000000FF) - 127;
    d374:	f3c0 51c7 	ubfx	r1, r0, #23, #8
    d378:	f1a1 027f 	sub.w	r2, r1, #127	; 0x7f
    d37c:	4603      	mov	r3, r0
    if (iExp2 >= 31)
    d37e:	2a1e      	cmp	r2, #30
    i32Significand = (unFloatValue.I32 & 0x00FFFFFF) | 0x00800000;
    d380:	f3c0 0016 	ubfx	r0, r0, #0, #23
    d384:	f440 0000 	orr.w	r0, r0, #8388608	; 0x800000
    if (iExp2 >= 31)
    d388:	f300 844a 	bgt.w	dc20 <am_util_stdio_vsprintf+0xb48>
    else if (iExp2 < -23)
    d38c:	f112 0f17 	cmn.w	r2, #23
    d390:	f2c0 8479 	blt.w	dc86 <am_util_stdio_vsprintf+0xbae>
    else if (iExp2 >= 23)
    d394:	2a16      	cmp	r2, #22
    d396:	f10a 0701 	add.w	r7, sl, #1
    d39a:	f340 836f 	ble.w	da7c <am_util_stdio_vsprintf+0x9a4>
        i32IntPart = i32Significand << (iExp2 - 23);
    d39e:	3996      	subs	r1, #150	; 0x96
    if (unFloatValue.I32 < 0)
    d3a0:	2b00      	cmp	r3, #0
        i32IntPart = i32Significand << (iExp2 - 23);
    d3a2:	fa00 f001 	lsl.w	r0, r0, r1
    if (unFloatValue.I32 < 0)
    d3a6:	f2c0 844d 	blt.w	dc44 <am_util_stdio_vsprintf+0xb6c>
    d3aa:	4656      	mov	r6, sl
    i32FracPart = 0;
    d3ac:	2400      	movs	r4, #0
    if (i32IntPart == 0)
    d3ae:	2800      	cmp	r0, #0
    d3b0:	f040 843c 	bne.w	dc2c <am_util_stdio_vsprintf+0xb54>
    d3b4:	1c7a      	adds	r2, r7, #1
        *pcBuf++ = '0';
    d3b6:	f04f 0330 	mov.w	r3, #48	; 0x30
    d3ba:	7033      	strb	r3, [r6, #0]
    *pcBuf++ = '.';
    d3bc:	232e      	movs	r3, #46	; 0x2e
    d3be:	703b      	strb	r3, [r7, #0]
    if (i32FracPart == 0)
    d3c0:	2c00      	cmp	r4, #0
    d3c2:	f040 83d8 	bne.w	db76 <am_util_stdio_vsprintf+0xa9e>
        *pcBuf++ = '0';
    d3c6:	1cba      	adds	r2, r7, #2
    d3c8:	f04f 0330 	mov.w	r3, #48	; 0x30
    d3cc:	707b      	strb	r3, [r7, #1]
    d3ce:	eba2 010a 	sub.w	r1, r2, sl
    *pcBuf = 0x00;
    d3d2:	2300      	movs	r3, #0
                    if ( iVal < 0 )
    d3d4:	4299      	cmp	r1, r3
    *pcBuf = 0x00;
    d3d6:	7013      	strb	r3, [r2, #0]
                    if ( iVal < 0 )
    d3d8:	f2c0 841e 	blt.w	dc18 <am_util_stdio_vsprintf+0xb40>
    d3dc:	460b      	mov	r3, r1
                    ui32CharCnt += iVal;
    d3de:	449b      	add	fp, r3
                    pcBuf += iVal;
    d3e0:	449a      	add	sl, r3
    d3e2:	e681      	b.n	d0e8 <am_util_stdio_vsprintf+0x10>
                ui8CharSpecifier = va_arg(pArgs, uint32_t);
    d3e4:	9a01      	ldr	r2, [sp, #4]
    d3e6:	1d13      	adds	r3, r2, #4
                if ( pcBuf )
    d3e8:	f1ba 0f00 	cmp.w	sl, #0
    d3ec:	d004      	beq.n	d3f8 <am_util_stdio_vsprintf+0x320>
                ui8CharSpecifier = va_arg(pArgs, uint32_t);
    d3ee:	6812      	ldr	r2, [r2, #0]
    d3f0:	f88a 2000 	strb.w	r2, [sl]
                    *pcBuf++ = ui8CharSpecifier;
    d3f4:	f10a 0a01 	add.w	sl, sl, #1
                ++ui32CharCnt;
    d3f8:	f10b 0b01 	add.w	fp, fp, #1
                ui8CharSpecifier = va_arg(pArgs, uint32_t);
    d3fc:	9301      	str	r3, [sp, #4]
                break;
    d3fe:	e673      	b.n	d0e8 <am_util_stdio_vsprintf+0x10>
                if ( pcBuf )
    d400:	f1ba 0f00 	cmp.w	sl, #0
    d404:	d003      	beq.n	d40e <am_util_stdio_vsprintf+0x336>
                    *pcBuf++ = *pcFmt;
    d406:	f88a 3000 	strb.w	r3, [sl]
    d40a:	f10a 0a01 	add.w	sl, sl, #1
                ++ui32CharCnt;
    d40e:	f10b 0b01 	add.w	fp, fp, #1
                break;
    d412:	e669      	b.n	d0e8 <am_util_stdio_vsprintf+0x10>
    if ( *pcStr == '-')
    d414:	7851      	ldrb	r1, [r2, #1]
    d416:	292d      	cmp	r1, #45	; 0x2d
    d418:	f000 821a 	beq.w	d850 <am_util_stdio_vsprintf+0x778>
    while ( *pcStr >= '0'  &&  *pcStr <= '9' )
    d41c:	f1a1 0330 	sub.w	r3, r1, #48	; 0x30
    d420:	2b09      	cmp	r3, #9
    d422:	f200 8305 	bhi.w	da30 <am_util_stdio_vsprintf+0x958>
    bool bNeg = false;
    d426:	2600      	movs	r6, #0
    uint32_t ui32Val = 0, uCnt = 0;
    d428:	4632      	mov	r2, r6
    while ( *pcStr >= '0'  &&  *pcStr <= '9' )
    d42a:	4648      	mov	r0, r9
        uCnt++;
    d42c:	2300      	movs	r3, #0
        ui32Val *= 10;
    d42e:	eb03 0383 	add.w	r3, r3, r3, lsl #2
        ui32Val += (*pcStr - '0');
    d432:	eb01 0343 	add.w	r3, r1, r3, lsl #1
    while ( *pcStr >= '0'  &&  *pcStr <= '9' )
    d436:	f810 1f01 	ldrb.w	r1, [r0, #1]!
    d43a:	f1a1 0530 	sub.w	r5, r1, #48	; 0x30
    d43e:	2d09      	cmp	r5, #9
        ui32Val += (*pcStr - '0');
    d440:	f1a3 0330 	sub.w	r3, r3, #48	; 0x30
        ++uCnt;
    d444:	f102 0201 	add.w	r2, r2, #1
    while ( *pcStr >= '0'  &&  *pcStr <= '9' )
    d448:	d9f1      	bls.n	d42e <am_util_stdio_vsprintf+0x356>
    return bNeg ? -ui32Val : ui32Val;
    d44a:	b106      	cbz	r6, d44e <am_util_stdio_vsprintf+0x376>
    d44c:	425b      	negs	r3, r3
            pcFmt += ui32NumChars;
    d44e:	444a      	add	r2, r9
            iPrecision = decstr_to_int(pcFmt, &ui32NumChars);
    d450:	461d      	mov	r5, r3
    d452:	f102 0901 	add.w	r9, r2, #1
    d456:	7813      	ldrb	r3, [r2, #0]
    d458:	e6a2      	b.n	d1a0 <am_util_stdio_vsprintf+0xc8>
        switch ( *pcFmt )
    d45a:	990e      	ldr	r1, [sp, #56]	; 0x38
                pcStr = va_arg(pArgs, char *);
    d45c:	9b01      	ldr	r3, [sp, #4]
    d45e:	681f      	ldr	r7, [r3, #0]
    d460:	1d1a      	adds	r2, r3, #4
    if ( !pcBuf )
    d462:	b38f      	cbz	r7, d4c8 <am_util_stdio_vsprintf+0x3f0>
    while ( *pcBuf++ )
    d464:	7838      	ldrb	r0, [r7, #0]
    d466:	1c7b      	adds	r3, r7, #1
    d468:	461c      	mov	r4, r3
    d46a:	2800      	cmp	r0, #0
    d46c:	f000 835c 	beq.w	db28 <am_util_stdio_vsprintf+0xa50>
    d470:	1be6      	subs	r6, r4, r7
    d472:	f814 5b01 	ldrb.w	r5, [r4], #1
    d476:	2d00      	cmp	r5, #0
    d478:	d1fa      	bne.n	d470 <am_util_stdio_vsprintf+0x398>
                if ( iWidth > 0 )
    d47a:	2900      	cmp	r1, #0
    d47c:	dd02      	ble.n	d484 <am_util_stdio_vsprintf+0x3ac>
                    if ( ui32strlen < iWidth )
    d47e:	428e      	cmp	r6, r1
    d480:	f0c0 8356 	bcc.w	db30 <am_util_stdio_vsprintf+0xa58>
    d484:	465c      	mov	r4, fp
    d486:	1be4      	subs	r4, r4, r7
    d488:	4657      	mov	r7, sl
                        *pcBuf++ = *pcStr;
    d48a:	4655      	mov	r5, sl
    d48c:	eb04 0b03 	add.w	fp, r4, r3
                    if ( pcBuf )
    d490:	b15f      	cbz	r7, d4aa <am_util_stdio_vsprintf+0x3d2>
                        *pcBuf++ = *pcStr;
    d492:	7028      	strb	r0, [r5, #0]
                while (*pcStr != 0x0)
    d494:	f813 0b01 	ldrb.w	r0, [r3], #1
                        *pcBuf++ = *pcStr;
    d498:	3701      	adds	r7, #1
                while (*pcStr != 0x0)
    d49a:	2800      	cmp	r0, #0
    d49c:	f000 81c5 	beq.w	d82a <am_util_stdio_vsprintf+0x752>
                        *pcBuf++ = *pcStr;
    d4a0:	463d      	mov	r5, r7
    d4a2:	eb04 0b03 	add.w	fp, r4, r3
                    if ( pcBuf )
    d4a6:	2f00      	cmp	r7, #0
    d4a8:	d1f3      	bne.n	d492 <am_util_stdio_vsprintf+0x3ba>
    d4aa:	46ba      	mov	sl, r7
    d4ac:	eb04 0b03 	add.w	fp, r4, r3
                while (*pcStr != 0x0)
    d4b0:	f813 0b01 	ldrb.w	r0, [r3], #1
    d4b4:	2800      	cmp	r0, #0
    d4b6:	d1f9      	bne.n	d4ac <am_util_stdio_vsprintf+0x3d4>
                if ( iWidth )
    d4b8:	2900      	cmp	r1, #0
    d4ba:	f040 81ba 	bne.w	d832 <am_util_stdio_vsprintf+0x75a>
                pcStr = va_arg(pArgs, char *);
    d4be:	9201      	str	r2, [sp, #4]
    d4c0:	e612      	b.n	d0e8 <am_util_stdio_vsprintf+0x10>
    d4c2:	bf00      	nop
    d4c4:	1000c488 	.word	0x1000c488
                if ( iWidth > 0 )
    d4c8:	2900      	cmp	r1, #0
    d4ca:	f340 838a 	ble.w	dbe2 <am_util_stdio_vsprintf+0xb0a>
        return ui32RetVal;
    d4ce:	463e      	mov	r6, r7
    if ( i32NumChars <= 0 )
    d4d0:	2900      	cmp	r1, #0
    d4d2:	f300 8304 	bgt.w	dade <am_util_stdio_vsprintf+0xa06>
    d4d6:	465c      	mov	r4, fp
    d4d8:	2300      	movs	r3, #0
                        pcBuf += pcBuf ? iWidth : 0;
    d4da:	f1ba 0f00 	cmp.w	sl, #0
    d4de:	d000      	beq.n	d4e2 <am_util_stdio_vsprintf+0x40a>
    d4e0:	449a      	add	sl, r3
                while (*pcStr != 0x0)
    d4e2:	7838      	ldrb	r0, [r7, #0]
    d4e4:	2800      	cmp	r0, #0
    d4e6:	f000 83f3 	beq.w	dcd0 <am_util_stdio_vsprintf+0xbf8>
                        iWidth = 0;
    d4ea:	2100      	movs	r1, #0
    d4ec:	1c7b      	adds	r3, r7, #1
    d4ee:	e7ca      	b.n	d486 <am_util_stdio_vsprintf+0x3ae>
        bLower = bLongLong = false;
    d4f0:	2500      	movs	r5, #0
                ui64Val = bLongLong ? va_arg(pArgs, uint64_t) :
    d4f2:	9b01      	ldr	r3, [sp, #4]
    d4f4:	681a      	ldr	r2, [r3, #0]
                                      va_arg(pArgs, uint32_t);
    d4f6:	3304      	adds	r3, #4
    d4f8:	9301      	str	r3, [sp, #4]
                ui64Val = bLongLong ? va_arg(pArgs, uint64_t) :
    d4fa:	2300      	movs	r3, #0
                if ( iWidth )
    d4fc:	2c00      	cmp	r4, #0
    d4fe:	f040 80bd 	bne.w	d67c <am_util_stdio_vsprintf+0x5a4>
    if ( ui64Val == 0 )
    d502:	ea52 0103 	orrs.w	r1, r2, r3
    d506:	f040 80dd 	bne.w	d6c4 <am_util_stdio_vsprintf+0x5ec>
    if (pcBuf)
    d50a:	f1ba 0f00 	cmp.w	sl, #0
    d50e:	f000 828d 	beq.w	da2c <am_util_stdio_vsprintf+0x954>
            *pcBuf++ = tbuf[ix];
    d512:	f10a 0501 	add.w	r5, sl, #1
    d516:	f04f 0330 	mov.w	r3, #48	; 0x30
    d51a:	f88a 3000 	strb.w	r3, [sl]
    d51e:	2001      	movs	r0, #1
    d520:	46aa      	mov	sl, r5
        *pcBuf = 0;
    d522:	2300      	movs	r3, #0
    d524:	702b      	strb	r3, [r5, #0]
                ui32CharCnt += iVal;
    d526:	4483      	add	fp, r0
                break;
    d528:	e5de      	b.n	d0e8 <am_util_stdio_vsprintf+0x10>
                i64Val = bLongLong ? va_arg(pArgs, int64_t) :
    d52a:	9b01      	ldr	r3, [sp, #4]
    d52c:	6818      	ldr	r0, [r3, #0]
                                     va_arg(pArgs, int32_t);
    d52e:	3304      	adds	r3, #4
    d530:	9301      	str	r3, [sp, #4]
                i64Val = bLongLong ? va_arg(pArgs, int64_t) :
    d532:	17c1      	asrs	r1, r0, #31
                if ( i64Val < 0 )
    d534:	2800      	cmp	r0, #0
    d536:	f171 0300 	sbcs.w	r3, r1, #0
    d53a:	f2c0 8194 	blt.w	d866 <am_util_stdio_vsprintf+0x78e>
                    ui64Val = i64Val;
    d53e:	e9cd 010c 	strd	r0, r1, [sp, #48]	; 0x30
                if ( iWidth )
    d542:	2c00      	cmp	r4, #0
    d544:	d065      	beq.n	d612 <am_util_stdio_vsprintf+0x53a>
    int iNDigits = ui64Val ? 0 : 1;
    d546:	4603      	mov	r3, r0
    d548:	430b      	orrs	r3, r1
    return ndigits_in_u64((uint64_t) i64Val);
    d54a:	460c      	mov	r4, r1
    d54c:	4603      	mov	r3, r0
    int iNDigits = ui64Val ? 0 : 1;
    d54e:	bf0c      	ite	eq
    d550:	f04f 0e01 	moveq.w	lr, #1
    d554:	f04f 0e00 	movne.w	lr, #0
    while ( ui64Val )
    d558:	4323      	orrs	r3, r4
    d55a:	f000 8396 	beq.w	dc8a <am_util_stdio_vsprintf+0xbb2>
                    bNeg = false;
    d55e:	2300      	movs	r3, #0
    d560:	e9cd 380f 	strd	r3, r8, [sp, #60]	; 0x3c
    d564:	e9cd 0102 	strd	r0, r1, [sp, #8]
    d568:	e9cd ba11 	strd	fp, sl, [sp, #68]	; 0x44
    d56c:	f8cd 904c 	str.w	r9, [sp, #76]	; 0x4c
        q64 = (ui64Val>>1) + (ui64Val>>2);
    d570:	e9dd 0102 	ldrd	r0, r1, [sp, #8]
        q64 += (q64 >> 4);
    d574:	2300      	movs	r3, #0
    d576:	2400      	movs	r4, #0
    d578:	e9cd 3408 	strd	r3, r4, [sp, #32]
        q64 += (q64 >> 8);
    d57c:	e9cd 3406 	strd	r3, r4, [sp, #24]
        q64 += (q64 >> 16);
    d580:	e9cd 3404 	strd	r3, r4, [sp, #16]
        q64 += (q64 >> 32);
    d584:	e9cd 340a 	strd	r3, r4, [sp, #40]	; 0x28
        q32 = (ui32Val>>1) + (ui32Val>>2);
    d588:	0843      	lsrs	r3, r0, #1
    d58a:	eb03 0390 	add.w	r3, r3, r0, lsr #2
        q32 += (q32 >> 4);
    d58e:	eb03 1313 	add.w	r3, r3, r3, lsr #4
        q32 += (q32 >> 8);
    d592:	eb03 2313 	add.w	r3, r3, r3, lsr #8
        q32 += (q32 >> 16);
    d596:	eb03 4313 	add.w	r3, r3, r3, lsr #16
        q32 >>= 3;
    d59a:	08db      	lsrs	r3, r3, #3
        q32 = (ui32Val>>1) + (ui32Val>>2);
    d59c:	4602      	mov	r2, r0
        r32 = ui32Val - q32*10;
    d59e:	eb03 0c83 	add.w	ip, r3, r3, lsl #2
        q64 = (ui64Val>>1) + (ui64Val>>2);
    d5a2:	0886      	lsrs	r6, r0, #2
    if ( ui64Val >> 32 )
    d5a4:	460c      	mov	r4, r1
        return (uint64_t)(q32 + ((r32 + 6) >> 4));
    d5a6:	3206      	adds	r2, #6
    if ( ui64Val >> 32 )
    d5a8:	2500      	movs	r5, #0
        q64 = (ui64Val>>1) + (ui64Val>>2);
    d5aa:	ea46 7681 	orr.w	r6, r6, r1, lsl #30
    d5ae:	088f      	lsrs	r7, r1, #2
        return (uint64_t)(q32 + ((r32 + 6) >> 4));
    d5b0:	eba2 024c 	sub.w	r2, r2, ip, lsl #1
    if ( ui64Val >> 32 )
    d5b4:	ea54 0105 	orrs.w	r1, r4, r5
        return (uint64_t)(q32 + ((r32 + 6) >> 4));
    d5b8:	eb03 1312 	add.w	r3, r3, r2, lsr #4
    if ( ui64Val >> 32 )
    d5bc:	f040 80ba 	bne.w	d734 <am_util_stdio_vsprintf+0x65c>
        return (uint64_t)(q32 + ((r32 + 6) >> 4));
    d5c0:	4619      	mov	r1, r3
    d5c2:	2200      	movs	r2, #0
        ++iNDigits;
    d5c4:	f10e 0e01 	add.w	lr, lr, #1
        return (uint64_t)(q32 + ((r32 + 6) >> 4));
    d5c8:	e9cd 1202 	strd	r1, r2, [sp, #8]
    while ( ui64Val )
    d5cc:	2b00      	cmp	r3, #0
    d5ce:	d1cf      	bne.n	d570 <am_util_stdio_vsprintf+0x498>
                    iWidth -= ndigits_in_i64(ui64Val);
    d5d0:	9b0e      	ldr	r3, [sp, #56]	; 0x38
    d5d2:	eba3 0e0e 	sub.w	lr, r3, lr
                    if ( bNeg )
    d5d6:	9b0f      	ldr	r3, [sp, #60]	; 0x3c
    d5d8:	e9dd 8b10 	ldrd	r8, fp, [sp, #64]	; 0x40
    d5dc:	e9dd a912 	ldrd	sl, r9, [sp, #72]	; 0x48
    d5e0:	b13b      	cbz	r3, d5f2 <am_util_stdio_vsprintf+0x51a>
                        if ( ui8PadChar == '0' )
    d5e2:	f1b8 0f30 	cmp.w	r8, #48	; 0x30
                        --iWidth;
    d5e6:	f10e 3eff 	add.w	lr, lr, #4294967295	; 0xffffffff
                        if ( ui8PadChar == '0' )
    d5ea:	f000 82a3 	beq.w	db34 <am_util_stdio_vsprintf+0xa5c>
    d5ee:	2301      	movs	r3, #1
    d5f0:	930f      	str	r3, [sp, #60]	; 0x3c
    if ( i32NumChars <= 0 )
    d5f2:	f1be 0f00 	cmp.w	lr, #0
    d5f6:	f300 821e 	bgt.w	da36 <am_util_stdio_vsprintf+0x95e>
    d5fa:	2200      	movs	r2, #0
                    pcBuf += pcBuf ? iWidth : 0;
    d5fc:	f1ba 0f00 	cmp.w	sl, #0
    d600:	f000 82fc 	beq.w	dbfc <am_util_stdio_vsprintf+0xb24>
                    if ( bNeg  &&  (ui8PadChar == ' ') )
    d604:	9b0f      	ldr	r3, [sp, #60]	; 0x3c
                    pcBuf += pcBuf ? iWidth : 0;
    d606:	4492      	add	sl, r2
                    if ( bNeg  &&  (ui8PadChar == ' ') )
    d608:	b11b      	cbz	r3, d612 <am_util_stdio_vsprintf+0x53a>
    d60a:	f1b8 0f20 	cmp.w	r8, #32
    d60e:	f000 8132 	beq.w	d876 <am_util_stdio_vsprintf+0x79e>
                iVal = uint64_to_str(ui64Val, pcBuf);
    d612:	e9dd 010c 	ldrd	r0, r1, [sp, #48]	; 0x30
    d616:	4652      	mov	r2, sl
    d618:	f7ff fc88 	bl	cf2c <uint64_to_str>
                if ( pcBuf )
    d61c:	f1ba 0f00 	cmp.w	sl, #0
    d620:	d081      	beq.n	d526 <am_util_stdio_vsprintf+0x44e>
                    pcBuf += iVal;
    d622:	4482      	add	sl, r0
                ui32CharCnt += iVal;
    d624:	4483      	add	fp, r0
    d626:	e55f      	b.n	d0e8 <am_util_stdio_vsprintf+0x10>
                ui64Val = bLongLong ? va_arg(pArgs, uint64_t) :
    d628:	9a01      	ldr	r2, [sp, #4]
    d62a:	6813      	ldr	r3, [r2, #0]
                                      va_arg(pArgs, uint32_t);
    d62c:	3204      	adds	r2, #4
    d62e:	9201      	str	r2, [sp, #4]
                ui64Val = bLongLong ? va_arg(pArgs, uint64_t) :
    d630:	4619      	mov	r1, r3
    d632:	2200      	movs	r2, #0
    d634:	e9cd 120c 	strd	r1, r2, [sp, #48]	; 0x30
                if ( iWidth )
    d638:	2c00      	cmp	r4, #0
    d63a:	f040 8127 	bne.w	d88c <am_util_stdio_vsprintf+0x7b4>
                iVal = uint64_to_str(ui64Val, pcBuf);
    d63e:	e9dd 010c 	ldrd	r0, r1, [sp, #48]	; 0x30
    d642:	4652      	mov	r2, sl
    d644:	f7ff fc72 	bl	cf2c <uint64_to_str>
                if ( pcBuf )
    d648:	f1ba 0f00 	cmp.w	sl, #0
    d64c:	d1e9      	bne.n	d622 <am_util_stdio_vsprintf+0x54a>
    d64e:	f04f 0a00 	mov.w	sl, #0
                ui32CharCnt += iVal;
    d652:	4483      	add	fp, r0
    d654:	e548      	b.n	d0e8 <am_util_stdio_vsprintf+0x10>
                bLower = true;
    d656:	2501      	movs	r5, #1
    d658:	e74b      	b.n	d4f2 <am_util_stdio_vsprintf+0x41a>
        bLower = bLongLong = false;
    d65a:	2300      	movs	r3, #0
                bLower = true;
    d65c:	2501      	movs	r5, #1
                ui64Val = bLongLong ? va_arg(pArgs, uint64_t) :
    d65e:	2b00      	cmp	r3, #0
    d660:	f43f af47 	beq.w	d4f2 <am_util_stdio_vsprintf+0x41a>
    d664:	9b01      	ldr	r3, [sp, #4]
    d666:	3307      	adds	r3, #7
    d668:	f023 0307 	bic.w	r3, r3, #7
    d66c:	f103 0208 	add.w	r2, r3, #8
    d670:	9201      	str	r2, [sp, #4]
    d672:	e9d3 2300 	ldrd	r2, r3, [r3]
                if ( iWidth )
    d676:	2c00      	cmp	r4, #0
    d678:	f43f af43 	beq.w	d502 <am_util_stdio_vsprintf+0x42a>
    int iDigits = ui64Val ? 0 : 1;
    d67c:	ea52 0103 	orrs.w	r1, r2, r3
    d680:	bf0c      	ite	eq
    d682:	2401      	moveq	r4, #1
    d684:	2400      	movne	r4, #0
    while ( ui64Val )
    d686:	ea52 0103 	orrs.w	r1, r2, r3
    d68a:	d00c      	beq.n	d6a6 <am_util_stdio_vsprintf+0x5ce>
    d68c:	4610      	mov	r0, r2
    d68e:	4619      	mov	r1, r3
        ui64Val >>= 4;
    d690:	0906      	lsrs	r6, r0, #4
    d692:	ea46 7601 	orr.w	r6, r6, r1, lsl #28
    d696:	090f      	lsrs	r7, r1, #4
    d698:	4630      	mov	r0, r6
    d69a:	4639      	mov	r1, r7
    while ( ui64Val )
    d69c:	ea50 0601 	orrs.w	r6, r0, r1
        ++iDigits;
    d6a0:	f104 0401 	add.w	r4, r4, #1
    while ( ui64Val )
    d6a4:	d1f4      	bne.n	d690 <am_util_stdio_vsprintf+0x5b8>
                    iWidth -= ndigits_in_hex(ui64Val);
    d6a6:	990e      	ldr	r1, [sp, #56]	; 0x38
    d6a8:	1b09      	subs	r1, r1, r4
    if ( i32NumChars <= 0 )
    d6aa:	2900      	cmp	r1, #0
    d6ac:	f300 81a1 	bgt.w	d9f2 <am_util_stdio_vsprintf+0x91a>
    d6b0:	2000      	movs	r0, #0
                    pcBuf += pcBuf ? iWidth : 0;
    d6b2:	f1ba 0f00 	cmp.w	sl, #0
    d6b6:	f000 81b5 	beq.w	da24 <am_util_stdio_vsprintf+0x94c>
    if ( ui64Val == 0 )
    d6ba:	ea52 0103 	orrs.w	r1, r2, r3
    d6be:	4482      	add	sl, r0
    d6c0:	f43f af23 	beq.w	d50a <am_util_stdio_vsprintf+0x432>
    d6c4:	2d00      	cmp	r5, #0
    d6c6:	bf14      	ite	ne
    d6c8:	2527      	movne	r5, #39	; 0x27
    d6ca:	2507      	moveq	r5, #7
    if ( i32NumChars <= 0 )
    d6cc:	af15      	add	r7, sp, #84	; 0x54
    int iNumDig, ix = 0;
    d6ce:	2600      	movs	r6, #0
    d6d0:	f8cd 9008 	str.w	r9, [sp, #8]
        ui64Val >>= 4;
    d6d4:	0914      	lsrs	r4, r2, #4
        cCh = ui64Val & 0xf;
    d6d6:	f002 020f 	and.w	r2, r2, #15
        ui64Val >>= 4;
    d6da:	ea4f 1813 	mov.w	r8, r3, lsr #4
            cCh += bLower ? 0x27 : 0x7;
    d6de:	18a8      	adds	r0, r5, r2
        if ( cCh > 9 )
    d6e0:	2a09      	cmp	r2, #9
        ui64Val >>= 4;
    d6e2:	46c6      	mov	lr, r8
    d6e4:	ea44 7403 	orr.w	r4, r4, r3, lsl #28
        tbuf[ix++] = cCh + '0';
    d6e8:	f100 0030 	add.w	r0, r0, #48	; 0x30
    d6ec:	f102 0c30 	add.w	ip, r2, #48	; 0x30
    d6f0:	f106 0901 	add.w	r9, r6, #1
        if ( cCh > 9 )
    d6f4:	d978      	bls.n	d7e8 <am_util_stdio_vsprintf+0x710>
        ui64Val >>= 4;
    d6f6:	4622      	mov	r2, r4
    d6f8:	4643      	mov	r3, r8
    while ( ui64Val )
    d6fa:	ea52 0103 	orrs.w	r1, r2, r3
        tbuf[ix++] = cCh + '0';
    d6fe:	f807 0b01 	strb.w	r0, [r7], #1
    while ( ui64Val )
    d702:	d07a      	beq.n	d7fa <am_util_stdio_vsprintf+0x722>
    if ( i32NumChars <= 0 )
    d704:	464e      	mov	r6, r9
    d706:	e7e5      	b.n	d6d4 <am_util_stdio_vsprintf+0x5fc>
                ui64Val = bLongLong ? va_arg(pArgs, uint64_t) :
    d708:	9b01      	ldr	r3, [sp, #4]
    d70a:	3307      	adds	r3, #7
    d70c:	f023 0307 	bic.w	r3, r3, #7
    d710:	f103 0208 	add.w	r2, r3, #8
    d714:	9201      	str	r2, [sp, #4]
    d716:	e9d3 2300 	ldrd	r2, r3, [r3]
    d71a:	e9cd 230c 	strd	r2, r3, [sp, #48]	; 0x30
    d71e:	e78b      	b.n	d638 <am_util_stdio_vsprintf+0x560>
                i64Val = bLongLong ? va_arg(pArgs, int64_t) :
    d720:	9b01      	ldr	r3, [sp, #4]
    d722:	3307      	adds	r3, #7
    d724:	f023 0307 	bic.w	r3, r3, #7
    d728:	f103 0208 	add.w	r2, r3, #8
    d72c:	9201      	str	r2, [sp, #4]
    d72e:	e9d3 0100 	ldrd	r0, r1, [r3]
    d732:	e6ff      	b.n	d534 <am_util_stdio_vsprintf+0x45c>
        q64 = (ui64Val>>1) + (ui64Val>>2);
    d734:	e9dd 2302 	ldrd	r2, r3, [sp, #8]
    d738:	085b      	lsrs	r3, r3, #1
    d73a:	ea4f 0232 	mov.w	r2, r2, rrx
    d73e:	1990      	adds	r0, r2, r6
    d740:	eb43 0107 	adc.w	r1, r3, r7
        q64 += (q64 >> 4);
    d744:	0903      	lsrs	r3, r0, #4
    d746:	ea43 7301 	orr.w	r3, r3, r1, lsl #28
    d74a:	9308      	str	r3, [sp, #32]
    d74c:	090b      	lsrs	r3, r1, #4
    d74e:	9309      	str	r3, [sp, #36]	; 0x24
    d750:	e9dd 2308 	ldrd	r2, r3, [sp, #32]
    d754:	1812      	adds	r2, r2, r0
    d756:	414b      	adcs	r3, r1
        q64 += (q64 >> 8);
    d758:	0a11      	lsrs	r1, r2, #8
    d75a:	ea41 6103 	orr.w	r1, r1, r3, lsl #24
    d75e:	9106      	str	r1, [sp, #24]
    d760:	0a19      	lsrs	r1, r3, #8
    d762:	9107      	str	r1, [sp, #28]
    d764:	e9dd 0106 	ldrd	r0, r1, [sp, #24]
    d768:	1880      	adds	r0, r0, r2
    d76a:	4159      	adcs	r1, r3
    d76c:	460b      	mov	r3, r1
        q64 += (q64 >> 16);
    d76e:	0c01      	lsrs	r1, r0, #16
    d770:	ea41 4103 	orr.w	r1, r1, r3, lsl #16
    d774:	9104      	str	r1, [sp, #16]
    d776:	0c19      	lsrs	r1, r3, #16
    d778:	9105      	str	r1, [sp, #20]
        q64 += (q64 >> 8);
    d77a:	4602      	mov	r2, r0
        q64 += (q64 >> 16);
    d77c:	e9dd 0104 	ldrd	r0, r1, [sp, #16]
    d780:	1880      	adds	r0, r0, r2
    d782:	4159      	adcs	r1, r3
        q64 += (q64 >> 32);
    d784:	e9cd 150a 	strd	r1, r5, [sp, #40]	; 0x28
        q64 += (q64 >> 16);
    d788:	4602      	mov	r2, r0
    d78a:	460b      	mov	r3, r1
        q64 += (q64 >> 32);
    d78c:	e9dd 010a 	ldrd	r0, r1, [sp, #40]	; 0x28
    d790:	1880      	adds	r0, r0, r2
    d792:	4159      	adcs	r1, r3
        q64 >>= 3;
    d794:	ea4f 08d0 	mov.w	r8, r0, lsr #3
    d798:	ea48 7841 	orr.w	r8, r8, r1, lsl #29
    d79c:	ea4f 09d1 	mov.w	r9, r1, lsr #3
        return q64 + ((r64 + 6) >> 4);
    d7a0:	e9dd 0102 	ldrd	r0, r1, [sp, #8]
        r64 = ui64Val - q64*10;
    d7a4:	ea4f 0489 	mov.w	r4, r9, lsl #2
    d7a8:	ea4f 0288 	mov.w	r2, r8, lsl #2
    d7ac:	ea44 7398 	orr.w	r3, r4, r8, lsr #30
    d7b0:	eb12 0408 	adds.w	r4, r2, r8
    d7b4:	eb43 0509 	adc.w	r5, r3, r9
        return q64 + ((r64 + 6) >> 4);
    d7b8:	3006      	adds	r0, #6
    d7ba:	f141 0100 	adc.w	r1, r1, #0
        r64 = ui64Val - q64*10;
    d7be:	1922      	adds	r2, r4, r4
    d7c0:	eb45 0305 	adc.w	r3, r5, r5
        return q64 + ((r64 + 6) >> 4);
    d7c4:	1a80      	subs	r0, r0, r2
    d7c6:	eb61 0103 	sbc.w	r1, r1, r3
    d7ca:	ea4f 1a10 	mov.w	sl, r0, lsr #4
    d7ce:	ea4a 7a01 	orr.w	sl, sl, r1, lsl #28
    d7d2:	eb1a 0308 	adds.w	r3, sl, r8
    d7d6:	ea4f 1b11 	mov.w	fp, r1, lsr #4
    d7da:	eb4b 0409 	adc.w	r4, fp, r9
        ++iNDigits;
    d7de:	f10e 0e01 	add.w	lr, lr, #1
        return q64 + ((r64 + 6) >> 4);
    d7e2:	e9cd 3402 	strd	r3, r4, [sp, #8]
    d7e6:	e6c3      	b.n	d570 <am_util_stdio_vsprintf+0x498>
        ui64Val >>= 4;
    d7e8:	4622      	mov	r2, r4
    d7ea:	4643      	mov	r3, r8
    while ( ui64Val )
    d7ec:	ea52 0103 	orrs.w	r1, r2, r3
        tbuf[ix++] = cCh + '0';
    d7f0:	f106 0901 	add.w	r9, r6, #1
    d7f4:	f807 cb01 	strb.w	ip, [r7], #1
    while ( ui64Val )
    d7f8:	d184      	bne.n	d704 <am_util_stdio_vsprintf+0x62c>
    d7fa:	464d      	mov	r5, r9
    d7fc:	4628      	mov	r0, r5
    d7fe:	f8dd 9008 	ldr.w	r9, [sp, #8]
    if (pcBuf)
    d802:	f1ba 0f00 	cmp.w	sl, #0
    d806:	f43f af22 	beq.w	d64e <am_util_stdio_vsprintf+0x576>
    d80a:	ab15      	add	r3, sp, #84	; 0x54
    d80c:	eb0a 0405 	add.w	r4, sl, r5
    d810:	442b      	add	r3, r5
    d812:	f10a 32ff 	add.w	r2, sl, #4294967295	; 0xffffffff
            *pcBuf++ = tbuf[ix];
    d816:	f813 1d01 	ldrb.w	r1, [r3, #-1]!
    d81a:	f802 1f01 	strb.w	r1, [r2, #1]!
        while (ix--)
    d81e:	a915      	add	r1, sp, #84	; 0x54
    d820:	4299      	cmp	r1, r3
    d822:	d1f8      	bne.n	d816 <am_util_stdio_vsprintf+0x73e>
    d824:	4455      	add	r5, sl
    d826:	46a2      	mov	sl, r4
    d828:	e67b      	b.n	d522 <am_util_stdio_vsprintf+0x44a>
    d82a:	46ba      	mov	sl, r7
                if ( iWidth )
    d82c:	2900      	cmp	r1, #0
    d82e:	f43f ae46 	beq.w	d4be <am_util_stdio_vsprintf+0x3e6>
                    iWidth = -iWidth;
    d832:	4249      	negs	r1, r1
                    if ( ui32strlen < iWidth )
    d834:	42b1      	cmp	r1, r6
    d836:	f67f ae42 	bls.w	d4be <am_util_stdio_vsprintf+0x3e6>
                        iWidth -= ui32strlen;
    d83a:	1b89      	subs	r1, r1, r6
    if ( i32NumChars <= 0 )
    d83c:	2900      	cmp	r1, #0
    d83e:	f300 8163 	bgt.w	db08 <am_util_stdio_vsprintf+0xa30>
    d842:	2100      	movs	r1, #0
                        pcBuf += pcBuf ? iWidth : 0;
    d844:	f1ba 0f00 	cmp.w	sl, #0
    d848:	f43f ae39 	beq.w	d4be <am_util_stdio_vsprintf+0x3e6>
    d84c:	448a      	add	sl, r1
    d84e:	e636      	b.n	d4be <am_util_stdio_vsprintf+0x3e6>
    d850:	7891      	ldrb	r1, [r2, #2]
    while ( *pcStr >= '0'  &&  *pcStr <= '9' )
    d852:	f1a1 0330 	sub.w	r3, r1, #48	; 0x30
    d856:	2b09      	cmp	r3, #9
        pcStr++;
    d858:	f102 0002 	add.w	r0, r2, #2
    while ( *pcStr >= '0'  &&  *pcStr <= '9' )
    d85c:	f200 8234 	bhi.w	dcc8 <am_util_stdio_vsprintf+0xbf0>
        bNeg = true;
    d860:	2601      	movs	r6, #1
        uCnt++;
    d862:	4632      	mov	r2, r6
    d864:	e5e2      	b.n	d42c <am_util_stdio_vsprintf+0x354>
                    ui64Val = -i64Val;          // Get absolute value
    d866:	4240      	negs	r0, r0
    d868:	eb61 0141 	sbc.w	r1, r1, r1, lsl #1
    d86c:	e9cd 010c 	strd	r0, r1, [sp, #48]	; 0x30
                if ( iWidth )
    d870:	2c00      	cmp	r4, #0
    d872:	f040 80fa 	bne.w	da6a <am_util_stdio_vsprintf+0x992>
                        if ( pcBuf )
    d876:	f1ba 0f00 	cmp.w	sl, #0
    d87a:	d004      	beq.n	d886 <am_util_stdio_vsprintf+0x7ae>
                            *pcBuf++ = '-';
    d87c:	232d      	movs	r3, #45	; 0x2d
    d87e:	f88a 3000 	strb.w	r3, [sl]
    d882:	f10a 0a01 	add.w	sl, sl, #1
                        ++ui32CharCnt;
    d886:	f10b 0b01 	add.w	fp, fp, #1
    d88a:	e6c2      	b.n	d612 <am_util_stdio_vsprintf+0x53a>
    int iNDigits = ui64Val ? 0 : 1;
    d88c:	e9dd 010c 	ldrd	r0, r1, [sp, #48]	; 0x30
    d890:	4603      	mov	r3, r0
    d892:	430b      	orrs	r3, r1
    while ( ui64Val )
    d894:	460c      	mov	r4, r1
    d896:	4603      	mov	r3, r0
    int iNDigits = ui64Val ? 0 : 1;
    d898:	bf0c      	ite	eq
    d89a:	f04f 0e01 	moveq.w	lr, #1
    d89e:	f04f 0e00 	movne.w	lr, #0
    while ( ui64Val )
    d8a2:	4323      	orrs	r3, r4
    d8a4:	d03c      	beq.n	d920 <am_util_stdio_vsprintf+0x848>
    d8a6:	e9cd 0102 	strd	r0, r1, [sp, #8]
    d8aa:	e9cd ba10 	strd	fp, sl, [sp, #64]	; 0x40
    d8ae:	f8cd 803c 	str.w	r8, [sp, #60]	; 0x3c
    d8b2:	f8cd 9048 	str.w	r9, [sp, #72]	; 0x48
        q64 = (ui64Val>>1) + (ui64Val>>2);
    d8b6:	e9dd 5602 	ldrd	r5, r6, [sp, #8]
        q64 += (q64 >> 4);
    d8ba:	2300      	movs	r3, #0
    d8bc:	2400      	movs	r4, #0
        q64 = (ui64Val>>1) + (ui64Val>>2);
    d8be:	08a8      	lsrs	r0, r5, #2
        q64 += (q64 >> 4);
    d8c0:	e9cd 3408 	strd	r3, r4, [sp, #32]
        q64 += (q64 >> 8);
    d8c4:	e9cd 3406 	strd	r3, r4, [sp, #24]
        q64 += (q64 >> 16);
    d8c8:	e9cd 3404 	strd	r3, r4, [sp, #16]
        q64 += (q64 >> 32);
    d8cc:	e9cd 340a 	strd	r3, r4, [sp, #40]	; 0x28
        q64 = (ui64Val>>1) + (ui64Val>>2);
    d8d0:	ea40 7086 	orr.w	r0, r0, r6, lsl #30
        q32 = (ui32Val>>1) + (ui32Val>>2);
    d8d4:	462c      	mov	r4, r5
        q64 = (ui64Val>>1) + (ui64Val>>2);
    d8d6:	08b1      	lsrs	r1, r6, #2
        q32 = (ui32Val>>1) + (ui32Val>>2);
    d8d8:	086e      	lsrs	r6, r5, #1
    d8da:	eb06 0694 	add.w	r6, r6, r4, lsr #2
        q32 += (q32 >> 4);
    d8de:	eb06 1616 	add.w	r6, r6, r6, lsr #4
    if ( ui64Val >> 32 )
    d8e2:	e9dd 2302 	ldrd	r2, r3, [sp, #8]
        q32 += (q32 >> 8);
    d8e6:	eb06 2616 	add.w	r6, r6, r6, lsr #8
        q32 += (q32 >> 16);
    d8ea:	eb06 4616 	add.w	r6, r6, r6, lsr #16
        q32 >>= 3;
    d8ee:	08f6      	lsrs	r6, r6, #3
        r32 = ui32Val - q32*10;
    d8f0:	eb06 0c86 	add.w	ip, r6, r6, lsl #2
    if ( ui64Val >> 32 )
    d8f4:	461c      	mov	r4, r3
        return (uint64_t)(q32 + ((r32 + 6) >> 4));
    d8f6:	1d97      	adds	r7, r2, #6
    if ( ui64Val >> 32 )
    d8f8:	2500      	movs	r5, #0
        return (uint64_t)(q32 + ((r32 + 6) >> 4));
    d8fa:	eba7 074c 	sub.w	r7, r7, ip, lsl #1
    if ( ui64Val >> 32 )
    d8fe:	ea54 0305 	orrs.w	r3, r4, r5
        return (uint64_t)(q32 + ((r32 + 6) >> 4));
    d902:	eb06 1617 	add.w	r6, r6, r7, lsr #4
    if ( ui64Val >> 32 )
    d906:	d118      	bne.n	d93a <am_util_stdio_vsprintf+0x862>
        return (uint64_t)(q32 + ((r32 + 6) >> 4));
    d908:	4633      	mov	r3, r6
    d90a:	2400      	movs	r4, #0
        ++iNDigits;
    d90c:	f10e 0e01 	add.w	lr, lr, #1
        return (uint64_t)(q32 + ((r32 + 6) >> 4));
    d910:	e9cd 3402 	strd	r3, r4, [sp, #8]
    while ( ui64Val )
    d914:	2e00      	cmp	r6, #0
    d916:	d1ce      	bne.n	d8b6 <am_util_stdio_vsprintf+0x7de>
    d918:	e9dd 8b0f 	ldrd	r8, fp, [sp, #60]	; 0x3c
    d91c:	e9dd a911 	ldrd	sl, r9, [sp, #68]	; 0x44
                    iWidth -= ndigits_in_u64(ui64Val);
    d920:	9b0e      	ldr	r3, [sp, #56]	; 0x38
    d922:	eba3 030e 	sub.w	r3, r3, lr
    if ( i32NumChars <= 0 )
    d926:	2b00      	cmp	r3, #0
    d928:	f300 80c7 	bgt.w	daba <am_util_stdio_vsprintf+0x9e2>
    d92c:	2200      	movs	r2, #0
                    pcBuf += pcBuf ? iWidth : 0;
    d92e:	f1ba 0f00 	cmp.w	sl, #0
    d932:	f000 8190 	beq.w	dc56 <am_util_stdio_vsprintf+0xb7e>
    d936:	4492      	add	sl, r2
    d938:	e681      	b.n	d63e <am_util_stdio_vsprintf+0x566>
        q64 = (ui64Val>>1) + (ui64Val>>2);
    d93a:	e9dd 6702 	ldrd	r6, r7, [sp, #8]
    d93e:	087f      	lsrs	r7, r7, #1
    d940:	ea4f 0636 	mov.w	r6, r6, rrx
    d944:	1982      	adds	r2, r0, r6
    d946:	eb41 0307 	adc.w	r3, r1, r7
        q64 += (q64 >> 4);
    d94a:	0911      	lsrs	r1, r2, #4
    d94c:	ea41 7103 	orr.w	r1, r1, r3, lsl #28
    d950:	9108      	str	r1, [sp, #32]
    d952:	0919      	lsrs	r1, r3, #4
    d954:	9109      	str	r1, [sp, #36]	; 0x24
    d956:	e9dd 0108 	ldrd	r0, r1, [sp, #32]
    d95a:	1880      	adds	r0, r0, r2
    d95c:	4159      	adcs	r1, r3
    d95e:	460b      	mov	r3, r1
        q64 += (q64 >> 8);
    d960:	0a01      	lsrs	r1, r0, #8
    d962:	ea41 6103 	orr.w	r1, r1, r3, lsl #24
    d966:	9106      	str	r1, [sp, #24]
    d968:	0a19      	lsrs	r1, r3, #8
    d96a:	9107      	str	r1, [sp, #28]
        q64 += (q64 >> 4);
    d96c:	4602      	mov	r2, r0
        q64 += (q64 >> 8);
    d96e:	e9dd 0106 	ldrd	r0, r1, [sp, #24]
    d972:	1880      	adds	r0, r0, r2
    d974:	4159      	adcs	r1, r3
    d976:	460b      	mov	r3, r1
        q64 += (q64 >> 16);
    d978:	0c01      	lsrs	r1, r0, #16
    d97a:	ea41 4103 	orr.w	r1, r1, r3, lsl #16
    d97e:	9104      	str	r1, [sp, #16]
    d980:	0c19      	lsrs	r1, r3, #16
    d982:	9105      	str	r1, [sp, #20]
        q64 += (q64 >> 8);
    d984:	4602      	mov	r2, r0
        q64 += (q64 >> 16);
    d986:	e9dd 0104 	ldrd	r0, r1, [sp, #16]
    d98a:	1880      	adds	r0, r0, r2
    d98c:	4159      	adcs	r1, r3
        q64 += (q64 >> 32);
    d98e:	e9cd 150a 	strd	r1, r5, [sp, #40]	; 0x28
        q64 += (q64 >> 16);
    d992:	4602      	mov	r2, r0
    d994:	460b      	mov	r3, r1
        q64 += (q64 >> 32);
    d996:	e9dd 010a 	ldrd	r0, r1, [sp, #40]	; 0x28
    d99a:	1880      	adds	r0, r0, r2
    d99c:	4159      	adcs	r1, r3
        q64 >>= 3;
    d99e:	ea4f 08d0 	mov.w	r8, r0, lsr #3
    d9a2:	ea48 7841 	orr.w	r8, r8, r1, lsl #29
    d9a6:	ea4f 09d1 	mov.w	r9, r1, lsr #3
        return q64 + ((r64 + 6) >> 4);
    d9aa:	e9dd 0102 	ldrd	r0, r1, [sp, #8]
        r64 = ui64Val - q64*10;
    d9ae:	ea4f 0489 	mov.w	r4, r9, lsl #2
    d9b2:	ea4f 0288 	mov.w	r2, r8, lsl #2
    d9b6:	ea44 7398 	orr.w	r3, r4, r8, lsr #30
    d9ba:	eb12 0408 	adds.w	r4, r2, r8
    d9be:	eb43 0509 	adc.w	r5, r3, r9
        return q64 + ((r64 + 6) >> 4);
    d9c2:	3006      	adds	r0, #6
    d9c4:	f141 0100 	adc.w	r1, r1, #0
        r64 = ui64Val - q64*10;
    d9c8:	1922      	adds	r2, r4, r4
    d9ca:	eb45 0305 	adc.w	r3, r5, r5
        return q64 + ((r64 + 6) >> 4);
    d9ce:	1a80      	subs	r0, r0, r2
    d9d0:	eb61 0103 	sbc.w	r1, r1, r3
    d9d4:	ea4f 1a10 	mov.w	sl, r0, lsr #4
    d9d8:	ea4a 7a01 	orr.w	sl, sl, r1, lsl #28
    d9dc:	eb1a 0308 	adds.w	r3, sl, r8
    d9e0:	ea4f 1b11 	mov.w	fp, r1, lsr #4
    d9e4:	eb4b 0409 	adc.w	r4, fp, r9
        ++iNDigits;
    d9e8:	f10e 0e01 	add.w	lr, lr, #1
        return q64 + ((r64 + 6) >> 4);
    d9ec:	e9cd 3402 	strd	r3, r4, [sp, #8]
    d9f0:	e761      	b.n	d8b6 <am_util_stdio_vsprintf+0x7de>
    while ( i32NumChars-- )
    d9f2:	3901      	subs	r1, #1
    d9f4:	4656      	mov	r6, sl
    int32_t i32Cnt = 0;
    d9f6:	2000      	movs	r0, #0
    d9f8:	1e4f      	subs	r7, r1, #1
    d9fa:	1c44      	adds	r4, r0, #1
        if ( pcBuf )
    d9fc:	b156      	cbz	r6, da14 <am_util_stdio_vsprintf+0x93c>
            *pcBuf++ = cPadChar;
    d9fe:	46bc      	mov	ip, r7
    da00:	460f      	mov	r7, r1
    da02:	f886 8000 	strb.w	r8, [r6]
    da06:	4620      	mov	r0, r4
    da08:	4661      	mov	r1, ip
    da0a:	3601      	adds	r6, #1
    while ( i32NumChars-- )
    da0c:	2f00      	cmp	r7, #0
    da0e:	d1f3      	bne.n	d9f8 <am_util_stdio_vsprintf+0x920>
    da10:	4483      	add	fp, r0
    da12:	e64e      	b.n	d6b2 <am_util_stdio_vsprintf+0x5da>
    da14:	2900      	cmp	r1, #0
    da16:	f000 8126 	beq.w	dc66 <am_util_stdio_vsprintf+0xb8e>
    da1a:	3902      	subs	r1, #2
    da1c:	3002      	adds	r0, #2
    da1e:	2f00      	cmp	r7, #0
    da20:	d1ea      	bne.n	d9f8 <am_util_stdio_vsprintf+0x920>
    da22:	e7f5      	b.n	da10 <am_util_stdio_vsprintf+0x938>
    if ( ui64Val == 0 )
    da24:	ea52 0103 	orrs.w	r1, r2, r3
    da28:	f47f ae4c 	bne.w	d6c4 <am_util_stdio_vsprintf+0x5ec>
    da2c:	2001      	movs	r0, #1
    da2e:	e60e      	b.n	d64e <am_util_stdio_vsprintf+0x576>
    uint32_t ui32Val = 0, uCnt = 0;
    da30:	2200      	movs	r2, #0
    while ( *pcStr >= '0'  &&  *pcStr <= '9' )
    da32:	4613      	mov	r3, r2
    da34:	e50b      	b.n	d44e <am_util_stdio_vsprintf+0x376>
    while ( i32NumChars-- )
    da36:	f10e 33ff 	add.w	r3, lr, #4294967295	; 0xffffffff
    da3a:	4650      	mov	r0, sl
    int32_t i32Cnt = 0;
    da3c:	2200      	movs	r2, #0
    da3e:	1e5c      	subs	r4, r3, #1
    da40:	1c51      	adds	r1, r2, #1
        if ( pcBuf )
    da42:	b150      	cbz	r0, da5a <am_util_stdio_vsprintf+0x982>
            *pcBuf++ = cPadChar;
    da44:	4625      	mov	r5, r4
    da46:	461c      	mov	r4, r3
    da48:	f880 8000 	strb.w	r8, [r0]
    da4c:	460a      	mov	r2, r1
    da4e:	462b      	mov	r3, r5
    da50:	3001      	adds	r0, #1
    while ( i32NumChars-- )
    da52:	2c00      	cmp	r4, #0
    da54:	d1f3      	bne.n	da3e <am_util_stdio_vsprintf+0x966>
    da56:	4493      	add	fp, r2
    da58:	e5d0      	b.n	d5fc <am_util_stdio_vsprintf+0x524>
    da5a:	2b00      	cmp	r3, #0
    da5c:	f000 8110 	beq.w	dc80 <am_util_stdio_vsprintf+0xba8>
    da60:	3b02      	subs	r3, #2
    da62:	3202      	adds	r2, #2
    da64:	2c00      	cmp	r4, #0
    da66:	d1ea      	bne.n	da3e <am_util_stdio_vsprintf+0x966>
    da68:	e7f5      	b.n	da56 <am_util_stdio_vsprintf+0x97e>
    int iNDigits = ui64Val ? 0 : 1;
    da6a:	4603      	mov	r3, r0
    da6c:	430b      	orrs	r3, r1
    da6e:	bf0c      	ite	eq
    da70:	f04f 0e01 	moveq.w	lr, #1
    da74:	f04f 0e00 	movne.w	lr, #0
                    bNeg = true;
    da78:	2301      	movs	r3, #1
    da7a:	e571      	b.n	d560 <am_util_stdio_vsprintf+0x488>
    else if (iExp2 >= 0)
    da7c:	2a00      	cmp	r2, #0
    da7e:	f2c0 80f5 	blt.w	dc6c <am_util_stdio_vsprintf+0xb94>
        i32FracPart = (i32Significand << (iExp2 + 1)) & 0x00FFFFFF;
    da82:	f1a1 047e 	sub.w	r4, r1, #126	; 0x7e
    da86:	fa00 f404 	lsl.w	r4, r0, r4
        i32IntPart = i32Significand >> (23 - iExp2);
    da8a:	f1c2 0217 	rsb	r2, r2, #23
    if (unFloatValue.I32 < 0)
    da8e:	2b00      	cmp	r3, #0
        i32FracPart = (i32Significand << (iExp2 + 1)) & 0x00FFFFFF;
    da90:	f024 447f 	bic.w	r4, r4, #4278190080	; 0xff000000
        i32IntPart = i32Significand >> (23 - iExp2);
    da94:	fa40 f002 	asr.w	r0, r0, r2
    if (unFloatValue.I32 < 0)
    da98:	f2c0 80d5 	blt.w	dc46 <am_util_stdio_vsprintf+0xb6e>
    da9c:	4656      	mov	r6, sl
            uint64_to_str(i32IntPart, pcBuf);
    da9e:	4632      	mov	r2, r6
    daa0:	17c1      	asrs	r1, r0, #31
    daa2:	f7ff fa43 	bl	cf2c <uint64_to_str>
        while (*pcBuf)    // Get to end of new string
    daa6:	7833      	ldrb	r3, [r6, #0]
    daa8:	b90b      	cbnz	r3, daae <am_util_stdio_vsprintf+0x9d6>
    daaa:	e100      	b.n	dcae <am_util_stdio_vsprintf+0xbd6>
    daac:	463e      	mov	r6, r7
    daae:	7873      	ldrb	r3, [r6, #1]
            pcBuf++;
    dab0:	1c77      	adds	r7, r6, #1
        while (*pcBuf)    // Get to end of new string
    dab2:	2b00      	cmp	r3, #0
    dab4:	d1fa      	bne.n	daac <am_util_stdio_vsprintf+0x9d4>
    dab6:	1cb2      	adds	r2, r6, #2
    dab8:	e480      	b.n	d3bc <am_util_stdio_vsprintf+0x2e4>
    while ( i32NumChars-- )
    daba:	3b01      	subs	r3, #1
    dabc:	4650      	mov	r0, sl
    int32_t i32Cnt = 0;
    dabe:	2200      	movs	r2, #0
    dac0:	1c51      	adds	r1, r2, #1
    dac2:	1e5c      	subs	r4, r3, #1
        if ( pcBuf )
    dac4:	2800      	cmp	r0, #0
    dac6:	d042      	beq.n	db4e <am_util_stdio_vsprintf+0xa76>
            *pcBuf++ = cPadChar;
    dac8:	4625      	mov	r5, r4
    daca:	f880 8000 	strb.w	r8, [r0]
    dace:	461c      	mov	r4, r3
    dad0:	460a      	mov	r2, r1
    dad2:	462b      	mov	r3, r5
    dad4:	3001      	adds	r0, #1
    while ( i32NumChars-- )
    dad6:	2c00      	cmp	r4, #0
    dad8:	d1f2      	bne.n	dac0 <am_util_stdio_vsprintf+0x9e8>
    dada:	4493      	add	fp, r2
    dadc:	e727      	b.n	d92e <am_util_stdio_vsprintf+0x856>
    dade:	1e48      	subs	r0, r1, #1
    dae0:	4654      	mov	r4, sl
    int32_t i32Cnt = 0;
    dae2:	2300      	movs	r3, #0
    dae4:	1c59      	adds	r1, r3, #1
    dae6:	1e45      	subs	r5, r0, #1
        if ( pcBuf )
    dae8:	b3bc      	cbz	r4, db5a <am_util_stdio_vsprintf+0xa82>
            *pcBuf++ = cPadChar;
    daea:	f884 8000 	strb.w	r8, [r4]
    daee:	460b      	mov	r3, r1
    daf0:	3401      	adds	r4, #1
    daf2:	4601      	mov	r1, r0
    while ( i32NumChars-- )
    daf4:	4628      	mov	r0, r5
    daf6:	2900      	cmp	r1, #0
    daf8:	d1f4      	bne.n	dae4 <am_util_stdio_vsprintf+0xa0c>
    dafa:	eb0b 0403 	add.w	r4, fp, r3
    dafe:	e4ec      	b.n	d4da <am_util_stdio_vsprintf+0x402>
                bLongLong = true;
    db00:	2301      	movs	r3, #1
    db02:	e5ab      	b.n	d65c <am_util_stdio_vsprintf+0x584>
        bLower = bLongLong = false;
    db04:	2500      	movs	r5, #0
    db06:	e5ad      	b.n	d664 <am_util_stdio_vsprintf+0x58c>
    while ( i32NumChars-- )
    db08:	1e4b      	subs	r3, r1, #1
    db0a:	4654      	mov	r4, sl
    int32_t i32Cnt = 0;
    db0c:	2100      	movs	r1, #0
    db0e:	1c48      	adds	r0, r1, #1
    db10:	1e5d      	subs	r5, r3, #1
        if ( pcBuf )
    db12:	b34c      	cbz	r4, db68 <am_util_stdio_vsprintf+0xa90>
            *pcBuf++ = cPadChar;
    db14:	f884 8000 	strb.w	r8, [r4]
    db18:	4601      	mov	r1, r0
    db1a:	3401      	adds	r4, #1
    db1c:	4618      	mov	r0, r3
    while ( i32NumChars-- )
    db1e:	462b      	mov	r3, r5
    db20:	2800      	cmp	r0, #0
    db22:	d1f4      	bne.n	db0e <am_util_stdio_vsprintf+0xa36>
    db24:	448b      	add	fp, r1
    db26:	e68d      	b.n	d844 <am_util_stdio_vsprintf+0x76c>
                if ( iWidth > 0 )
    db28:	2900      	cmp	r1, #0
    db2a:	f340 809a 	ble.w	dc62 <am_util_stdio_vsprintf+0xb8a>
                    if ( ui32strlen < iWidth )
    db2e:	4606      	mov	r6, r0
    db30:	1b89      	subs	r1, r1, r6
    db32:	e4cd      	b.n	d4d0 <am_util_stdio_vsprintf+0x3f8>
                            if ( pcBuf )
    db34:	f1ba 0f00 	cmp.w	sl, #0
    db38:	d004      	beq.n	db44 <am_util_stdio_vsprintf+0xa6c>
                                *pcBuf++ = '-';
    db3a:	232d      	movs	r3, #45	; 0x2d
    db3c:	f88a 3000 	strb.w	r3, [sl]
    db40:	f10a 0a01 	add.w	sl, sl, #1
                            ++ui32CharCnt;
    db44:	2301      	movs	r3, #1
    db46:	f10b 0b01 	add.w	fp, fp, #1
    db4a:	930f      	str	r3, [sp, #60]	; 0x3c
    db4c:	e551      	b.n	d5f2 <am_util_stdio_vsprintf+0x51a>
    while ( i32NumChars-- )
    db4e:	2b00      	cmp	r3, #0
    db50:	f000 80a1 	beq.w	dc96 <am_util_stdio_vsprintf+0xbbe>
    db54:	3b02      	subs	r3, #2
    db56:	3202      	adds	r2, #2
    db58:	e7bd      	b.n	dad6 <am_util_stdio_vsprintf+0x9fe>
    db5a:	2800      	cmp	r0, #0
    db5c:	f000 809e 	beq.w	dc9c <am_util_stdio_vsprintf+0xbc4>
    db60:	4629      	mov	r1, r5
    db62:	3302      	adds	r3, #2
    db64:	1e85      	subs	r5, r0, #2
    db66:	e7c5      	b.n	daf4 <am_util_stdio_vsprintf+0xa1c>
    db68:	2b00      	cmp	r3, #0
    db6a:	f000 809d 	beq.w	dca8 <am_util_stdio_vsprintf+0xbd0>
    db6e:	4628      	mov	r0, r5
    db70:	3102      	adds	r1, #2
    db72:	1e9d      	subs	r5, r3, #2
    db74:	e7d3      	b.n	db1e <am_util_stdio_vsprintf+0xa46>
        iMax = iBufSize - (pcBuf - pcBufInitial) - 1;
    db76:	eba2 010a 	sub.w	r1, r2, sl
    db7a:	f1c1 0313 	rsb	r3, r1, #19
        iMax = (iMax > iPrecision) ? iPrecision : iMax;
    db7e:	42ab      	cmp	r3, r5
    db80:	bfa8      	it	ge
    db82:	462b      	movge	r3, r5
        for (jx = 0; jx < iMax; jx++)
    db84:	2b00      	cmp	r3, #0
    db86:	dd0d      	ble.n	dba4 <am_util_stdio_vsprintf+0xacc>
    db88:	18d1      	adds	r1, r2, r3
            i32FracPart *= 10;
    db8a:	eb04 0484 	add.w	r4, r4, r4, lsl #2
    db8e:	0064      	lsls	r4, r4, #1
            *pcBuf++ = (i32FracPart >> 24) + '0';
    db90:	1623      	asrs	r3, r4, #24
    db92:	3330      	adds	r3, #48	; 0x30
    db94:	f802 3b01 	strb.w	r3, [r2], #1
        for (jx = 0; jx < iMax; jx++)
    db98:	4291      	cmp	r1, r2
            i32FracPart &= 0x00FFFFFF;
    db9a:	f024 447f 	bic.w	r4, r4, #4278190080	; 0xff000000
        for (jx = 0; jx < iMax; jx++)
    db9e:	d1f4      	bne.n	db8a <am_util_stdio_vsprintf+0xab2>
    dba0:	eba2 010a 	sub.w	r1, r2, sl
        if ( ((i32FracPart * 10) >> 24) >= 5 )
    dba4:	eb04 0484 	add.w	r4, r4, r4, lsl #2
    dba8:	f344 53c7 	sbfx	r3, r4, #23, #8
    dbac:	2b04      	cmp	r3, #4
    dbae:	f77f ac10 	ble.w	d3d2 <am_util_stdio_vsprintf+0x2fa>
            pcBuftmp = pcBuf - 1;
    dbb2:	1e53      	subs	r3, r2, #1
            while ( pcBuftmp >= pcBufInitial )
    dbb4:	459a      	cmp	sl, r3
    dbb6:	f63f ac0c 	bhi.w	d3d2 <am_util_stdio_vsprintf+0x2fa>
    dbba:	f10a 35ff 	add.w	r5, sl, #4294967295	; 0xffffffff
    dbbe:	e005      	b.n	dbcc <am_util_stdio_vsprintf+0xaf4>
                    *pcBuftmp = '0';
    dbc0:	f04f 0030 	mov.w	r0, #48	; 0x30
    dbc4:	7058      	strb	r0, [r3, #1]
            while ( pcBuftmp >= pcBufInitial )
    dbc6:	429d      	cmp	r5, r3
    dbc8:	f43f ac03 	beq.w	d3d2 <am_util_stdio_vsprintf+0x2fa>
    dbcc:	461c      	mov	r4, r3
                if ( *pcBuftmp == '.' )
    dbce:	f813 0901 	ldrb.w	r0, [r3], #-1
    dbd2:	282e      	cmp	r0, #46	; 0x2e
    dbd4:	d0f7      	beq.n	dbc6 <am_util_stdio_vsprintf+0xaee>
                else if ( *pcBuftmp == '9' )
    dbd6:	2839      	cmp	r0, #57	; 0x39
    dbd8:	d0f2      	beq.n	dbc0 <am_util_stdio_vsprintf+0xae8>
                    *pcBuftmp += 1;
    dbda:	3001      	adds	r0, #1
    dbdc:	7020      	strb	r0, [r4, #0]
    dbde:	f7ff bbf8 	b.w	d3d2 <am_util_stdio_vsprintf+0x2fa>
                while (*pcStr != 0x0)
    dbe2:	7838      	ldrb	r0, [r7, #0]
    dbe4:	2800      	cmp	r0, #0
    dbe6:	d03c      	beq.n	dc62 <am_util_stdio_vsprintf+0xb8a>
    dbe8:	465c      	mov	r4, fp
        return ui32RetVal;
    dbea:	463e      	mov	r6, r7
    dbec:	2301      	movs	r3, #1
    dbee:	e44a      	b.n	d486 <am_util_stdio_vsprintf+0x3ae>
        *(uint32_t*)pcBuf = 0x00 << 24 | ('0' << 16) | ('.' << 8) | ('0' << 0);
    dbf0:	4b39      	ldr	r3, [pc, #228]	; (dcd8 <am_util_stdio_vsprintf+0xc00>)
    dbf2:	f8ca 3000 	str.w	r3, [sl]
    dbf6:	2303      	movs	r3, #3
    dbf8:	f7ff bbf1 	b.w	d3de <am_util_stdio_vsprintf+0x306>
                    if ( bNeg  &&  (ui8PadChar == ' ') )
    dbfc:	9b0f      	ldr	r3, [sp, #60]	; 0x3c
    dbfe:	b11b      	cbz	r3, dc08 <am_util_stdio_vsprintf+0xb30>
    dc00:	f1b8 0f20 	cmp.w	r8, #32
    dc04:	f43f ae3f 	beq.w	d886 <am_util_stdio_vsprintf+0x7ae>
                iVal = uint64_to_str(ui64Val, pcBuf);
    dc08:	e9dd 010c 	ldrd	r0, r1, [sp, #48]	; 0x30
    dc0c:	4652      	mov	r2, sl
    dc0e:	f7ff f98d 	bl	cf2c <uint64_to_str>
                ui32CharCnt += iVal;
    dc12:	4483      	add	fp, r0
    dc14:	f7ff ba68 	b.w	d0e8 <am_util_stdio_vsprintf+0x10>
                        if ( iVal == AM_FTOA_ERR_VAL_TOO_SMALL )
    dc18:	1c4b      	adds	r3, r1, #1
    dc1a:	d034      	beq.n	dc86 <am_util_stdio_vsprintf+0xbae>
                        else if ( iVal == AM_FTOA_ERR_VAL_TOO_LARGE )
    dc1c:	3102      	adds	r1, #2
    dc1e:	d141      	bne.n	dca4 <am_util_stdio_vsprintf+0xbcc>
                            u32PrntErrVal = (0x00 << 24) | ('#' << 16) |
    dc20:	4b2e      	ldr	r3, [pc, #184]	; (dcdc <am_util_stdio_vsprintf+0xc04>)
                        *(uint32_t*)pcBuf = u32PrntErrVal;
    dc22:	f8ca 3000 	str.w	r3, [sl]
    dc26:	2303      	movs	r3, #3
    dc28:	f7ff bbd9 	b.w	d3de <am_util_stdio_vsprintf+0x306>
        if (i32IntPart > 0)
    dc2c:	f73f af37 	bgt.w	da9e <am_util_stdio_vsprintf+0x9c6>
            uint64_to_str(-i32IntPart, pcBuf);
    dc30:	4240      	negs	r0, r0
            *pcBuf++ = '-';
    dc32:	232d      	movs	r3, #45	; 0x2d
    dc34:	7033      	strb	r3, [r6, #0]
            uint64_to_str(-i32IntPart, pcBuf);
    dc36:	463a      	mov	r2, r7
    dc38:	17c1      	asrs	r1, r0, #31
    dc3a:	463e      	mov	r6, r7
    dc3c:	f7ff f976 	bl	cf2c <uint64_to_str>
    dc40:	3701      	adds	r7, #1
    dc42:	e730      	b.n	daa6 <am_util_stdio_vsprintf+0x9ce>
    i32FracPart = 0;
    dc44:	2400      	movs	r4, #0
        *pcBuf++ = '-';
    dc46:	4653      	mov	r3, sl
    dc48:	222d      	movs	r2, #45	; 0x2d
    dc4a:	f803 2b02 	strb.w	r2, [r3], #2
    dc4e:	463e      	mov	r6, r7
    dc50:	461f      	mov	r7, r3
    dc52:	f7ff bbac 	b.w	d3ae <am_util_stdio_vsprintf+0x2d6>
                iVal = uint64_to_str(ui64Val, pcBuf);
    dc56:	4652      	mov	r2, sl
    dc58:	e9dd 010c 	ldrd	r0, r1, [sp, #48]	; 0x30
    dc5c:	f7ff f966 	bl	cf2c <uint64_to_str>
    dc60:	e4f5      	b.n	d64e <am_util_stdio_vsprintf+0x576>
        return ui32RetVal;
    dc62:	4606      	mov	r6, r0
    dc64:	e428      	b.n	d4b8 <am_util_stdio_vsprintf+0x3e0>
    dc66:	4620      	mov	r0, r4
    dc68:	44a3      	add	fp, r4
    dc6a:	e522      	b.n	d6b2 <am_util_stdio_vsprintf+0x5da>
        i32FracPart = (i32Significand & 0x00FFFFFF) >> -(iExp2 + 1);
    dc6c:	43d2      	mvns	r2, r2
    if (unFloatValue.I32 < 0)
    dc6e:	2b00      	cmp	r3, #0
        i32FracPart = (i32Significand & 0x00FFFFFF) >> -(iExp2 + 1);
    dc70:	fa40 f402 	asr.w	r4, r0, r2
    dc74:	f10a 0202 	add.w	r2, sl, #2
    if (unFloatValue.I32 < 0)
    dc78:	db1d      	blt.n	dcb6 <am_util_stdio_vsprintf+0xbde>
    dc7a:	4656      	mov	r6, sl
    dc7c:	f7ff bb9b 	b.w	d3b6 <am_util_stdio_vsprintf+0x2de>
    dc80:	460a      	mov	r2, r1
    dc82:	448b      	add	fp, r1
    dc84:	e4ba      	b.n	d5fc <am_util_stdio_vsprintf+0x524>
                            u32PrntErrVal = (0x00 << 24) | ('0' << 16) |
    dc86:	4b14      	ldr	r3, [pc, #80]	; (dcd8 <am_util_stdio_vsprintf+0xc00>)
    dc88:	e7cb      	b.n	dc22 <am_util_stdio_vsprintf+0xb4a>
                    iWidth -= ndigits_in_i64(ui64Val);
    dc8a:	9b0e      	ldr	r3, [sp, #56]	; 0x38
    dc8c:	eba3 0e0e 	sub.w	lr, r3, lr
                    bNeg = false;
    dc90:	2300      	movs	r3, #0
    dc92:	930f      	str	r3, [sp, #60]	; 0x3c
    dc94:	e4ad      	b.n	d5f2 <am_util_stdio_vsprintf+0x51a>
    dc96:	460a      	mov	r2, r1
    dc98:	448b      	add	fp, r1
    dc9a:	e648      	b.n	d92e <am_util_stdio_vsprintf+0x856>
    dc9c:	460b      	mov	r3, r1
    dc9e:	eb0b 0401 	add.w	r4, fp, r1
    dca2:	e41a      	b.n	d4da <am_util_stdio_vsprintf+0x402>
                            u32PrntErrVal = (0x00 << 24) | ('?' << 16) |
    dca4:	4b0e      	ldr	r3, [pc, #56]	; (dce0 <am_util_stdio_vsprintf+0xc08>)
    dca6:	e7bc      	b.n	dc22 <am_util_stdio_vsprintf+0xb4a>
    dca8:	4601      	mov	r1, r0
    dcaa:	4483      	add	fp, r0
    dcac:	e5ca      	b.n	d844 <am_util_stdio_vsprintf+0x76c>
        while (*pcBuf)    // Get to end of new string
    dcae:	463a      	mov	r2, r7
    dcb0:	4637      	mov	r7, r6
    dcb2:	f7ff bb83 	b.w	d3bc <am_util_stdio_vsprintf+0x2e4>
        *pcBuf++ = '-';
    dcb6:	4653      	mov	r3, sl
    dcb8:	212d      	movs	r1, #45	; 0x2d
    dcba:	f803 1b03 	strb.w	r1, [r3], #3
    dcbe:	463e      	mov	r6, r7
    dcc0:	4617      	mov	r7, r2
    dcc2:	461a      	mov	r2, r3
    dcc4:	f7ff bb77 	b.w	d3b6 <am_util_stdio_vsprintf+0x2de>
    while ( *pcStr >= '0'  &&  *pcStr <= '9' )
    dcc8:	2300      	movs	r3, #0
        uCnt++;
    dcca:	2201      	movs	r2, #1
    dccc:	f7ff bbbe 	b.w	d44c <am_util_stdio_vsprintf+0x374>
                pcStr = va_arg(pArgs, char *);
    dcd0:	9201      	str	r2, [sp, #4]
                        ui32CharCnt += iWidth;
    dcd2:	46a3      	mov	fp, r4
    dcd4:	f7ff ba08 	b.w	d0e8 <am_util_stdio_vsprintf+0x10>
    dcd8:	00302e30 	.word	0x00302e30
    dcdc:	00232e23 	.word	0x00232e23
    dce0:	003f2e3f 	.word	0x003f2e3f

0000dce4 <am_util_stdio_printf>:
//! @return uint32_t representing the number of characters printed.
//
// *****************************************************************************
uint32_t
am_util_stdio_printf(const char *pcFmt, ...)
{
    dce4:	b40f      	push	{r0, r1, r2, r3}
    dce6:	b530      	push	{r4, r5, lr}
    uint32_t ui32NumChars;

    if (!g_pfnCharPrint)
    dce8:	4d0a      	ldr	r5, [pc, #40]	; (dd14 <am_util_stdio_printf+0x30>)
    dcea:	682c      	ldr	r4, [r5, #0]
{
    dcec:	b083      	sub	sp, #12
    if (!g_pfnCharPrint)
    dcee:	b154      	cbz	r4, dd06 <am_util_stdio_printf+0x22>

    //
    // Convert to the desired string.
    //
    va_list pArgs;
    va_start(pArgs, pcFmt);
    dcf0:	ab07      	add	r3, sp, #28
    ui32NumChars = am_util_stdio_vsprintf(g_prfbuf, pcFmt, pArgs);
    dcf2:	461a      	mov	r2, r3
    dcf4:	9906      	ldr	r1, [sp, #24]
    dcf6:	4808      	ldr	r0, [pc, #32]	; (dd18 <am_util_stdio_printf+0x34>)
    va_start(pArgs, pcFmt);
    dcf8:	9301      	str	r3, [sp, #4]
    ui32NumChars = am_util_stdio_vsprintf(g_prfbuf, pcFmt, pArgs);
    dcfa:	f7ff f9ed 	bl	d0d8 <am_util_stdio_vsprintf>
    va_end(pArgs);

    //
    // This is where we print the buffer to the configured interface.
    //
    g_pfnCharPrint(g_prfbuf);
    dcfe:	682b      	ldr	r3, [r5, #0]
    ui32NumChars = am_util_stdio_vsprintf(g_prfbuf, pcFmt, pArgs);
    dd00:	4604      	mov	r4, r0
    g_pfnCharPrint(g_prfbuf);
    dd02:	4805      	ldr	r0, [pc, #20]	; (dd18 <am_util_stdio_printf+0x34>)
    dd04:	4798      	blx	r3

    //
    // return the number of characters printed.
    //
    return ui32NumChars;
}
    dd06:	4620      	mov	r0, r4
    dd08:	b003      	add	sp, #12
    dd0a:	e8bd 4030 	ldmia.w	sp!, {r4, r5, lr}
    dd0e:	b004      	add	sp, #16
    dd10:	4770      	bx	lr
    dd12:	bf00      	nop
    dd14:	1000c62c 	.word	0x1000c62c
    dd18:	1000c48c 	.word	0x1000c48c

0000dd1c <am_app_utils_ring_buffer_init_all>:
void
am_app_utils_ring_buffer_init_all(am_app_utils_ring_buffer_t* ring_buffs, const am_app_utils_ringbuff_setup_t* setup_array, 
                                    uint32_t ui32BufferCount)
{
    uint32_t ringbuff = 0;
    for(ringbuff =0; ringbuff<ui32BufferCount; ringbuff++)
    dd1c:	b302      	cbz	r2, dd60 <am_app_utils_ring_buffer_init_all+0x44>
{
    dd1e:	b4f0      	push	{r4, r5, r6, r7}
    dd20:	eb02 0242 	add.w	r2, r2, r2, lsl #1
    dd24:	b084      	sub	sp, #16
    dd26:	4606      	mov	r6, r0
    dd28:	460b      	mov	r3, r1
    dd2a:	eb01 0782 	add.w	r7, r1, r2, lsl #2
    dd2e:	ad01      	add	r5, sp, #4
    ring_buffs[setup.indx].ui32BufferHead_read = 0;
    dd30:	2400      	movs	r4, #0
    dd32:	e893 0007 	ldmia.w	r3, {r0, r1, r2}
    dd36:	e885 0007 	stmia.w	r5, {r0, r1, r2}
    dd3a:	9a01      	ldr	r2, [sp, #4]
    dd3c:	eb02 0282 	add.w	r2, r2, r2, lsl #2
    dd40:	eb06 0182 	add.w	r1, r6, r2, lsl #2
    dd44:	330c      	adds	r3, #12
    dd46:	608c      	str	r4, [r1, #8]
    ring_buffs[setup.indx].ui32BufferTail_write = 0;
    dd48:	604c      	str	r4, [r1, #4]
    ring_buffs[setup.indx].ui32OverWriting = 0;
    dd4a:	60cc      	str	r4, [r1, #12]
    ring_buffs[setup.indx].ui32Capacity = setup.ui32ByteSize;
    dd4c:	9803      	ldr	r0, [sp, #12]
    dd4e:	6108      	str	r0, [r1, #16]
    for(ringbuff =0; ringbuff<ui32BufferCount; ringbuff++)
    dd50:	42bb      	cmp	r3, r7
    ring_buffs[setup.indx].pui8Data = setup.pData;
    dd52:	9902      	ldr	r1, [sp, #8]
    dd54:	f846 1022 	str.w	r1, [r6, r2, lsl #2]
    for(ringbuff =0; ringbuff<ui32BufferCount; ringbuff++)
    dd58:	d1eb      	bne.n	dd32 <am_app_utils_ring_buffer_init_all+0x16>
    {
        am_app_utils_ring_buffer_init(ring_buffs,setup_array[ringbuff]);    
    }

}
    dd5a:	b004      	add	sp, #16
    dd5c:	bcf0      	pop	{r4, r5, r6, r7}
    dd5e:	4770      	bx	lr
    dd60:	4770      	bx	lr
    dd62:	bf00      	nop

0000dd64 <am_app_utils_ring_buffer_push>:
//                  If false, data could be pushed no matter buffer is full or not.
// Return:
//      bytes pushed into the ring buffer
//*****************************************************************************
uint32_t am_app_utils_ring_buffer_push(am_app_utils_ring_buffer_t *psBuffer, void *pvSource, uint32_t ui32Bytes, bool bFullCheck)
{
    dd64:	e92d 41f0 	stmdb	sp!, {r4, r5, r6, r7, r8, lr}
    dd68:	4617      	mov	r7, r2
    dd6a:	4604      	mov	r4, r0
    dd6c:	460e      	mov	r6, r1
    pui8Source = (uint8_t*)pvSource;

    if(bFullCheck == true)
    {
        // won't push any data if buffer is full
        if(am_app_utils_ring_buffer_full(psBuffer))
    dd6e:	6842      	ldr	r2, [r0, #4]
    if(bFullCheck == true)
    dd70:	2b00      	cmp	r3, #0
    dd72:	d046      	beq.n	de02 <am_app_utils_ring_buffer_push+0x9e>
        if(am_app_utils_ring_buffer_full(psBuffer))
    dd74:	6883      	ldr	r3, [r0, #8]
    dd76:	429a      	cmp	r2, r3
    dd78:	f000 809d 	beq.w	deb6 <am_app_utils_ring_buffer_push+0x152>
            ui32ReturnPushLen =0;
            return ui32ReturnPushLen;
        }
    
        // push data until the buffer is full
        if(am_app_utils_ring_buffer_empty(psBuffer))
    dd7c:	6862      	ldr	r2, [r4, #4]
    dd7e:	68a3      	ldr	r3, [r4, #8]
    dd80:	429a      	cmp	r2, r3
    dd82:	f000 80a3 	beq.w	decc <am_app_utils_ring_buffer_push+0x168>
                ui32CopyLen = psBuffer->ui32Capacity;
            }
        }
        else
        {
            if(((psBuffer->ui32BufferHead_read + psBuffer->ui32Capacity - psBuffer->ui32BufferTail_write) 
    dd86:	68a3      	ldr	r3, [r4, #8]
    dd88:	6920      	ldr	r0, [r4, #16]
    dd8a:	6862      	ldr	r2, [r4, #4]
                % psBuffer->ui32Capacity) <= ui32CopyLen)
    dd8c:	6921      	ldr	r1, [r4, #16]
            if(((psBuffer->ui32BufferHead_read + psBuffer->ui32Capacity - psBuffer->ui32BufferTail_write) 
    dd8e:	4403      	add	r3, r0
    dd90:	1a9b      	subs	r3, r3, r2
                % psBuffer->ui32Capacity) <= ui32CopyLen)
    dd92:	fbb3 f2f1 	udiv	r2, r3, r1
    dd96:	fb01 3312 	mls	r3, r1, r2, r3
            if(((psBuffer->ui32BufferHead_read + psBuffer->ui32Capacity - psBuffer->ui32BufferTail_write) 
    dd9a:	42bb      	cmp	r3, r7
    dd9c:	d977      	bls.n	de8e <am_app_utils_ring_buffer_push+0x12a>
    
        }        
            
        ui32ReturnPushLen = ui32CopyLen;
    
        while((psBuffer->ui32BufferTail_write + ui32CopyLen) >= psBuffer->ui32Capacity)
    dd9e:	6863      	ldr	r3, [r4, #4]
    dda0:	6922      	ldr	r2, [r4, #16]
    dda2:	443b      	add	r3, r7
    dda4:	4293      	cmp	r3, r2
    dda6:	46b8      	mov	r8, r7
    dda8:	d319      	bcc.n	ddde <am_app_utils_ring_buffer_push+0x7a>
        {
            ui32TempLen = psBuffer->ui32Capacity - psBuffer->ui32BufferTail_write;
    ddaa:	6925      	ldr	r5, [r4, #16]
    ddac:	6862      	ldr	r2, [r4, #4]
            memcpy((void*)&psBuffer->pui8Data[psBuffer->ui32BufferTail_write], pui8Source, ui32TempLen);
    ddae:	6820      	ldr	r0, [r4, #0]
    ddb0:	6863      	ldr	r3, [r4, #4]
            ui32TempLen = psBuffer->ui32Capacity - psBuffer->ui32BufferTail_write;
    ddb2:	1aad      	subs	r5, r5, r2
            memcpy((void*)&psBuffer->pui8Data[psBuffer->ui32BufferTail_write], pui8Source, ui32TempLen);
    ddb4:	462a      	mov	r2, r5
    ddb6:	4418      	add	r0, r3
    ddb8:	4631      	mov	r1, r6
    ddba:	f7fe fa01 	bl	c1c0 <memcpy>
            psBuffer->ui32BufferTail_write = ((psBuffer->ui32BufferTail_write + ui32TempLen) % psBuffer->ui32Capacity);
    ddbe:	6863      	ldr	r3, [r4, #4]
    ddc0:	6921      	ldr	r1, [r4, #16]
    ddc2:	442b      	add	r3, r5
    ddc4:	fbb3 f2f1 	udiv	r2, r3, r1
    ddc8:	fb01 3312 	mls	r3, r1, r2, r3
    ddcc:	6063      	str	r3, [r4, #4]
        while((psBuffer->ui32BufferTail_write + ui32CopyLen) >= psBuffer->ui32Capacity)
    ddce:	6863      	ldr	r3, [r4, #4]
    ddd0:	6922      	ldr	r2, [r4, #16]
            ui32CopyLen -= ui32TempLen;
    ddd2:	eba8 0805 	sub.w	r8, r8, r5
        while((psBuffer->ui32BufferTail_write + ui32CopyLen) >= psBuffer->ui32Capacity)
    ddd6:	4443      	add	r3, r8
    ddd8:	4293      	cmp	r3, r2
    ddda:	d2e6      	bcs.n	ddaa <am_app_utils_ring_buffer_push+0x46>
    dddc:	442e      	add	r6, r5
        }
//        configASSERT((psBuffer->ui32BufferTail_write + ui32CopyLen) < psBuffer->ui32Capacity);
        
        memcpy((void*)&psBuffer->pui8Data[psBuffer->ui32BufferTail_write], &pui8Source[ui32TempLen], ui32CopyLen);
    ddde:	6863      	ldr	r3, [r4, #4]
    dde0:	6820      	ldr	r0, [r4, #0]
    dde2:	4642      	mov	r2, r8
    dde4:	4631      	mov	r1, r6
    dde6:	4418      	add	r0, r3
    dde8:	f7fe f9ea 	bl	c1c0 <memcpy>
        psBuffer->ui32BufferTail_write = ((psBuffer->ui32BufferTail_write + ui32CopyLen) % psBuffer->ui32Capacity);
    ddec:	6863      	ldr	r3, [r4, #4]
    ddee:	6922      	ldr	r2, [r4, #16]
    ddf0:	4498      	add	r8, r3
    ddf2:	fbb8 f3f2 	udiv	r3, r8, r2
    ddf6:	fb02 8313 	mls	r3, r2, r3, r8
        
        return ui32ReturnPushLen;
    ddfa:	4638      	mov	r0, r7
        psBuffer->ui32BufferTail_write = ((psBuffer->ui32BufferTail_write + ui32CopyLen) % psBuffer->ui32Capacity);
    ddfc:	6063      	str	r3, [r4, #4]
            psBuffer->ui32BufferHead_read = (psBuffer->ui32BufferTail_write);
        }
        
        return ui32ReturnPushLen;
    }
}
    ddfe:	e8bd 81f0 	ldmia.w	sp!, {r4, r5, r6, r7, r8, pc}
        if(am_app_utils_ring_buffer_empty(psBuffer))
    de02:	6883      	ldr	r3, [r0, #8]
    de04:	429a      	cmp	r2, r3
    de06:	d04f      	beq.n	dea8 <am_app_utils_ring_buffer_push+0x144>
            if(((psBuffer->ui32BufferHead_read + psBuffer->ui32Capacity - psBuffer->ui32BufferTail_write) 
    de08:	68a3      	ldr	r3, [r4, #8]
    de0a:	6920      	ldr	r0, [r4, #16]
    de0c:	6862      	ldr	r2, [r4, #4]
                % psBuffer->ui32Capacity) <= ui32CopyLen)
    de0e:	6921      	ldr	r1, [r4, #16]
            if(((psBuffer->ui32BufferHead_read + psBuffer->ui32Capacity - psBuffer->ui32BufferTail_write) 
    de10:	4403      	add	r3, r0
    de12:	1a9b      	subs	r3, r3, r2
                % psBuffer->ui32Capacity) <= ui32CopyLen)
    de14:	fbb3 f2f1 	udiv	r2, r3, r1
    de18:	fb01 3312 	mls	r3, r1, r2, r3
            if(((psBuffer->ui32BufferHead_read + psBuffer->ui32Capacity - psBuffer->ui32BufferTail_write) 
    de1c:	42bb      	cmp	r3, r7
    de1e:	d801      	bhi.n	de24 <am_app_utils_ring_buffer_push+0xc0>
                psBuffer->ui32OverWriting = 1;
    de20:	2301      	movs	r3, #1
    de22:	60e3      	str	r3, [r4, #12]
        while((psBuffer->ui32BufferTail_write + ui32CopyLen) >= psBuffer->ui32Capacity)
    de24:	6863      	ldr	r3, [r4, #4]
    de26:	6922      	ldr	r2, [r4, #16]
    de28:	443b      	add	r3, r7
    de2a:	429a      	cmp	r2, r3
    de2c:	46b8      	mov	r8, r7
    de2e:	d819      	bhi.n	de64 <am_app_utils_ring_buffer_push+0x100>
            ui32TempLen = psBuffer->ui32Capacity - psBuffer->ui32BufferTail_write;
    de30:	6925      	ldr	r5, [r4, #16]
    de32:	6862      	ldr	r2, [r4, #4]
            memcpy((void*)&psBuffer->pui8Data[psBuffer->ui32BufferTail_write], pui8Source, ui32TempLen);
    de34:	6820      	ldr	r0, [r4, #0]
    de36:	6863      	ldr	r3, [r4, #4]
            ui32TempLen = psBuffer->ui32Capacity - psBuffer->ui32BufferTail_write;
    de38:	1aad      	subs	r5, r5, r2
            memcpy((void*)&psBuffer->pui8Data[psBuffer->ui32BufferTail_write], pui8Source, ui32TempLen);
    de3a:	462a      	mov	r2, r5
    de3c:	4418      	add	r0, r3
    de3e:	4631      	mov	r1, r6
    de40:	f7fe f9be 	bl	c1c0 <memcpy>
            psBuffer->ui32BufferTail_write = ((psBuffer->ui32BufferTail_write + ui32TempLen) % psBuffer->ui32Capacity);
    de44:	6863      	ldr	r3, [r4, #4]
    de46:	6921      	ldr	r1, [r4, #16]
    de48:	442b      	add	r3, r5
    de4a:	fbb3 f2f1 	udiv	r2, r3, r1
    de4e:	fb01 3312 	mls	r3, r1, r2, r3
    de52:	6063      	str	r3, [r4, #4]
        while((psBuffer->ui32BufferTail_write + ui32CopyLen) >= psBuffer->ui32Capacity)
    de54:	6863      	ldr	r3, [r4, #4]
    de56:	6922      	ldr	r2, [r4, #16]
            ui32CopyLen -= ui32TempLen;
    de58:	eba8 0805 	sub.w	r8, r8, r5
        while((psBuffer->ui32BufferTail_write + ui32CopyLen) >= psBuffer->ui32Capacity)
    de5c:	4443      	add	r3, r8
    de5e:	4293      	cmp	r3, r2
    de60:	d2e6      	bcs.n	de30 <am_app_utils_ring_buffer_push+0xcc>
    de62:	442e      	add	r6, r5
        memcpy((void*)&psBuffer->pui8Data[psBuffer->ui32BufferTail_write], &pui8Source[ui32TempLen], ui32CopyLen);
    de64:	6863      	ldr	r3, [r4, #4]
    de66:	6820      	ldr	r0, [r4, #0]
    de68:	4642      	mov	r2, r8
    de6a:	4418      	add	r0, r3
    de6c:	4631      	mov	r1, r6
    de6e:	f7fe f9a7 	bl	c1c0 <memcpy>
        psBuffer->ui32BufferTail_write = ((psBuffer->ui32BufferTail_write + ui32CopyLen) % psBuffer->ui32Capacity);
    de72:	6863      	ldr	r3, [r4, #4]
    de74:	6922      	ldr	r2, [r4, #16]
    de76:	4498      	add	r8, r3
    de78:	fbb8 f3f2 	udiv	r3, r8, r2
    de7c:	fb02 8313 	mls	r3, r2, r3, r8
    de80:	6063      	str	r3, [r4, #4]
        if(psBuffer->ui32OverWriting == 1)
    de82:	68e3      	ldr	r3, [r4, #12]
    de84:	2b01      	cmp	r3, #1
    de86:	d01c      	beq.n	dec2 <am_app_utils_ring_buffer_push+0x15e>
    de88:	4638      	mov	r0, r7
}
    de8a:	e8bd 81f0 	ldmia.w	sp!, {r4, r5, r6, r7, r8, pc}
                psBuffer->ui32OverWriting = 1;
    de8e:	2301      	movs	r3, #1
    de90:	60e3      	str	r3, [r4, #12]
                ui32CopyLen = ((psBuffer->ui32BufferHead_read + psBuffer->ui32Capacity - psBuffer->ui32BufferTail_write) 
    de92:	68a3      	ldr	r3, [r4, #8]
    de94:	6921      	ldr	r1, [r4, #16]
    de96:	6867      	ldr	r7, [r4, #4]
                % psBuffer->ui32Capacity);
    de98:	6922      	ldr	r2, [r4, #16]
                ui32CopyLen = ((psBuffer->ui32BufferHead_read + psBuffer->ui32Capacity - psBuffer->ui32BufferTail_write) 
    de9a:	440b      	add	r3, r1
    de9c:	1bdb      	subs	r3, r3, r7
    de9e:	fbb3 f7f2 	udiv	r7, r3, r2
    dea2:	fb02 3717 	mls	r7, r2, r7, r3
    dea6:	e77a      	b.n	dd9e <am_app_utils_ring_buffer_push+0x3a>
        if(am_app_utils_ring_buffer_empty(psBuffer))
    dea8:	68c3      	ldr	r3, [r0, #12]
    deaa:	2b00      	cmp	r3, #0
    deac:	d1ac      	bne.n	de08 <am_app_utils_ring_buffer_push+0xa4>
            if(ui32CopyLen >= psBuffer->ui32Capacity)
    deae:	6903      	ldr	r3, [r0, #16]
    deb0:	42bb      	cmp	r3, r7
    deb2:	d8b7      	bhi.n	de24 <am_app_utils_ring_buffer_push+0xc0>
    deb4:	e7b4      	b.n	de20 <am_app_utils_ring_buffer_push+0xbc>
        if(am_app_utils_ring_buffer_full(psBuffer))
    deb6:	68c3      	ldr	r3, [r0, #12]
    deb8:	2b01      	cmp	r3, #1
    deba:	f47f af5f 	bne.w	dd7c <am_app_utils_ring_buffer_push+0x18>
            return ui32ReturnPushLen;
    debe:	2000      	movs	r0, #0
    dec0:	e7e3      	b.n	de8a <am_app_utils_ring_buffer_push+0x126>
            psBuffer->ui32BufferHead_read = (psBuffer->ui32BufferTail_write);
    dec2:	6863      	ldr	r3, [r4, #4]
    dec4:	60a3      	str	r3, [r4, #8]
    dec6:	4638      	mov	r0, r7
}
    dec8:	e8bd 81f0 	ldmia.w	sp!, {r4, r5, r6, r7, r8, pc}
        if(am_app_utils_ring_buffer_empty(psBuffer))
    decc:	68e3      	ldr	r3, [r4, #12]
    dece:	2b00      	cmp	r3, #0
    ded0:	f47f af59 	bne.w	dd86 <am_app_utils_ring_buffer_push+0x22>
            if(ui32CopyLen >= psBuffer->ui32Capacity)
    ded4:	6923      	ldr	r3, [r4, #16]
    ded6:	42bb      	cmp	r3, r7
    ded8:	f63f af61 	bhi.w	dd9e <am_app_utils_ring_buffer_push+0x3a>
                psBuffer->ui32OverWriting = 1;
    dedc:	2301      	movs	r3, #1
    dede:	60e3      	str	r3, [r4, #12]
                ui32CopyLen = psBuffer->ui32Capacity;
    dee0:	6927      	ldr	r7, [r4, #16]
    dee2:	e75c      	b.n	dd9e <am_app_utils_ring_buffer_push+0x3a>

0000dee4 <am_app_utils_ring_buffer_pop>:


uint32_t am_app_utils_ring_buffer_pop(am_app_utils_ring_buffer_t *psBuffer, void *pvDest,
                         uint32_t ui32Bytes)
{
    dee4:	e92d 41f0 	stmdb	sp!, {r4, r5, r6, r7, r8, lr}
    dee8:	4688      	mov	r8, r1
uint32_t
am_app_utils_get_ring_buffer_status(am_app_utils_ring_buffer_t *psBuffer)
{
    uint32_t ui32NewDataLen = 0;
    
    if (am_app_utils_ring_buffer_overwrite(psBuffer) || am_app_utils_ring_buffer_full(psBuffer))
    deea:	6841      	ldr	r1, [r0, #4]
    deec:	6883      	ldr	r3, [r0, #8]
    deee:	4299      	cmp	r1, r3
{
    def0:	4604      	mov	r4, r0
    if (am_app_utils_ring_buffer_overwrite(psBuffer) || am_app_utils_ring_buffer_full(psBuffer))
    def2:	d002      	beq.n	defa <am_app_utils_ring_buffer_pop+0x16>
    def4:	68c3      	ldr	r3, [r0, #12]
    def6:	2b01      	cmp	r3, #1
    def8:	d04f      	beq.n	df9a <am_app_utils_ring_buffer_pop+0xb6>
    defa:	6861      	ldr	r1, [r4, #4]
    defc:	68a3      	ldr	r3, [r4, #8]
    defe:	4299      	cmp	r1, r3
    df00:	d048      	beq.n	df94 <am_app_utils_ring_buffer_pop+0xb0>
    {
        ui32NewDataLen = psBuffer->ui32Capacity;
        return ui32NewDataLen;
    }
    
    ui32NewDataLen = ((psBuffer->ui32BufferTail_write + psBuffer->ui32Capacity - psBuffer->ui32BufferHead_read) % 
    df02:	6863      	ldr	r3, [r4, #4]
    df04:	6921      	ldr	r1, [r4, #16]
    df06:	68a7      	ldr	r7, [r4, #8]
        psBuffer->ui32Capacity);
    df08:	6920      	ldr	r0, [r4, #16]
    ui32NewDataLen = ((psBuffer->ui32BufferTail_write + psBuffer->ui32Capacity - psBuffer->ui32BufferHead_read) % 
    df0a:	440b      	add	r3, r1
    df0c:	1bdb      	subs	r3, r3, r7
    df0e:	fbb3 f1f0 	udiv	r1, r3, r0
    df12:	fb00 3711 	mls	r7, r0, r1, r3
    if(am_app_utils_ring_buffer_overwrite(psBuffer))
    df16:	6861      	ldr	r1, [r4, #4]
    df18:	68a3      	ldr	r3, [r4, #8]
    df1a:	4299      	cmp	r1, r3
    df1c:	d004      	beq.n	df28 <am_app_utils_ring_buffer_pop+0x44>
    df1e:	68e3      	ldr	r3, [r4, #12]
    df20:	2b01      	cmp	r3, #1
        psBuffer->ui32BufferHead_read = (psBuffer->ui32BufferTail_write);
    df22:	bf04      	itt	eq
    df24:	6863      	ldreq	r3, [r4, #4]
    df26:	60a3      	streq	r3, [r4, #8]
    while((psBuffer->ui32BufferHead_read + ui32CopyLen) >= psBuffer->ui32Capacity)
    df28:	68a3      	ldr	r3, [r4, #8]
    df2a:	6921      	ldr	r1, [r4, #16]
    ui32CopyLen = ui32Bytes < ui32DataLen ? ui32Bytes : ui32DataLen;
    df2c:	4297      	cmp	r7, r2
    df2e:	bf28      	it	cs
    df30:	4617      	movcs	r7, r2
    while((psBuffer->ui32BufferHead_read + ui32CopyLen) >= psBuffer->ui32Capacity)
    df32:	443b      	add	r3, r7
    df34:	4299      	cmp	r1, r3
    ui32CopyLen = ui32Bytes < ui32DataLen ? ui32Bytes : ui32DataLen;
    df36:	463e      	mov	r6, r7
    while((psBuffer->ui32BufferHead_read + ui32CopyLen) >= psBuffer->ui32Capacity)
    df38:	d818      	bhi.n	df6c <am_app_utils_ring_buffer_pop+0x88>
        ui32TempLen = psBuffer->ui32Capacity - psBuffer->ui32BufferHead_read;
    df3a:	6925      	ldr	r5, [r4, #16]
    df3c:	68a2      	ldr	r2, [r4, #8]
        memcpy(pui8Dest, (void*)&psBuffer->pui8Data[psBuffer->ui32BufferHead_read], ui32TempLen);
    df3e:	6821      	ldr	r1, [r4, #0]
    df40:	68a3      	ldr	r3, [r4, #8]
        ui32TempLen = psBuffer->ui32Capacity - psBuffer->ui32BufferHead_read;
    df42:	1aad      	subs	r5, r5, r2
        memcpy(pui8Dest, (void*)&psBuffer->pui8Data[psBuffer->ui32BufferHead_read], ui32TempLen);
    df44:	4419      	add	r1, r3
    df46:	462a      	mov	r2, r5
    df48:	4640      	mov	r0, r8
    df4a:	f7fe f939 	bl	c1c0 <memcpy>
        psBuffer->ui32BufferHead_read = ((psBuffer->ui32BufferHead_read + ui32TempLen) % psBuffer->ui32Capacity);
    df4e:	68a3      	ldr	r3, [r4, #8]
    df50:	6921      	ldr	r1, [r4, #16]
    df52:	442b      	add	r3, r5
    df54:	fbb3 f2f1 	udiv	r2, r3, r1
    df58:	fb01 3312 	mls	r3, r1, r2, r3
    df5c:	60a3      	str	r3, [r4, #8]
    while((psBuffer->ui32BufferHead_read + ui32CopyLen) >= psBuffer->ui32Capacity)
    df5e:	68a3      	ldr	r3, [r4, #8]
    df60:	6922      	ldr	r2, [r4, #16]
        ui32CopyLen -= ui32TempLen;
    df62:	1b76      	subs	r6, r6, r5
    while((psBuffer->ui32BufferHead_read + ui32CopyLen) >= psBuffer->ui32Capacity)
    df64:	4433      	add	r3, r6
    df66:	4293      	cmp	r3, r2
    df68:	d2e7      	bcs.n	df3a <am_app_utils_ring_buffer_pop+0x56>
    df6a:	44a8      	add	r8, r5
    memcpy(&pui8Dest[ui32TempLen], (void*)&psBuffer->pui8Data[psBuffer->ui32BufferHead_read], ui32CopyLen);
    df6c:	68a3      	ldr	r3, [r4, #8]
    df6e:	6821      	ldr	r1, [r4, #0]
    df70:	4632      	mov	r2, r6
    df72:	4419      	add	r1, r3
    df74:	4640      	mov	r0, r8
    df76:	f7fe f923 	bl	c1c0 <memcpy>
    psBuffer->ui32BufferHead_read = ((psBuffer->ui32BufferHead_read + ui32CopyLen) % psBuffer->ui32Capacity);
    df7a:	68a3      	ldr	r3, [r4, #8]
    df7c:	6922      	ldr	r2, [r4, #16]
    df7e:	441e      	add	r6, r3
    psBuffer->ui32OverWriting = 0;
    df80:	2100      	movs	r1, #0
    psBuffer->ui32BufferHead_read = ((psBuffer->ui32BufferHead_read + ui32CopyLen) % psBuffer->ui32Capacity);
    df82:	fbb6 f3f2 	udiv	r3, r6, r2
    df86:	fb02 6613 	mls	r6, r2, r3, r6
    df8a:	60a6      	str	r6, [r4, #8]
}
    df8c:	4638      	mov	r0, r7
    psBuffer->ui32OverWriting = 0;
    df8e:	60e1      	str	r1, [r4, #12]
}
    df90:	e8bd 81f0 	ldmia.w	sp!, {r4, r5, r6, r7, r8, pc}
    if (am_app_utils_ring_buffer_overwrite(psBuffer) || am_app_utils_ring_buffer_full(psBuffer))
    df94:	68e3      	ldr	r3, [r4, #12]
    df96:	2b01      	cmp	r3, #1
    df98:	d1b3      	bne.n	df02 <am_app_utils_ring_buffer_pop+0x1e>
        ui32NewDataLen = psBuffer->ui32Capacity;
    df9a:	6927      	ldr	r7, [r4, #16]
    df9c:	e7bb      	b.n	df16 <am_app_utils_ring_buffer_pop+0x32>
    df9e:	bf00      	nop

0000dfa0 <am_devices_led_array_init>:
void
am_devices_led_array_init(am_devices_led_t *psLEDs, uint32_t ui32NumLEDs)
{
    uint32_t i;

    if ( (psLEDs == NULL)                       ||
    dfa0:	b360      	cbz	r0, dffc <am_devices_led_array_init+0x5c>
    }

    //
    // Loop through the list of LEDs, configuring each one individually.
    //
    for ( i = 0; i < ui32NumLEDs; i++ )
    dfa2:	1e4b      	subs	r3, r1, #1
    dfa4:	2b1e      	cmp	r3, #30
    dfa6:	d829      	bhi.n	dffc <am_devices_led_array_init+0x5c>
{
    dfa8:	e92d 41f0 	stmdb	sp!, {r4, r5, r6, r7, r8, lr}
        am_hal_gpio_pinconfig(psLED->ui32GPIONumber, g_AM_HAL_GPIO_TRISTATE);
    dfac:	4f14      	ldr	r7, [pc, #80]	; (e000 <am_devices_led_array_init+0x60>)
        am_hal_gpio_pinconfig(psLED->ui32GPIONumber, g_AM_HAL_GPIO_OUTPUT);
    dfae:	f8df 8054 	ldr.w	r8, [pc, #84]	; e004 <am_devices_led_array_init+0x64>
    dfb2:	4604      	mov	r4, r0
    dfb4:	eb00 06c1 	add.w	r6, r0, r1, lsl #3
    dfb8:	1d05      	adds	r5, r0, #4
    if ( (psLED == NULL)    ||
    dfba:	b1c4      	cbz	r4, dfee <am_devices_led_array_init+0x4e>
         (psLED->ui32GPIONumber >= AM_HAL_GPIO_MAX_PADS) )
    dfbc:	f855 3c04 	ldr.w	r3, [r5, #-4]
    if ( (psLED == NULL)    ||
    dfc0:	2b31      	cmp	r3, #49	; 0x31
    dfc2:	d814      	bhi.n	dfee <am_devices_led_array_init+0x4e>
    if ( AM_DEVICES_LED_POL_DIRECT_DRIVE_M & psLED->ui32Polarity )
    dfc4:	6862      	ldr	r2, [r4, #4]
        am_hal_gpio_pinconfig(psLED->ui32GPIONumber, g_AM_HAL_GPIO_TRISTATE);
    dfc6:	4618      	mov	r0, r3
    if ( AM_DEVICES_LED_POL_DIRECT_DRIVE_M & psLED->ui32Polarity )
    dfc8:	0793      	lsls	r3, r2, #30
        am_hal_gpio_pinconfig(psLED->ui32GPIONumber, g_AM_HAL_GPIO_OUTPUT);
    dfca:	bf4c      	ite	mi
    dfcc:	f8d8 1000 	ldrmi.w	r1, [r8]
        am_hal_gpio_pinconfig(psLED->ui32GPIONumber, g_AM_HAL_GPIO_TRISTATE);
    dfd0:	6839      	ldrpl	r1, [r7, #0]
    dfd2:	f001 f9cf 	bl	f374 <am_hal_gpio_pinconfig>
        am_hal_gpio_state_write(psLED->ui32GPIONumber, AM_HAL_GPIO_OUTPUT_TRISTATE_DISABLE);
    dfd6:	2103      	movs	r1, #3
    dfd8:	f855 0c04 	ldr.w	r0, [r5, #-4]
    dfdc:	f001 fb38 	bl	f650 <am_hal_gpio_state_write>
                                AM_HAL_GPIO_OUTPUT_SET : AM_HAL_GPIO_OUTPUT_CLEAR);
    dfe0:	6861      	ldr	r1, [r4, #4]
        am_hal_gpio_state_write(psLED->ui32GPIONumber,
    dfe2:	f855 0c04 	ldr.w	r0, [r5, #-4]
    dfe6:	f001 0101 	and.w	r1, r1, #1
    dfea:	f001 fb31 	bl	f650 <am_hal_gpio_state_write>
    dfee:	3408      	adds	r4, #8
    for ( i = 0; i < ui32NumLEDs; i++ )
    dff0:	42b4      	cmp	r4, r6
    dff2:	f105 0508 	add.w	r5, r5, #8
    dff6:	d1e0      	bne.n	dfba <am_devices_led_array_init+0x1a>
    {
        am_devices_led_init(psLEDs + i);
    }
}
    dff8:	e8bd 81f0 	ldmia.w	sp!, {r4, r5, r6, r7, r8, pc}
    dffc:	4770      	bx	lr
    dffe:	bf00      	nop
    e000:	00013414 	.word	0x00013414
    e004:	0001354c 	.word	0x0001354c

0000e008 <am_devices_led_on>:
//
//*****************************************************************************
void
am_devices_led_on(am_devices_led_t *psLEDs, uint32_t ui32LEDNum)
{
    if ( (psLEDs == NULL)                       ||
    e008:	b170      	cbz	r0, e028 <am_devices_led_on+0x20>
    e00a:	291e      	cmp	r1, #30
    e00c:	d80c      	bhi.n	e028 <am_devices_led_on+0x20>
         (ui32LEDNum >= MAX_LEDS)               ||
         (psLEDs[ui32LEDNum].ui32GPIONumber >= AM_HAL_GPIO_MAX_PADS) )
    e00e:	f850 3031 	ldr.w	r3, [r0, r1, lsl #3]
         (ui32LEDNum >= MAX_LEDS)               ||
    e012:	2b31      	cmp	r3, #49	; 0x31
         (psLEDs[ui32LEDNum].ui32GPIONumber >= AM_HAL_GPIO_MAX_PADS) )
    e014:	eb00 01c1 	add.w	r1, r0, r1, lsl #3
         (ui32LEDNum >= MAX_LEDS)               ||
    e018:	d806      	bhi.n	e028 <am_devices_led_on+0x20>

#if AM_APOLLO3_GPIO
    //
    // Handle Direct Drive Versus 3-State (with pull-up or no buffer).
    //
    if ( AM_DEVICES_LED_POL_DIRECT_DRIVE_M & psLEDs[ui32LEDNum].ui32Polarity )
    e01a:	6849      	ldr	r1, [r1, #4]
    e01c:	078a      	lsls	r2, r1, #30
    e01e:	d404      	bmi.n	e02a <am_devices_led_on+0x22>
    else
    {
        //
        // Turn on the output driver for the LED.
        //
        am_hal_gpio_state_write(psLEDs[ui32LEDNum].ui32GPIONumber,
    e020:	4618      	mov	r0, r3
    e022:	2104      	movs	r1, #4
    e024:	f001 bb14 	b.w	f650 <am_hal_gpio_state_write>
        // Turn on the output driver for the LED.
        //
        am_hal_gpio_out_enable_bit_set(psLEDs[ui32LEDNum].ui32GPIONumber);
    }
#endif // AM_APOLLO3_GPIO
}
    e028:	4770      	bx	lr
        am_hal_gpio_state_write(psLEDs[ui32LEDNum].ui32GPIONumber,
    e02a:	f001 0101 	and.w	r1, r1, #1
    e02e:	4618      	mov	r0, r3
    e030:	f001 bb0e 	b.w	f650 <am_hal_gpio_state_write>

0000e034 <am_devices_led_off>:
//
//*****************************************************************************
void
am_devices_led_off(am_devices_led_t *psLEDs, uint32_t ui32LEDNum)
{
    if ( (psLEDs == NULL)                       ||
    e034:	b170      	cbz	r0, e054 <am_devices_led_off+0x20>
    e036:	291e      	cmp	r1, #30
    e038:	d80c      	bhi.n	e054 <am_devices_led_off+0x20>
         (ui32LEDNum >= MAX_LEDS)               ||
         (psLEDs[ui32LEDNum].ui32GPIONumber >= AM_HAL_GPIO_MAX_PADS) )
    e03a:	f850 3031 	ldr.w	r3, [r0, r1, lsl #3]
         (ui32LEDNum >= MAX_LEDS)               ||
    e03e:	2b31      	cmp	r3, #49	; 0x31
         (psLEDs[ui32LEDNum].ui32GPIONumber >= AM_HAL_GPIO_MAX_PADS) )
    e040:	eb00 01c1 	add.w	r1, r0, r1, lsl #3
         (ui32LEDNum >= MAX_LEDS)               ||
    e044:	d806      	bhi.n	e054 <am_devices_led_off+0x20>

#if AM_APOLLO3_GPIO
    //
    // Handle Direct Drive Versus 3-State (with pull-up or no buffer).
    //
    if ( AM_DEVICES_LED_POL_DIRECT_DRIVE_M & psLEDs[ui32LEDNum].ui32Polarity )
    e046:	6849      	ldr	r1, [r1, #4]
    e048:	078a      	lsls	r2, r1, #30
    e04a:	d404      	bmi.n	e056 <am_devices_led_off+0x22>
    else
    {
        //
        // Turn off the output driver for the LED.
        //
        am_hal_gpio_state_write(psLEDs[ui32LEDNum].ui32GPIONumber,
    e04c:	4618      	mov	r0, r3
    e04e:	2103      	movs	r1, #3
    e050:	f001 bafe 	b.w	f650 <am_hal_gpio_state_write>
        // Turn off the output driver for the LED.
        //
        am_hal_gpio_out_enable_bit_clear(psLEDs[ui32LEDNum].ui32GPIONumber);
    }
#endif // AM_APOLLO3_GPIO
}
    e054:	4770      	bx	lr
        am_hal_gpio_state_write(psLEDs[ui32LEDNum].ui32GPIONumber,
    e056:	43c9      	mvns	r1, r1
    e058:	f001 0101 	and.w	r1, r1, #1
    e05c:	4618      	mov	r0, r3
    e05e:	f001 baf7 	b.w	f650 <am_hal_gpio_state_write>
    e062:	bf00      	nop

0000e064 <am_devices_led_toggle>:
//
//*****************************************************************************
void
am_devices_led_toggle(am_devices_led_t *psLEDs, uint32_t ui32LEDNum)
{
    if ( (psLEDs == NULL)                       ||
    e064:	b1e0      	cbz	r0, e0a0 <am_devices_led_toggle+0x3c>
    e066:	291e      	cmp	r1, #30
    e068:	d81a      	bhi.n	e0a0 <am_devices_led_toggle+0x3c>
         (ui32LEDNum >= MAX_LEDS)               ||
         (psLEDs[ui32LEDNum].ui32GPIONumber >= AM_HAL_GPIO_MAX_PADS) )
    e06a:	f850 3031 	ldr.w	r3, [r0, r1, lsl #3]
         (ui32LEDNum >= MAX_LEDS)               ||
    e06e:	2b31      	cmp	r3, #49	; 0x31
         (psLEDs[ui32LEDNum].ui32GPIONumber >= AM_HAL_GPIO_MAX_PADS) )
    e070:	eb00 02c1 	add.w	r2, r0, r1, lsl #3
         (ui32LEDNum >= MAX_LEDS)               ||
    e074:	d814      	bhi.n	e0a0 <am_devices_led_toggle+0x3c>
{
    e076:	b530      	push	{r4, r5, lr}

#if AM_APOLLO3_GPIO
    //
    // Handle Direct Drive Versus 3-State (with pull-up or no buffer).
    //
    if ( AM_DEVICES_LED_POL_DIRECT_DRIVE_M & psLEDs[ui32LEDNum].ui32Polarity )
    e078:	6852      	ldr	r2, [r2, #4]
    e07a:	4604      	mov	r4, r0
    {
        am_hal_gpio_state_write(psLEDs[ui32LEDNum].ui32GPIONumber,
    e07c:	4618      	mov	r0, r3
    if ( AM_DEVICES_LED_POL_DIRECT_DRIVE_M & psLEDs[ui32LEDNum].ui32Polarity )
    e07e:	0793      	lsls	r3, r2, #30
{
    e080:	b083      	sub	sp, #12
    e082:	460d      	mov	r5, r1
    if ( AM_DEVICES_LED_POL_DIRECT_DRIVE_M & psLEDs[ui32LEDNum].ui32Polarity )
    e084:	d40d      	bmi.n	e0a2 <am_devices_led_toggle+0x3e>
        uint32_t ui32Ret, ui32Value;

        //
        // Check to see if the LED pin is enabled.
        //
        ui32Ret = am_hal_gpio_state_read(psLEDs[ui32LEDNum].ui32GPIONumber,
    e086:	aa01      	add	r2, sp, #4
    e088:	2102      	movs	r1, #2
    e08a:	f001 faaf 	bl	f5ec <am_hal_gpio_state_read>
                                         AM_HAL_GPIO_ENABLE_READ, &ui32Value);

        if ( ui32Ret == AM_HAL_STATUS_SUCCESS )
    e08e:	b958      	cbnz	r0, e0a8 <am_devices_led_toggle+0x44>
        {
            if ( ui32Value )
    e090:	9b01      	ldr	r3, [sp, #4]
    e092:	f854 0035 	ldr.w	r0, [r4, r5, lsl #3]
    e096:	b14b      	cbz	r3, e0ac <am_devices_led_toggle+0x48>
            {
                //
                // If it was enabled, turn if off.
                //
                am_hal_gpio_state_write(psLEDs[ui32LEDNum].ui32GPIONumber,
    e098:	2103      	movs	r1, #3
    e09a:	f001 fad9 	bl	f650 <am_hal_gpio_state_write>
    e09e:	e003      	b.n	e0a8 <am_devices_led_toggle+0x44>
    e0a0:	4770      	bx	lr
        am_hal_gpio_state_write(psLEDs[ui32LEDNum].ui32GPIONumber,
    e0a2:	2102      	movs	r1, #2
    e0a4:	f001 fad4 	bl	f650 <am_hal_gpio_state_write>
            //
            am_hal_gpio_out_enable_bit_set(psLEDs[ui32LEDNum].ui32GPIONumber);
        }
    }
#endif // AM_APOLLO3_GPIO
}
    e0a8:	b003      	add	sp, #12
    e0aa:	bd30      	pop	{r4, r5, pc}
                am_hal_gpio_state_write(psLEDs[ui32LEDNum].ui32GPIONumber,
    e0ac:	2104      	movs	r1, #4
    e0ae:	f001 facf 	bl	f650 <am_hal_gpio_state_write>
    e0b2:	e7f9      	b.n	e0a8 <am_devices_led_toggle+0x44>

0000e0b4 <NMI_Handler>:
// by a debugger.
//
//*****************************************************************************
void
NMI_Handler(void)
{
    e0b4:	e7fe      	b.n	e0b4 <NMI_Handler>
    e0b6:	bf00      	nop

0000e0b8 <DebugMon_Handler>:
// for examination by a debugger.
//
//*****************************************************************************
void
am_default_isr(void)
{
    e0b8:	e7fe      	b.n	e0b8 <DebugMon_Handler>
    e0ba:	bf00      	nop

0000e0bc <Reset_Handler>:
    __asm("    ldr    r0, =0xE000ED08\n"
    e0bc:	4811      	ldr	r0, [pc, #68]	; (e104 <zero_loop+0x12>)
    e0be:	4912      	ldr	r1, [pc, #72]	; (e108 <zero_loop+0x16>)
    e0c0:	6001      	str	r1, [r0, #0]
    __asm("    ldr    sp, [r1]");
    e0c2:	f8d1 d000 	ldr.w	sp, [r1]
    __asm("ldr  r0, =0xE000ED88\n"
    e0c6:	4811      	ldr	r0, [pc, #68]	; (e10c <zero_loop+0x1a>)
    e0c8:	6801      	ldr	r1, [r0, #0]
    e0ca:	f441 0170 	orr.w	r1, r1, #15728640	; 0xf00000
    e0ce:	6001      	str	r1, [r0, #0]
    e0d0:	f3bf 8f4f 	dsb	sy
    e0d4:	f3bf 8f6f 	isb	sy
    __asm("    ldr     r0, =_init_data\n"
    e0d8:	480d      	ldr	r0, [pc, #52]	; (e110 <zero_loop+0x1e>)
    e0da:	490e      	ldr	r1, [pc, #56]	; (e114 <zero_loop+0x22>)
    e0dc:	4a0e      	ldr	r2, [pc, #56]	; (e118 <zero_loop+0x26>)

0000e0de <copy_loop>:
    e0de:	f850 3b04 	ldr.w	r3, [r0], #4
    e0e2:	f841 3b04 	str.w	r3, [r1], #4
    e0e6:	4291      	cmp	r1, r2
    e0e8:	dbf9      	blt.n	e0de <copy_loop>
    __asm("    ldr     r0, =_sbss\n"
    e0ea:	480c      	ldr	r0, [pc, #48]	; (e11c <zero_loop+0x2a>)
    e0ec:	490c      	ldr	r1, [pc, #48]	; (e120 <zero_loop+0x2e>)
    e0ee:	f04f 0200 	mov.w	r2, #0

0000e0f2 <zero_loop>:
    e0f2:	4288      	cmp	r0, r1
    e0f4:	bfb8      	it	lt
    e0f6:	f840 2b04 	strlt.w	r2, [r0], #4
    e0fa:	dbfa      	blt.n	e0f2 <zero_loop>
    main();
    e0fc:	f7fe fdb6 	bl	cc6c <main>
    __asm("    bkpt     ");
    e100:	be00      	bkpt	0x0000
    e102:	0000      	.short	0x0000
    e104:	e000ed08 	.word	0xe000ed08
    e108:	0000c000 	.word	0x0000c000
    e10c:	e000ed88 	.word	0xe000ed88
    e110:	00026b28 	.word	0x00026b28
    e114:	1000c000 	.word	0x1000c000
    e118:	1000c480 	.word	0x1000c480
    e11c:	1000c480 	.word	0x1000c480
    e120:	1003cf54 	.word	0x1003cf54

0000e124 <DebugLog>:

//*****************************************************************************
// The stdio function for debug usage
//*****************************************************************************

void DebugLog(const char* s) { am_util_stdio_printf("%s", s); }
    e124:	4601      	mov	r1, r0
    e126:	4801      	ldr	r0, [pc, #4]	; (e12c <DebugLog+0x8>)
    e128:	f7ff bddc 	b.w	dce4 <am_util_stdio_printf>
    e12c:	00012ce8 	.word	0x00012ce8

0000e130 <DebugLogInt16>:
void DebugLogInt16(int16_t i) { am_util_stdio_printf("%d", i); }
    e130:	4601      	mov	r1, r0
    e132:	4801      	ldr	r0, [pc, #4]	; (e138 <DebugLogInt16+0x8>)
    e134:	f7ff bdd6 	b.w	dce4 <am_util_stdio_printf>
    e138:	00012cec 	.word	0x00012cec

0000e13c <am_app_AEP_sys_init>:
void am_app_AEP_sys_init(void)
{
    //
    // Set the clock frequency.
    //
    am_hal_clkgen_control(AM_HAL_CLKGEN_CONTROL_SYSCLK_MAX, 0);
    e13c:	2100      	movs	r1, #0
{
    e13e:	b538      	push	{r3, r4, r5, lr}
    am_hal_clkgen_control(AM_HAL_CLKGEN_CONTROL_SYSCLK_MAX, 0);
    e140:	4608      	mov	r0, r1
    e142:	f000 ff31 	bl	efa8 <am_hal_clkgen_control>
    
    //
    // Set the default cache configuration
    //
    am_hal_cachectrl_config(&am_hal_cachectrl_defaults);
    e146:	4849      	ldr	r0, [pc, #292]	; (e26c <am_app_AEP_sys_init+0x130>)
    //
    // Turn the LEDs off
    //
    for (int ix = 0; ix < AM_BSP_NUM_LEDS; ix++) 
    {
        am_devices_led_off(am_bsp_psLEDs, ix);
    e148:	4d49      	ldr	r5, [pc, #292]	; (e270 <am_app_AEP_sys_init+0x134>)
    am_hal_cachectrl_config(&am_hal_cachectrl_defaults);
    e14a:	f000 fd8b 	bl	ec64 <am_hal_cachectrl_config>
    am_hal_cachectrl_enable();
    e14e:	f000 fdaf 	bl	ecb0 <am_hal_cachectrl_enable>
    am_bsp_low_power_init();
    e152:	f000 fcc3 	bl	eadc <am_bsp_low_power_init>
    am_app_utils_ring_buffer_init_all(am_sys_ring_buffers, g_SysRingBuffSetup, SYS_RINGBUFF_INIT_COUNT);
    e156:	2201      	movs	r2, #1
    e158:	4946      	ldr	r1, [pc, #280]	; (e274 <am_app_AEP_sys_init+0x138>)
    e15a:	4847      	ldr	r0, [pc, #284]	; (e278 <am_app_AEP_sys_init+0x13c>)
    e15c:	f7ff fdde 	bl	dd1c <am_app_utils_ring_buffer_init_all>
    am_hal_gpio_pinconfig(AM_BSP_GPIO_BUTTON0, g_deepsleep_button0);
    e160:	4b46      	ldr	r3, [pc, #280]	; (e27c <am_app_AEP_sys_init+0x140>)
    e162:	2010      	movs	r0, #16
    e164:	6819      	ldr	r1, [r3, #0]
    e166:	f001 f905 	bl	f374 <am_hal_gpio_pinconfig>
    am_hal_gpio_interrupt_clear(AM_HAL_GPIO_BIT(AM_BSP_GPIO_BUTTON0));
    e16a:	2100      	movs	r1, #0
    e16c:	f44f 3080 	mov.w	r0, #65536	; 0x10000
    e170:	f001 fad6 	bl	f720 <am_hal_gpio_interrupt_clear>
    am_hal_gpio_interrupt_enable(AM_HAL_GPIO_BIT(AM_BSP_GPIO_BUTTON0));
    e174:	2100      	movs	r1, #0
    e176:	f44f 3080 	mov.w	r0, #65536	; 0x10000
    e17a:	f001 faad 	bl	f6d8 <am_hal_gpio_interrupt_enable>
    am_devices_led_array_init(am_bsp_psLEDs, AM_BSP_NUM_LEDS);
    e17e:	2105      	movs	r1, #5
    e180:	4628      	mov	r0, r5
    e182:	f7ff ff0d 	bl	dfa0 <am_devices_led_array_init>
    for (int ix = 0; ix < AM_BSP_NUM_LEDS; ix++) 
    e186:	2400      	movs	r4, #0
        am_devices_led_off(am_bsp_psLEDs, ix);
    e188:	4621      	mov	r1, r4
    e18a:	4628      	mov	r0, r5
    for (int ix = 0; ix < AM_BSP_NUM_LEDS; ix++) 
    e18c:	3401      	adds	r4, #1
        am_devices_led_off(am_bsp_psLEDs, ix);
    e18e:	f7ff ff51 	bl	e034 <am_devices_led_off>
    for (int ix = 0; ix < AM_BSP_NUM_LEDS; ix++) 
    e192:	2c05      	cmp	r4, #5
    e194:	d1f8      	bne.n	e188 <am_app_AEP_sys_init+0x4c>
    am_hal_clkgen_control(AM_HAL_CLKGEN_CONTROL_XTAL_START, 0);
    e196:	2100      	movs	r1, #0
    e198:	2001      	movs	r0, #1
    e19a:	f000 ff05 	bl	efa8 <am_hal_clkgen_control>
    am_hal_ctimer_clear(0, AM_HAL_CTIMER_TIMERA);
    e19e:	f64f 71ff 	movw	r1, #65535	; 0xffff
    e1a2:	2000      	movs	r0, #0
    e1a4:	f001 f804 	bl	f1b0 <am_hal_ctimer_clear>
    am_hal_ctimer_config(0, &g_sTimer0);
    e1a8:	4935      	ldr	r1, [pc, #212]	; (e280 <am_app_AEP_sys_init+0x144>)
#endif

    //
    // Configure of burst mode
    //
    if (AM_HAL_STATUS_SUCCESS == am_hal_burst_mode_initialize(&eBurstModeAvailable))
    e1aa:	4c36      	ldr	r4, [pc, #216]	; (e284 <am_app_AEP_sys_init+0x148>)
    am_hal_ctimer_config(0, &g_sTimer0);
    e1ac:	2000      	movs	r0, #0
    e1ae:	f000 ffa5 	bl	f0fc <am_hal_ctimer_config>
    am_hal_ctimer_period_set(0, AM_HAL_CTIMER_TIMERA, ui32Period,
    e1b2:	f642 62e0 	movw	r2, #12000	; 0x2ee0
    e1b6:	f241 7370 	movw	r3, #6000	; 0x1770
    e1ba:	f64f 71ff 	movw	r1, #65535	; 0xffff
    e1be:	2000      	movs	r0, #0
    e1c0:	f001 f80a 	bl	f1d8 <am_hal_ctimer_period_set>
    am_hal_ctimer_int_clear(AM_HAL_CTIMER_INT_TIMERA0);
    e1c4:	2001      	movs	r0, #1
    e1c6:	f001 f871 	bl	f2ac <am_hal_ctimer_int_clear>
    am_hal_ctimer_int_enable(AM_HAL_CTIMER_INT_TIMERA0);
    e1ca:	2001      	movs	r0, #1
    e1cc:	f001 f85a 	bl	f284 <am_hal_ctimer_int_enable>
    am_hal_gpio_pinconfig(48, g_AM_HAL_GPIO_OUTPUT);
    e1d0:	4b2d      	ldr	r3, [pc, #180]	; (e288 <am_app_AEP_sys_init+0x14c>)
    e1d2:	2030      	movs	r0, #48	; 0x30
    e1d4:	6819      	ldr	r1, [r3, #0]
    e1d6:	f001 f8cd 	bl	f374 <am_hal_gpio_pinconfig>
    am_hal_gpio_state_write(48, AM_HAL_GPIO_OUTPUT_CLEAR);
    e1da:	2100      	movs	r1, #0
    e1dc:	2030      	movs	r0, #48	; 0x30
    e1de:	f001 fa37 	bl	f650 <am_hal_gpio_state_write>
    am_app_AEP_pdm_init();
    e1e2:	f000 f897 	bl	e314 <am_app_AEP_pdm_init>
 */
__STATIC_INLINE void __NVIC_EnableIRQ(IRQn_Type IRQn)
{
  if ((int32_t)(IRQn) >= 0)
  {
    NVIC->ISER[(((uint32_t)IRQn) >> 5UL)] = (uint32_t)(1UL << (((uint32_t)IRQn) & 0x1FUL));
    e1e6:	4b29      	ldr	r3, [pc, #164]	; (e28c <am_app_AEP_sys_init+0x150>)
    e1e8:	f44f 5100 	mov.w	r1, #8192	; 0x2000
    e1ec:	f44f 4280 	mov.w	r2, #16384	; 0x4000
    e1f0:	6019      	str	r1, [r3, #0]
    e1f2:	601a      	str	r2, [r3, #0]
    am_hal_interrupt_master_enable();
    e1f4:	f001 fab2 	bl	f75c <am_hal_interrupt_master_enable>
    am_bsp_uart_printf_enable();
    e1f8:	f000 fc90 	bl	eb1c <am_bsp_uart_printf_enable>
    if (AM_HAL_STATUS_SUCCESS == am_hal_burst_mode_initialize(&eBurstModeAvailable))
    e1fc:	4620      	mov	r0, r4
    e1fe:	f000 fcbb 	bl	eb78 <am_hal_burst_mode_initialize>
    e202:	bb28      	cbnz	r0, e250 <am_app_AEP_sys_init+0x114>
    {
        if (AM_HAL_BURST_AVAIL == eBurstModeAvailable)
    e204:	7823      	ldrb	r3, [r4, #0]
    e206:	b183      	cbz	r3, e22a <am_app_AEP_sys_init+0xee>
        {
            am_util_stdio_printf("Apollo3 Burst Mode is Available\r\n");
        }
        else
        {
            am_util_stdio_printf("Apollo3 Burst Mode is Not Available\r\n");
    e208:	4821      	ldr	r0, [pc, #132]	; (e290 <am_app_AEP_sys_init+0x154>)
    e20a:	f7ff fd6b 	bl	dce4 <am_util_stdio_printf>
        am_util_stdio_printf("Failed to Initialize for Burst Mode operation\r\n");
    }

#if configUSE_BURST_ALWAYS_ON
    // Put the MCU into "Burst" mode.
    if (AM_HAL_STATUS_SUCCESS == am_hal_burst_mode_enable(&eBurstMode))
    e20e:	4c21      	ldr	r4, [pc, #132]	; (e294 <am_app_AEP_sys_init+0x158>)
    e210:	4620      	mov	r0, r4
    e212:	f000 fcf9 	bl	ec08 <am_hal_burst_mode_enable>
    e216:	b988      	cbnz	r0, e23c <am_app_AEP_sys_init+0x100>
    {
        if (AM_HAL_BURST_MODE == eBurstMode)
    e218:	7823      	ldrb	r3, [r4, #0]
    e21a:	b1eb      	cbz	r3, e258 <am_app_AEP_sys_init+0x11c>
        am_util_stdio_printf("Failed to Enable Burst Mode operation\r\n");
    }

#endif // configUSE_BURST_ALWAYS_ON

    am_hal_ctimer_start(0, AM_HAL_CTIMER_TIMERA);
    e21c:	f64f 71ff 	movw	r1, #65535	; 0xffff
    e220:	2000      	movs	r0, #0


}
    e222:	e8bd 4038 	ldmia.w	sp!, {r3, r4, r5, lr}
    am_hal_ctimer_start(0, AM_HAL_CTIMER_TIMERA);
    e226:	f000 bf99 	b.w	f15c <am_hal_ctimer_start>
    if (AM_HAL_STATUS_SUCCESS == am_hal_burst_mode_enable(&eBurstMode))
    e22a:	4c1a      	ldr	r4, [pc, #104]	; (e294 <am_app_AEP_sys_init+0x158>)
            am_util_stdio_printf("Apollo3 Burst Mode is Available\r\n");
    e22c:	481a      	ldr	r0, [pc, #104]	; (e298 <am_app_AEP_sys_init+0x15c>)
    e22e:	f7ff fd59 	bl	dce4 <am_util_stdio_printf>
    if (AM_HAL_STATUS_SUCCESS == am_hal_burst_mode_enable(&eBurstMode))
    e232:	4620      	mov	r0, r4
    e234:	f000 fce8 	bl	ec08 <am_hal_burst_mode_enable>
    e238:	2800      	cmp	r0, #0
    e23a:	d0ed      	beq.n	e218 <am_app_AEP_sys_init+0xdc>
        am_util_stdio_printf("Failed to Enable Burst Mode operation\r\n");
    e23c:	4817      	ldr	r0, [pc, #92]	; (e29c <am_app_AEP_sys_init+0x160>)
    e23e:	f7ff fd51 	bl	dce4 <am_util_stdio_printf>
    am_hal_ctimer_start(0, AM_HAL_CTIMER_TIMERA);
    e242:	f64f 71ff 	movw	r1, #65535	; 0xffff
    e246:	2000      	movs	r0, #0
}
    e248:	e8bd 4038 	ldmia.w	sp!, {r3, r4, r5, lr}
    am_hal_ctimer_start(0, AM_HAL_CTIMER_TIMERA);
    e24c:	f000 bf86 	b.w	f15c <am_hal_ctimer_start>
        am_util_stdio_printf("Failed to Initialize for Burst Mode operation\r\n");
    e250:	4813      	ldr	r0, [pc, #76]	; (e2a0 <am_app_AEP_sys_init+0x164>)
    e252:	f7ff fd47 	bl	dce4 <am_util_stdio_printf>
    e256:	e7da      	b.n	e20e <am_app_AEP_sys_init+0xd2>
            am_util_stdio_printf("Apollo3 operating in Burst Mode (96MHz)\r\n");
    e258:	4812      	ldr	r0, [pc, #72]	; (e2a4 <am_app_AEP_sys_init+0x168>)
    e25a:	f7ff fd43 	bl	dce4 <am_util_stdio_printf>
    am_hal_ctimer_start(0, AM_HAL_CTIMER_TIMERA);
    e25e:	f64f 71ff 	movw	r1, #65535	; 0xffff
    e262:	2000      	movs	r0, #0
}
    e264:	e8bd 4038 	ldmia.w	sp!, {r3, r4, r5, lr}
    am_hal_ctimer_start(0, AM_HAL_CTIMER_TIMERA);
    e268:	f000 bf78 	b.w	f15c <am_hal_ctimer_start>
    e26c:	00013410 	.word	0x00013410
    e270:	1000c00c 	.word	0x1000c00c
    e274:	00012dc0 	.word	0x00012dc0
    e278:	1003b434 	.word	0x1003b434
    e27c:	00012dcc 	.word	0x00012dcc
    e280:	1000c000 	.word	0x1000c000
    e284:	1000c631 	.word	0x1000c631
    e288:	0001354c 	.word	0x0001354c
    e28c:	e000e100 	.word	0xe000e100
    e290:	00012d14 	.word	0x00012d14
    e294:	1000c630 	.word	0x1000c630
    e298:	00012cf0 	.word	0x00012cf0
    e29c:	00012d98 	.word	0x00012d98
    e2a0:	00012d3c 	.word	0x00012d3c
    e2a4:	00012d6c 	.word	0x00012d6c

0000e2a8 <am_ctimer_isr>:
am_ctimer_isr(void)
{
    //
    // Increment count and set limit based on the number of LEDs available.
    //
    g_ui32TimerCount++;
    e2a8:	4a0d      	ldr	r2, [pc, #52]	; (e2e0 <am_ctimer_isr+0x38>)
    if ( g_ui8DebounceFlag == 1)
    e2aa:	490e      	ldr	r1, [pc, #56]	; (e2e4 <am_ctimer_isr+0x3c>)
    g_ui32TimerCount++;
    e2ac:	6813      	ldr	r3, [r2, #0]
    e2ae:	3301      	adds	r3, #1
    e2b0:	6013      	str	r3, [r2, #0]
    if ( g_ui8DebounceFlag == 1)
    e2b2:	780b      	ldrb	r3, [r1, #0]
    e2b4:	b2db      	uxtb	r3, r3
    e2b6:	2b01      	cmp	r3, #1
    e2b8:	d002      	beq.n	e2c0 <am_ctimer_isr+0x18>
    } 

    //
    // Clear TimerA0 Interrupt (write to clear).
    //
    am_hal_ctimer_int_clear(AM_HAL_CTIMER_INT_TIMERA0);
    e2ba:	2001      	movs	r0, #1
    e2bc:	f000 bff6 	b.w	f2ac <am_hal_ctimer_int_clear>
        g_ui32DebounceTimerCount++;
    e2c0:	4a09      	ldr	r2, [pc, #36]	; (e2e8 <am_ctimer_isr+0x40>)
    e2c2:	6810      	ldr	r0, [r2, #0]
    e2c4:	3001      	adds	r0, #1
    e2c6:	6010      	str	r0, [r2, #0]
        if(g_ui32DebounceTimerCount > 300)
    e2c8:	6812      	ldr	r2, [r2, #0]
    e2ca:	f5b2 7f96 	cmp.w	r2, #300	; 0x12c
    e2ce:	d9f4      	bls.n	e2ba <am_ctimer_isr+0x12>
            g_sysKeyValue = AM_APP_KEY_0;
    e2d0:	4806      	ldr	r0, [pc, #24]	; (e2ec <am_ctimer_isr+0x44>)
            g_ui8DebounceFlag = 0;
    e2d2:	2200      	movs	r2, #0
            g_sysKeyValue = AM_APP_KEY_0;
    e2d4:	7003      	strb	r3, [r0, #0]
    am_hal_ctimer_int_clear(AM_HAL_CTIMER_INT_TIMERA0);
    e2d6:	2001      	movs	r0, #1
            g_ui8DebounceFlag = 0;
    e2d8:	700a      	strb	r2, [r1, #0]
    am_hal_ctimer_int_clear(AM_HAL_CTIMER_INT_TIMERA0);
    e2da:	f000 bfe7 	b.w	f2ac <am_hal_ctimer_int_clear>
    e2de:	bf00      	nop
    e2e0:	1000c594 	.word	0x1000c594
    e2e4:	1000c598 	.word	0x1000c598
    e2e8:	1000c590 	.word	0x1000c590
    e2ec:	1000c58c 	.word	0x1000c58c

0000e2f0 <am_gpio_isr>:
void am_gpio_isr(void) 
{
    //
    // debounce.
    //
    if(g_ui8DebounceFlag == 0)
    e2f0:	4a06      	ldr	r2, [pc, #24]	; (e30c <am_gpio_isr+0x1c>)
    e2f2:	7813      	ldrb	r3, [r2, #0]
    e2f4:	f003 01ff 	and.w	r1, r3, #255	; 0xff
    e2f8:	b91b      	cbnz	r3, e302 <am_gpio_isr+0x12>
    {
        g_ui8DebounceFlag = 1;
        g_ui32DebounceTimerCount = 0;
    e2fa:	4b05      	ldr	r3, [pc, #20]	; (e310 <am_gpio_isr+0x20>)
        g_ui8DebounceFlag = 1;
    e2fc:	2001      	movs	r0, #1
    e2fe:	7010      	strb	r0, [r2, #0]
        g_ui32DebounceTimerCount = 0;
    e300:	6019      	str	r1, [r3, #0]
    }  
    //
    // Clear the GPIO Interrupt (write to clear).
    //
    am_hal_gpio_interrupt_clear(AM_HAL_GPIO_BIT(AM_BSP_GPIO_BUTTON0));
    e302:	f44f 3080 	mov.w	r0, #65536	; 0x10000
    e306:	2100      	movs	r1, #0
    e308:	f001 ba0a 	b.w	f720 <am_hal_gpio_interrupt_clear>
    e30c:	1000c598 	.word	0x1000c598
    e310:	1000c590 	.word	0x1000c590

0000e314 <am_app_AEP_pdm_init>:

//*****************************************************************************
// PDM initialization.
//*****************************************************************************
void am_app_AEP_pdm_init(void) 
{
    e314:	b530      	push	{r4, r5, lr}
  am_hal_gpio_pincfg_t sPinCfg = {0, 0, 0, 0, 0, 0, 0, 0, 0, 0, 0, 0};

  // ARPIT 181019
  // sPinCfg.uFuncSel = AM_HAL_PIN_10_PDMCLK;
  // am_hal_gpio_pinconfig(10, sPinCfg);
  sPinCfg.uFuncSel = AM_HAL_PIN_12_PDMCLK;
    e316:	2505      	movs	r5, #5
  am_hal_gpio_pincfg_t sPinCfg = {0, 0, 0, 0, 0, 0, 0, 0, 0, 0, 0, 0};
    e318:	2400      	movs	r4, #0
  sPinCfg.uFuncSel = AM_HAL_PIN_12_PDMCLK;
    e31a:	f365 0402 	bfi	r4, r5, #0, #3
{
    e31e:	b08b      	sub	sp, #44	; 0x2c
  am_hal_gpio_pinconfig(12, sPinCfg);
    e320:	4621      	mov	r1, r4
    e322:	200c      	movs	r0, #12
    e324:	f001 f826 	bl	f374 <am_hal_gpio_pinconfig>

  sPinCfg.uFuncSel = AM_HAL_PIN_11_PDMDATA;
  am_hal_gpio_pinconfig(11, sPinCfg);
    e328:	f044 0107 	orr.w	r1, r4, #7
    e32c:	200b      	movs	r0, #11
    };
    
//
  // Initialize, power-up, and configure the PDM.
  //
    am_hal_pdm_initialize(0, &PDMHandle);
    e32e:	4c22      	ldr	r4, [pc, #136]	; (e3b8 <am_app_AEP_pdm_init+0xa4>)
  am_hal_gpio_pinconfig(11, sPinCfg);
    e330:	f001 f820 	bl	f374 <am_hal_gpio_pinconfig>
    am_hal_pdm_config_t g_sPdmConfig = {
    e334:	a802      	add	r0, sp, #8
    e336:	2220      	movs	r2, #32
    e338:	2100      	movs	r1, #0
    e33a:	f004 fc3b 	bl	12bb4 <memset>
    e33e:	230b      	movs	r3, #11
    e340:	2018      	movs	r0, #24
    am_hal_pdm_initialize(0, &PDMHandle);
    e342:	4621      	mov	r1, r4
    am_hal_pdm_config_t g_sPdmConfig = {
    e344:	2201      	movs	r2, #1
    e346:	f88d 3009 	strb.w	r3, [sp, #9]
    e34a:	f88d 300a 	strb.w	r3, [sp, #10]
    e34e:	9305      	str	r3, [sp, #20]
    e350:	9003      	str	r0, [sp, #12]
    e352:	2303      	movs	r3, #3
    am_hal_pdm_initialize(0, &PDMHandle);
    e354:	2000      	movs	r0, #0
    am_hal_pdm_config_t g_sPdmConfig = {
    e356:	f88d 301d 	strb.w	r3, [sp, #29]
    e35a:	f88d 201c 	strb.w	r2, [sp, #28]
    e35e:	f88d 5018 	strb.w	r5, [sp, #24]
    am_hal_pdm_initialize(0, &PDMHandle);
    e362:	f001 fa9d 	bl	f8a0 <am_hal_pdm_initialize>
    am_hal_pdm_power_control(PDMHandle, AM_HAL_PDM_POWER_ON, false);
    e366:	2200      	movs	r2, #0
    e368:	4611      	mov	r1, r2
    e36a:	6820      	ldr	r0, [r4, #0]
    e36c:	f001 fab8 	bl	f8e0 <am_hal_pdm_power_control>
    am_hal_pdm_configure(PDMHandle, &g_sPdmConfig);
    e370:	a902      	add	r1, sp, #8
    e372:	6820      	ldr	r0, [r4, #0]
    e374:	f001 faf2 	bl	f95c <am_hal_pdm_configure>
    am_hal_pdm_fifo_flush(PDMHandle);
    e378:	6820      	ldr	r0, [r4, #0]
    e37a:	f001 fbd5 	bl	fb28 <am_hal_pdm_fifo_flush>


  am_hal_pdm_enable(PDMHandle);
    e37e:	6820      	ldr	r0, [r4, #0]
    e380:	f001 fb72 	bl	fa68 <am_hal_pdm_enable>

  //
  // Configure and enable PDM interrupts (set up to trigger on DMA
  // completion).
  //
  am_hal_pdm_interrupt_enable(PDMHandle,
    e384:	6820      	ldr	r0, [r4, #0]
    e386:	211e      	movs	r1, #30
    e388:	f001 fbe0 	bl	fb4c <am_hal_pdm_interrupt_enable>
 */
__STATIC_INLINE void __NVIC_SetPriority(IRQn_Type IRQn, uint32_t priority)
{
  if ((int32_t)(IRQn) >= 0)
  {
    NVIC->IP[((uint32_t)IRQn)]               = (uint8_t)((priority << (8U - __NVIC_PRIO_BITS)) & (uint32_t)0xFFUL);
    e38c:	4b0b      	ldr	r3, [pc, #44]	; (e3bc <am_app_AEP_pdm_init+0xa8>)
    e38e:	2180      	movs	r1, #128	; 0x80
    e390:	f883 1313 	strb.w	r1, [r3, #787]	; 0x313
    NVIC->ISER[(((uint32_t)IRQn) >> 5UL)] = (uint32_t)(1UL << (((uint32_t)IRQn) & 0x1FUL));
    e394:	f44f 2200 	mov.w	r2, #524288	; 0x80000
    e398:	601a      	str	r2, [r3, #0]


    //
    // Enable PDM
    //
    am_hal_pdm_enable(PDMHandle);
    e39a:	6820      	ldr	r0, [r4, #0]
    e39c:	f001 fb64 	bl	fa68 <am_hal_pdm_enable>
{
    //
    // Configure DMA and target address.
    //
    am_hal_pdm_transfer_t sTransfer;
    sTransfer.ui32TargetAddr = (uint32_t ) g_ui32PCMDataBuff;
    e3a0:	4b07      	ldr	r3, [pc, #28]	; (e3c0 <am_app_AEP_pdm_init+0xac>)
    e3a2:	9300      	str	r3, [sp, #0]
    sTransfer.ui32TotalCount = (PCM_FRAME_SIZE * PCM_DATA_BYTES);

    //
    // Start the data transfer.
    //
    am_hal_pdm_dma_start(PDMHandle, &sTransfer);
    e3a4:	6820      	ldr	r0, [r4, #0]
    sTransfer.ui32TotalCount = (PCM_FRAME_SIZE * PCM_DATA_BYTES);
    e3a6:	f44f 73a0 	mov.w	r3, #320	; 0x140
    am_hal_pdm_dma_start(PDMHandle, &sTransfer);
    e3aa:	4669      	mov	r1, sp
    sTransfer.ui32TotalCount = (PCM_FRAME_SIZE * PCM_DATA_BYTES);
    e3ac:	9301      	str	r3, [sp, #4]
    am_hal_pdm_dma_start(PDMHandle, &sTransfer);
    e3ae:	f001 fb73 	bl	fa98 <am_hal_pdm_dma_start>
}
    e3b2:	b00b      	add	sp, #44	; 0x2c
    e3b4:	bd30      	pop	{r4, r5, pc}
    e3b6:	bf00      	nop
    e3b8:	1003b59c 	.word	0x1003b59c
    e3bc:	e000e100 	.word	0xe000e100
    e3c0:	1003b45c 	.word	0x1003b45c

0000e3c4 <am_pdm0_isr>:
//
// PDM interrupt handler.
//
//*****************************************************************************
void am_pdm0_isr(void) 
{
    e3c4:	b510      	push	{r4, lr}
    uint32_t ui32Status;
    uint32_t ringbuff_push_ret;
    //
    // Read the interrupt status.
    //
    am_hal_pdm_interrupt_status_get(PDMHandle, &ui32Status, true);
    e3c6:	4c19      	ldr	r4, [pc, #100]	; (e42c <am_pdm0_isr+0x68>)
{
    e3c8:	b082      	sub	sp, #8
    am_hal_pdm_interrupt_status_get(PDMHandle, &ui32Status, true);
    e3ca:	2201      	movs	r2, #1
    e3cc:	a901      	add	r1, sp, #4
    e3ce:	6820      	ldr	r0, [r4, #0]
    e3d0:	f001 fbe4 	bl	fb9c <am_hal_pdm_interrupt_status_get>
    am_hal_pdm_interrupt_clear(PDMHandle, ui32Status);
    e3d4:	6820      	ldr	r0, [r4, #0]
    e3d6:	9901      	ldr	r1, [sp, #4]
    e3d8:	f001 fbce 	bl	fb78 <am_hal_pdm_interrupt_clear>
    
    if (ui32Status & AM_HAL_PDM_INT_DCMP)
    e3dc:	9b01      	ldr	r3, [sp, #4]
    e3de:	071a      	lsls	r2, r3, #28
    e3e0:	d50c      	bpl.n	e3fc <am_pdm0_isr+0x38>
    {
        // trigger next traction
        PDMn(0)->DMATOTCOUNT = PCM_FRAME_SIZE*PCM_DATA_BYTES;  // FIFO unit in bytes
    e3e2:	4913      	ldr	r1, [pc, #76]	; (e430 <am_pdm0_isr+0x6c>)
            }
        }
#endif // AM_AEP_BEAMFORMING_TEST

#if AM_AEP_PREPROCESS_EVAL
        if((g_audioRunningFlag == 1) && (g_ui8PcmDataReadyFlag==0))
    e3e4:	4b13      	ldr	r3, [pc, #76]	; (e434 <am_pdm0_isr+0x70>)
        PDMn(0)->DMATOTCOUNT = PCM_FRAME_SIZE*PCM_DATA_BYTES;  // FIFO unit in bytes
    e3e6:	f44f 72a0 	mov.w	r2, #320	; 0x140
    e3ea:	f8c1 2288 	str.w	r2, [r1, #648]	; 0x288
        if((g_audioRunningFlag == 1) && (g_ui8PcmDataReadyFlag==0))
    e3ee:	781b      	ldrb	r3, [r3, #0]
    e3f0:	b113      	cbz	r3, e3f8 <am_pdm0_isr+0x34>
    e3f2:	4c11      	ldr	r4, [pc, #68]	; (e438 <am_pdm0_isr+0x74>)
    e3f4:	7823      	ldrb	r3, [r4, #0]
    e3f6:	b14b      	cbz	r3, e40c <am_pdm0_isr+0x48>

#if configUSE_SYSVIEW
    SEGGER_SYSVIEW_RecordExitISR(); //emit Exit ISR signal
#endif

}
    e3f8:	b002      	add	sp, #8
    e3fa:	bd10      	pop	{r4, pc}
    else if(ui32Status & (AM_HAL_PDM_INT_UNDFL | AM_HAL_PDM_INT_OVF))
    e3fc:	f013 0f06 	tst.w	r3, #6
    e400:	d0fa      	beq.n	e3f8 <am_pdm0_isr+0x34>
        am_hal_pdm_fifo_flush(PDMHandle);
    e402:	6820      	ldr	r0, [r4, #0]
    e404:	f001 fb90 	bl	fb28 <am_hal_pdm_fifo_flush>
}
    e408:	b002      	add	sp, #8
    e40a:	bd10      	pop	{r4, pc}
            ringbuff_push_ret = am_app_utils_ring_buffer_push(&am_sys_ring_buffers[AM_APP_RINGBUFF_PCM], (void*)g_ui32PCMDataBuff, PCM_FRAME_SIZE*PCM_DATA_BYTES, true);
    e40c:	2301      	movs	r3, #1
    e40e:	490b      	ldr	r1, [pc, #44]	; (e43c <am_pdm0_isr+0x78>)
    e410:	480b      	ldr	r0, [pc, #44]	; (e440 <am_pdm0_isr+0x7c>)
    e412:	f7ff fca7 	bl	dd64 <am_app_utils_ring_buffer_push>
            g_ui32AudioFrameSum ++;
    e416:	4b0b      	ldr	r3, [pc, #44]	; (e444 <am_pdm0_isr+0x80>)
    e418:	681a      	ldr	r2, [r3, #0]
    e41a:	3201      	adds	r2, #1
    e41c:	601a      	str	r2, [r3, #0]
            if(g_ui32AudioFrameSum >= NUM_PCM_FRAMES)
    e41e:	681b      	ldr	r3, [r3, #0]
    e420:	f5b3 7f16 	cmp.w	r3, #600	; 0x258
    e424:	d3e8      	bcc.n	e3f8 <am_pdm0_isr+0x34>
                g_ui8PcmDataReadyFlag = 1;
    e426:	2301      	movs	r3, #1
    e428:	7023      	strb	r3, [r4, #0]
    e42a:	e7e5      	b.n	e3f8 <am_pdm0_isr+0x34>
    e42c:	1003b59c 	.word	0x1003b59c
    e430:	50011000 	.word	0x50011000
    e434:	1000c599 	.word	0x1000c599
    e438:	1000c5a0 	.word	0x1000c5a0
    e43c:	1003b45c 	.word	0x1003b45c
    e440:	1003b448 	.word	0x1003b448
    e444:	1000c59c 	.word	0x1000c59c

0000e448 <am_audio_preprocess_init>:
}
//
// preprocess instance init
//
void am_audio_preprocess_init(am_AudioPrepro_Instance* p_vos)
{
    e448:	b570      	push	{r4, r5, r6, lr}
    memset(p_vos, 0, sizeof(am_AudioPrepro_Instance));
    e44a:	f100 051c 	add.w	r5, r0, #28
{
    e44e:	4604      	mov	r4, r0
    e450:	b082      	sub	sp, #8
    memset(p_vos, 0, sizeof(am_AudioPrepro_Instance));
    e452:	225c      	movs	r2, #92	; 0x5c
    e454:	2100      	movs	r1, #0
    e456:	4628      	mov	r0, r5
    e458:	f004 fbac 	bl	12bb4 <memset>
    p_vos->audio_leftCh = g_pin16PcmLeftInput;
    p_vos->audio_rightCh = g_pin16PcmRightInput;
    p_vos->mono_out = g_pin16AudioOutput;
    e45c:	4e18      	ldr	r6, [pc, #96]	; (e4c0 <am_audio_preprocess_init+0x78>)
    p_vos->audio_leftCh = g_pin16PcmLeftInput;
    e45e:	4b19      	ldr	r3, [pc, #100]	; (e4c4 <am_audio_preprocess_init+0x7c>)
    p_vos->audio_rightCh = g_pin16PcmRightInput;
    e460:	4a19      	ldr	r2, [pc, #100]	; (e4c8 <am_audio_preprocess_init+0x80>)
    p_vos->audio_leftCh = g_pin16PcmLeftInput;
    e462:	6023      	str	r3, [r4, #0]
    p_vos->audio_rightCh = g_pin16PcmRightInput;
    e464:	6062      	str	r2, [r4, #4]
    p_vos->ui32BuffFrames = AUDIO_PREPROCESS_ROLLING_FRAMES;
    e466:	2303      	movs	r3, #3
    
    p_vos->ui32BeamformingEnable = 1;
    e468:	2201      	movs	r2, #1
    p_vos->ui32ScnrEnable = 1;
    p_vos->ui32HPfilterEnable = 1;

    stft_init_f32(&(p_vos->Sf), AUDIO_PREPROCESS_FFT_SIZE, AUDIO_PREPROCESS_HOP_SIZE, AUDIO_PREPROCESS_ROLLING_FRAMES, g_f32HanningWindow);
    e46a:	4918      	ldr	r1, [pc, #96]	; (e4cc <am_audio_preprocess_init+0x84>)
    p_vos->ui32HPfilterEnable = 1;
    e46c:	61a2      	str	r2, [r4, #24]
    p_vos->ui32BuffFrames = AUDIO_PREPROCESS_ROLLING_FRAMES;
    e46e:	e9c4 6302 	strd	r6, r3, [r4, #8]
    p_vos->ui32ScnrEnable = 1;
    e472:	e9c4 2204 	strd	r2, r2, [r4, #16]
    stft_init_f32(&(p_vos->Sf), AUDIO_PREPROCESS_FFT_SIZE, AUDIO_PREPROCESS_HOP_SIZE, AUDIO_PREPROCESS_ROLLING_FRAMES, g_f32HanningWindow);
    e476:	4628      	mov	r0, r5
    e478:	9100      	str	r1, [sp, #0]
    e47a:	2250      	movs	r2, #80	; 0x50
    e47c:	2180      	movs	r1, #128	; 0x80
    e47e:	f000 f921 	bl	e6c4 <stft_init_f32>
    if(p_vos->ui32BeamformingEnable == 1)
    e482:	6923      	ldr	r3, [r4, #16]
    e484:	2b01      	cmp	r3, #1
    e486:	d013      	beq.n	e4b0 <am_audio_preprocess_init+0x68>
    {
        beamforming_init_f32(&(p_vos->Bf), g_f32BeamformingWeightLeftChPara, g_f32BeamformingWeightRightChPara, AUDIO_PREPROCESS_FFT_SIZE);
    }
    if(p_vos->ui32ScnrEnable == 1)
    e488:	6963      	ldr	r3, [r4, #20]
    e48a:	2b01      	cmp	r3, #1
    e48c:	d001      	beq.n	e492 <am_audio_preprocess_init+0x4a>
    {
        scnr_init(&(p_vos->Sn), AUDIO_PREPROCESS_FFT_SIZE, AUDIO_SCNR_DB_REDUCT, 
                AUDIO_PREPROCESS_ROLLING_FRAMES, AUDIO_SCNR_BETA, AUDIO_SCNR_ALPHA);
    }
   
}
    e48e:	b002      	add	sp, #8
    e490:	bd70      	pop	{r4, r5, r6, pc}
        scnr_init(&(p_vos->Sn), AUDIO_PREPROCESS_FFT_SIZE, AUDIO_SCNR_DB_REDUCT, 
    e492:	f104 0050 	add.w	r0, r4, #80	; 0x50
    e496:	eeb0 1a08 	vmov.f32	s2, #8	; 0x40400000  3.0
    e49a:	eef3 0a04 	vmov.f32	s1, #52	; 0x41a00000  20.0
    e49e:	2203      	movs	r2, #3
    e4a0:	eeb2 0a04 	vmov.f32	s0, #36	; 0x41200000  10.0
    e4a4:	2180      	movs	r1, #128	; 0x80
}
    e4a6:	b002      	add	sp, #8
    e4a8:	e8bd 4070 	ldmia.w	sp!, {r4, r5, r6, lr}
        scnr_init(&(p_vos->Sn), AUDIO_PREPROCESS_FFT_SIZE, AUDIO_SCNR_DB_REDUCT, 
    e4ac:	f000 ba30 	b.w	e910 <scnr_init>
        beamforming_init_f32(&(p_vos->Bf), g_f32BeamformingWeightLeftChPara, g_f32BeamformingWeightRightChPara, AUDIO_PREPROCESS_FFT_SIZE);
    e4b0:	2380      	movs	r3, #128	; 0x80
    e4b2:	4a07      	ldr	r2, [pc, #28]	; (e4d0 <am_audio_preprocess_init+0x88>)
    e4b4:	4907      	ldr	r1, [pc, #28]	; (e4d4 <am_audio_preprocess_init+0x8c>)
    e4b6:	f104 0040 	add.w	r0, r4, #64	; 0x40
    e4ba:	f000 f8b9 	bl	e630 <beamforming_init_f32>
    e4be:	e7e3      	b.n	e488 <am_audio_preprocess_init+0x40>
    e4c0:	1003c638 	.word	0x1003c638
    e4c4:	1003c6d8 	.word	0x1003c6d8
    e4c8:	1003ba70 	.word	0x1003ba70
    e4cc:	000131e0 	.word	0x000131e0
    e4d0:	00012fd8 	.word	0x00012fd8
    e4d4:	00012dd0 	.word	0x00012dd0

0000e4d8 <am_audio_preprocess_handler>:

void am_audio_preprocess_handler(am_AudioPrepro_Instance* p_vos)
{
    e4d8:	b570      	push	{r4, r5, r6, lr}
    memcpy(ret, prev, (fft_len-hop)*sizeof(int16_t));
    e4da:	2260      	movs	r2, #96	; 0x60
{
    e4dc:	4604      	mov	r4, r0
    memcpy(ret, prev, (fft_len-hop)*sizeof(int16_t));
    e4de:	493e      	ldr	r1, [pc, #248]	; (e5d8 <am_audio_preprocess_handler+0x100>)
    e4e0:	483e      	ldr	r0, [pc, #248]	; (e5dc <am_audio_preprocess_handler+0x104>)
    e4e2:	f7fd fe6d 	bl	c1c0 <memcpy>
    memcpy(&ret[fft_len-hop], hop_buff, hop*sizeof(int16_t));
    e4e6:	22a0      	movs	r2, #160	; 0xa0
    e4e8:	493d      	ldr	r1, [pc, #244]	; (e5e0 <am_audio_preprocess_handler+0x108>)
    e4ea:	483e      	ldr	r0, [pc, #248]	; (e5e4 <am_audio_preprocess_handler+0x10c>)
    e4ec:	f7fd fe68 	bl	c1c0 <memcpy>
    memcpy(prev, &hop_buff[2*hop-fft_len], (fft_len-hop)*sizeof(int16_t));
    e4f0:	2260      	movs	r2, #96	; 0x60
    e4f2:	493d      	ldr	r1, [pc, #244]	; (e5e8 <am_audio_preprocess_handler+0x110>)
    e4f4:	4838      	ldr	r0, [pc, #224]	; (e5d8 <am_audio_preprocess_handler+0x100>)
    e4f6:	f7fd fe63 	bl	c1c0 <memcpy>
    memcpy(ret, prev, (fft_len-hop)*sizeof(int16_t));
    e4fa:	2260      	movs	r2, #96	; 0x60
    e4fc:	493b      	ldr	r1, [pc, #236]	; (e5ec <am_audio_preprocess_handler+0x114>)
    e4fe:	483c      	ldr	r0, [pc, #240]	; (e5f0 <am_audio_preprocess_handler+0x118>)
    e500:	f7fd fe5e 	bl	c1c0 <memcpy>
    memcpy(&ret[fft_len-hop], hop_buff, hop*sizeof(int16_t));
    e504:	22a0      	movs	r2, #160	; 0xa0
    e506:	493b      	ldr	r1, [pc, #236]	; (e5f4 <am_audio_preprocess_handler+0x11c>)
    e508:	483b      	ldr	r0, [pc, #236]	; (e5f8 <am_audio_preprocess_handler+0x120>)
    e50a:	f7fd fe59 	bl	c1c0 <memcpy>
    audio_frame_concatenate(pin16LeftPrev, g_pin16PcmLeftInput, pin16LeftProcess, AUDIO_PREPROCESS_HOP_SIZE, AUDIO_PREPROCESS_FFT_SIZE);
    audio_frame_concatenate(pin16RightPrev, g_pin16PcmRightInput, pin16RightProcess, AUDIO_PREPROCESS_HOP_SIZE, AUDIO_PREPROCESS_FFT_SIZE);
    //
    // apply window
    //
    stft_window_apply_f32(pin16LeftProcess, pfLeftProcess, &(p_vos->Sf));
    e50e:	f104 051c 	add.w	r5, r4, #28
    memcpy(prev, &hop_buff[2*hop-fft_len], (fft_len-hop)*sizeof(int16_t));
    e512:	2260      	movs	r2, #96	; 0x60
    e514:	4939      	ldr	r1, [pc, #228]	; (e5fc <am_audio_preprocess_handler+0x124>)
    e516:	4835      	ldr	r0, [pc, #212]	; (e5ec <am_audio_preprocess_handler+0x114>)
    e518:	f7fd fe52 	bl	c1c0 <memcpy>
    stft_window_apply_f32(pin16LeftProcess, pfLeftProcess, &(p_vos->Sf));
    e51c:	462a      	mov	r2, r5
    e51e:	4938      	ldr	r1, [pc, #224]	; (e600 <am_audio_preprocess_handler+0x128>)
    e520:	482e      	ldr	r0, [pc, #184]	; (e5dc <am_audio_preprocess_handler+0x104>)
    e522:	f000 f8dd 	bl	e6e0 <stft_window_apply_f32>
    stft_window_apply_f32(pin16RightProcess, pfRightProcess, &(p_vos->Sf));
    e526:	462a      	mov	r2, r5
    e528:	4936      	ldr	r1, [pc, #216]	; (e604 <am_audio_preprocess_handler+0x12c>)
    e52a:	4831      	ldr	r0, [pc, #196]	; (e5f0 <am_audio_preprocess_handler+0x118>)
    e52c:	f000 f8d8 	bl	e6e0 <stft_window_apply_f32>
    //
    // transfer time domain to freq domain
    //
    stft_f32(&(p_vos->Sf), pfLeftProcess, pfLeftFreq);
    e530:	4628      	mov	r0, r5
    e532:	4a35      	ldr	r2, [pc, #212]	; (e608 <am_audio_preprocess_handler+0x130>)
    e534:	4932      	ldr	r1, [pc, #200]	; (e600 <am_audio_preprocess_handler+0x128>)
    e536:	f000 f8eb 	bl	e710 <stft_f32>
    stft_f32(&(p_vos->Sf), pfRightProcess, pfRightFreq);
    e53a:	4628      	mov	r0, r5
    e53c:	4a33      	ldr	r2, [pc, #204]	; (e60c <am_audio_preprocess_handler+0x134>)
    e53e:	4931      	ldr	r1, [pc, #196]	; (e604 <am_audio_preprocess_handler+0x12c>)
    e540:	f000 f8e6 	bl	e710 <stft_f32>


    //
    // Beamforming procedure
    //
    if(p_vos->ui32BeamformingEnable == 1)
    e544:	6923      	ldr	r3, [r4, #16]
    e546:	2b01      	cmp	r3, #1
    e548:	d03d      	beq.n	e5c6 <am_audio_preprocess_handler+0xee>
        memcpy(&rolling_buff[(i-1)*roll_hop], &rolling_buff[i*roll_hop], roll_hop*sizeof(float32_t));
    e54a:	4931      	ldr	r1, [pc, #196]	; (e610 <am_audio_preprocess_handler+0x138>)
    e54c:	f44f 7202 	mov.w	r2, #520	; 0x208
    e550:	f5a1 7002 	sub.w	r0, r1, #520	; 0x208
    e554:	f7fd fe34 	bl	c1c0 <memcpy>
    e558:	492e      	ldr	r1, [pc, #184]	; (e614 <am_audio_preprocess_handler+0x13c>)
    e55a:	f44f 7202 	mov.w	r2, #520	; 0x208
    e55e:	f5a1 7002 	sub.w	r0, r1, #520	; 0x208
    e562:	f7fd fe2d 	bl	c1c0 <memcpy>
    memcpy(&rolling_buff[(roll_num-1)*roll_hop], input_new, roll_hop*sizeof(float32_t));
    e566:	f44f 7202 	mov.w	r2, #520	; 0x208
    e56a:	492b      	ldr	r1, [pc, #172]	; (e618 <am_audio_preprocess_handler+0x140>)
    e56c:	4829      	ldr	r0, [pc, #164]	; (e614 <am_audio_preprocess_handler+0x13c>)
    e56e:	f7fd fe27 	bl	c1c0 <memcpy>
    audio_frame_rolling_freq(pfRollFreq, pfMonoFreq, AUDIO_PREPROCESS_CMPLX_SIZE, AUDIO_PREPROCESS_ROLLING_FRAMES);

    //
    // SCNR procedure
    //
    if(p_vos->ui32ScnrEnable == 1)
    e572:	6963      	ldr	r3, [r4, #20]
    e574:	2b01      	cmp	r3, #1
    e576:	d11e      	bne.n	e5b6 <am_audio_preprocess_handler+0xde>
    {
        arm_cmplx_mag_squared_f32(pfMonoFreq, pfMonoMagSqr, (AUDIO_PREPROCESS_CMPLX_SIZE/2));
    e578:	2241      	movs	r2, #65	; 0x41
    e57a:	4928      	ldr	r1, [pc, #160]	; (e61c <am_audio_preprocess_handler+0x144>)
    e57c:	4826      	ldr	r0, [pc, #152]	; (e618 <am_audio_preprocess_handler+0x140>)
    e57e:	f002 fed7 	bl	11330 <arm_cmplx_mag_squared_f32>
        memcpy(&rolling_buff[(i-1)*roll_hop], &rolling_buff[i*roll_hop], roll_hop*sizeof(float32_t));
    e582:	4927      	ldr	r1, [pc, #156]	; (e620 <am_audio_preprocess_handler+0x148>)
    e584:	f44f 7282 	mov.w	r2, #260	; 0x104
    e588:	f5a1 7082 	sub.w	r0, r1, #260	; 0x104
    e58c:	f7fd fe18 	bl	c1c0 <memcpy>
    e590:	4924      	ldr	r1, [pc, #144]	; (e624 <am_audio_preprocess_handler+0x14c>)
    e592:	f44f 7282 	mov.w	r2, #260	; 0x104
    e596:	f5a1 7082 	sub.w	r0, r1, #260	; 0x104
    e59a:	f7fd fe11 	bl	c1c0 <memcpy>
    memcpy(&rolling_buff[(roll_num-1)*roll_hop], input_new, roll_hop*sizeof(float32_t));
    e59e:	f44f 7282 	mov.w	r2, #260	; 0x104
    e5a2:	491e      	ldr	r1, [pc, #120]	; (e61c <am_audio_preprocess_handler+0x144>)
    e5a4:	481f      	ldr	r0, [pc, #124]	; (e624 <am_audio_preprocess_handler+0x14c>)
    e5a6:	f7fd fe0b 	bl	c1c0 <memcpy>
     
        audio_frame_rolling_freq(pfRolMagSqr, pfMonoMagSqr, (AUDIO_PREPROCESS_CMPLX_SIZE/2), AUDIO_PREPROCESS_ROLLING_FRAMES);

        scnr_process(&(p_vos->Sn), pfRolMagSqr, pfRollFreq);
    e5aa:	4a1f      	ldr	r2, [pc, #124]	; (e628 <am_audio_preprocess_handler+0x150>)
    e5ac:	491f      	ldr	r1, [pc, #124]	; (e62c <am_audio_preprocess_handler+0x154>)
    e5ae:	f104 0050 	add.w	r0, r4, #80	; 0x50
    e5b2:	f000 f9d7 	bl	e964 <scnr_process>
    }
    //
    // transfer freq domain to time domain
    //
    istft_f32(&(p_vos->Sf), p_vos->ui32BuffFrames, pfRollFreq, p_vos->mono_out);
    e5b6:	4628      	mov	r0, r5
    e5b8:	e9d4 3102 	ldrd	r3, r1, [r4, #8]
    e5bc:	4a1a      	ldr	r2, [pc, #104]	; (e628 <am_audio_preprocess_handler+0x150>)
}
    e5be:	e8bd 4070 	ldmia.w	sp!, {r4, r5, r6, lr}
    istft_f32(&(p_vos->Sf), p_vos->ui32BuffFrames, pfRollFreq, p_vos->mono_out);
    e5c2:	f000 b8d5 	b.w	e770 <istft_f32>
        endfire_beamforming(&(p_vos->Bf), pfLeftFreq, pfRightFreq, pfMonoFreq);
    e5c6:	4b14      	ldr	r3, [pc, #80]	; (e618 <am_audio_preprocess_handler+0x140>)
    e5c8:	4a10      	ldr	r2, [pc, #64]	; (e60c <am_audio_preprocess_handler+0x134>)
    e5ca:	490f      	ldr	r1, [pc, #60]	; (e608 <am_audio_preprocess_handler+0x130>)
    e5cc:	f104 0040 	add.w	r0, r4, #64	; 0x40
    e5d0:	f000 f83a 	bl	e648 <endfire_beamforming>
    e5d4:	e7b9      	b.n	e54a <am_audio_preprocess_handler+0x72>
    e5d6:	bf00      	nop
    e5d8:	1003ba10 	.word	0x1003ba10
    e5dc:	1003c538 	.word	0x1003c538
    e5e0:	1003c6d8 	.word	0x1003c6d8
    e5e4:	1003c598 	.word	0x1003c598
    e5e8:	1003c718 	.word	0x1003c718
    e5ec:	1003b9b0 	.word	0x1003b9b0
    e5f0:	1003cd80 	.word	0x1003cd80
    e5f4:	1003ba70 	.word	0x1003ba70
    e5f8:	1003cde0 	.word	0x1003cde0
    e5fc:	1003bab0 	.word	0x1003bab0
    e600:	1003cb80 	.word	0x1003cb80
    e604:	1003c778 	.word	0x1003c778
    e608:	1003b5a0 	.word	0x1003b5a0
    e60c:	1003c978 	.word	0x1003c978
    e610:	1003c128 	.word	0x1003c128
    e614:	1003c330 	.word	0x1003c330
    e618:	1003b7a8 	.word	0x1003b7a8
    e61c:	1003be1c 	.word	0x1003be1c
    e620:	1003bc14 	.word	0x1003bc14
    e624:	1003bd18 	.word	0x1003bd18
    e628:	1003bf20 	.word	0x1003bf20
    e62c:	1003bb10 	.word	0x1003bb10

0000e630 <beamforming_init_f32>:
// nfft: fft length
//
void beamforming_init_f32(am_app_beamforming_instance_f32* Bf, const float32_t* beam_left_weight, const float32_t* beam_right_weight, uint32_t nfft)
{
    Bf->beamforming_ch_num = 2;             // it only supports end fire structure (2 channels) 
    Bf->fft_bin_num = (nfft/2) + 1;
    e630:	085b      	lsrs	r3, r3, #1
{
    e632:	b410      	push	{r4}
    Bf->fft_bin_num = (nfft/2) + 1;
    e634:	3301      	adds	r3, #1
    Bf->beamforming_ch_num = 2;             // it only supports end fire structure (2 channels) 
    e636:	2402      	movs	r4, #2
    e638:	6004      	str	r4, [r0, #0]
    Bf->beam_weight_L = beam_left_weight;
    e63a:	e9c0 3101 	strd	r3, r1, [r0, #4]
    Bf->beam_weight_R = beam_right_weight;
    e63e:	60c2      	str	r2, [r0, #12]
}
    e640:	f85d 4b04 	ldr.w	r4, [sp], #4
    e644:	4770      	bx	lr
    e646:	bf00      	nop

0000e648 <endfire_beamforming>:
// Endfire Beamforming fuction
// left_ch & right_ch: the output result from rfft_fast. Need to change to complx_multi format 
// fft_bin_num : fft_length/2+1
// output: in normal order; need reformed if feed into arm irfft
void endfire_beamforming(am_app_beamforming_instance_f32* Bf, float32_t* left_ch, float32_t* right_ch, float32_t* out_buff)
{
    e648:	e92d 4ff0 	stmdb	sp!, {r4, r5, r6, r7, r8, r9, sl, fp, lr}
    e64c:	b083      	sub	sp, #12
    float32_t left_ret[Bf->fft_bin_num*2];
    e64e:	f8d0 9004 	ldr.w	r9, [r0, #4]
    e652:	ea4f 08c9 	mov.w	r8, r9, lsl #3
{
    e656:	468b      	mov	fp, r1
    float32_t left_ret[Bf->fft_bin_num*2];
    e658:	f108 0108 	add.w	r1, r8, #8
{
    e65c:	af00      	add	r7, sp, #0
    float32_t left_ret[Bf->fft_bin_num*2];
    e65e:	ebad 0d01 	sub.w	sp, sp, r1
    e662:	466c      	mov	r4, sp
    float32_t right_ret[Bf->fft_bin_num*2];
    e664:	ebad 0d01 	sub.w	sp, sp, r1
{
    e668:	4606      	mov	r6, r0
    e66a:	4692      	mov	sl, r2
    
    memset(left_ret, 0, sizeof(left_ret));
    e66c:	2100      	movs	r1, #0
    e66e:	4642      	mov	r2, r8
    float32_t right_ret[Bf->fft_bin_num*2];
    e670:	466d      	mov	r5, sp
    memset(left_ret, 0, sizeof(left_ret));
    e672:	4620      	mov	r0, r4
{
    e674:	607b      	str	r3, [r7, #4]
    memset(left_ret, 0, sizeof(left_ret));
    e676:	f004 fa9d 	bl	12bb4 <memset>
    memset(right_ret, 0, sizeof(right_ret));
    e67a:	4642      	mov	r2, r8
    e67c:	2100      	movs	r1, #0
    e67e:	4628      	mov	r0, r5
    e680:	f004 fa98 	bl	12bb4 <memset>

    arm_cmplx_mult_cmplx_f32(left_ch, Bf->beam_weight_L, left_ret, Bf->fft_bin_num);
    e684:	464b      	mov	r3, r9
    e686:	4622      	mov	r2, r4
    e688:	4658      	mov	r0, fp
    e68a:	68b1      	ldr	r1, [r6, #8]
    e68c:	f002 fdb0 	bl	111f0 <arm_cmplx_mult_cmplx_f32>
    arm_cmplx_mult_cmplx_f32(right_ch, Bf->beam_weight_R, right_ret, Bf->fft_bin_num);
    e690:	462a      	mov	r2, r5
    e692:	68f1      	ldr	r1, [r6, #12]
    e694:	6873      	ldr	r3, [r6, #4]
    e696:	4650      	mov	r0, sl
    e698:	f002 fdaa 	bl	111f0 <arm_cmplx_mult_cmplx_f32>
    
    for(uint32_t idx=0; idx<Bf->fft_bin_num*2; idx++)
    e69c:	6872      	ldr	r2, [r6, #4]
    e69e:	0051      	lsls	r1, r2, #1
    e6a0:	d00c      	beq.n	e6bc <endfire_beamforming+0x74>
    e6a2:	687b      	ldr	r3, [r7, #4]
    e6a4:	eb04 02c2 	add.w	r2, r4, r2, lsl #3
    {
        out_buff[idx] = left_ret[idx] + right_ret[idx];
    e6a8:	ecf4 7a01 	vldmia	r4!, {s15}
    e6ac:	ecb5 7a01 	vldmia	r5!, {s14}
    e6b0:	ee77 7a87 	vadd.f32	s15, s15, s14
    for(uint32_t idx=0; idx<Bf->fft_bin_num*2; idx++)
    e6b4:	4294      	cmp	r4, r2
        out_buff[idx] = left_ret[idx] + right_ret[idx];
    e6b6:	ece3 7a01 	vstmia	r3!, {s15}
    for(uint32_t idx=0; idx<Bf->fft_bin_num*2; idx++)
    e6ba:	d1f5      	bne.n	e6a8 <endfire_beamforming+0x60>
    }
}
    e6bc:	370c      	adds	r7, #12
    e6be:	46bd      	mov	sp, r7
    e6c0:	e8bd 8ff0 	ldmia.w	sp!, {r4, r5, r6, r7, r8, r9, sl, fp, pc}

0000e6c4 <stft_init_f32>:
#include "arm_const_structs.h"
#include "am_app_utils.h"
#include "stft.h"

void stft_init_f32(am_app_stft_instance_f32* Sf, uint16_t fft_len, uint16_t hop, uint16_t roll_frames, const float* window_buff)
{
    e6c4:	b410      	push	{r4}
    Sf->ui16FftLen = fft_len;
    Sf->ui16HopSize = hop;
    Sf->ui16SynFrames = roll_frames;
    configASSERT((fft_len >= hop));
    e6c6:	4291      	cmp	r1, r2
    Sf->ui16SynFrames = roll_frames;
    e6c8:	8083      	strh	r3, [r0, #4]
    Sf->ui16HopSize = hop;
    e6ca:	8042      	strh	r2, [r0, #2]
    Sf->ui16FftLen = fft_len;
    e6cc:	8001      	strh	r1, [r0, #0]
{
    e6ce:	9b01      	ldr	r3, [sp, #4]
    configASSERT((fft_len >= hop));
    e6d0:	d200      	bcs.n	e6d4 <stft_init_f32+0x10>
    e6d2:	e7fe      	b.n	e6d2 <stft_init_f32+0xe>
    Sf->pfWindowBuffer = window_buff;
    e6d4:	6083      	str	r3, [r0, #8]
    arm_rfft_fast_init_f32(&(Sf->arm_rfft), Sf->ui16FftLen);
}
    e6d6:	f85d 4b04 	ldr.w	r4, [sp], #4
    arm_rfft_fast_init_f32(&(Sf->arm_rfft), Sf->ui16FftLen);
    e6da:	300c      	adds	r0, #12
    e6dc:	f002 b82a 	b.w	10734 <arm_rfft_fast_init_f32>

0000e6e0 <stft_window_apply_f32>:

void stft_window_apply_f32(int16_t* input_signal, float* windowed_signal, am_app_stft_instance_f32* Sf)
{
    uint16_t i = 0;
    for(i=0; i < Sf->ui16FftLen; i++)
    e6e0:	8813      	ldrh	r3, [r2, #0]
    e6e2:	b19b      	cbz	r3, e70c <stft_window_apply_f32+0x2c>
    e6e4:	3b01      	subs	r3, #1
    e6e6:	b29b      	uxth	r3, r3
    e6e8:	6892      	ldr	r2, [r2, #8]
    e6ea:	eb00 0343 	add.w	r3, r0, r3, lsl #1
    e6ee:	3802      	subs	r0, #2
    {
        windowed_signal[i] = input_signal[i] * Sf->pfWindowBuffer[i];
    e6f0:	f930 cf02 	ldrsh.w	ip, [r0, #2]!
    e6f4:	ecb2 7a01 	vldmia	r2!, {s14}
    e6f8:	ee07 ca90 	vmov	s15, ip
    e6fc:	eef8 7ae7 	vcvt.f32.s32	s15, s15
    for(i=0; i < Sf->ui16FftLen; i++)
    e700:	4283      	cmp	r3, r0
        windowed_signal[i] = input_signal[i] * Sf->pfWindowBuffer[i];
    e702:	ee67 7a87 	vmul.f32	s15, s15, s14
    e706:	ece1 7a01 	vstmia	r1!, {s15}
    for(i=0; i < Sf->ui16FftLen; i++)
    e70a:	d1f1      	bne.n	e6f0 <stft_window_apply_f32+0x10>
    }
}
    e70c:	4770      	bx	lr
    e70e:	bf00      	nop

0000e710 <stft_f32>:
// STFT function
// input: windowed audio signal
// output: stft complex result of (nfft//2+1) complex pairs (nfft+2 elements) with freq-increasing order
//
void stft_f32(am_app_stft_instance_f32* Sf, float32_t* windowed_sig, float32_t* stft_result)
{
    e710:	b5f8      	push	{r3, r4, r5, r6, r7, lr}
    e712:	4615      	mov	r5, r2
    uint32_t fft_bin_num = Sf->ui16FftLen + 2;
    e714:	f830 2b0c 	ldrh.w	r2, [r0], #12
    ALLOC(pf_rfftRet, (Sf->ui16FftLen), float32_t);
    e718:	0093      	lsls	r3, r2, #2
    e71a:	330a      	adds	r3, #10
    e71c:	466c      	mov	r4, sp
    e71e:	08db      	lsrs	r3, r3, #3
    e720:	eba4 03c3 	sub.w	r3, r4, r3, lsl #3
{
    e724:	af00      	add	r7, sp, #0
    ALLOC(pf_rfftRet, (Sf->ui16FftLen), float32_t);
    e726:	469d      	mov	sp, r3
    e728:	466e      	mov	r6, sp
    uint32_t fft_bin_num = Sf->ui16FftLen + 2;
    e72a:	1c94      	adds	r4, r2, #2
    arm_rfft_fast_f32(&(Sf->arm_rfft), windowed_sig, pf_rfftRet, 0);
    e72c:	2300      	movs	r3, #0
    e72e:	4632      	mov	r2, r6
    e730:	f002 f884 	bl	1083c <arm_rfft_fast_f32>
    //
    // arm rfft return value format is tricky. Needs to be reformed for future use
    //
    stft_result[0] = pf_rfftRet[0];
    stft_result[1] = 0;
    stft_result[fft_bin_num*2-2] = pf_rfftRet[1];
    e734:	f104 5300 	add.w	r3, r4, #536870912	; 0x20000000
    stft_result[0] = pf_rfftRet[0];
    e738:	6832      	ldr	r2, [r6, #0]
    e73a:	602a      	str	r2, [r5, #0]
    stft_result[fft_bin_num*2-2] = pf_rfftRet[1];
    e73c:	3b01      	subs	r3, #1
    e73e:	eb05 03c3 	add.w	r3, r5, r3, lsl #3
    stft_result[fft_bin_num*2-1] = 0;
    memcpy(&stft_result[2], &pf_rfftRet[2], (fft_bin_num*2-4)*sizeof(float32_t));
    e742:	f104 4280 	add.w	r2, r4, #1073741824	; 0x40000000
    stft_result[1] = 0;
    e746:	f04f 0c00 	mov.w	ip, #0
    stft_result[fft_bin_num*2-2] = pf_rfftRet[1];
    e74a:	f8d6 e004 	ldr.w	lr, [r6, #4]
    stft_result[1] = 0;
    e74e:	f8c5 c004 	str.w	ip, [r5, #4]
    memcpy(&stft_result[2], &pf_rfftRet[2], (fft_bin_num*2-4)*sizeof(float32_t));
    e752:	3a02      	subs	r2, #2
    e754:	f106 0108 	add.w	r1, r6, #8
    e758:	00d2      	lsls	r2, r2, #3
    e75a:	f105 0008 	add.w	r0, r5, #8
    stft_result[fft_bin_num*2-2] = pf_rfftRet[1];
    e75e:	f8c3 e000 	str.w	lr, [r3]
    stft_result[fft_bin_num*2-1] = 0;
    e762:	f8c3 c004 	str.w	ip, [r3, #4]
    memcpy(&stft_result[2], &pf_rfftRet[2], (fft_bin_num*2-4)*sizeof(float32_t));
    e766:	f7fd fd2b 	bl	c1c0 <memcpy>

}
    e76a:	46bd      	mov	sp, r7
    e76c:	bdf8      	pop	{r3, r4, r5, r6, r7, pc}
    e76e:	bf00      	nop

0000e770 <istft_f32>:

void istft_f32(am_app_stft_instance_f32* Sf, uint32_t syn_frame, float32_t* input_buff, int16_t* output_pcm)
{
    e770:	e92d 4ff0 	stmdb	sp!, {r4, r5, r6, r7, r8, r9, sl, fp, lr}
    e774:	ed2d 8b04 	vpush	{d8-d9}
    e778:	4606      	mov	r6, r0
    e77a:	b089      	sub	sp, #36	; 0x24
    // array length concludes real and image
//    float32_t input_dummy_buff[Sf->ui16FftLen];
    //
    // initialize the internal buffer for calculation
    //
    syn_audio_len = Sf->ui16FftLen + (syn_frame-1) * Sf->ui16HopSize;
    e77c:	8834      	ldrh	r4, [r6, #0]
    e77e:	f8b6 b002 	ldrh.w	fp, [r6, #2]
{
    e782:	4608      	mov	r0, r1
    coinciden_len = Sf->ui16FftLen - Sf->ui16HopSize;
// 2 * complex pairs
    cmplx_bins = Sf->ui16FftLen + 2;

    ALLOC(input_reform_buff, Sf->ui16FftLen, float32_t);
    e784:	00a1      	lsls	r1, r4, #2
    syn_audio_len = Sf->ui16FftLen + (syn_frame-1) * Sf->ui16HopSize;
    e786:	f100 39ff 	add.w	r9, r0, #4294967295	; 0xffffffff
    ALLOC(input_reform_buff, Sf->ui16FftLen, float32_t);
    e78a:	310a      	adds	r1, #10
{
    e78c:	af00      	add	r7, sp, #0
    ALLOC(input_reform_buff, Sf->ui16FftLen, float32_t);
    e78e:	08c9      	lsrs	r1, r1, #3
    syn_audio_len = Sf->ui16FftLen + (syn_frame-1) * Sf->ui16HopSize;
    e790:	fb0b 4909 	mla	r9, fp, r9, r4
    ALLOC(input_reform_buff, Sf->ui16FftLen, float32_t);
    e794:	00c9      	lsls	r1, r1, #3
    ALLOC(ifft_result, Sf->ui16FftLen, float32_t);
    ALLOC(window_sum, syn_audio_len, float32_t);
    e796:	ea4f 0989 	mov.w	r9, r9, lsl #2
    ALLOC(input_reform_buff, Sf->ui16FftLen, float32_t);
    e79a:	ebad 0d01 	sub.w	sp, sp, r1
    syn_audio_len = Sf->ui16FftLen + (syn_frame-1) * Sf->ui16HopSize;
    e79e:	61b8      	str	r0, [r7, #24]
    ALLOC(window_sum, syn_audio_len, float32_t);
    e7a0:	f109 000a 	add.w	r0, r9, #10
    e7a4:	f020 0007 	bic.w	r0, r0, #7
    ALLOC(input_reform_buff, Sf->ui16FftLen, float32_t);
    e7a8:	46e8      	mov	r8, sp
    ALLOC(ifft_result, Sf->ui16FftLen, float32_t);
    e7aa:	ebad 0d01 	sub.w	sp, sp, r1
    e7ae:	46ea      	mov	sl, sp
    ALLOC(window_sum, syn_audio_len, float32_t);
    e7b0:	ebad 0d00 	sub.w	sp, sp, r0
    e7b4:	4669      	mov	r1, sp
    e7b6:	6139      	str	r1, [r7, #16]
    ALLOC(syn_audio_buff, syn_audio_len, float32_t);
    e7b8:	ebad 0d00 	sub.w	sp, sp, r0
{
    e7bc:	603b      	str	r3, [r7, #0]
    memset(window_sum, 0, syn_audio_len*sizeof(float32_t));
    e7be:	4608      	mov	r0, r1
    coinciden_len = Sf->ui16FftLen - Sf->ui16HopSize;
    e7c0:	eba4 030b 	sub.w	r3, r4, fp
    memset(window_sum, 0, syn_audio_len*sizeof(float32_t));
    e7c4:	2100      	movs	r1, #0
{
    e7c6:	4615      	mov	r5, r2
    memset(window_sum, 0, syn_audio_len*sizeof(float32_t));
    e7c8:	464a      	mov	r2, r9
    coinciden_len = Sf->ui16FftLen - Sf->ui16HopSize;
    e7ca:	61fb      	str	r3, [r7, #28]
    ALLOC(syn_audio_buff, syn_audio_len, float32_t);
    e7cc:	f8c7 d014 	str.w	sp, [r7, #20]
    memset(window_sum, 0, syn_audio_len*sizeof(float32_t));
    e7d0:	f004 f9f0 	bl	12bb4 <memset>
    memset(syn_audio_buff, 0, syn_audio_len*sizeof(float32_t));
    e7d4:	464a      	mov	r2, r9
    e7d6:	6978      	ldr	r0, [r7, #20]
    e7d8:	2100      	movs	r1, #0
    e7da:	f004 f9eb 	bl	12bb4 <memset>


    for(i=0; i<syn_frame; i++)
    e7de:	69b8      	ldr	r0, [r7, #24]
    e7e0:	2800      	cmp	r0, #0
    e7e2:	d04f      	beq.n	e884 <istft_f32+0x114>
    e7e4:	3402      	adds	r4, #2
        //
        // need to reform input format to feed arm irfft
        //
        input_reform_buff[0] = input_buff[i*cmplx_bins]; 
        input_reform_buff[1] = input_buff[(i+1)*cmplx_bins-2];
        memcpy(&input_reform_buff[2], &input_buff[i*cmplx_bins+2], (cmplx_bins-4)*sizeof(float32_t));    
    e7e6:	f104 4480 	add.w	r4, r4, #1073741824	; 0x40000000
    e7ea:	3c04      	subs	r4, #4
    e7ec:	00a3      	lsls	r3, r4, #2
    e7ee:	f103 0b10 	add.w	fp, r3, #16
    e7f2:	60fb      	str	r3, [r7, #12]
    e7f4:	f108 0308 	add.w	r3, r8, #8
    e7f8:	60bb      	str	r3, [r7, #8]
    e7fa:	f106 030c 	add.w	r3, r6, #12
    e7fe:	eb05 090b 	add.w	r9, r5, fp
    e802:	607b      	str	r3, [r7, #4]
    e804:	3508      	adds	r5, #8
    for(i=0; i<syn_frame; i++)
    e806:	2400      	movs	r4, #0
        input_reform_buff[0] = input_buff[i*cmplx_bins]; 
    e808:	f855 2c08 	ldr.w	r2, [r5, #-8]
        input_reform_buff[1] = input_buff[(i+1)*cmplx_bins-2];
    e80c:	f859 3c08 	ldr.w	r3, [r9, #-8]
        input_reform_buff[0] = input_buff[i*cmplx_bins]; 
    e810:	f8c8 2000 	str.w	r2, [r8]
        memcpy(&input_reform_buff[2], &input_buff[i*cmplx_bins+2], (cmplx_bins-4)*sizeof(float32_t));    
    e814:	4629      	mov	r1, r5
    e816:	68fa      	ldr	r2, [r7, #12]
        input_reform_buff[1] = input_buff[(i+1)*cmplx_bins-2];
    e818:	f8c8 3004 	str.w	r3, [r8, #4]
        memcpy(&input_reform_buff[2], &input_buff[i*cmplx_bins+2], (cmplx_bins-4)*sizeof(float32_t));    
    e81c:	68b8      	ldr	r0, [r7, #8]
    e81e:	f7fd fccf 	bl	c1c0 <memcpy>
        arm_rfft_fast_f32(&(Sf->arm_rfft), input_reform_buff, ifft_result, 1);
    e822:	4641      	mov	r1, r8
    e824:	6878      	ldr	r0, [r7, #4]
    e826:	2301      	movs	r3, #1
    e828:	4652      	mov	r2, sl
    e82a:	f002 f807 	bl	1083c <arm_rfft_fast_f32>
        for(k=0; k<Sf->ui16FftLen; k++)
    e82e:	8830      	ldrh	r0, [r6, #0]
        input_reform_buff[1] = input_buff[(i+1)*cmplx_bins-2];
    e830:	1c61      	adds	r1, r4, #1
        for(k=0; k<Sf->ui16FftLen; k++)
    e832:	b1f8      	cbz	r0, e874 <istft_f32+0x104>
        {
            syn_audio_buff[k+i*Sf->ui16HopSize] += ifft_result[k]*Sf->pfWindowBuffer[k];
    e834:	8873      	ldrh	r3, [r6, #2]
    e836:	68b2      	ldr	r2, [r6, #8]
    e838:	fb04 f403 	mul.w	r4, r4, r3
    e83c:	697b      	ldr	r3, [r7, #20]
    e83e:	00a4      	lsls	r4, r4, #2
    e840:	eb03 0e04 	add.w	lr, r3, r4
    e844:	693b      	ldr	r3, [r7, #16]
    e846:	eb0a 0080 	add.w	r0, sl, r0, lsl #2
    e84a:	441c      	add	r4, r3
    e84c:	46d4      	mov	ip, sl
    e84e:	4673      	mov	r3, lr
    e850:	ed93 7a00 	vldr	s14, [r3]
    e854:	ecbc 6a01 	vldmia	ip!, {s12}
    e858:	ecf2 6a01 	vldmia	r2!, {s13}
            window_sum[k+i*Sf->ui16HopSize]  += Sf->pfWindowBuffer[k]*Sf->pfWindowBuffer[k]; 
    e85c:	edd4 7a00 	vldr	s15, [r4]
            syn_audio_buff[k+i*Sf->ui16HopSize] += ifft_result[k]*Sf->pfWindowBuffer[k];
    e860:	eea6 7a26 	vfma.f32	s14, s12, s13
        for(k=0; k<Sf->ui16FftLen; k++)
    e864:	4584      	cmp	ip, r0
            window_sum[k+i*Sf->ui16HopSize]  += Sf->pfWindowBuffer[k]*Sf->pfWindowBuffer[k]; 
    e866:	eee6 7aa6 	vfma.f32	s15, s13, s13
            syn_audio_buff[k+i*Sf->ui16HopSize] += ifft_result[k]*Sf->pfWindowBuffer[k];
    e86a:	eca3 7a01 	vstmia	r3!, {s14}
            window_sum[k+i*Sf->ui16HopSize]  += Sf->pfWindowBuffer[k]*Sf->pfWindowBuffer[k]; 
    e86e:	ece4 7a01 	vstmia	r4!, {s15}
        for(k=0; k<Sf->ui16FftLen; k++)
    e872:	d1ed      	bne.n	e850 <istft_f32+0xe0>
    for(i=0; i<syn_frame; i++)
    e874:	69bb      	ldr	r3, [r7, #24]
    e876:	428b      	cmp	r3, r1
    e878:	44d9      	add	r9, fp
    e87a:	445d      	add	r5, fp
    e87c:	460c      	mov	r4, r1
    e87e:	d1c3      	bne.n	e808 <istft_f32+0x98>
    e880:	f8b6 b002 	ldrh.w	fp, [r6, #2]
    }
    
    //
    // Divide with window sum to re-construct the signal. NOLA needed.
    //
    for(i=coinciden_len; i<Sf->ui16HopSize+coinciden_len; i++)
    e884:	69fb      	ldr	r3, [r7, #28]
    e886:	449b      	add	fp, r3
    e888:	455b      	cmp	r3, fp
    e88a:	d233      	bcs.n	e8f4 <istft_f32+0x184>
    e88c:	683a      	ldr	r2, [r7, #0]
        {
            syn_audio_buff[i] = syn_audio_buff[i]/window_sum[i];
        }
        else
        {
            syn_audio_buff[i] = syn_audio_buff[i]/0.000001;
    e88e:	ed9f 9a1e 	vldr	s18, [pc, #120]	; e908 <istft_f32+0x198>
    e892:	f1a2 0b02 	sub.w	fp, r2, #2
    e896:	693a      	ldr	r2, [r7, #16]
    e898:	009c      	lsls	r4, r3, #2
    e89a:	4422      	add	r2, r4
    e89c:	4615      	mov	r5, r2
    e89e:	697a      	ldr	r2, [r7, #20]
    e8a0:	4422      	add	r2, r4
        if(window_sum[i] > 0.000001)
    e8a2:	f20f 095c 	addw	r9, pc, #92	; 0x5c
    e8a6:	e9d9 8900 	ldrd	r8, r9, [r9]
    e8aa:	4614      	mov	r4, r2
    for(i=coinciden_len; i<Sf->ui16HopSize+coinciden_len; i++)
    e8ac:	469a      	mov	sl, r3
    e8ae:	e010      	b.n	e8d2 <istft_f32+0x162>
            syn_audio_buff[i] = syn_audio_buff[i]/window_sum[i];
    e8b0:	eec8 7a88 	vdiv.f32	s15, s17, s16
    for(i=coinciden_len; i<Sf->ui16HopSize+coinciden_len; i++)
    e8b4:	69fa      	ldr	r2, [r7, #28]
    e8b6:	f10a 0a01 	add.w	sl, sl, #1
        }
        output_pcm[i-coinciden_len] = (int16_t)syn_audio_buff[i];
    e8ba:	eebd 7ae7 	vcvt.s32.f32	s14, s15
    e8be:	ed44 7a01 	vstr	s15, [r4, #-4]
    e8c2:	ee17 3a10 	vmov	r3, s14
    e8c6:	f82b 3f02 	strh.w	r3, [fp, #2]!
    for(i=coinciden_len; i<Sf->ui16HopSize+coinciden_len; i++)
    e8ca:	8873      	ldrh	r3, [r6, #2]
    e8cc:	4413      	add	r3, r2
    e8ce:	4553      	cmp	r3, sl
    e8d0:	d910      	bls.n	e8f4 <istft_f32+0x184>
        if(window_sum[i] > 0.000001)
    e8d2:	ecb5 8a01 	vldmia	r5!, {s16}
    e8d6:	ecf4 8a01 	vldmia	r4!, {s17}
    e8da:	ee18 0a10 	vmov	r0, s16
    e8de:	f7fd fe6d 	bl	c5bc <__aeabi_f2d>
    e8e2:	4642      	mov	r2, r8
    e8e4:	464b      	mov	r3, r9
    e8e6:	f7fe f951 	bl	cb8c <__aeabi_dcmpgt>
    e8ea:	2800      	cmp	r0, #0
    e8ec:	d1e0      	bne.n	e8b0 <istft_f32+0x140>
            syn_audio_buff[i] = syn_audio_buff[i]/0.000001;
    e8ee:	ee68 7a89 	vmul.f32	s15, s17, s18
    e8f2:	e7df      	b.n	e8b4 <istft_f32+0x144>
    }
       
}
    e8f4:	3724      	adds	r7, #36	; 0x24
    e8f6:	46bd      	mov	sp, r7
    e8f8:	ecbd 8b04 	vpop	{d8-d9}
    e8fc:	e8bd 8ff0 	ldmia.w	sp!, {r4, r5, r6, r7, r8, r9, sl, fp, pc}
    e900:	a0b5ed8d 	.word	0xa0b5ed8d
    e904:	3eb0c6f7 	.word	0x3eb0c6f7
    e908:	49742400 	.word	0x49742400
    e90c:	00000000 	.word	0x00000000

0000e910 <scnr_init>:
    scnr->ui32BinNum = nfft/2 + 1;
    scnr->fdB_reduc = db_reduc;
    scnr->ui32LookbackFrames = lookback;
    scnr->fBeta = beta;
    scnr->fAlpha = alpha;
    scnr->fGmin = pow(10, (-db_reduc/20));
    e910:	eddf 7a13 	vldr	s15, [pc, #76]	; e960 <scnr_init+0x50>
    scnr->ui32BinNum = nfft/2 + 1;
    e914:	084b      	lsrs	r3, r1, #1
    scnr->fGmin = pow(10, (-db_reduc/20));
    e916:	ee60 7a27 	vmul.f32	s15, s0, s15
    scnr->ui32BinNum = nfft/2 + 1;
    e91a:	3301      	adds	r3, #1
{
    e91c:	b510      	push	{r4, lr}
    scnr->ui32BinNum = nfft/2 + 1;
    e91e:	6043      	str	r3, [r0, #4]
    scnr->ui32LookbackFrames = lookback;
    e920:	60c2      	str	r2, [r0, #12]
    scnr->fBeta = beta;
    e922:	edc0 0a04 	vstr	s1, [r0, #16]
    scnr->fAlpha = alpha;
    e926:	ed80 1a05 	vstr	s2, [r0, #20]
    scnr->fdB_reduc = db_reduc;
    e92a:	ed80 0a02 	vstr	s0, [r0, #8]
{
    e92e:	4604      	mov	r4, r0
    scnr->ui32FftLen = nfft;
    e930:	6001      	str	r1, [r0, #0]
    scnr->fGmin = pow(10, (-db_reduc/20));
    e932:	ee17 0a90 	vmov	r0, s15
    e936:	f7fd fe41 	bl	c5bc <__aeabi_f2d>
    e93a:	ed9f 0b07 	vldr	d0, [pc, #28]	; e958 <scnr_init+0x48>
    e93e:	ec41 0b11 	vmov	d1, r0, r1
    e942:	f003 f831 	bl	119a8 <pow>
    e946:	ec51 0b10 	vmov	r0, r1, d0
    e94a:	f7fe f93f 	bl	cbcc <__aeabi_d2f>
    e94e:	61a0      	str	r0, [r4, #24]
}
    e950:	bd10      	pop	{r4, pc}
    e952:	bf00      	nop
    e954:	f3af 8000 	nop.w
    e958:	00000000 	.word	0x00000000
    e95c:	40240000 	.word	0x40240000
    e960:	bd4ccccd 	.word	0xbd4ccccd

0000e964 <scnr_process>:

void scnr_process(am_app_scnr_instance_f32* scnr, float32_t* roll_buff_mag_squared, float32_t* roll_buff_cmplx)
{
    e964:	e92d 4ff0 	stmdb	sp!, {r4, r5, r6, r7, r8, r9, sl, fp, lr}
    e968:	ed2d 8b02 	vpush	{d8}
    e96c:	b089      	sub	sp, #36	; 0x24
    uint32_t cmplx_pair_num = scnr->ui32BinNum;
    e96e:	f8d0 b004 	ldr.w	fp, [r0, #4]
    uint32_t lookback = scnr->ui32LookbackFrames;
    e972:	68c4      	ldr	r4, [r0, #12]
    float32_t beta = scnr->fBeta;
    e974:	edd0 8a04 	vldr	s17, [r0, #16]
    uint32_t Index = 0;
    float32_t alpha = scnr->fAlpha;
    float32_t gain_min = scnr->fGmin;
    e978:	ed90 8a06 	vldr	s16, [r0, #24]
    // buffer to store the minimal bin of lookback frames
    // in this algo, lookback == rolling_num
    // p_n_mag: magnitude squared of noise
    // p_sn_mag: magnitude squared of noise+signal
    //
    float32_t p_n_mag[cmplx_pair_num];
    e97c:	ea4f 058b 	mov.w	r5, fp, lsl #2
    e980:	f105 060a 	add.w	r6, r5, #10
    float32_t p_freqbin_mag[lookback];
    e984:	00a3      	lsls	r3, r4, #2
    float32_t p_n_mag[cmplx_pair_num];
    e986:	f026 0607 	bic.w	r6, r6, #7
    float32_t p_freqbin_mag[lookback];
    e98a:	330a      	adds	r3, #10
{
    e98c:	af00      	add	r7, sp, #0
    float32_t p_freqbin_mag[lookback];
    e98e:	f023 0307 	bic.w	r3, r3, #7
    float32_t p_n_mag[cmplx_pair_num];
    e992:	ebad 0d06 	sub.w	sp, sp, r6
{
    e996:	4688      	mov	r8, r1
    float32_t p_n_mag[cmplx_pair_num];
    e998:	46e9      	mov	r9, sp
    float32_t p_sn_mag[cmplx_pair_num];
    float32_t p_s_cmplx[cmplx_pair_num*2];
    e99a:	ea4f 01cb 	mov.w	r1, fp, lsl #3
    float32_t p_freqbin_mag[lookback];
    e99e:	ebad 0d03 	sub.w	sp, sp, r3
    memcpy(p_s_cmplx, &roll_buff_cmplx[(lookback-1)*2*cmplx_pair_num], 2*cmplx_pair_num*sizeof(float32_t));
    e9a2:	f104 5300 	add.w	r3, r4, #536870912	; 0x20000000
    float32_t p_s_cmplx[cmplx_pair_num*2];
    e9a6:	f101 0008 	add.w	r0, r1, #8
    float32_t p_freqbin_mag[lookback];
    e9aa:	46ea      	mov	sl, sp
    memcpy(p_s_cmplx, &roll_buff_cmplx[(lookback-1)*2*cmplx_pair_num], 2*cmplx_pair_num*sizeof(float32_t));
    e9ac:	3b01      	subs	r3, #1
    float32_t p_sn_mag[cmplx_pair_num];
    e9ae:	ebad 0d06 	sub.w	sp, sp, r6
    memcpy(p_s_cmplx, &roll_buff_cmplx[(lookback-1)*2*cmplx_pair_num], 2*cmplx_pair_num*sizeof(float32_t));
    e9b2:	fb01 2303 	mla	r3, r1, r3, r2
    float32_t p_sn_mag[cmplx_pair_num];
    e9b6:	f8c7 d014 	str.w	sp, [r7, #20]
    float32_t p_s_cmplx[cmplx_pair_num*2];
    e9ba:	ebad 0d00 	sub.w	sp, sp, r0
    e9be:	4668      	mov	r0, sp
    memcpy(p_s_cmplx, &roll_buff_cmplx[(lookback-1)*2*cmplx_pair_num], 2*cmplx_pair_num*sizeof(float32_t));
    e9c0:	460a      	mov	r2, r1
    e9c2:	60fb      	str	r3, [r7, #12]
    e9c4:	4619      	mov	r1, r3
    uint32_t Index = 0;
    e9c6:	2300      	movs	r3, #0
    float32_t p_s_cmplx[cmplx_pair_num*2];
    e9c8:	60b8      	str	r0, [r7, #8]
    uint32_t Index = 0;
    e9ca:	61fb      	str	r3, [r7, #28]
    memcpy(p_s_cmplx, &roll_buff_cmplx[(lookback-1)*2*cmplx_pair_num], 2*cmplx_pair_num*sizeof(float32_t));
    e9cc:	f7fd fbf8 	bl	c1c0 <memcpy>
    //
    // scnr gain: real array
    //
    float32_t p_gain_filter[cmplx_pair_num];
    float32_t reduced_sig = 0;
    memcpy(p_sn_mag, &roll_buff_mag_squared[(lookback-1)*cmplx_pair_num], cmplx_pair_num*sizeof(float32_t));
    e9d0:	f104 4180 	add.w	r1, r4, #1073741824	; 0x40000000
    e9d4:	3901      	subs	r1, #1
    float32_t p_gain_filter[cmplx_pair_num];
    e9d6:	ebad 0d06 	sub.w	sp, sp, r6
    memcpy(p_sn_mag, &roll_buff_mag_squared[(lookback-1)*cmplx_pair_num], cmplx_pair_num*sizeof(float32_t));
    e9da:	6978      	ldr	r0, [r7, #20]
    float32_t p_gain_filter[cmplx_pair_num];
    e9dc:	f8c7 d010 	str.w	sp, [r7, #16]
    memcpy(p_sn_mag, &roll_buff_mag_squared[(lookback-1)*cmplx_pair_num], cmplx_pair_num*sizeof(float32_t));
    e9e0:	fb05 8101 	mla	r1, r5, r1, r8
    e9e4:	462a      	mov	r2, r5
    e9e6:	f7fd fbeb 	bl	c1c0 <memcpy>
    //
    // generate noise frequency bin
    //
    for(uint32_t idx=0; idx<cmplx_pair_num; idx++)
    e9ea:	f1bb 0f00 	cmp.w	fp, #0
    e9ee:	d042      	beq.n	ea76 <scnr_process+0x112>
    e9f0:	eb09 0305 	add.w	r3, r9, r5
    e9f4:	f8c7 b004 	str.w	fp, [r7, #4]
    e9f8:	464e      	mov	r6, r9
    e9fa:	469b      	mov	fp, r3
    {
        for(uint32_t k=0; k<lookback; k++)
    e9fc:	b14c      	cbz	r4, ea12 <scnr_process+0xae>
    e9fe:	4651      	mov	r1, sl
    ea00:	4642      	mov	r2, r8
    ea02:	2300      	movs	r3, #0
    ea04:	3301      	adds	r3, #1
        {
            p_freqbin_mag[k] = roll_buff_mag_squared[cmplx_pair_num*k+idx];
    ea06:	6810      	ldr	r0, [r2, #0]
    ea08:	f841 0b04 	str.w	r0, [r1], #4
        for(uint32_t k=0; k<lookback; k++)
    ea0c:	429c      	cmp	r4, r3
    ea0e:	442a      	add	r2, r5
    ea10:	d1f8      	bne.n	ea04 <scnr_process+0xa0>

//            AM_APP_LOG_DEBUG("%d: %f, ", idx, p_freqbin_mag[k]);   
        }
//        AM_APP_LOG_DEBUG("\n\r");   
        arm_min_f32(p_freqbin_mag, lookback, &p_n_mag[idx], &Index);
    ea12:	4632      	mov	r2, r6
    ea14:	f107 031c 	add.w	r3, r7, #28
    ea18:	4621      	mov	r1, r4
    ea1a:	3604      	adds	r6, #4
    ea1c:	4650      	mov	r0, sl
    ea1e:	f001 fe21 	bl	10664 <arm_min_f32>
    for(uint32_t idx=0; idx<cmplx_pair_num; idx++)
    ea22:	455e      	cmp	r6, fp
    ea24:	f108 0804 	add.w	r8, r8, #4
    ea28:	d1e8      	bne.n	e9fc <scnr_process+0x98>
    ea2a:	f8d7 b004 	ldr.w	fp, [r7, #4]
//        AM_APP_LOG_DEBUG("%f,\n\r", p_n_mag[idx]);   
    }

    for(uint32_t idx=0; idx<cmplx_pair_num; idx++)
    {
        reduced_sig = (p_sn_mag[idx] - beta*p_n_mag[idx]) > 0. ? (p_sn_mag[idx]-beta*p_n_mag[idx]) : 0.;
    ea2e:	eddf 5a18 	vldr	s11, [pc, #96]	; ea90 <scnr_process+0x12c>
    ea32:	697a      	ldr	r2, [r7, #20]
    ea34:	6939      	ldr	r1, [r7, #16]
    ea36:	eeb1 6a68 	vneg.f32	s12, s17
    for(uint32_t idx=0; idx<cmplx_pair_num; idx++)
    ea3a:	2300      	movs	r3, #0
        reduced_sig = (p_sn_mag[idx] - beta*p_n_mag[idx]) > 0. ? (p_sn_mag[idx]-beta*p_n_mag[idx]) : 0.;
    ea3c:	ecf2 6a01 	vldmia	r2!, {s13}
    ea40:	ecf9 7a01 	vldmia	r9!, {s15}
    ea44:	eeb0 7a66 	vmov.f32	s14, s13
    ea48:	eea6 7a27 	vfma.f32	s14, s12, s15
    for(uint32_t idx=0; idx<cmplx_pair_num; idx++)
    ea4c:	3301      	adds	r3, #1
        reduced_sig = (p_sn_mag[idx] - beta*p_n_mag[idx]) > 0. ? (p_sn_mag[idx]-beta*p_n_mag[idx]) : 0.;
    ea4e:	eeb5 7ac0 	vcmpe.f32	s14, #0.0
    ea52:	eef1 fa10 	vmrs	APSR_nzcv, fpscr
    ea56:	bfb8      	it	lt
    ea58:	eeb0 7a65 	vmovlt.f32	s14, s11
//        p_gain_filter[idx] = reduced_sig / pow(p_sn_mag[idx], alpha);
        p_gain_filter[idx] = reduced_sig / p_sn_mag[idx];
    ea5c:	eec7 7a26 	vdiv.f32	s15, s14, s13
        p_gain_filter[idx] = p_gain_filter[idx] > gain_min ? p_gain_filter[idx] : gain_min;
    ea60:	eef4 7ac8 	vcmpe.f32	s15, s16
    ea64:	eef1 fa10 	vmrs	APSR_nzcv, fpscr
    ea68:	bfb8      	it	lt
    ea6a:	eef0 7a48 	vmovlt.f32	s15, s16
    for(uint32_t idx=0; idx<cmplx_pair_num; idx++)
    ea6e:	459b      	cmp	fp, r3
        p_gain_filter[idx] = p_gain_filter[idx] > gain_min ? p_gain_filter[idx] : gain_min;
    ea70:	ece1 7a01 	vstmia	r1!, {s15}
    for(uint32_t idx=0; idx<cmplx_pair_num; idx++)
    ea74:	d1e2      	bne.n	ea3c <scnr_process+0xd8>
//        AM_APP_LOG_DEBUG("%f, %f, \n\r", p_sn_mag[idx], p_n_mag[idx]);
    }

//    AM_APP_LOG_DEBUG("\n\n\r");
    arm_cmplx_mult_real_f32(p_s_cmplx, p_gain_filter, &roll_buff_cmplx[(lookback-1)*2*cmplx_pair_num], cmplx_pair_num);
    ea76:	e9d7 2103 	ldrd	r2, r1, [r7, #12]
    ea7a:	68b8      	ldr	r0, [r7, #8]
    ea7c:	465b      	mov	r3, fp
    ea7e:	f002 fb4b 	bl	11118 <arm_cmplx_mult_real_f32>
}
    ea82:	3724      	adds	r7, #36	; 0x24
    ea84:	46bd      	mov	sp, r7
    ea86:	ecbd 8b02 	vpop	{d8}
    ea8a:	e8bd 8ff0 	ldmia.w	sp!, {r4, r5, r6, r7, r8, r9, sl, fp, pc}
    ea8e:	bf00      	nop
    ea90:	00000000 	.word	0x00000000

0000ea94 <am_bsp_uart_string_print>:
    ea94:	b510      	push	{r4, lr}
    ea96:	b086      	sub	sp, #24
    ea98:	7803      	ldrb	r3, [r0, #0]
    ea9a:	2400      	movs	r4, #0
    ea9c:	9400      	str	r4, [sp, #0]
    ea9e:	b1bb      	cbz	r3, ead0 <am_bsp_uart_string_print+0x3c>
    eaa0:	4603      	mov	r3, r0
    eaa2:	f813 2f01 	ldrb.w	r2, [r3, #1]!
    eaa6:	3401      	adds	r4, #1
    eaa8:	2a00      	cmp	r2, #0
    eaaa:	d1fa      	bne.n	eaa2 <am_bsp_uart_string_print+0xe>
    eaac:	4b0a      	ldr	r3, [pc, #40]	; (ead8 <am_bsp_uart_string_print+0x44>)
    eaae:	9002      	str	r0, [sp, #8]
    eab0:	2200      	movs	r2, #0
    eab2:	6818      	ldr	r0, [r3, #0]
    eab4:	9403      	str	r4, [sp, #12]
    eab6:	f04f 33ff 	mov.w	r3, #4294967295	; 0xffffffff
    eaba:	a901      	add	r1, sp, #4
    eabc:	9304      	str	r3, [sp, #16]
    eabe:	9201      	str	r2, [sp, #4]
    eac0:	f8cd d014 	str.w	sp, [sp, #20]
    eac4:	f001 fb18 	bl	100f8 <am_hal_uart_transfer>
    eac8:	9b00      	ldr	r3, [sp, #0]
    eaca:	42a3      	cmp	r3, r4
    eacc:	d002      	beq.n	ead4 <am_bsp_uart_string_print+0x40>
    eace:	e7fe      	b.n	eace <am_bsp_uart_string_print+0x3a>
    ead0:	461c      	mov	r4, r3
    ead2:	e7eb      	b.n	eaac <am_bsp_uart_string_print+0x18>
    ead4:	b006      	add	sp, #24
    ead6:	bd10      	pop	{r4, pc}
    ead8:	1000c5a8 	.word	0x1000c5a8

0000eadc <am_bsp_low_power_init>:
    eadc:	b5f8      	push	{r3, r4, r5, r6, r7, lr}
    eade:	f001 f8d1 	bl	fc84 <am_hal_pwrctrl_low_power_init>
    eae2:	f001 f941 	bl	fd68 <am_hal_rtc_osc_disable>
    eae6:	4b0b      	ldr	r3, [pc, #44]	; (eb14 <am_bsp_low_power_init+0x38>)
    eae8:	4f0b      	ldr	r7, [pc, #44]	; (eb18 <am_bsp_low_power_init+0x3c>)
    eaea:	681e      	ldr	r6, [r3, #0]
    eaec:	2400      	movs	r4, #0
    eaee:	f857 5034 	ldr.w	r5, [r7, r4, lsl #3]
    eaf2:	4631      	mov	r1, r6
    eaf4:	4628      	mov	r0, r5
    eaf6:	f000 fc3d 	bl	f374 <am_hal_gpio_pinconfig>
    eafa:	2103      	movs	r1, #3
    eafc:	4628      	mov	r0, r5
    eafe:	f000 fda7 	bl	f650 <am_hal_gpio_state_write>
    eb02:	3401      	adds	r4, #1
    eb04:	4628      	mov	r0, r5
    eb06:	2100      	movs	r1, #0
    eb08:	f000 fda2 	bl	f650 <am_hal_gpio_state_write>
    eb0c:	2c05      	cmp	r4, #5
    eb0e:	d1ee      	bne.n	eaee <am_bsp_low_power_init+0x12>
    eb10:	bdf8      	pop	{r3, r4, r5, r6, r7, pc}
    eb12:	bf00      	nop
    eb14:	0001354c 	.word	0x0001354c
    eb18:	1000c00c 	.word	0x1000c00c

0000eb1c <am_bsp_uart_printf_enable>:
    eb1c:	b510      	push	{r4, lr}
    eb1e:	4c10      	ldr	r4, [pc, #64]	; (eb60 <am_bsp_uart_printf_enable+0x44>)
    eb20:	4b10      	ldr	r3, [pc, #64]	; (eb64 <am_bsp_uart_printf_enable+0x48>)
    eb22:	4621      	mov	r1, r4
    eb24:	2202      	movs	r2, #2
    eb26:	2000      	movs	r0, #0
    eb28:	601a      	str	r2, [r3, #0]
    eb2a:	f001 f927 	bl	fd7c <am_hal_uart_initialize>
    eb2e:	2200      	movs	r2, #0
    eb30:	4611      	mov	r1, r2
    eb32:	6820      	ldr	r0, [r4, #0]
    eb34:	f001 f94a 	bl	fdcc <am_hal_uart_power_control>
    eb38:	6820      	ldr	r0, [r4, #0]
    eb3a:	490b      	ldr	r1, [pc, #44]	; (eb68 <am_bsp_uart_printf_enable+0x4c>)
    eb3c:	f001 f9b8 	bl	feb0 <am_hal_uart_configure>
    eb40:	4b0a      	ldr	r3, [pc, #40]	; (eb6c <am_bsp_uart_printf_enable+0x50>)
    eb42:	2016      	movs	r0, #22
    eb44:	6819      	ldr	r1, [r3, #0]
    eb46:	f000 fc15 	bl	f374 <am_hal_gpio_pinconfig>
    eb4a:	4b09      	ldr	r3, [pc, #36]	; (eb70 <am_bsp_uart_printf_enable+0x54>)
    eb4c:	2017      	movs	r0, #23
    eb4e:	6819      	ldr	r1, [r3, #0]
    eb50:	f000 fc10 	bl	f374 <am_hal_gpio_pinconfig>
    eb54:	4807      	ldr	r0, [pc, #28]	; (eb74 <am_bsp_uart_printf_enable+0x58>)
    eb56:	e8bd 4010 	ldmia.w	sp!, {r4, lr}
    eb5a:	f7fe bab7 	b.w	d0cc <am_util_stdio_printf_init>
    eb5e:	bf00      	nop
    eb60:	1000c5a8 	.word	0x1000c5a8
    eb64:	1000c5a4 	.word	0x1000c5a4
    eb68:	000133e0 	.word	0x000133e0
    eb6c:	00013408 	.word	0x00013408
    eb70:	0001340c 	.word	0x0001340c
    eb74:	0000ea95 	.word	0x0000ea95

0000eb78 <am_hal_burst_mode_initialize>:
    eb78:	b570      	push	{r4, r5, r6, lr}
    eb7a:	4b1e      	ldr	r3, [pc, #120]	; (ebf4 <am_hal_burst_mode_initialize+0x7c>)
    eb7c:	695a      	ldr	r2, [r3, #20]
    eb7e:	07d5      	lsls	r5, r2, #31
    eb80:	b082      	sub	sp, #8
    eb82:	4604      	mov	r4, r0
    eb84:	d407      	bmi.n	eb96 <am_hal_burst_mode_initialize+0x1e>
    eb86:	4a1c      	ldr	r2, [pc, #112]	; (ebf8 <am_hal_burst_mode_initialize+0x80>)
    eb88:	2100      	movs	r1, #0
    eb8a:	2301      	movs	r3, #1
    eb8c:	7011      	strb	r1, [r2, #0]
    eb8e:	2007      	movs	r0, #7
    eb90:	7023      	strb	r3, [r4, #0]
    eb92:	b002      	add	sp, #8
    eb94:	bd70      	pop	{r4, r5, r6, pc}
    eb96:	4a19      	ldr	r2, [pc, #100]	; (ebfc <am_hal_burst_mode_initialize+0x84>)
    eb98:	6a91      	ldr	r1, [r2, #40]	; 0x28
    eb9a:	f041 4100 	orr.w	r1, r1, #2147483648	; 0x80000000
    eb9e:	6291      	str	r1, [r2, #40]	; 0x28
    eba0:	6812      	ldr	r2, [r2, #0]
    eba2:	07d0      	lsls	r0, r2, #31
    eba4:	d507      	bpl.n	ebb6 <am_hal_burst_mode_initialize+0x3e>
    eba6:	68db      	ldr	r3, [r3, #12]
    eba8:	b2db      	uxtb	r3, r3
    ebaa:	2b11      	cmp	r3, #17
    ebac:	d903      	bls.n	ebb6 <am_hal_burst_mode_initialize+0x3e>
    ebae:	f04f 2340 	mov.w	r3, #1073758208	; 0x40004000
    ebb2:	4a13      	ldr	r2, [pc, #76]	; (ec00 <am_hal_burst_mode_initialize+0x88>)
    ebb4:	63da      	str	r2, [r3, #60]	; 0x3c
    ebb6:	4d0f      	ldr	r5, [pc, #60]	; (ebf4 <am_hal_burst_mode_initialize+0x7c>)
    ebb8:	4912      	ldr	r1, [pc, #72]	; (ec04 <am_hal_burst_mode_initialize+0x8c>)
    ebba:	7e2a      	ldrb	r2, [r5, #24]
    ebbc:	2601      	movs	r6, #1
    ebbe:	f042 0210 	orr.w	r2, r2, #16
    ebc2:	2320      	movs	r3, #32
    ebc4:	762a      	strb	r2, [r5, #24]
    ebc6:	f242 7010 	movw	r0, #10000	; 0x2710
    ebca:	461a      	mov	r2, r3
    ebcc:	9600      	str	r6, [sp, #0]
    ebce:	f000 fb8d 	bl	f2ec <am_hal_flash_delay_status_check>
    ebd2:	b948      	cbnz	r0, ebe8 <am_hal_burst_mode_initialize+0x70>
    ebd4:	69aa      	ldr	r2, [r5, #24]
    ebd6:	0651      	lsls	r1, r2, #25
    ebd8:	d5d5      	bpl.n	eb86 <am_hal_burst_mode_initialize+0xe>
    ebda:	69aa      	ldr	r2, [r5, #24]
    ebdc:	0692      	lsls	r2, r2, #26
    ebde:	d5d2      	bpl.n	eb86 <am_hal_burst_mode_initialize+0xe>
    ebe0:	4a05      	ldr	r2, [pc, #20]	; (ebf8 <am_hal_burst_mode_initialize+0x80>)
    ebe2:	7016      	strb	r6, [r2, #0]
    ebe4:	7020      	strb	r0, [r4, #0]
    ebe6:	e7d4      	b.n	eb92 <am_hal_burst_mode_initialize+0x1a>
    ebe8:	4a03      	ldr	r2, [pc, #12]	; (ebf8 <am_hal_burst_mode_initialize+0x80>)
    ebea:	2100      	movs	r1, #0
    ebec:	7011      	strb	r1, [r2, #0]
    ebee:	7026      	strb	r6, [r4, #0]
    ebf0:	b002      	add	sp, #8
    ebf2:	bd70      	pop	{r4, r5, r6, pc}
    ebf4:	40020000 	.word	0x40020000
    ebf8:	1000c5ac 	.word	0x1000c5ac
    ebfc:	40021000 	.word	0x40021000
    ec00:	0fc0400f 	.word	0x0fc0400f
    ec04:	40020018 	.word	0x40020018

0000ec08 <am_hal_burst_mode_enable>:
    ec08:	4b14      	ldr	r3, [pc, #80]	; (ec5c <am_hal_burst_mode_enable+0x54>)
    ec0a:	781b      	ldrb	r3, [r3, #0]
    ec0c:	b91b      	cbnz	r3, ec16 <am_hal_burst_mode_enable+0xe>
    ec0e:	2301      	movs	r3, #1
    ec10:	7003      	strb	r3, [r0, #0]
    ec12:	2007      	movs	r0, #7
    ec14:	4770      	bx	lr
    ec16:	b570      	push	{r4, r5, r6, lr}
    ec18:	f04f 2540 	mov.w	r5, #1073758208	; 0x40004000
    ec1c:	b082      	sub	sp, #8
    ec1e:	f895 2034 	ldrb.w	r2, [r5, #52]	; 0x34
    ec22:	490f      	ldr	r1, [pc, #60]	; (ec60 <am_hal_burst_mode_enable+0x58>)
    ec24:	2601      	movs	r6, #1
    ec26:	4332      	orrs	r2, r6
    ec28:	2304      	movs	r3, #4
    ec2a:	f885 2034 	strb.w	r2, [r5, #52]	; 0x34
    ec2e:	4604      	mov	r4, r0
    ec30:	461a      	mov	r2, r3
    ec32:	9600      	str	r6, [sp, #0]
    ec34:	f242 7010 	movw	r0, #10000	; 0x2710
    ec38:	f000 fb58 	bl	f2ec <am_hal_flash_delay_status_check>
    ec3c:	b938      	cbnz	r0, ec4e <am_hal_burst_mode_enable+0x46>
    ec3e:	6b6b      	ldr	r3, [r5, #52]	; 0x34
    ec40:	079a      	lsls	r2, r3, #30
    ec42:	d507      	bpl.n	ec54 <am_hal_burst_mode_enable+0x4c>
    ec44:	6b6b      	ldr	r3, [r5, #52]	; 0x34
    ec46:	075b      	lsls	r3, r3, #29
    ec48:	d501      	bpl.n	ec4e <am_hal_burst_mode_enable+0x46>
    ec4a:	7020      	strb	r0, [r4, #0]
    ec4c:	e000      	b.n	ec50 <am_hal_burst_mode_enable+0x48>
    ec4e:	7026      	strb	r6, [r4, #0]
    ec50:	b002      	add	sp, #8
    ec52:	bd70      	pop	{r4, r5, r6, pc}
    ec54:	7026      	strb	r6, [r4, #0]
    ec56:	4630      	mov	r0, r6
    ec58:	e7fa      	b.n	ec50 <am_hal_burst_mode_enable+0x48>
    ec5a:	bf00      	nop
    ec5c:	1000c5ac 	.word	0x1000c5ac
    ec60:	40004034 	.word	0x40004034

0000ec64 <am_hal_cachectrl_config>:
    ec64:	b530      	push	{r4, r5, lr}
    ec66:	b083      	sub	sp, #12
    ec68:	4605      	mov	r5, r0
    ec6a:	f000 fd7b 	bl	f764 <am_hal_interrupt_master_disable>
    ec6e:	4c0f      	ldr	r4, [pc, #60]	; (ecac <am_hal_cachectrl_config+0x48>)
    ec70:	9001      	str	r0, [sp, #4]
    ec72:	6823      	ldr	r3, [r4, #0]
    ec74:	f423 7340 	bic.w	r3, r3, #768	; 0x300
    ec78:	6023      	str	r3, [r4, #0]
    ec7a:	9801      	ldr	r0, [sp, #4]
    ec7c:	f000 fd76 	bl	f76c <am_hal_interrupt_master_set>
    ec80:	78ab      	ldrb	r3, [r5, #2]
    ec82:	782a      	ldrb	r2, [r5, #0]
    ec84:	7869      	ldrb	r1, [r5, #1]
    ec86:	005b      	lsls	r3, r3, #1
    ec88:	0112      	lsls	r2, r2, #4
    ec8a:	b2d2      	uxtb	r2, r2
    ec8c:	f003 0302 	and.w	r3, r3, #2
    ec90:	4313      	orrs	r3, r2
    ec92:	f443 1380 	orr.w	r3, r3, #1048576	; 0x100000
    ec96:	020a      	lsls	r2, r1, #8
    ec98:	f402 7240 	and.w	r2, r2, #768	; 0x300
    ec9c:	f443 6380 	orr.w	r3, r3, #1024	; 0x400
    eca0:	4313      	orrs	r3, r2
    eca2:	2000      	movs	r0, #0
    eca4:	6023      	str	r3, [r4, #0]
    eca6:	b003      	add	sp, #12
    eca8:	bd30      	pop	{r4, r5, pc}
    ecaa:	bf00      	nop
    ecac:	40018000 	.word	0x40018000

0000ecb0 <am_hal_cachectrl_enable>:
    ecb0:	4a03      	ldr	r2, [pc, #12]	; (ecc0 <am_hal_cachectrl_enable+0x10>)
    ecb2:	6813      	ldr	r3, [r2, #0]
    ecb4:	f043 0301 	orr.w	r3, r3, #1
    ecb8:	6013      	str	r3, [r2, #0]
    ecba:	2000      	movs	r0, #0
    ecbc:	4770      	bx	lr
    ecbe:	bf00      	nop
    ecc0:	40018000 	.word	0x40018000

0000ecc4 <am_hal_cachectrl_control>:
    ecc4:	b510      	push	{r4, lr}
    ecc6:	3801      	subs	r0, #1
    ecc8:	b08e      	sub	sp, #56	; 0x38
    ecca:	2810      	cmp	r0, #16
    eccc:	f200 8143 	bhi.w	ef56 <am_hal_cachectrl_control+0x292>
    ecd0:	e8df f010 	tbh	[pc, r0, lsl #1]
    ecd4:	01380136 	.word	0x01380136
    ecd8:	0011013e 	.word	0x0011013e
    ecdc:	001a0018 	.word	0x001a0018
    ece0:	001f001c 	.word	0x001f001c
    ece4:	00300022 	.word	0x00300022
    ece8:	0074003c 	.word	0x0074003c
    ecec:	00e400ac 	.word	0x00e400ac
    ecf0:	011a00ff 	.word	0x011a00ff
    ecf4:	0120      	.short	0x0120
    ecf6:	f44f 7208 	mov.w	r2, #544	; 0x220
    ecfa:	4ba8      	ldr	r3, [pc, #672]	; (ef9c <am_hal_cachectrl_control+0x2d8>)
    ecfc:	2000      	movs	r0, #0
    ecfe:	609a      	str	r2, [r3, #8]
    ed00:	b00e      	add	sp, #56	; 0x38
    ed02:	bd10      	pop	{r4, pc}
    ed04:	2240      	movs	r2, #64	; 0x40
    ed06:	e7f8      	b.n	ecfa <am_hal_cachectrl_control+0x36>
    ed08:	2220      	movs	r2, #32
    ed0a:	e7f6      	b.n	ecfa <am_hal_cachectrl_control+0x36>
    ed0c:	f44f 6280 	mov.w	r2, #1024	; 0x400
    ed10:	e7f3      	b.n	ecfa <am_hal_cachectrl_control+0x36>
    ed12:	f44f 7200 	mov.w	r2, #512	; 0x200
    ed16:	e7f0      	b.n	ecfa <am_hal_cachectrl_control+0x36>
    ed18:	f000 fd24 	bl	f764 <am_hal_interrupt_master_disable>
    ed1c:	4a9f      	ldr	r2, [pc, #636]	; (ef9c <am_hal_cachectrl_control+0x2d8>)
    ed1e:	9000      	str	r0, [sp, #0]
    ed20:	6813      	ldr	r3, [r2, #0]
    ed22:	f043 7380 	orr.w	r3, r3, #16777216	; 0x1000000
    ed26:	6013      	str	r3, [r2, #0]
    ed28:	9800      	ldr	r0, [sp, #0]
    ed2a:	f000 fd1f 	bl	f76c <am_hal_interrupt_master_set>
    ed2e:	2000      	movs	r0, #0
    ed30:	b00e      	add	sp, #56	; 0x38
    ed32:	bd10      	pop	{r4, pc}
    ed34:	f000 fd16 	bl	f764 <am_hal_interrupt_master_disable>
    ed38:	4a98      	ldr	r2, [pc, #608]	; (ef9c <am_hal_cachectrl_control+0x2d8>)
    ed3a:	9001      	str	r0, [sp, #4]
    ed3c:	6813      	ldr	r3, [r2, #0]
    ed3e:	f023 7380 	bic.w	r3, r3, #16777216	; 0x1000000
    ed42:	6013      	str	r3, [r2, #0]
    ed44:	9801      	ldr	r0, [sp, #4]
    ed46:	f000 fd11 	bl	f76c <am_hal_interrupt_master_set>
    ed4a:	e7f0      	b.n	ed2e <am_hal_cachectrl_control+0x6a>
    ed4c:	f000 fd0a 	bl	f764 <am_hal_interrupt_master_disable>
    ed50:	4603      	mov	r3, r0
    ed52:	4893      	ldr	r0, [pc, #588]	; (efa0 <am_hal_cachectrl_control+0x2dc>)
    ed54:	9302      	str	r3, [sp, #8]
    ed56:	f000 fb03 	bl	f360 <am_hal_flash_load_ui32>
    ed5a:	f420 517c 	bic.w	r1, r0, #16128	; 0x3f00
    ed5e:	f441 61e0 	orr.w	r1, r1, #1792	; 0x700
    ed62:	488f      	ldr	r0, [pc, #572]	; (efa0 <am_hal_cachectrl_control+0x2dc>)
    ed64:	f000 fb00 	bl	f368 <am_hal_flash_store_ui32>
    ed68:	9802      	ldr	r0, [sp, #8]
    ed6a:	f000 fcff 	bl	f76c <am_hal_interrupt_master_set>
    ed6e:	f000 fcf9 	bl	f764 <am_hal_interrupt_master_disable>
    ed72:	4603      	mov	r3, r0
    ed74:	488a      	ldr	r0, [pc, #552]	; (efa0 <am_hal_cachectrl_control+0x2dc>)
    ed76:	9303      	str	r3, [sp, #12]
    ed78:	f000 faf2 	bl	f360 <am_hal_flash_load_ui32>
    ed7c:	f420 6177 	bic.w	r1, r0, #3952	; 0xf70
    ed80:	f441 61ee 	orr.w	r1, r1, #1904	; 0x770
    ed84:	4886      	ldr	r0, [pc, #536]	; (efa0 <am_hal_cachectrl_control+0x2dc>)
    ed86:	f000 faef 	bl	f368 <am_hal_flash_store_ui32>
    ed8a:	9803      	ldr	r0, [sp, #12]
    ed8c:	f000 fcee 	bl	f76c <am_hal_interrupt_master_set>
    ed90:	f000 fce8 	bl	f764 <am_hal_interrupt_master_disable>
    ed94:	4603      	mov	r3, r0
    ed96:	4882      	ldr	r0, [pc, #520]	; (efa0 <am_hal_cachectrl_control+0x2dc>)
    ed98:	9304      	str	r3, [sp, #16]
    ed9a:	f000 fae1 	bl	f360 <am_hal_flash_load_ui32>
    ed9e:	f420 6170 	bic.w	r1, r0, #3840	; 0xf00
    eda2:	f021 010f 	bic.w	r1, r1, #15
    eda6:	f441 61e0 	orr.w	r1, r1, #1792	; 0x700
    edaa:	f041 0103 	orr.w	r1, r1, #3
    edae:	487c      	ldr	r0, [pc, #496]	; (efa0 <am_hal_cachectrl_control+0x2dc>)
    edb0:	f000 fada 	bl	f368 <am_hal_flash_store_ui32>
    edb4:	9804      	ldr	r0, [sp, #16]
    edb6:	f000 fcd9 	bl	f76c <am_hal_interrupt_master_set>
    edba:	e7b8      	b.n	ed2e <am_hal_cachectrl_control+0x6a>
    edbc:	f000 fcd2 	bl	f764 <am_hal_interrupt_master_disable>
    edc0:	4603      	mov	r3, r0
    edc2:	4877      	ldr	r0, [pc, #476]	; (efa0 <am_hal_cachectrl_control+0x2dc>)
    edc4:	9305      	str	r3, [sp, #20]
    edc6:	f000 facb 	bl	f360 <am_hal_flash_load_ui32>
    edca:	f420 517c 	bic.w	r1, r0, #16128	; 0x3f00
    edce:	f441 51b8 	orr.w	r1, r1, #5888	; 0x1700
    edd2:	4873      	ldr	r0, [pc, #460]	; (efa0 <am_hal_cachectrl_control+0x2dc>)
    edd4:	f000 fac8 	bl	f368 <am_hal_flash_store_ui32>
    edd8:	9805      	ldr	r0, [sp, #20]
    edda:	f000 fcc7 	bl	f76c <am_hal_interrupt_master_set>
    edde:	f000 fcc1 	bl	f764 <am_hal_interrupt_master_disable>
    ede2:	4603      	mov	r3, r0
    ede4:	486e      	ldr	r0, [pc, #440]	; (efa0 <am_hal_cachectrl_control+0x2dc>)
    ede6:	9306      	str	r3, [sp, #24]
    ede8:	f000 faba 	bl	f360 <am_hal_flash_load_ui32>
    edec:	f420 6177 	bic.w	r1, r0, #3952	; 0xf70
    edf0:	f441 61ea 	orr.w	r1, r1, #1872	; 0x750
    edf4:	486a      	ldr	r0, [pc, #424]	; (efa0 <am_hal_cachectrl_control+0x2dc>)
    edf6:	f000 fab7 	bl	f368 <am_hal_flash_store_ui32>
    edfa:	9806      	ldr	r0, [sp, #24]
    edfc:	f000 fcb6 	bl	f76c <am_hal_interrupt_master_set>
    ee00:	f000 fcb0 	bl	f764 <am_hal_interrupt_master_disable>
    ee04:	4603      	mov	r3, r0
    ee06:	4866      	ldr	r0, [pc, #408]	; (efa0 <am_hal_cachectrl_control+0x2dc>)
    ee08:	9307      	str	r3, [sp, #28]
    ee0a:	f000 faa9 	bl	f360 <am_hal_flash_load_ui32>
    ee0e:	f420 6170 	bic.w	r1, r0, #3840	; 0xf00
    ee12:	f021 010f 	bic.w	r1, r1, #15
    ee16:	f441 61e0 	orr.w	r1, r1, #1792	; 0x700
    ee1a:	f041 0101 	orr.w	r1, r1, #1
    ee1e:	4860      	ldr	r0, [pc, #384]	; (efa0 <am_hal_cachectrl_control+0x2dc>)
    ee20:	f000 faa2 	bl	f368 <am_hal_flash_store_ui32>
    ee24:	9807      	ldr	r0, [sp, #28]
    ee26:	f000 fca1 	bl	f76c <am_hal_interrupt_master_set>
    ee2a:	e780      	b.n	ed2e <am_hal_cachectrl_control+0x6a>
    ee2c:	f000 fc9a 	bl	f764 <am_hal_interrupt_master_disable>
    ee30:	4603      	mov	r3, r0
    ee32:	485b      	ldr	r0, [pc, #364]	; (efa0 <am_hal_cachectrl_control+0x2dc>)
    ee34:	9308      	str	r3, [sp, #32]
    ee36:	f000 fa93 	bl	f360 <am_hal_flash_load_ui32>
    ee3a:	f420 517c 	bic.w	r1, r0, #16128	; 0x3f00
    ee3e:	f441 51b8 	orr.w	r1, r1, #5888	; 0x1700
    ee42:	4857      	ldr	r0, [pc, #348]	; (efa0 <am_hal_cachectrl_control+0x2dc>)
    ee44:	f000 fa90 	bl	f368 <am_hal_flash_store_ui32>
    ee48:	9808      	ldr	r0, [sp, #32]
    ee4a:	f000 fc8f 	bl	f76c <am_hal_interrupt_master_set>
    ee4e:	f000 fc89 	bl	f764 <am_hal_interrupt_master_disable>
    ee52:	4603      	mov	r3, r0
    ee54:	4852      	ldr	r0, [pc, #328]	; (efa0 <am_hal_cachectrl_control+0x2dc>)
    ee56:	9309      	str	r3, [sp, #36]	; 0x24
    ee58:	f000 fa82 	bl	f360 <am_hal_flash_load_ui32>
    ee5c:	f420 6177 	bic.w	r1, r0, #3952	; 0xf70
    ee60:	f441 61ec 	orr.w	r1, r1, #1888	; 0x760
    ee64:	484e      	ldr	r0, [pc, #312]	; (efa0 <am_hal_cachectrl_control+0x2dc>)
    ee66:	f000 fa7f 	bl	f368 <am_hal_flash_store_ui32>
    ee6a:	9809      	ldr	r0, [sp, #36]	; 0x24
    ee6c:	f000 fc7e 	bl	f76c <am_hal_interrupt_master_set>
    ee70:	f000 fc78 	bl	f764 <am_hal_interrupt_master_disable>
    ee74:	4603      	mov	r3, r0
    ee76:	484a      	ldr	r0, [pc, #296]	; (efa0 <am_hal_cachectrl_control+0x2dc>)
    ee78:	930a      	str	r3, [sp, #40]	; 0x28
    ee7a:	f000 fa71 	bl	f360 <am_hal_flash_load_ui32>
    ee7e:	f420 6170 	bic.w	r1, r0, #3840	; 0xf00
    ee82:	f021 010f 	bic.w	r1, r1, #15
    ee86:	f441 61e0 	orr.w	r1, r1, #1792	; 0x700
    ee8a:	f041 0101 	orr.w	r1, r1, #1
    ee8e:	4844      	ldr	r0, [pc, #272]	; (efa0 <am_hal_cachectrl_control+0x2dc>)
    ee90:	f000 fa6a 	bl	f368 <am_hal_flash_store_ui32>
    ee94:	980a      	ldr	r0, [sp, #40]	; 0x28
    ee96:	f000 fc69 	bl	f76c <am_hal_interrupt_master_set>
    ee9a:	e748      	b.n	ed2e <am_hal_cachectrl_control+0x6a>
    ee9c:	2900      	cmp	r1, #0
    ee9e:	d05a      	beq.n	ef56 <am_hal_cachectrl_control+0x292>
    eea0:	680c      	ldr	r4, [r1, #0]
    eea2:	2c03      	cmp	r4, #3
    eea4:	d834      	bhi.n	ef10 <am_hal_cachectrl_control+0x24c>
    eea6:	f000 fc5d 	bl	f764 <am_hal_interrupt_master_disable>
    eeaa:	4603      	mov	r3, r0
    eeac:	483c      	ldr	r0, [pc, #240]	; (efa0 <am_hal_cachectrl_control+0x2dc>)
    eeae:	930b      	str	r3, [sp, #44]	; 0x2c
    eeb0:	f000 fa56 	bl	f360 <am_hal_flash_load_ui32>
    eeb4:	0323      	lsls	r3, r4, #12
    eeb6:	f403 5340 	and.w	r3, r3, #12288	; 0x3000
    eeba:	f443 63e0 	orr.w	r3, r3, #1792	; 0x700
    eebe:	f420 517c 	bic.w	r1, r0, #16128	; 0x3f00
    eec2:	4319      	orrs	r1, r3
    eec4:	4836      	ldr	r0, [pc, #216]	; (efa0 <am_hal_cachectrl_control+0x2dc>)
    eec6:	f000 fa4f 	bl	f368 <am_hal_flash_store_ui32>
    eeca:	980b      	ldr	r0, [sp, #44]	; 0x2c
    eecc:	f000 fc4e 	bl	f76c <am_hal_interrupt_master_set>
    eed0:	e72d      	b.n	ed2e <am_hal_cachectrl_control+0x6a>
    eed2:	2900      	cmp	r1, #0
    eed4:	d03f      	beq.n	ef56 <am_hal_cachectrl_control+0x292>
    eed6:	680c      	ldr	r4, [r1, #0]
    eed8:	2c07      	cmp	r4, #7
    eeda:	d819      	bhi.n	ef10 <am_hal_cachectrl_control+0x24c>
    eedc:	f000 fc42 	bl	f764 <am_hal_interrupt_master_disable>
    eee0:	4603      	mov	r3, r0
    eee2:	482f      	ldr	r0, [pc, #188]	; (efa0 <am_hal_cachectrl_control+0x2dc>)
    eee4:	930c      	str	r3, [sp, #48]	; 0x30
    eee6:	f000 fa3b 	bl	f360 <am_hal_flash_load_ui32>
    eeea:	0123      	lsls	r3, r4, #4
    eeec:	f003 0370 	and.w	r3, r3, #112	; 0x70
    eef0:	f443 63e0 	orr.w	r3, r3, #1792	; 0x700
    eef4:	f420 6177 	bic.w	r1, r0, #3952	; 0xf70
    eef8:	4319      	orrs	r1, r3
    eefa:	4829      	ldr	r0, [pc, #164]	; (efa0 <am_hal_cachectrl_control+0x2dc>)
    eefc:	f000 fa34 	bl	f368 <am_hal_flash_store_ui32>
    ef00:	980c      	ldr	r0, [sp, #48]	; 0x30
    ef02:	f000 fc33 	bl	f76c <am_hal_interrupt_master_set>
    ef06:	e712      	b.n	ed2e <am_hal_cachectrl_control+0x6a>
    ef08:	b329      	cbz	r1, ef56 <am_hal_cachectrl_control+0x292>
    ef0a:	680c      	ldr	r4, [r1, #0]
    ef0c:	2c0f      	cmp	r4, #15
    ef0e:	d926      	bls.n	ef5e <am_hal_cachectrl_control+0x29a>
    ef10:	2001      	movs	r0, #1
    ef12:	e6f5      	b.n	ed00 <am_hal_cachectrl_control+0x3c>
    ef14:	b1f9      	cbz	r1, ef56 <am_hal_cachectrl_control+0x292>
    ef16:	684a      	ldr	r2, [r1, #4]
    ef18:	4b22      	ldr	r3, [pc, #136]	; (efa4 <am_hal_cachectrl_control+0x2e0>)
    ef1a:	4013      	ands	r3, r2
    ef1c:	b9db      	cbnz	r3, ef56 <am_hal_cachectrl_control+0x292>
    ef1e:	688b      	ldr	r3, [r1, #8]
    ef20:	4820      	ldr	r0, [pc, #128]	; (efa4 <am_hal_cachectrl_control+0x2e0>)
    ef22:	4018      	ands	r0, r3
    ef24:	b9b8      	cbnz	r0, ef56 <am_hal_cachectrl_control+0x292>
    ef26:	780c      	ldrb	r4, [r1, #0]
    ef28:	b374      	cbz	r4, ef88 <am_hal_cachectrl_control+0x2c4>
    ef2a:	2c01      	cmp	r4, #1
    ef2c:	d113      	bne.n	ef56 <am_hal_cachectrl_control+0x292>
    ef2e:	4c1b      	ldr	r4, [pc, #108]	; (ef9c <am_hal_cachectrl_control+0x2d8>)
    ef30:	61a2      	str	r2, [r4, #24]
    ef32:	61e3      	str	r3, [r4, #28]
    ef34:	784a      	ldrb	r2, [r1, #1]
    ef36:	6823      	ldr	r3, [r4, #0]
    ef38:	f362 03c3 	bfi	r3, r2, #3, #1
    ef3c:	6023      	str	r3, [r4, #0]
    ef3e:	e6df      	b.n	ed00 <am_hal_cachectrl_control+0x3c>
    ef40:	2201      	movs	r2, #1
    ef42:	e6da      	b.n	ecfa <am_hal_cachectrl_control+0x36>
    ef44:	4b15      	ldr	r3, [pc, #84]	; (ef9c <am_hal_cachectrl_control+0x2d8>)
    ef46:	681b      	ldr	r3, [r3, #0]
    ef48:	01db      	lsls	r3, r3, #7
    ef4a:	d406      	bmi.n	ef5a <am_hal_cachectrl_control+0x296>
    ef4c:	2007      	movs	r0, #7
    ef4e:	e6d7      	b.n	ed00 <am_hal_cachectrl_control+0x3c>
    ef50:	f44f 6288 	mov.w	r2, #1088	; 0x440
    ef54:	e6d1      	b.n	ecfa <am_hal_cachectrl_control+0x36>
    ef56:	2006      	movs	r0, #6
    ef58:	e6d2      	b.n	ed00 <am_hal_cachectrl_control+0x3c>
    ef5a:	2202      	movs	r2, #2
    ef5c:	e6cd      	b.n	ecfa <am_hal_cachectrl_control+0x36>
    ef5e:	f000 fc01 	bl	f764 <am_hal_interrupt_master_disable>
    ef62:	4603      	mov	r3, r0
    ef64:	480e      	ldr	r0, [pc, #56]	; (efa0 <am_hal_cachectrl_control+0x2dc>)
    ef66:	930d      	str	r3, [sp, #52]	; 0x34
    ef68:	f000 f9fa 	bl	f360 <am_hal_flash_load_ui32>
    ef6c:	f420 6170 	bic.w	r1, r0, #3840	; 0xf00
    ef70:	f444 64e0 	orr.w	r4, r4, #1792	; 0x700
    ef74:	f021 010f 	bic.w	r1, r1, #15
    ef78:	4321      	orrs	r1, r4
    ef7a:	4809      	ldr	r0, [pc, #36]	; (efa0 <am_hal_cachectrl_control+0x2dc>)
    ef7c:	f000 f9f4 	bl	f368 <am_hal_flash_store_ui32>
    ef80:	980d      	ldr	r0, [sp, #52]	; 0x34
    ef82:	f000 fbf3 	bl	f76c <am_hal_interrupt_master_set>
    ef86:	e6d2      	b.n	ed2e <am_hal_cachectrl_control+0x6a>
    ef88:	4c04      	ldr	r4, [pc, #16]	; (ef9c <am_hal_cachectrl_control+0x2d8>)
    ef8a:	6122      	str	r2, [r4, #16]
    ef8c:	6163      	str	r3, [r4, #20]
    ef8e:	784a      	ldrb	r2, [r1, #1]
    ef90:	6823      	ldr	r3, [r4, #0]
    ef92:	f362 0382 	bfi	r3, r2, #2, #1
    ef96:	6023      	str	r3, [r4, #0]
    ef98:	e6b2      	b.n	ed00 <am_hal_cachectrl_control+0x3c>
    ef9a:	bf00      	nop
    ef9c:	40018000 	.word	0x40018000
    efa0:	40018004 	.word	0x40018004
    efa4:	f800000f 	.word	0xf800000f

0000efa8 <am_hal_clkgen_control>:
    efa8:	4b41      	ldr	r3, [pc, #260]	; (f0b0 <am_hal_clkgen_control+0x108>)
    efaa:	681a      	ldr	r2, [r3, #0]
    efac:	b912      	cbnz	r2, efb4 <am_hal_clkgen_control+0xc>
    efae:	4a41      	ldr	r2, [pc, #260]	; (f0b4 <am_hal_clkgen_control+0x10c>)
    efb0:	6812      	ldr	r2, [r2, #0]
    efb2:	601a      	str	r2, [r3, #0]
    efb4:	2809      	cmp	r0, #9
    efb6:	d878      	bhi.n	f0aa <am_hal_clkgen_control+0x102>
    efb8:	e8df f000 	tbb	[pc, r0]
    efbc:	261e160d 	.word	0x261e160d
    efc0:	524c423a 	.word	0x524c423a
    efc4:	055a      	.short	0x055a
    efc6:	f04f 2340 	mov.w	r3, #1073758208	; 0x40004000
    efca:	2000      	movs	r0, #0
    efcc:	6a1a      	ldr	r2, [r3, #32]
    efce:	f36f 0200 	bfc	r2, #0, #1
    efd2:	621a      	str	r2, [r3, #32]
    efd4:	4770      	bx	lr
    efd6:	f04f 2340 	mov.w	r3, #1073758208	; 0x40004000
    efda:	2200      	movs	r2, #0
    efdc:	2147      	movs	r1, #71	; 0x47
    efde:	6159      	str	r1, [r3, #20]
    efe0:	4610      	mov	r0, r2
    efe2:	619a      	str	r2, [r3, #24]
    efe4:	615a      	str	r2, [r3, #20]
    efe6:	4770      	bx	lr
    efe8:	f04f 2240 	mov.w	r2, #1073758208	; 0x40004000
    efec:	2000      	movs	r0, #0
    efee:	68d3      	ldr	r3, [r2, #12]
    eff0:	f023 0301 	bic.w	r3, r3, #1
    eff4:	60d3      	str	r3, [r2, #12]
    eff6:	4770      	bx	lr
    eff8:	f04f 2240 	mov.w	r2, #1073758208	; 0x40004000
    effc:	2000      	movs	r0, #0
    effe:	68d3      	ldr	r3, [r2, #12]
    f000:	f023 0302 	bic.w	r3, r3, #2
    f004:	60d3      	str	r3, [r2, #12]
    f006:	4770      	bx	lr
    f008:	4a2b      	ldr	r2, [pc, #172]	; (f0b8 <am_hal_clkgen_control+0x110>)
    f00a:	68d3      	ldr	r3, [r2, #12]
    f00c:	b2db      	uxtb	r3, r3
    f00e:	2b21      	cmp	r3, #33	; 0x21
    f010:	d106      	bne.n	f020 <am_hal_clkgen_control+0x78>
    f012:	f8b2 3120 	ldrh.w	r3, [r2, #288]	; 0x120
    f016:	2101      	movs	r1, #1
    f018:	f361 2309 	bfi	r3, r1, #8, #2
    f01c:	f8a2 3120 	strh.w	r3, [r2, #288]	; 0x120
    f020:	f04f 2240 	mov.w	r2, #1073758208	; 0x40004000
    f024:	2000      	movs	r0, #0
    f026:	68d3      	ldr	r3, [r2, #12]
    f028:	f043 0301 	orr.w	r3, r3, #1
    f02c:	60d3      	str	r3, [r2, #12]
    f02e:	4770      	bx	lr
    f030:	f04f 2240 	mov.w	r2, #1073758208	; 0x40004000
    f034:	2000      	movs	r0, #0
    f036:	68d3      	ldr	r3, [r2, #12]
    f038:	f043 0302 	orr.w	r3, r3, #2
    f03c:	60d3      	str	r3, [r2, #12]
    f03e:	4770      	bx	lr
    f040:	f04f 2340 	mov.w	r3, #1073758208	; 0x40004000
    f044:	2200      	movs	r2, #0
    f046:	2047      	movs	r0, #71	; 0x47
    f048:	2101      	movs	r1, #1
    f04a:	6158      	str	r0, [r3, #20]
    f04c:	6199      	str	r1, [r3, #24]
    f04e:	4610      	mov	r0, r2
    f050:	615a      	str	r2, [r3, #20]
    f052:	4770      	bx	lr
    f054:	f04f 2340 	mov.w	r3, #1073758208	; 0x40004000
    f058:	2000      	movs	r0, #0
    f05a:	68da      	ldr	r2, [r3, #12]
    f05c:	60da      	str	r2, [r3, #12]
    f05e:	4770      	bx	lr
    f060:	f04f 2240 	mov.w	r2, #1073758208	; 0x40004000
    f064:	2000      	movs	r0, #0
    f066:	68d3      	ldr	r3, [r2, #12]
    f068:	f043 0380 	orr.w	r3, r3, #128	; 0x80
    f06c:	60d3      	str	r3, [r2, #12]
    f06e:	4770      	bx	lr
    f070:	b510      	push	{r4, lr}
    f072:	4a11      	ldr	r2, [pc, #68]	; (f0b8 <am_hal_clkgen_control+0x110>)
    f074:	68d3      	ldr	r3, [r2, #12]
    f076:	b2db      	uxtb	r3, r3
    f078:	2b21      	cmp	r3, #33	; 0x21
    f07a:	460c      	mov	r4, r1
    f07c:	d008      	beq.n	f090 <am_hal_clkgen_control+0xe8>
    f07e:	b194      	cbz	r4, f0a6 <am_hal_clkgen_control+0xfe>
    f080:	6823      	ldr	r3, [r4, #0]
    f082:	f043 0301 	orr.w	r3, r3, #1
    f086:	f04f 2240 	mov.w	r2, #1073758208	; 0x40004000
    f08a:	2000      	movs	r0, #0
    f08c:	6213      	str	r3, [r2, #32]
    f08e:	bd10      	pop	{r4, pc}
    f090:	f8b2 3120 	ldrh.w	r3, [r2, #288]	; 0x120
    f094:	f443 7340 	orr.w	r3, r3, #768	; 0x300
    f098:	f8a2 3120 	strh.w	r3, [r2, #288]	; 0x120
    f09c:	f44f 507a 	mov.w	r0, #16000	; 0x3e80
    f0a0:	f000 f914 	bl	f2cc <am_hal_flash_delay>
    f0a4:	e7eb      	b.n	f07e <am_hal_clkgen_control+0xd6>
    f0a6:	4b05      	ldr	r3, [pc, #20]	; (f0bc <am_hal_clkgen_control+0x114>)
    f0a8:	e7ed      	b.n	f086 <am_hal_clkgen_control+0xde>
    f0aa:	2006      	movs	r0, #6
    f0ac:	4770      	bx	lr
    f0ae:	bf00      	nop
    f0b0:	1000c5b0 	.word	0x1000c5b0
    f0b4:	4ffff000 	.word	0x4ffff000
    f0b8:	40020000 	.word	0x40020000
    f0bc:	0025b801 	.word	0x0025b801

0000f0c0 <am_hal_clkgen_status_get>:
    f0c0:	b1a8      	cbz	r0, f0ee <am_hal_clkgen_status_get+0x2e>
    f0c2:	b410      	push	{r4}
    f0c4:	f04f 2240 	mov.w	r2, #1073758208	; 0x40004000
    f0c8:	490a      	ldr	r1, [pc, #40]	; (f0f4 <am_hal_clkgen_status_get+0x34>)
    f0ca:	6994      	ldr	r4, [r2, #24]
    f0cc:	4b0a      	ldr	r3, [pc, #40]	; (f0f8 <am_hal_clkgen_status_get+0x38>)
    f0ce:	f014 0f01 	tst.w	r4, #1
    f0d2:	bf08      	it	eq
    f0d4:	460b      	moveq	r3, r1
    f0d6:	6003      	str	r3, [r0, #0]
    f0d8:	69d3      	ldr	r3, [r2, #28]
    f0da:	f85d 4b04 	ldr.w	r4, [sp], #4
    f0de:	f003 0201 	and.w	r2, r3, #1
    f0e2:	f3c3 0340 	ubfx	r3, r3, #1, #1
    f0e6:	6042      	str	r2, [r0, #4]
    f0e8:	7203      	strb	r3, [r0, #8]
    f0ea:	2000      	movs	r0, #0
    f0ec:	4770      	bx	lr
    f0ee:	2006      	movs	r0, #6
    f0f0:	4770      	bx	lr
    f0f2:	bf00      	nop
    f0f4:	02dc6c00 	.word	0x02dc6c00
    f0f8:	016e3600 	.word	0x016e3600

0000f0fc <am_hal_ctimer_config>:
    f0fc:	b570      	push	{r4, r5, r6, lr}
    f0fe:	e891 001c 	ldmia.w	r1, {r2, r3, r4}
    f102:	2a00      	cmp	r2, #0
    f104:	b082      	sub	sp, #8
    f106:	bf18      	it	ne
    f108:	f04f 4200 	movne.w	r2, #2147483648	; 0x80000000
    f10c:	ea43 4304 	orr.w	r3, r3, r4, lsl #16
    f110:	ea42 0403 	orr.w	r4, r2, r3
    f114:	460d      	mov	r5, r1
    f116:	4606      	mov	r6, r0
    f118:	f000 fb24 	bl	f764 <am_hal_interrupt_master_disable>
    f11c:	4b0d      	ldr	r3, [pc, #52]	; (f154 <am_hal_ctimer_config+0x58>)
    f11e:	9001      	str	r0, [sp, #4]
    f120:	0172      	lsls	r2, r6, #5
    f122:	50d4      	str	r4, [r2, r3]
    f124:	9801      	ldr	r0, [sp, #4]
    f126:	f000 fb21 	bl	f76c <am_hal_interrupt_master_set>
    f12a:	686b      	ldr	r3, [r5, #4]
    f12c:	b90b      	cbnz	r3, f132 <am_hal_ctimer_config+0x36>
    f12e:	682a      	ldr	r2, [r5, #0]
    f130:	b142      	cbz	r2, f144 <am_hal_ctimer_config+0x48>
    f132:	f3c3 0344 	ubfx	r3, r3, #1, #5
    f136:	2100      	movs	r1, #0
    f138:	4a07      	ldr	r2, [pc, #28]	; (f158 <am_hal_ctimer_config+0x5c>)
    f13a:	eb02 0646 	add.w	r6, r2, r6, lsl #1
    f13e:	5473      	strb	r3, [r6, r1]
    f140:	b002      	add	sp, #8
    f142:	bd70      	pop	{r4, r5, r6, pc}
    f144:	68ab      	ldr	r3, [r5, #8]
    f146:	2b00      	cmp	r3, #0
    f148:	d0fa      	beq.n	f140 <am_hal_ctimer_config+0x44>
    f14a:	f3c3 0344 	ubfx	r3, r3, #1, #5
    f14e:	2101      	movs	r1, #1
    f150:	e7f2      	b.n	f138 <am_hal_ctimer_config+0x3c>
    f152:	bf00      	nop
    f154:	4000800c 	.word	0x4000800c
    f158:	1000c034 	.word	0x1000c034

0000f15c <am_hal_ctimer_start>:
    f15c:	b570      	push	{r4, r5, r6, lr}
    f15e:	b082      	sub	sp, #8
    f160:	460c      	mov	r4, r1
    f162:	0146      	lsls	r6, r0, #5
    f164:	4605      	mov	r5, r0
    f166:	f000 fafd 	bl	f764 <am_hal_interrupt_master_disable>
    f16a:	4a0f      	ldr	r2, [pc, #60]	; (f1a8 <am_hal_ctimer_start+0x4c>)
    f16c:	9001      	str	r0, [sp, #4]
    f16e:	58b3      	ldr	r3, [r6, r2]
    f170:	f004 2108 	and.w	r1, r4, #134219776	; 0x8000800
    f174:	ea23 0301 	bic.w	r3, r3, r1
    f178:	f004 1101 	and.w	r1, r4, #65537	; 0x10001
    f17c:	430b      	orrs	r3, r1
    f17e:	f514 3f80 	cmn.w	r4, #65536	; 0x10000
    f182:	bf0c      	ite	eq
    f184:	f3c3 4444 	ubfxeq	r4, r3, #17, #5
    f188:	f3c3 0444 	ubfxne	r4, r3, #1, #5
    f18c:	50b3      	str	r3, [r6, r2]
    f18e:	4b07      	ldr	r3, [pc, #28]	; (f1ac <am_hal_ctimer_start+0x50>)
    f190:	9801      	ldr	r0, [sp, #4]
    f192:	bf0c      	ite	eq
    f194:	2101      	moveq	r1, #1
    f196:	2100      	movne	r1, #0
    f198:	eb03 0345 	add.w	r3, r3, r5, lsl #1
    f19c:	545c      	strb	r4, [r3, r1]
    f19e:	f000 fae5 	bl	f76c <am_hal_interrupt_master_set>
    f1a2:	b002      	add	sp, #8
    f1a4:	bd70      	pop	{r4, r5, r6, pc}
    f1a6:	bf00      	nop
    f1a8:	4000800c 	.word	0x4000800c
    f1ac:	1000c034 	.word	0x1000c034

0000f1b0 <am_hal_ctimer_clear>:
    f1b0:	b570      	push	{r4, r5, r6, lr}
    f1b2:	b082      	sub	sp, #8
    f1b4:	0146      	lsls	r6, r0, #5
    f1b6:	460c      	mov	r4, r1
    f1b8:	f000 fad4 	bl	f764 <am_hal_interrupt_master_disable>
    f1bc:	4d05      	ldr	r5, [pc, #20]	; (f1d4 <am_hal_ctimer_clear+0x24>)
    f1be:	9001      	str	r0, [sp, #4]
    f1c0:	5973      	ldr	r3, [r6, r5]
    f1c2:	f004 2108 	and.w	r1, r4, #134219776	; 0x8000800
    f1c6:	4319      	orrs	r1, r3
    f1c8:	5171      	str	r1, [r6, r5]
    f1ca:	9801      	ldr	r0, [sp, #4]
    f1cc:	f000 face 	bl	f76c <am_hal_interrupt_master_set>
    f1d0:	b002      	add	sp, #8
    f1d2:	bd70      	pop	{r4, r5, r6, pc}
    f1d4:	4000800c 	.word	0x4000800c

0000f1d8 <am_hal_ctimer_period_set>:
    f1d8:	e92d 47f0 	stmdb	sp!, {r4, r5, r6, r7, r8, r9, sl, lr}
    f1dc:	b082      	sub	sp, #8
    f1de:	4689      	mov	r9, r1
    f1e0:	4698      	mov	r8, r3
    f1e2:	0147      	lsls	r7, r0, #5
    f1e4:	4614      	mov	r4, r2
    f1e6:	f000 fabd 	bl	f764 <am_hal_interrupt_master_disable>
    f1ea:	f8df a094 	ldr.w	sl, [pc, #148]	; f280 <am_hal_ctimer_period_set+0xa8>
    f1ee:	9001      	str	r0, [sp, #4]
    f1f0:	f519 3f80 	cmn.w	r9, #65536	; 0x10000
    f1f4:	4d20      	ldr	r5, [pc, #128]	; (f278 <am_hal_ctimer_period_set+0xa0>)
    f1f6:	4e21      	ldr	r6, [pc, #132]	; (f27c <am_hal_ctimer_period_set+0xa4>)
    f1f8:	f857 300a 	ldr.w	r3, [r7, sl]
    f1fc:	d01a      	beq.n	f234 <am_hal_ctimer_period_set+0x5c>
    f1fe:	f403 73c0 	and.w	r3, r3, #384	; 0x180
    f202:	2b80      	cmp	r3, #128	; 0x80
    f204:	d01b      	beq.n	f23e <am_hal_ctimer_period_set+0x66>
    f206:	f64f 72ff 	movw	r2, #65535	; 0xffff
    f20a:	2000      	movs	r0, #0
    f20c:	4591      	cmp	r9, r2
    f20e:	4603      	mov	r3, r0
    f210:	d01e      	beq.n	f250 <am_hal_ctimer_period_set+0x78>
    f212:	f519 3f80 	cmn.w	r9, #65536	; 0x10000
    f216:	d025      	beq.n	f264 <am_hal_ctimer_period_set+0x8c>
    f218:	0c1b      	lsrs	r3, r3, #16
    f21a:	b2a2      	uxth	r2, r4
    f21c:	041b      	lsls	r3, r3, #16
    f21e:	4310      	orrs	r0, r2
    f220:	ea43 4314 	orr.w	r3, r3, r4, lsr #16
    f224:	5178      	str	r0, [r7, r5]
    f226:	51bb      	str	r3, [r7, r6]
    f228:	9801      	ldr	r0, [sp, #4]
    f22a:	f000 fa9f 	bl	f76c <am_hal_interrupt_master_set>
    f22e:	b002      	add	sp, #8
    f230:	e8bd 87f0 	ldmia.w	sp!, {r4, r5, r6, r7, r8, r9, sl, pc}
    f234:	0c1b      	lsrs	r3, r3, #16
    f236:	f403 73c0 	and.w	r3, r3, #384	; 0x180
    f23a:	2b80      	cmp	r3, #128	; 0x80
    f23c:	d111      	bne.n	f262 <am_hal_ctimer_period_set+0x8a>
    f23e:	f64f 72ff 	movw	r2, #65535	; 0xffff
    f242:	4591      	cmp	r9, r2
    f244:	ea4f 4004 	mov.w	r0, r4, lsl #16
    f248:	4623      	mov	r3, r4
    f24a:	ebc8 0404 	rsb	r4, r8, r4
    f24e:	d1e0      	bne.n	f212 <am_hal_ctimer_period_set+0x3a>
    f250:	b2a3      	uxth	r3, r4
    f252:	4318      	orrs	r0, r3
    f254:	5178      	str	r0, [r7, r5]
    f256:	9801      	ldr	r0, [sp, #4]
    f258:	f000 fa88 	bl	f76c <am_hal_interrupt_master_set>
    f25c:	b002      	add	sp, #8
    f25e:	e8bd 87f0 	ldmia.w	sp!, {r4, r5, r6, r7, r8, r9, sl, pc}
    f262:	2000      	movs	r0, #0
    f264:	b2a3      	uxth	r3, r4
    f266:	4318      	orrs	r0, r3
    f268:	51b8      	str	r0, [r7, r6]
    f26a:	9801      	ldr	r0, [sp, #4]
    f26c:	f000 fa7e 	bl	f76c <am_hal_interrupt_master_set>
    f270:	b002      	add	sp, #8
    f272:	e8bd 87f0 	ldmia.w	sp!, {r4, r5, r6, r7, r8, r9, sl, pc}
    f276:	bf00      	nop
    f278:	40008004 	.word	0x40008004
    f27c:	40008008 	.word	0x40008008
    f280:	4000800c 	.word	0x4000800c

0000f284 <am_hal_ctimer_int_enable>:
    f284:	b510      	push	{r4, lr}
    f286:	b082      	sub	sp, #8
    f288:	4604      	mov	r4, r0
    f28a:	f000 fa6b 	bl	f764 <am_hal_interrupt_master_disable>
    f28e:	4b06      	ldr	r3, [pc, #24]	; (f2a8 <am_hal_ctimer_int_enable+0x24>)
    f290:	9001      	str	r0, [sp, #4]
    f292:	f8d3 2200 	ldr.w	r2, [r3, #512]	; 0x200
    f296:	4314      	orrs	r4, r2
    f298:	f8c3 4200 	str.w	r4, [r3, #512]	; 0x200
    f29c:	9801      	ldr	r0, [sp, #4]
    f29e:	f000 fa65 	bl	f76c <am_hal_interrupt_master_set>
    f2a2:	b002      	add	sp, #8
    f2a4:	bd10      	pop	{r4, pc}
    f2a6:	bf00      	nop
    f2a8:	40008000 	.word	0x40008000

0000f2ac <am_hal_ctimer_int_clear>:
    f2ac:	b510      	push	{r4, lr}
    f2ae:	b082      	sub	sp, #8
    f2b0:	4604      	mov	r4, r0
    f2b2:	f000 fa57 	bl	f764 <am_hal_interrupt_master_disable>
    f2b6:	4b04      	ldr	r3, [pc, #16]	; (f2c8 <am_hal_ctimer_int_clear+0x1c>)
    f2b8:	9001      	str	r0, [sp, #4]
    f2ba:	f8c3 4208 	str.w	r4, [r3, #520]	; 0x208
    f2be:	9801      	ldr	r0, [sp, #4]
    f2c0:	f000 fa54 	bl	f76c <am_hal_interrupt_master_set>
    f2c4:	b002      	add	sp, #8
    f2c6:	bd10      	pop	{r4, pc}
    f2c8:	40008000 	.word	0x40008000

0000f2cc <am_hal_flash_delay>:
    f2cc:	f04f 2340 	mov.w	r3, #1073758208	; 0x40004000
    f2d0:	6b5b      	ldr	r3, [r3, #52]	; 0x34
    f2d2:	075b      	lsls	r3, r3, #29
    f2d4:	bf46      	itte	mi
    f2d6:	0040      	lslmi	r0, r0, #1
    f2d8:	230e      	movmi	r3, #14
    f2da:	230b      	movpl	r3, #11
    f2dc:	4298      	cmp	r0, r3
    f2de:	d800      	bhi.n	f2e2 <am_hal_flash_delay+0x16>
    f2e0:	4770      	bx	lr
    f2e2:	1ac0      	subs	r0, r0, r3
    f2e4:	4b00      	ldr	r3, [pc, #0]	; (f2e8 <am_hal_flash_delay+0x1c>)
    f2e6:	4718      	bx	r3
    f2e8:	0800009d 	.word	0x0800009d

0000f2ec <am_hal_flash_delay_status_check>:
    f2ec:	e92d 43f8 	stmdb	sp!, {r3, r4, r5, r6, r7, r8, r9, lr}
    f2f0:	f89d 4020 	ldrb.w	r4, [sp, #32]
    f2f4:	460d      	mov	r5, r1
    f2f6:	4616      	mov	r6, r2
    f2f8:	461f      	mov	r7, r3
    f2fa:	b1b4      	cbz	r4, f32a <am_hal_flash_delay_status_check+0x3e>
    f2fc:	4604      	mov	r4, r0
    f2fe:	f04f 2940 	mov.w	r9, #1073758208	; 0x40004000
    f302:	f8df 8058 	ldr.w	r8, [pc, #88]	; f35c <am_hal_flash_delay_status_check+0x70>
    f306:	e009      	b.n	f31c <am_hal_flash_delay_status_check+0x30>
    f308:	b324      	cbz	r4, f354 <am_hal_flash_delay_status_check+0x68>
    f30a:	f8d9 3034 	ldr.w	r3, [r9, #52]	; 0x34
    f30e:	f013 0f04 	tst.w	r3, #4
    f312:	bf14      	ite	ne
    f314:	2012      	movne	r0, #18
    f316:	2005      	moveq	r0, #5
    f318:	3c01      	subs	r4, #1
    f31a:	47c0      	blx	r8
    f31c:	682b      	ldr	r3, [r5, #0]
    f31e:	4033      	ands	r3, r6
    f320:	429f      	cmp	r7, r3
    f322:	d1f1      	bne.n	f308 <am_hal_flash_delay_status_check+0x1c>
    f324:	2000      	movs	r0, #0
    f326:	e8bd 83f8 	ldmia.w	sp!, {r3, r4, r5, r6, r7, r8, r9, pc}
    f32a:	f8df 8030 	ldr.w	r8, [pc, #48]	; f35c <am_hal_flash_delay_status_check+0x70>
    f32e:	4604      	mov	r4, r0
    f330:	f04f 2940 	mov.w	r9, #1073758208	; 0x40004000
    f334:	e009      	b.n	f34a <am_hal_flash_delay_status_check+0x5e>
    f336:	b16c      	cbz	r4, f354 <am_hal_flash_delay_status_check+0x68>
    f338:	f8d9 3034 	ldr.w	r3, [r9, #52]	; 0x34
    f33c:	f013 0f04 	tst.w	r3, #4
    f340:	bf14      	ite	ne
    f342:	2012      	movne	r0, #18
    f344:	2005      	moveq	r0, #5
    f346:	3c01      	subs	r4, #1
    f348:	47c0      	blx	r8
    f34a:	682b      	ldr	r3, [r5, #0]
    f34c:	4033      	ands	r3, r6
    f34e:	429f      	cmp	r7, r3
    f350:	d0f1      	beq.n	f336 <am_hal_flash_delay_status_check+0x4a>
    f352:	e7e7      	b.n	f324 <am_hal_flash_delay_status_check+0x38>
    f354:	2004      	movs	r0, #4
    f356:	e8bd 83f8 	ldmia.w	sp!, {r3, r4, r5, r6, r7, r8, r9, pc}
    f35a:	bf00      	nop
    f35c:	0800009d 	.word	0x0800009d

0000f360 <am_hal_flash_load_ui32>:
    f360:	4b00      	ldr	r3, [pc, #0]	; (f364 <am_hal_flash_load_ui32+0x4>)
    f362:	4718      	bx	r3
    f364:	08000075 	.word	0x08000075

0000f368 <am_hal_flash_store_ui32>:
    f368:	4b01      	ldr	r3, [pc, #4]	; (f370 <am_hal_flash_store_ui32+0x8>)
    f36a:	f043 0301 	orr.w	r3, r3, #1
    f36e:	4718      	bx	r3
    f370:	1000c044 	.word	0x1000c044

0000f374 <am_hal_gpio_pinconfig>:
    f374:	2831      	cmp	r0, #49	; 0x31
    f376:	d901      	bls.n	f37c <am_hal_gpio_pinconfig+0x8>
    f378:	2006      	movs	r0, #6
    f37a:	4770      	bx	lr
    f37c:	e92d 4ff0 	stmdb	sp!, {r4, r5, r6, r7, r8, r9, sl, fp, lr}
    f380:	f001 0307 	and.w	r3, r1, #7
    f384:	f011 06e0 	ands.w	r6, r1, #224	; 0xe0
    f388:	b085      	sub	sp, #20
    f38a:	ea4f 02c3 	mov.w	r2, r3, lsl #3
    f38e:	f3c1 04c1 	ubfx	r4, r1, #3, #2
    f392:	d014      	beq.n	f3be <am_hal_gpio_pinconfig+0x4a>
    f394:	f3c1 1742 	ubfx	r7, r1, #5, #3
    f398:	1dbd      	adds	r5, r7, #6
    f39a:	f005 0507 	and.w	r5, r5, #7
    f39e:	2d03      	cmp	r5, #3
    f3a0:	f042 0201 	orr.w	r2, r2, #1
    f3a4:	f200 80a7 	bhi.w	f4f6 <am_hal_gpio_pinconfig+0x182>
    f3a8:	4d82      	ldr	r5, [pc, #520]	; (f5b4 <am_hal_gpio_pinconfig+0x240>)
    f3aa:	5c2d      	ldrb	r5, [r5, r0]
    f3ac:	07ee      	lsls	r6, r5, #31
    f3ae:	d403      	bmi.n	f3b8 <am_hal_gpio_pinconfig+0x44>
    f3b0:	4881      	ldr	r0, [pc, #516]	; (f5b8 <am_hal_gpio_pinconfig+0x244>)
    f3b2:	b005      	add	sp, #20
    f3b4:	e8bd 8ff0 	ldmia.w	sp!, {r4, r5, r6, r7, r8, r9, sl, fp, pc}
    f3b8:	3f02      	subs	r7, #2
    f3ba:	ea42 1287 	orr.w	r2, r2, r7, lsl #6
    f3be:	2c00      	cmp	r4, #0
    f3c0:	f040 8091 	bne.w	f4e6 <am_hal_gpio_pinconfig+0x172>
    f3c4:	4c7d      	ldr	r4, [pc, #500]	; (f5bc <am_hal_gpio_pinconfig+0x248>)
    f3c6:	4d7e      	ldr	r5, [pc, #504]	; (f5c0 <am_hal_gpio_pinconfig+0x24c>)
    f3c8:	5c24      	ldrb	r4, [r4, r0]
    f3ca:	5c2d      	ldrb	r5, [r5, r0]
    f3cc:	411c      	asrs	r4, r3
    f3ce:	f014 0f01 	tst.w	r4, #1
    f3d2:	bf0c      	ite	eq
    f3d4:	2400      	moveq	r4, #0
    f3d6:	2402      	movne	r4, #2
    f3d8:	42ab      	cmp	r3, r5
    f3da:	ea42 0204 	orr.w	r2, r2, r4
    f3de:	f000 8096 	beq.w	f50e <am_hal_gpio_pinconfig+0x19a>
    f3e2:	f3c1 3341 	ubfx	r3, r1, #13, #2
    f3e6:	105d      	asrs	r5, r3, #1
    f3e8:	f3c1 2681 	ubfx	r6, r1, #10, #2
    f3ec:	00db      	lsls	r3, r3, #3
    f3ee:	f3c1 2e07 	ubfx	lr, r1, #8, #8
    f3f2:	f003 0408 	and.w	r4, r3, #8
    f3f6:	ea45 0346 	orr.w	r3, r5, r6, lsl #1
    f3fa:	f00e 060c 	and.w	r6, lr, #12
    f3fe:	f3c1 3500 	ubfx	r5, r1, #12, #1
    f402:	2e04      	cmp	r6, #4
    f404:	ea43 0304 	orr.w	r3, r3, r4
    f408:	ea42 0245 	orr.w	r2, r2, r5, lsl #1
    f40c:	462c      	mov	r4, r5
    f40e:	f000 808b 	beq.w	f528 <am_hal_gpio_pinconfig+0x1b4>
    f412:	4c6c      	ldr	r4, [pc, #432]	; (f5c4 <am_hal_gpio_pinconfig+0x250>)
    f414:	6827      	ldr	r7, [r4, #0]
    f416:	1bcf      	subs	r7, r1, r7
    f418:	fab7 f787 	clz	r7, r7
    f41c:	097f      	lsrs	r7, r7, #5
    f41e:	f01e 0f60 	tst.w	lr, #96	; 0x60
    f422:	bf04      	itt	eq
    f424:	f3c1 34c0 	ubfxeq	r4, r1, #15, #1
    f428:	f364 0300 	bfieq	r3, r4, #0, #1
    f42c:	0084      	lsls	r4, r0, #2
    f42e:	f3c1 2101 	ubfx	r1, r1, #8, #2
    f432:	2902      	cmp	r1, #2
    f434:	ea4f 05c0 	mov.w	r5, r0, lsl #3
    f438:	d078      	beq.n	f52c <am_hal_gpio_pinconfig+0x1b8>
    f43a:	d87f      	bhi.n	f53c <am_hal_gpio_pinconfig+0x1c8>
    f43c:	2901      	cmp	r1, #1
    f43e:	f04f 0100 	mov.w	r1, #0
    f442:	bf08      	it	eq
    f444:	f042 0204 	orreq.w	r2, r2, #4
    f448:	f005 0518 	and.w	r5, r5, #24
    f44c:	9101      	str	r1, [sp, #4]
    f44e:	f004 041c 	and.w	r4, r4, #28
    f452:	f020 0a03 	bic.w	sl, r0, #3
    f456:	f04f 090f 	mov.w	r9, #15
    f45a:	fa09 f904 	lsl.w	r9, r9, r4
    f45e:	0841      	lsrs	r1, r0, #1
    f460:	26ff      	movs	r6, #255	; 0xff
    f462:	fa03 f404 	lsl.w	r4, r3, r4
    f466:	f10a 4380 	add.w	r3, sl, #1073741824	; 0x40000000
    f46a:	40ae      	lsls	r6, r5
    f46c:	9300      	str	r3, [sp, #0]
    f46e:	fa02 f505 	lsl.w	r5, r2, r5
    f472:	4683      	mov	fp, r0
    f474:	f021 0803 	bic.w	r8, r1, #3
    f478:	f000 f974 	bl	f764 <am_hal_interrupt_master_disable>
    f47c:	9b00      	ldr	r3, [sp, #0]
    f47e:	9003      	str	r0, [sp, #12]
    f480:	ea6f 0909 	mvn.w	r9, r9
    f484:	43f6      	mvns	r6, r6
    f486:	f503 3380 	add.w	r3, r3, #65536	; 0x10000
    f48a:	f8df e15c 	ldr.w	lr, [pc, #348]	; f5e8 <am_hal_gpio_pinconfig+0x274>
    f48e:	4a4e      	ldr	r2, [pc, #312]	; (f5c8 <am_hal_gpio_pinconfig+0x254>)
    f490:	b15f      	cbz	r7, f4aa <am_hal_gpio_pinconfig+0x136>
    f492:	ea4f 07db 	mov.w	r7, fp, lsr #3
    f496:	f00b 001f 	and.w	r0, fp, #31
    f49a:	f007 0704 	and.w	r7, r7, #4
    f49e:	f04f 0b01 	mov.w	fp, #1
    f4a2:	494a      	ldr	r1, [pc, #296]	; (f5cc <am_hal_gpio_pinconfig+0x258>)
    f4a4:	fa0b f000 	lsl.w	r0, fp, r0
    f4a8:	5078      	str	r0, [r7, r1]
    f4aa:	4849      	ldr	r0, [pc, #292]	; (f5d0 <am_hal_gpio_pinconfig+0x25c>)
    f4ac:	2773      	movs	r7, #115	; 0x73
    f4ae:	6607      	str	r7, [r0, #96]	; 0x60
    f4b0:	681f      	ldr	r7, [r3, #0]
    f4b2:	4037      	ands	r7, r6
    f4b4:	433d      	orrs	r5, r7
    f4b6:	601d      	str	r5, [r3, #0]
    f4b8:	f858 300e 	ldr.w	r3, [r8, lr]
    f4bc:	ea09 0303 	and.w	r3, r9, r3
    f4c0:	4323      	orrs	r3, r4
    f4c2:	f848 300e 	str.w	r3, [r8, lr]
    f4c6:	f85a 3002 	ldr.w	r3, [sl, r2]
    f4ca:	401e      	ands	r6, r3
    f4cc:	9b01      	ldr	r3, [sp, #4]
    f4ce:	2400      	movs	r4, #0
    f4d0:	431e      	orrs	r6, r3
    f4d2:	f84a 6002 	str.w	r6, [sl, r2]
    f4d6:	6604      	str	r4, [r0, #96]	; 0x60
    f4d8:	9803      	ldr	r0, [sp, #12]
    f4da:	f000 f947 	bl	f76c <am_hal_interrupt_master_set>
    f4de:	4620      	mov	r0, r4
    f4e0:	b005      	add	sp, #20
    f4e2:	e8bd 8ff0 	ldmia.w	sp!, {r4, r5, r6, r7, r8, r9, sl, fp, pc}
    f4e6:	2c01      	cmp	r4, #1
    f4e8:	d017      	beq.n	f51a <am_hal_gpio_pinconfig+0x1a6>
    f4ea:	2c02      	cmp	r4, #2
    f4ec:	d035      	beq.n	f55a <am_hal_gpio_pinconfig+0x1e6>
    f4ee:	4839      	ldr	r0, [pc, #228]	; (f5d4 <am_hal_gpio_pinconfig+0x260>)
    f4f0:	b005      	add	sp, #20
    f4f2:	e8bd 8ff0 	ldmia.w	sp!, {r4, r5, r6, r7, r8, r9, sl, fp, pc}
    f4f6:	2ec0      	cmp	r6, #192	; 0xc0
    f4f8:	d02a      	beq.n	f550 <am_hal_gpio_pinconfig+0x1dc>
    f4fa:	2e20      	cmp	r6, #32
    f4fc:	f47f af5f 	bne.w	f3be <am_hal_gpio_pinconfig+0x4a>
    f500:	2814      	cmp	r0, #20
    f502:	f43f af55 	beq.w	f3b0 <am_hal_gpio_pinconfig+0x3c>
    f506:	2c00      	cmp	r4, #0
    f508:	f43f af5c 	beq.w	f3c4 <am_hal_gpio_pinconfig+0x50>
    f50c:	e7eb      	b.n	f4e6 <am_hal_gpio_pinconfig+0x172>
    f50e:	f3c1 4402 	ubfx	r4, r1, #16, #3
    f512:	2c07      	cmp	r4, #7
    f514:	d128      	bne.n	f568 <am_hal_gpio_pinconfig+0x1f4>
    f516:	4830      	ldr	r0, [pc, #192]	; (f5d8 <am_hal_gpio_pinconfig+0x264>)
    f518:	e74b      	b.n	f3b2 <am_hal_gpio_pinconfig+0x3e>
    f51a:	4c26      	ldr	r4, [pc, #152]	; (f5b4 <am_hal_gpio_pinconfig+0x240>)
    f51c:	5c24      	ldrb	r4, [r4, r0]
    f51e:	07a5      	lsls	r5, r4, #30
    f520:	d5e5      	bpl.n	f4ee <am_hal_gpio_pinconfig+0x17a>
    f522:	f042 0240 	orr.w	r2, r2, #64	; 0x40
    f526:	e74d      	b.n	f3c4 <am_hal_gpio_pinconfig+0x50>
    f528:	2701      	movs	r7, #1
    f52a:	e778      	b.n	f41e <am_hal_gpio_pinconfig+0xaa>
    f52c:	f005 0518 	and.w	r5, r5, #24
    f530:	f04f 0801 	mov.w	r8, #1
    f534:	fa08 f105 	lsl.w	r1, r8, r5
    f538:	9101      	str	r1, [sp, #4]
    f53a:	e788      	b.n	f44e <am_hal_gpio_pinconfig+0xda>
    f53c:	f005 0518 	and.w	r5, r5, #24
    f540:	f04f 0801 	mov.w	r8, #1
    f544:	fa08 f105 	lsl.w	r1, r8, r5
    f548:	f042 0204 	orr.w	r2, r2, #4
    f54c:	9101      	str	r1, [sp, #4]
    f54e:	e77e      	b.n	f44e <am_hal_gpio_pinconfig+0xda>
    f550:	2814      	cmp	r0, #20
    f552:	f43f af34 	beq.w	f3be <am_hal_gpio_pinconfig+0x4a>
    f556:	4821      	ldr	r0, [pc, #132]	; (f5dc <am_hal_gpio_pinconfig+0x268>)
    f558:	e72b      	b.n	f3b2 <am_hal_gpio_pinconfig+0x3e>
    f55a:	4c16      	ldr	r4, [pc, #88]	; (f5b4 <am_hal_gpio_pinconfig+0x240>)
    f55c:	5c24      	ldrb	r4, [r4, r0]
    f55e:	0764      	lsls	r4, r4, #29
    f560:	d5c5      	bpl.n	f4ee <am_hal_gpio_pinconfig+0x17a>
    f562:	f042 0280 	orr.w	r2, r2, #128	; 0x80
    f566:	e72d      	b.n	f3c4 <am_hal_gpio_pinconfig+0x50>
    f568:	4d1d      	ldr	r5, [pc, #116]	; (f5e0 <am_hal_gpio_pinconfig+0x26c>)
    f56a:	f3c1 43c1 	ubfx	r3, r1, #19, #2
    f56e:	f815 6020 	ldrb.w	r6, [r5, r0, lsl #2]
    f572:	ea43 1304 	orr.w	r3, r3, r4, lsl #4
    f576:	429e      	cmp	r6, r3
    f578:	d00c      	beq.n	f594 <am_hal_gpio_pinconfig+0x220>
    f57a:	0084      	lsls	r4, r0, #2
    f57c:	4425      	add	r5, r4
    f57e:	786e      	ldrb	r6, [r5, #1]
    f580:	429e      	cmp	r6, r3
    f582:	d012      	beq.n	f5aa <am_hal_gpio_pinconfig+0x236>
    f584:	78ae      	ldrb	r6, [r5, #2]
    f586:	429e      	cmp	r6, r3
    f588:	d00d      	beq.n	f5a6 <am_hal_gpio_pinconfig+0x232>
    f58a:	78ed      	ldrb	r5, [r5, #3]
    f58c:	429d      	cmp	r5, r3
    f58e:	d00e      	beq.n	f5ae <am_hal_gpio_pinconfig+0x23a>
    f590:	4814      	ldr	r0, [pc, #80]	; (f5e4 <am_hal_gpio_pinconfig+0x270>)
    f592:	e70e      	b.n	f3b2 <am_hal_gpio_pinconfig+0x3e>
    f594:	2300      	movs	r3, #0
    f596:	0084      	lsls	r4, r0, #2
    f598:	005b      	lsls	r3, r3, #1
    f59a:	f3c1 5540 	ubfx	r5, r1, #21, #1
    f59e:	ea43 03c5 	orr.w	r3, r3, r5, lsl #3
    f5a2:	2700      	movs	r7, #0
    f5a4:	e743      	b.n	f42e <am_hal_gpio_pinconfig+0xba>
    f5a6:	2302      	movs	r3, #2
    f5a8:	e7f6      	b.n	f598 <am_hal_gpio_pinconfig+0x224>
    f5aa:	2301      	movs	r3, #1
    f5ac:	e7f4      	b.n	f598 <am_hal_gpio_pinconfig+0x224>
    f5ae:	2303      	movs	r3, #3
    f5b0:	e7f2      	b.n	f598 <am_hal_gpio_pinconfig+0x224>
    f5b2:	bf00      	nop
    f5b4:	00013418 	.word	0x00013418
    f5b8:	08000100 	.word	0x08000100
    f5bc:	00013514 	.word	0x00013514
    f5c0:	00013550 	.word	0x00013550
    f5c4:	00013548 	.word	0x00013548
    f5c8:	400100e0 	.word	0x400100e0
    f5cc:	400100b4 	.word	0x400100b4
    f5d0:	40010000 	.word	0x40010000
    f5d4:	08000102 	.word	0x08000102
    f5d8:	08000103 	.word	0x08000103
    f5dc:	08000101 	.word	0x08000101
    f5e0:	0001344c 	.word	0x0001344c
    f5e4:	08000104 	.word	0x08000104
    f5e8:	40010040 	.word	0x40010040

0000f5ec <am_hal_gpio_state_read>:
    f5ec:	b1ca      	cbz	r2, f622 <am_hal_gpio_state_read+0x36>
    f5ee:	2831      	cmp	r0, #49	; 0x31
    f5f0:	d904      	bls.n	f5fc <am_hal_gpio_state_read+0x10>
    f5f2:	f04f 33ff 	mov.w	r3, #4294967295	; 0xffffffff
    f5f6:	6013      	str	r3, [r2, #0]
    f5f8:	2005      	movs	r0, #5
    f5fa:	4770      	bx	lr
    f5fc:	08c3      	lsrs	r3, r0, #3
    f5fe:	2901      	cmp	r1, #1
    f600:	f003 0304 	and.w	r3, r3, #4
    f604:	f000 001f 	and.w	r0, r0, #31
    f608:	d00d      	beq.n	f626 <am_hal_gpio_state_read+0x3a>
    f60a:	d313      	bcc.n	f634 <am_hal_gpio_state_read+0x48>
    f60c:	2902      	cmp	r1, #2
    f60e:	d108      	bne.n	f622 <am_hal_gpio_state_read+0x36>
    f610:	490c      	ldr	r1, [pc, #48]	; (f644 <am_hal_gpio_state_read+0x58>)
    f612:	585b      	ldr	r3, [r3, r1]
    f614:	fa23 f000 	lsr.w	r0, r3, r0
    f618:	f000 0001 	and.w	r0, r0, #1
    f61c:	6010      	str	r0, [r2, #0]
    f61e:	2000      	movs	r0, #0
    f620:	4770      	bx	lr
    f622:	2006      	movs	r0, #6
    f624:	4770      	bx	lr
    f626:	4908      	ldr	r1, [pc, #32]	; (f648 <am_hal_gpio_state_read+0x5c>)
    f628:	585b      	ldr	r3, [r3, r1]
    f62a:	fa23 f000 	lsr.w	r0, r3, r0
    f62e:	f000 0001 	and.w	r0, r0, #1
    f632:	e7f3      	b.n	f61c <am_hal_gpio_state_read+0x30>
    f634:	4905      	ldr	r1, [pc, #20]	; (f64c <am_hal_gpio_state_read+0x60>)
    f636:	585b      	ldr	r3, [r3, r1]
    f638:	fa23 f000 	lsr.w	r0, r3, r0
    f63c:	f000 0001 	and.w	r0, r0, #1
    f640:	e7ec      	b.n	f61c <am_hal_gpio_state_read+0x30>
    f642:	bf00      	nop
    f644:	400100a0 	.word	0x400100a0
    f648:	40010088 	.word	0x40010088
    f64c:	40010080 	.word	0x40010080

0000f650 <am_hal_gpio_state_write>:
    f650:	2831      	cmp	r0, #49	; 0x31
    f652:	d901      	bls.n	f658 <am_hal_gpio_state_write+0x8>
    f654:	2005      	movs	r0, #5
    f656:	4770      	bx	lr
    f658:	2905      	cmp	r1, #5
    f65a:	d901      	bls.n	f660 <am_hal_gpio_state_write+0x10>
    f65c:	2006      	movs	r0, #6
    f65e:	4770      	bx	lr
    f660:	b570      	push	{r4, r5, r6, lr}
    f662:	f000 031f 	and.w	r3, r0, #31
    f666:	b082      	sub	sp, #8
    f668:	08c0      	lsrs	r0, r0, #3
    f66a:	2201      	movs	r2, #1
    f66c:	460d      	mov	r5, r1
    f66e:	f000 0404 	and.w	r4, r0, #4
    f672:	fa02 f603 	lsl.w	r6, r2, r3
    f676:	f000 f875 	bl	f764 <am_hal_interrupt_master_disable>
    f67a:	1e69      	subs	r1, r5, #1
    f67c:	9001      	str	r0, [sp, #4]
    f67e:	2904      	cmp	r1, #4
    f680:	d817      	bhi.n	f6b2 <am_hal_gpio_state_write+0x62>
    f682:	e8df f001 	tbb	[pc, r1]
    f686:	0e13      	.short	0x0e13
    f688:	030b      	.short	0x030b
    f68a:	19          	.byte	0x19
    f68b:	00          	.byte	0x00
    f68c:	4b0d      	ldr	r3, [pc, #52]	; (f6c4 <am_hal_gpio_state_write+0x74>)
    f68e:	50e6      	str	r6, [r4, r3]
    f690:	9801      	ldr	r0, [sp, #4]
    f692:	f000 f86b 	bl	f76c <am_hal_interrupt_master_set>
    f696:	2000      	movs	r0, #0
    f698:	b002      	add	sp, #8
    f69a:	bd70      	pop	{r4, r5, r6, pc}
    f69c:	4b0a      	ldr	r3, [pc, #40]	; (f6c8 <am_hal_gpio_state_write+0x78>)
    f69e:	50e6      	str	r6, [r4, r3]
    f6a0:	e7f6      	b.n	f690 <am_hal_gpio_state_write+0x40>
    f6a2:	4a0a      	ldr	r2, [pc, #40]	; (f6cc <am_hal_gpio_state_write+0x7c>)
    f6a4:	58a3      	ldr	r3, [r4, r2]
    f6a6:	4073      	eors	r3, r6
    f6a8:	50a3      	str	r3, [r4, r2]
    f6aa:	e7f1      	b.n	f690 <am_hal_gpio_state_write+0x40>
    f6ac:	4b08      	ldr	r3, [pc, #32]	; (f6d0 <am_hal_gpio_state_write+0x80>)
    f6ae:	50e6      	str	r6, [r4, r3]
    f6b0:	e7ee      	b.n	f690 <am_hal_gpio_state_write+0x40>
    f6b2:	4b08      	ldr	r3, [pc, #32]	; (f6d4 <am_hal_gpio_state_write+0x84>)
    f6b4:	50e6      	str	r6, [r4, r3]
    f6b6:	e7eb      	b.n	f690 <am_hal_gpio_state_write+0x40>
    f6b8:	4a03      	ldr	r2, [pc, #12]	; (f6c8 <am_hal_gpio_state_write+0x78>)
    f6ba:	58a3      	ldr	r3, [r4, r2]
    f6bc:	4073      	eors	r3, r6
    f6be:	50a3      	str	r3, [r4, r2]
    f6c0:	e7e6      	b.n	f690 <am_hal_gpio_state_write+0x40>
    f6c2:	bf00      	nop
    f6c4:	400100a8 	.word	0x400100a8
    f6c8:	400100b4 	.word	0x400100b4
    f6cc:	40010088 	.word	0x40010088
    f6d0:	40010090 	.word	0x40010090
    f6d4:	40010098 	.word	0x40010098

0000f6d8 <am_hal_gpio_interrupt_enable>:
    f6d8:	4b0f      	ldr	r3, [pc, #60]	; (f718 <am_hal_gpio_interrupt_enable+0x40>)
    f6da:	2200      	movs	r2, #0
    f6dc:	4002      	ands	r2, r0
    f6de:	400b      	ands	r3, r1
    f6e0:	4313      	orrs	r3, r2
    f6e2:	d001      	beq.n	f6e8 <am_hal_gpio_interrupt_enable+0x10>
    f6e4:	2005      	movs	r0, #5
    f6e6:	4770      	bx	lr
    f6e8:	b530      	push	{r4, r5, lr}
    f6ea:	b083      	sub	sp, #12
    f6ec:	460d      	mov	r5, r1
    f6ee:	4604      	mov	r4, r0
    f6f0:	f000 f838 	bl	f764 <am_hal_interrupt_master_disable>
    f6f4:	4b09      	ldr	r3, [pc, #36]	; (f71c <am_hal_gpio_interrupt_enable+0x44>)
    f6f6:	9001      	str	r0, [sp, #4]
    f6f8:	f8d3 2200 	ldr.w	r2, [r3, #512]	; 0x200
    f6fc:	4322      	orrs	r2, r4
    f6fe:	f8c3 2200 	str.w	r2, [r3, #512]	; 0x200
    f702:	f8d3 2210 	ldr.w	r2, [r3, #528]	; 0x210
    f706:	432a      	orrs	r2, r5
    f708:	f8c3 2210 	str.w	r2, [r3, #528]	; 0x210
    f70c:	9801      	ldr	r0, [sp, #4]
    f70e:	f000 f82d 	bl	f76c <am_hal_interrupt_master_set>
    f712:	2000      	movs	r0, #0
    f714:	b003      	add	sp, #12
    f716:	bd30      	pop	{r4, r5, pc}
    f718:	fffc0000 	.word	0xfffc0000
    f71c:	40010000 	.word	0x40010000

0000f720 <am_hal_gpio_interrupt_clear>:
    f720:	4b0c      	ldr	r3, [pc, #48]	; (f754 <am_hal_gpio_interrupt_clear+0x34>)
    f722:	2200      	movs	r2, #0
    f724:	4002      	ands	r2, r0
    f726:	400b      	ands	r3, r1
    f728:	4313      	orrs	r3, r2
    f72a:	d001      	beq.n	f730 <am_hal_gpio_interrupt_clear+0x10>
    f72c:	2005      	movs	r0, #5
    f72e:	4770      	bx	lr
    f730:	b530      	push	{r4, r5, lr}
    f732:	b083      	sub	sp, #12
    f734:	460d      	mov	r5, r1
    f736:	4604      	mov	r4, r0
    f738:	f000 f814 	bl	f764 <am_hal_interrupt_master_disable>
    f73c:	4b06      	ldr	r3, [pc, #24]	; (f758 <am_hal_gpio_interrupt_clear+0x38>)
    f73e:	9001      	str	r0, [sp, #4]
    f740:	f8c3 4208 	str.w	r4, [r3, #520]	; 0x208
    f744:	f8c3 5218 	str.w	r5, [r3, #536]	; 0x218
    f748:	9801      	ldr	r0, [sp, #4]
    f74a:	f000 f80f 	bl	f76c <am_hal_interrupt_master_set>
    f74e:	2000      	movs	r0, #0
    f750:	b003      	add	sp, #12
    f752:	bd30      	pop	{r4, r5, pc}
    f754:	fffc0000 	.word	0xfffc0000
    f758:	40010000 	.word	0x40010000

0000f75c <am_hal_interrupt_master_enable>:
    f75c:	f3ef 8010 	mrs	r0, PRIMASK
    f760:	b662      	cpsie	i
    f762:	4770      	bx	lr

0000f764 <am_hal_interrupt_master_disable>:
    f764:	f3ef 8010 	mrs	r0, PRIMASK
    f768:	b672      	cpsid	i
    f76a:	4770      	bx	lr

0000f76c <am_hal_interrupt_master_set>:
    f76c:	f380 8810 	msr	PRIMASK, r0
    f770:	4770      	bx	lr
    f772:	bf00      	nop

0000f774 <am_hal_mcuctrl_info_get>:
    f774:	b4f0      	push	{r4, r5, r6, r7}
    f776:	b121      	cbz	r1, f782 <am_hal_mcuctrl_info_get+0xe>
    f778:	2801      	cmp	r0, #1
    f77a:	d038      	beq.n	f7ee <am_hal_mcuctrl_info_get+0x7a>
    f77c:	d320      	bcc.n	f7c0 <am_hal_mcuctrl_info_get+0x4c>
    f77e:	2802      	cmp	r0, #2
    f780:	d002      	beq.n	f788 <am_hal_mcuctrl_info_get+0x14>
    f782:	2006      	movs	r0, #6
    f784:	bcf0      	pop	{r4, r5, r6, r7}
    f786:	4770      	bx	lr
    f788:	4a41      	ldr	r2, [pc, #260]	; (f890 <am_hal_mcuctrl_info_get+0x11c>)
    f78a:	684d      	ldr	r5, [r1, #4]
    f78c:	f8d2 31cc 	ldr.w	r3, [r2, #460]	; 0x1cc
    f790:	694c      	ldr	r4, [r1, #20]
    f792:	f003 0601 	and.w	r6, r3, #1
    f796:	f3c3 0040 	ubfx	r0, r3, #1, #1
    f79a:	f3c3 0380 	ubfx	r3, r3, #2, #1
    f79e:	700e      	strb	r6, [r1, #0]
    f7a0:	7208      	strb	r0, [r1, #8]
    f7a2:	740b      	strb	r3, [r1, #16]
    f7a4:	f8d2 31c4 	ldr.w	r3, [r2, #452]	; 0x1c4
    f7a8:	60cb      	str	r3, [r1, #12]
    f7aa:	f8d2 01c0 	ldr.w	r0, [r2, #448]	; 0x1c0
    f7ae:	4328      	orrs	r0, r5
    f7b0:	6048      	str	r0, [r1, #4]
    f7b2:	f8d2 31c8 	ldr.w	r3, [r2, #456]	; 0x1c8
    f7b6:	4323      	orrs	r3, r4
    f7b8:	2000      	movs	r0, #0
    f7ba:	614b      	str	r3, [r1, #20]
    f7bc:	bcf0      	pop	{r4, r5, r6, r7}
    f7be:	4770      	bx	lr
    f7c0:	4a33      	ldr	r2, [pc, #204]	; (f890 <am_hal_mcuctrl_info_get+0x11c>)
    f7c2:	6993      	ldr	r3, [r2, #24]
    f7c4:	f3c3 1080 	ubfx	r0, r3, #6, #1
    f7c8:	f3c3 0380 	ubfx	r3, r3, #2, #1
    f7cc:	7008      	strb	r0, [r1, #0]
    f7ce:	704b      	strb	r3, [r1, #1]
    f7d0:	f8d2 31a0 	ldr.w	r3, [r2, #416]	; 0x1a0
    f7d4:	f3c3 6381 	ubfx	r3, r3, #26, #2
    f7d8:	710b      	strb	r3, [r1, #4]
    f7da:	6953      	ldr	r3, [r2, #20]
    f7dc:	f3c3 0240 	ubfx	r2, r3, #1, #1
    f7e0:	f003 0301 	and.w	r3, r3, #1
    f7e4:	2000      	movs	r0, #0
    f7e6:	708a      	strb	r2, [r1, #2]
    f7e8:	70cb      	strb	r3, [r1, #3]
    f7ea:	bcf0      	pop	{r4, r5, r6, r7}
    f7ec:	4770      	bx	lr
    f7ee:	4b28      	ldr	r3, [pc, #160]	; (f890 <am_hal_mcuctrl_info_get+0x11c>)
    f7f0:	4c28      	ldr	r4, [pc, #160]	; (f894 <am_hal_mcuctrl_info_get+0x120>)
    f7f2:	681a      	ldr	r2, [r3, #0]
    f7f4:	600a      	str	r2, [r1, #0]
    f7f6:	6858      	ldr	r0, [r3, #4]
    f7f8:	6048      	str	r0, [r1, #4]
    f7fa:	6898      	ldr	r0, [r3, #8]
    f7fc:	6088      	str	r0, [r1, #8]
    f7fe:	68d8      	ldr	r0, [r3, #12]
    f800:	60c8      	str	r0, [r1, #12]
    f802:	691d      	ldr	r5, [r3, #16]
    f804:	4824      	ldr	r0, [pc, #144]	; (f898 <am_hal_mcuctrl_info_get+0x124>)
    f806:	610d      	str	r5, [r1, #16]
    f808:	f3c2 5703 	ubfx	r7, r2, #20, #4
    f80c:	f3c2 4603 	ubfx	r6, r2, #16, #4
    f810:	695d      	ldr	r5, [r3, #20]
    f812:	f854 4027 	ldr.w	r4, [r4, r7, lsl #2]
    f816:	4b21      	ldr	r3, [pc, #132]	; (f89c <am_hal_mcuctrl_info_get+0x128>)
    f818:	f850 0026 	ldr.w	r0, [r0, r6, lsl #2]
    f81c:	6208      	str	r0, [r1, #32]
    f81e:	f002 0201 	and.w	r2, r2, #1
    f822:	614d      	str	r5, [r1, #20]
    f824:	61cc      	str	r4, [r1, #28]
    f826:	618a      	str	r2, [r1, #24]
    f828:	f8d3 20e0 	ldr.w	r2, [r3, #224]	; 0xe0
    f82c:	f8d3 40e4 	ldr.w	r4, [r3, #228]	; 0xe4
    f830:	b2d0      	uxtb	r0, r2
    f832:	f004 020f 	and.w	r2, r4, #15
    f836:	ea40 2202 	orr.w	r2, r0, r2, lsl #8
    f83a:	624a      	str	r2, [r1, #36]	; 0x24
    f83c:	f8d3 20e4 	ldr.w	r2, [r3, #228]	; 0xe4
    f840:	f8d3 40e8 	ldr.w	r4, [r3, #232]	; 0xe8
    f844:	f3c2 1003 	ubfx	r0, r2, #4, #4
    f848:	f004 020f 	and.w	r2, r4, #15
    f84c:	ea40 1202 	orr.w	r2, r0, r2, lsl #4
    f850:	628a      	str	r2, [r1, #40]	; 0x28
    f852:	f8d3 00e8 	ldr.w	r0, [r3, #232]	; 0xe8
    f856:	f8d3 20ec 	ldr.w	r2, [r3, #236]	; 0xec
    f85a:	f000 00f0 	and.w	r0, r0, #240	; 0xf0
    f85e:	f3c2 1203 	ubfx	r2, r2, #4, #4
    f862:	4302      	orrs	r2, r0
    f864:	62ca      	str	r2, [r1, #44]	; 0x2c
    f866:	f8d3 50fc 	ldr.w	r5, [r3, #252]	; 0xfc
    f86a:	f8d3 00f8 	ldr.w	r0, [r3, #248]	; 0xf8
    f86e:	f8d3 40f4 	ldr.w	r4, [r3, #244]	; 0xf4
    f872:	f8d3 20f0 	ldr.w	r2, [r3, #240]	; 0xf0
    f876:	b2c0      	uxtb	r0, r0
    f878:	0400      	lsls	r0, r0, #16
    f87a:	ea40 6305 	orr.w	r3, r0, r5, lsl #24
    f87e:	b2d2      	uxtb	r2, r2
    f880:	431a      	orrs	r2, r3
    f882:	b2e3      	uxtb	r3, r4
    f884:	ea42 2303 	orr.w	r3, r2, r3, lsl #8
    f888:	630b      	str	r3, [r1, #48]	; 0x30
    f88a:	2000      	movs	r0, #0
    f88c:	bcf0      	pop	{r4, r5, r6, r7}
    f88e:	4770      	bx	lr
    f890:	40020000 	.word	0x40020000
    f894:	00013584 	.word	0x00013584
    f898:	000135c4 	.word	0x000135c4
    f89c:	f0000f00 	.word	0xf0000f00

0000f8a0 <am_hal_pdm_initialize>:
    f8a0:	b108      	cbz	r0, f8a6 <am_hal_pdm_initialize+0x6>
    f8a2:	2005      	movs	r0, #5
    f8a4:	4770      	bx	lr
    f8a6:	b1a9      	cbz	r1, f8d4 <am_hal_pdm_initialize+0x34>
    f8a8:	4b0b      	ldr	r3, [pc, #44]	; (f8d8 <am_hal_pdm_initialize+0x38>)
    f8aa:	78da      	ldrb	r2, [r3, #3]
    f8ac:	b430      	push	{r4, r5}
    f8ae:	f3c2 0400 	ubfx	r4, r2, #0, #1
    f8b2:	b2e0      	uxtb	r0, r4
    f8b4:	b110      	cbz	r0, f8bc <am_hal_pdm_initialize+0x1c>
    f8b6:	2007      	movs	r0, #7
    f8b8:	bc30      	pop	{r4, r5}
    f8ba:	4770      	bx	lr
    f8bc:	f042 0201 	orr.w	r2, r2, #1
    f8c0:	70da      	strb	r2, [r3, #3]
    f8c2:	681a      	ldr	r2, [r3, #0]
    f8c4:	4d05      	ldr	r5, [pc, #20]	; (f8dc <am_hal_pdm_initialize+0x3c>)
    f8c6:	6098      	str	r0, [r3, #8]
    f8c8:	f365 0217 	bfi	r2, r5, #0, #24
    f8cc:	711c      	strb	r4, [r3, #4]
    f8ce:	601a      	str	r2, [r3, #0]
    f8d0:	600b      	str	r3, [r1, #0]
    f8d2:	e7f1      	b.n	f8b8 <am_hal_pdm_initialize+0x18>
    f8d4:	2006      	movs	r0, #6
    f8d6:	4770      	bx	lr
    f8d8:	1003ce80 	.word	0x1003ce80
    f8dc:	00f956e2 	.word	0x00f956e2

0000f8e0 <am_hal_pdm_power_control>:
    f8e0:	b5f0      	push	{r4, r5, r6, r7, lr}
    f8e2:	6803      	ldr	r3, [r0, #0]
    f8e4:	4c1c      	ldr	r4, [pc, #112]	; (f958 <am_hal_pdm_power_control+0x78>)
    f8e6:	f023 437e 	bic.w	r3, r3, #4261412864	; 0xfe000000
    f8ea:	42a3      	cmp	r3, r4
    f8ec:	b083      	sub	sp, #12
    f8ee:	d002      	beq.n	f8f6 <am_hal_pdm_power_control+0x16>
    f8f0:	2002      	movs	r0, #2
    f8f2:	b003      	add	sp, #12
    f8f4:	bdf0      	pop	{r4, r5, r6, r7, pc}
    f8f6:	4604      	mov	r4, r0
    f8f8:	6880      	ldr	r0, [r0, #8]
    f8fa:	300d      	adds	r0, #13
    f8fc:	4617      	mov	r7, r2
    f8fe:	460d      	mov	r5, r1
    f900:	b2c6      	uxtb	r6, r0
    f902:	b149      	cbz	r1, f918 <am_hal_pdm_power_control+0x38>
    f904:	2902      	cmp	r1, #2
    f906:	d805      	bhi.n	f914 <am_hal_pdm_power_control+0x34>
    f908:	b982      	cbnz	r2, f92c <am_hal_pdm_power_control+0x4c>
    f90a:	4630      	mov	r0, r6
    f90c:	f000 f98e 	bl	fc2c <am_hal_pwrctrl_periph_disable>
    f910:	2000      	movs	r0, #0
    f912:	e7ee      	b.n	f8f2 <am_hal_pdm_power_control+0x12>
    f914:	2006      	movs	r0, #6
    f916:	e7ec      	b.n	f8f2 <am_hal_pdm_power_control+0x12>
    f918:	b11a      	cbz	r2, f922 <am_hal_pdm_power_control+0x42>
    f91a:	7923      	ldrb	r3, [r4, #4]
    f91c:	b97b      	cbnz	r3, f93e <am_hal_pdm_power_control+0x5e>
    f91e:	2007      	movs	r0, #7
    f920:	e7e7      	b.n	f8f2 <am_hal_pdm_power_control+0x12>
    f922:	4630      	mov	r0, r6
    f924:	f000 f958 	bl	fbd8 <am_hal_pwrctrl_periph_enable>
    f928:	4638      	mov	r0, r7
    f92a:	e7e2      	b.n	f8f2 <am_hal_pdm_power_control+0x12>
    f92c:	f7ff ff1a 	bl	f764 <am_hal_interrupt_master_disable>
    f930:	2301      	movs	r3, #1
    f932:	9001      	str	r0, [sp, #4]
    f934:	9801      	ldr	r0, [sp, #4]
    f936:	7123      	strb	r3, [r4, #4]
    f938:	f7ff ff18 	bl	f76c <am_hal_interrupt_master_set>
    f93c:	e7e5      	b.n	f90a <am_hal_pdm_power_control+0x2a>
    f93e:	4630      	mov	r0, r6
    f940:	f000 f94a 	bl	fbd8 <am_hal_pwrctrl_periph_enable>
    f944:	f7ff ff0e 	bl	f764 <am_hal_interrupt_master_disable>
    f948:	9000      	str	r0, [sp, #0]
    f94a:	9800      	ldr	r0, [sp, #0]
    f94c:	7125      	strb	r5, [r4, #4]
    f94e:	f7ff ff0d 	bl	f76c <am_hal_interrupt_master_set>
    f952:	4628      	mov	r0, r5
    f954:	e7cd      	b.n	f8f2 <am_hal_pdm_power_control+0x12>
    f956:	bf00      	nop
    f958:	01f956e2 	.word	0x01f956e2

0000f95c <am_hal_pdm_configure>:
    f95c:	b128      	cbz	r0, f96a <am_hal_pdm_configure+0xe>
    f95e:	6803      	ldr	r3, [r0, #0]
    f960:	4a3e      	ldr	r2, [pc, #248]	; (fa5c <am_hal_pdm_configure+0x100>)
    f962:	f023 437e 	bic.w	r3, r3, #4261412864	; 0xfe000000
    f966:	4293      	cmp	r3, r2
    f968:	d001      	beq.n	f96e <am_hal_pdm_configure+0x12>
    f96a:	2002      	movs	r0, #2
    f96c:	4770      	bx	lr
    f96e:	b510      	push	{r4, lr}
    f970:	4c3b      	ldr	r4, [pc, #236]	; (fa60 <am_hal_pdm_configure+0x104>)
    f972:	7f4a      	ldrb	r2, [r1, #29]
    f974:	6823      	ldr	r3, [r4, #0]
    f976:	f362 0341 	bfi	r3, r2, #1, #1
    f97a:	6023      	str	r3, [r4, #0]
    f97c:	6823      	ldr	r3, [r4, #0]
    f97e:	698a      	ldr	r2, [r1, #24]
    f980:	f362 0384 	bfi	r3, r2, #2, #3
    f984:	6023      	str	r3, [r4, #0]
    f986:	6823      	ldr	r3, [r4, #0]
    f988:	68ca      	ldr	r2, [r1, #12]
    f98a:	f362 1348 	bfi	r3, r2, #5, #4
    f98e:	6023      	str	r3, [r4, #0]
    f990:	6823      	ldr	r3, [r4, #0]
    f992:	7a0a      	ldrb	r2, [r1, #8]
    f994:	f362 2349 	bfi	r3, r2, #9, #1
    f998:	6023      	str	r3, [r4, #0]
    f99a:	6823      	ldr	r3, [r4, #0]
    f99c:	684a      	ldr	r2, [r1, #4]
    f99e:	f362 2390 	bfi	r3, r2, #10, #7
    f9a2:	6023      	str	r3, [r4, #0]
    f9a4:	6823      	ldr	r3, [r4, #0]
    f9a6:	780a      	ldrb	r2, [r1, #0]
    f9a8:	f362 4352 	bfi	r3, r2, #17, #2
    f9ac:	6023      	str	r3, [r4, #0]
    f9ae:	6823      	ldr	r3, [r4, #0]
    f9b0:	784a      	ldrb	r2, [r1, #1]
    f9b2:	f362 5359 	bfi	r3, r2, #21, #5
    f9b6:	6023      	str	r3, [r4, #0]
    f9b8:	788a      	ldrb	r2, [r1, #2]
    f9ba:	6823      	ldr	r3, [r4, #0]
    f9bc:	f362 639e 	bfi	r3, r2, #26, #5
    f9c0:	6023      	str	r3, [r4, #0]
    f9c2:	7f8a      	ldrb	r2, [r1, #30]
    f9c4:	6823      	ldr	r3, [r4, #0]
    f9c6:	f362 73df 	bfi	r3, r2, #31, #1
    f9ca:	6023      	str	r3, [r4, #0]
    f9cc:	6823      	ldr	r3, [r4, #0]
    f9ce:	f043 0301 	orr.w	r3, r3, #1
    f9d2:	6023      	str	r3, [r4, #0]
    f9d4:	6863      	ldr	r3, [r4, #4]
    f9d6:	f36f 639a 	bfc	r3, #26, #1
    f9da:	6063      	str	r3, [r4, #4]
    f9dc:	6863      	ldr	r3, [r4, #4]
    f9de:	f36f 73df 	bfc	r3, #31, #1
    f9e2:	6063      	str	r3, [r4, #4]
    f9e4:	6863      	ldr	r3, [r4, #4]
    f9e6:	f36f 739e 	bfc	r3, #30, #1
    f9ea:	6063      	str	r3, [r4, #4]
    f9ec:	6863      	ldr	r3, [r4, #4]
    f9ee:	7d4a      	ldrb	r2, [r1, #21]
    f9f0:	f362 03c4 	bfi	r3, r2, #3, #2
    f9f4:	6063      	str	r3, [r4, #4]
    f9f6:	6863      	ldr	r3, [r4, #4]
    f9f8:	7d0a      	ldrb	r2, [r1, #20]
    f9fa:	f362 2308 	bfi	r3, r2, #8, #1
    f9fe:	6063      	str	r3, [r4, #4]
    fa00:	6863      	ldr	r3, [r4, #4]
    fa02:	7c8a      	ldrb	r2, [r1, #18]
    fa04:	f362 4310 	bfi	r3, r2, #16, #1
    fa08:	6063      	str	r3, [r4, #4]
    fa0a:	6863      	ldr	r3, [r4, #4]
    fa0c:	7cca      	ldrb	r2, [r1, #19]
    fa0e:	f362 4351 	bfi	r3, r2, #17, #1
    fa12:	6063      	str	r3, [r4, #4]
    fa14:	7c4a      	ldrb	r2, [r1, #17]
    fa16:	6863      	ldr	r3, [r4, #4]
    fa18:	f362 43d3 	bfi	r3, r2, #19, #1
    fa1c:	6063      	str	r3, [r4, #4]
    fa1e:	7f0a      	ldrb	r2, [r1, #28]
    fa20:	6863      	ldr	r3, [r4, #4]
    fa22:	f362 5314 	bfi	r3, r2, #20, #1
    fa26:	6063      	str	r3, [r4, #4]
    fa28:	7c0a      	ldrb	r2, [r1, #16]
    fa2a:	6863      	ldr	r3, [r4, #4]
    fa2c:	b084      	sub	sp, #16
    fa2e:	f362 63dd 	bfi	r3, r2, #27, #3
    fa32:	6063      	str	r3, [r4, #4]
    fa34:	a801      	add	r0, sp, #4
    fa36:	f7ff fb43 	bl	f0c0 <am_hal_clkgen_status_get>
    fa3a:	9b01      	ldr	r3, [sp, #4]
    fa3c:	4809      	ldr	r0, [pc, #36]	; (fa64 <am_hal_pdm_configure+0x108>)
    fa3e:	fba0 2303 	umull	r2, r3, r0, r3
    fa42:	0c9b      	lsrs	r3, r3, #18
    fa44:	2064      	movs	r0, #100	; 0x64
    fa46:	fb00 f003 	mul.w	r0, r0, r3
    fa4a:	f7ff fc3f 	bl	f2cc <am_hal_flash_delay>
    fa4e:	6863      	ldr	r3, [r4, #4]
    fa50:	2000      	movs	r0, #0
    fa52:	f043 4380 	orr.w	r3, r3, #1073741824	; 0x40000000
    fa56:	6063      	str	r3, [r4, #4]
    fa58:	b004      	add	sp, #16
    fa5a:	bd10      	pop	{r4, pc}
    fa5c:	01f956e2 	.word	0x01f956e2
    fa60:	50011000 	.word	0x50011000
    fa64:	165e9f81 	.word	0x165e9f81

0000fa68 <am_hal_pdm_enable>:
    fa68:	b128      	cbz	r0, fa76 <am_hal_pdm_enable+0xe>
    fa6a:	6803      	ldr	r3, [r0, #0]
    fa6c:	4a08      	ldr	r2, [pc, #32]	; (fa90 <am_hal_pdm_enable+0x28>)
    fa6e:	f023 437e 	bic.w	r3, r3, #4261412864	; 0xfe000000
    fa72:	4293      	cmp	r3, r2
    fa74:	d001      	beq.n	fa7a <am_hal_pdm_enable+0x12>
    fa76:	2002      	movs	r0, #2
    fa78:	4770      	bx	lr
    fa7a:	4b06      	ldr	r3, [pc, #24]	; (fa94 <am_hal_pdm_enable+0x2c>)
    fa7c:	685a      	ldr	r2, [r3, #4]
    fa7e:	f042 4200 	orr.w	r2, r2, #2147483648	; 0x80000000
    fa82:	605a      	str	r2, [r3, #4]
    fa84:	685a      	ldr	r2, [r3, #4]
    fa86:	f042 6280 	orr.w	r2, r2, #67108864	; 0x4000000
    fa8a:	605a      	str	r2, [r3, #4]
    fa8c:	2000      	movs	r0, #0
    fa8e:	4770      	bx	lr
    fa90:	01f956e2 	.word	0x01f956e2
    fa94:	50011000 	.word	0x50011000

0000fa98 <am_hal_pdm_dma_start>:
    fa98:	b128      	cbz	r0, faa6 <am_hal_pdm_dma_start+0xe>
    fa9a:	6803      	ldr	r3, [r0, #0]
    fa9c:	4a20      	ldr	r2, [pc, #128]	; (fb20 <am_hal_pdm_dma_start+0x88>)
    fa9e:	f023 437e 	bic.w	r3, r3, #4261412864	; 0xfe000000
    faa2:	4293      	cmp	r3, r2
    faa4:	d001      	beq.n	faaa <am_hal_pdm_dma_start+0x12>
    faa6:	2002      	movs	r0, #2
    faa8:	4770      	bx	lr
    faaa:	684a      	ldr	r2, [r1, #4]
    faac:	2a01      	cmp	r2, #1
    faae:	d934      	bls.n	fb1a <am_hal_pdm_dma_start+0x82>
    fab0:	b410      	push	{r4}
    fab2:	2301      	movs	r3, #1
    fab4:	fbb2 f4f3 	udiv	r4, r2, r3
    fab8:	fb03 2014 	mls	r0, r3, r4, r2
    fabc:	3301      	adds	r3, #1
    fabe:	b908      	cbnz	r0, fac4 <am_hal_pdm_dma_start+0x2c>
    fac0:	2c1f      	cmp	r4, #31
    fac2:	d906      	bls.n	fad2 <am_hal_pdm_dma_start+0x3a>
    fac4:	4293      	cmp	r3, r2
    fac6:	d1f5      	bne.n	fab4 <am_hal_pdm_dma_start+0x1c>
    fac8:	f04f 6000 	mov.w	r0, #134217728	; 0x8000000
    facc:	f85d 4b04 	ldr.w	r4, [sp], #4
    fad0:	4770      	bx	lr
    fad2:	2c00      	cmp	r4, #0
    fad4:	d0f8      	beq.n	fac8 <am_hal_pdm_dma_start+0x30>
    fad6:	4b13      	ldr	r3, [pc, #76]	; (fb24 <am_hal_pdm_dma_start+0x8c>)
    fad8:	615c      	str	r4, [r3, #20]
    fada:	f8c3 0280 	str.w	r0, [r3, #640]	; 0x280
    fade:	f8b3 4280 	ldrh.w	r4, [r3, #640]	; 0x280
    fae2:	f360 2408 	bfi	r4, r0, #8, #1
    fae6:	f8a3 4280 	strh.w	r4, [r3, #640]	; 0x280
    faea:	f8b3 4280 	ldrh.w	r4, [r3, #640]	; 0x280
    faee:	f360 0482 	bfi	r4, r0, #2, #1
    faf2:	f8a3 4280 	strh.w	r4, [r3, #640]	; 0x280
    faf6:	f8c3 2288 	str.w	r2, [r3, #648]	; 0x288
    fafa:	680a      	ldr	r2, [r1, #0]
    fafc:	f8c3 228c 	str.w	r2, [r3, #652]	; 0x28c
    fb00:	f893 2240 	ldrb.w	r2, [r3, #576]	; 0x240
    fb04:	f042 0201 	orr.w	r2, r2, #1
    fb08:	f883 2240 	strb.w	r2, [r3, #576]	; 0x240
    fb0c:	f8b3 2280 	ldrh.w	r2, [r3, #640]	; 0x280
    fb10:	f042 0201 	orr.w	r2, r2, #1
    fb14:	f8a3 2280 	strh.w	r2, [r3, #640]	; 0x280
    fb18:	e7d8      	b.n	facc <am_hal_pdm_dma_start+0x34>
    fb1a:	f04f 6000 	mov.w	r0, #134217728	; 0x8000000
    fb1e:	4770      	bx	lr
    fb20:	01f956e2 	.word	0x01f956e2
    fb24:	50011000 	.word	0x50011000

0000fb28 <am_hal_pdm_fifo_flush>:
    fb28:	b128      	cbz	r0, fb36 <am_hal_pdm_fifo_flush+0xe>
    fb2a:	6803      	ldr	r3, [r0, #0]
    fb2c:	4a05      	ldr	r2, [pc, #20]	; (fb44 <am_hal_pdm_fifo_flush+0x1c>)
    fb2e:	f023 437e 	bic.w	r3, r3, #4261412864	; 0xfe000000
    fb32:	4293      	cmp	r3, r2
    fb34:	d001      	beq.n	fb3a <am_hal_pdm_fifo_flush+0x12>
    fb36:	2002      	movs	r0, #2
    fb38:	4770      	bx	lr
    fb3a:	4b03      	ldr	r3, [pc, #12]	; (fb48 <am_hal_pdm_fifo_flush+0x20>)
    fb3c:	2201      	movs	r2, #1
    fb3e:	611a      	str	r2, [r3, #16]
    fb40:	2000      	movs	r0, #0
    fb42:	4770      	bx	lr
    fb44:	01f956e2 	.word	0x01f956e2
    fb48:	50011000 	.word	0x50011000

0000fb4c <am_hal_pdm_interrupt_enable>:
    fb4c:	b128      	cbz	r0, fb5a <am_hal_pdm_interrupt_enable+0xe>
    fb4e:	6803      	ldr	r3, [r0, #0]
    fb50:	4a07      	ldr	r2, [pc, #28]	; (fb70 <am_hal_pdm_interrupt_enable+0x24>)
    fb52:	f023 437e 	bic.w	r3, r3, #4261412864	; 0xfe000000
    fb56:	4293      	cmp	r3, r2
    fb58:	d001      	beq.n	fb5e <am_hal_pdm_interrupt_enable+0x12>
    fb5a:	2002      	movs	r0, #2
    fb5c:	4770      	bx	lr
    fb5e:	4b05      	ldr	r3, [pc, #20]	; (fb74 <am_hal_pdm_interrupt_enable+0x28>)
    fb60:	f8d3 2200 	ldr.w	r2, [r3, #512]	; 0x200
    fb64:	4311      	orrs	r1, r2
    fb66:	f8c3 1200 	str.w	r1, [r3, #512]	; 0x200
    fb6a:	2000      	movs	r0, #0
    fb6c:	4770      	bx	lr
    fb6e:	bf00      	nop
    fb70:	01f956e2 	.word	0x01f956e2
    fb74:	50011000 	.word	0x50011000

0000fb78 <am_hal_pdm_interrupt_clear>:
    fb78:	b128      	cbz	r0, fb86 <am_hal_pdm_interrupt_clear+0xe>
    fb7a:	6803      	ldr	r3, [r0, #0]
    fb7c:	4a05      	ldr	r2, [pc, #20]	; (fb94 <am_hal_pdm_interrupt_clear+0x1c>)
    fb7e:	f023 437e 	bic.w	r3, r3, #4261412864	; 0xfe000000
    fb82:	4293      	cmp	r3, r2
    fb84:	d001      	beq.n	fb8a <am_hal_pdm_interrupt_clear+0x12>
    fb86:	2002      	movs	r0, #2
    fb88:	4770      	bx	lr
    fb8a:	4b03      	ldr	r3, [pc, #12]	; (fb98 <am_hal_pdm_interrupt_clear+0x20>)
    fb8c:	2000      	movs	r0, #0
    fb8e:	f8c3 1208 	str.w	r1, [r3, #520]	; 0x208
    fb92:	4770      	bx	lr
    fb94:	01f956e2 	.word	0x01f956e2
    fb98:	50011000 	.word	0x50011000

0000fb9c <am_hal_pdm_interrupt_status_get>:
    fb9c:	b128      	cbz	r0, fbaa <am_hal_pdm_interrupt_status_get+0xe>
    fb9e:	6803      	ldr	r3, [r0, #0]
    fba0:	480b      	ldr	r0, [pc, #44]	; (fbd0 <am_hal_pdm_interrupt_status_get+0x34>)
    fba2:	f023 437e 	bic.w	r3, r3, #4261412864	; 0xfe000000
    fba6:	4283      	cmp	r3, r0
    fba8:	d001      	beq.n	fbae <am_hal_pdm_interrupt_status_get+0x12>
    fbaa:	2002      	movs	r0, #2
    fbac:	4770      	bx	lr
    fbae:	4b09      	ldr	r3, [pc, #36]	; (fbd4 <am_hal_pdm_interrupt_status_get+0x38>)
    fbb0:	b922      	cbnz	r2, fbbc <am_hal_pdm_interrupt_status_get+0x20>
    fbb2:	f8d3 3204 	ldr.w	r3, [r3, #516]	; 0x204
    fbb6:	600b      	str	r3, [r1, #0]
    fbb8:	4610      	mov	r0, r2
    fbba:	4770      	bx	lr
    fbbc:	f8d3 2204 	ldr.w	r2, [r3, #516]	; 0x204
    fbc0:	600a      	str	r2, [r1, #0]
    fbc2:	f8d3 3200 	ldr.w	r3, [r3, #512]	; 0x200
    fbc6:	4013      	ands	r3, r2
    fbc8:	600b      	str	r3, [r1, #0]
    fbca:	2000      	movs	r0, #0
    fbcc:	4770      	bx	lr
    fbce:	bf00      	nop
    fbd0:	01f956e2 	.word	0x01f956e2
    fbd4:	50011000 	.word	0x50011000

0000fbd8 <am_hal_pwrctrl_periph_enable>:
    fbd8:	b570      	push	{r4, r5, r6, lr}
    fbda:	b082      	sub	sp, #8
    fbdc:	4604      	mov	r4, r0
    fbde:	f7ff fdc1 	bl	f764 <am_hal_interrupt_master_disable>
    fbe2:	eb04 0444 	add.w	r4, r4, r4, lsl #1
    fbe6:	4d0f      	ldr	r5, [pc, #60]	; (fc24 <am_hal_pwrctrl_periph_enable+0x4c>)
    fbe8:	4e0f      	ldr	r6, [pc, #60]	; (fc28 <am_hal_pwrctrl_periph_enable+0x50>)
    fbea:	9001      	str	r0, [sp, #4]
    fbec:	00a4      	lsls	r4, r4, #2
    fbee:	68aa      	ldr	r2, [r5, #8]
    fbf0:	5933      	ldr	r3, [r6, r4]
    fbf2:	4313      	orrs	r3, r2
    fbf4:	60ab      	str	r3, [r5, #8]
    fbf6:	9801      	ldr	r0, [sp, #4]
    fbf8:	4434      	add	r4, r6
    fbfa:	f7ff fdb7 	bl	f76c <am_hal_interrupt_master_set>
    fbfe:	20a0      	movs	r0, #160	; 0xa0
    fc00:	f7ff fb64 	bl	f2cc <am_hal_flash_delay>
    fc04:	69ab      	ldr	r3, [r5, #24]
    fc06:	6864      	ldr	r4, [r4, #4]
    fc08:	4223      	tst	r3, r4
    fc0a:	d103      	bne.n	fc14 <am_hal_pwrctrl_periph_enable+0x3c>
    fc0c:	20a0      	movs	r0, #160	; 0xa0
    fc0e:	f7ff fb5d 	bl	f2cc <am_hal_flash_delay>
    fc12:	69ab      	ldr	r3, [r5, #24]
    fc14:	4b03      	ldr	r3, [pc, #12]	; (fc24 <am_hal_pwrctrl_periph_enable+0x4c>)
    fc16:	699b      	ldr	r3, [r3, #24]
    fc18:	4223      	tst	r3, r4
    fc1a:	bf0c      	ite	eq
    fc1c:	2001      	moveq	r0, #1
    fc1e:	2000      	movne	r0, #0
    fc20:	b002      	add	sp, #8
    fc22:	bd70      	pop	{r4, r5, r6, pc}
    fc24:	40021000 	.word	0x40021000
    fc28:	00013604 	.word	0x00013604

0000fc2c <am_hal_pwrctrl_periph_disable>:
    fc2c:	b570      	push	{r4, r5, r6, lr}
    fc2e:	b082      	sub	sp, #8
    fc30:	4604      	mov	r4, r0
    fc32:	f7ff fd97 	bl	f764 <am_hal_interrupt_master_disable>
    fc36:	eb04 0444 	add.w	r4, r4, r4, lsl #1
    fc3a:	4d10      	ldr	r5, [pc, #64]	; (fc7c <am_hal_pwrctrl_periph_disable+0x50>)
    fc3c:	4e10      	ldr	r6, [pc, #64]	; (fc80 <am_hal_pwrctrl_periph_disable+0x54>)
    fc3e:	9001      	str	r0, [sp, #4]
    fc40:	00a4      	lsls	r4, r4, #2
    fc42:	68ab      	ldr	r3, [r5, #8]
    fc44:	5932      	ldr	r2, [r6, r4]
    fc46:	ea23 0302 	bic.w	r3, r3, r2
    fc4a:	60ab      	str	r3, [r5, #8]
    fc4c:	9801      	ldr	r0, [sp, #4]
    fc4e:	4434      	add	r4, r6
    fc50:	f7ff fd8c 	bl	f76c <am_hal_interrupt_master_set>
    fc54:	20a0      	movs	r0, #160	; 0xa0
    fc56:	f7ff fb39 	bl	f2cc <am_hal_flash_delay>
    fc5a:	69ab      	ldr	r3, [r5, #24]
    fc5c:	6864      	ldr	r4, [r4, #4]
    fc5e:	4223      	tst	r3, r4
    fc60:	d003      	beq.n	fc6a <am_hal_pwrctrl_periph_disable+0x3e>
    fc62:	20a0      	movs	r0, #160	; 0xa0
    fc64:	f7ff fb32 	bl	f2cc <am_hal_flash_delay>
    fc68:	69ab      	ldr	r3, [r5, #24]
    fc6a:	4b04      	ldr	r3, [pc, #16]	; (fc7c <am_hal_pwrctrl_periph_disable+0x50>)
    fc6c:	699b      	ldr	r3, [r3, #24]
    fc6e:	4223      	tst	r3, r4
    fc70:	bf14      	ite	ne
    fc72:	2001      	movne	r0, #1
    fc74:	2000      	moveq	r0, #0
    fc76:	b002      	add	sp, #8
    fc78:	bd70      	pop	{r4, r5, r6, pc}
    fc7a:	bf00      	nop
    fc7c:	40021000 	.word	0x40021000
    fc80:	00013604 	.word	0x00013604

0000fc84 <am_hal_pwrctrl_low_power_init>:
    fc84:	b530      	push	{r4, r5, lr}
    fc86:	4b33      	ldr	r3, [pc, #204]	; (fd54 <am_hal_pwrctrl_low_power_init+0xd0>)
    fc88:	681a      	ldr	r2, [r3, #0]
    fc8a:	b085      	sub	sp, #20
    fc8c:	b912      	cbnz	r2, fc94 <am_hal_pwrctrl_low_power_init+0x10>
    fc8e:	4a32      	ldr	r2, [pc, #200]	; (fd58 <am_hal_pwrctrl_low_power_init+0xd4>)
    fc90:	6812      	ldr	r2, [r2, #0]
    fc92:	601a      	str	r2, [r3, #0]
    fc94:	4b31      	ldr	r3, [pc, #196]	; (fd5c <am_hal_pwrctrl_low_power_init+0xd8>)
    fc96:	68db      	ldr	r3, [r3, #12]
    fc98:	b2db      	uxtb	r3, r3
    fc9a:	2b12      	cmp	r3, #18
    fc9c:	d00a      	beq.n	fcb4 <am_hal_pwrctrl_low_power_init+0x30>
    fc9e:	4c30      	ldr	r4, [pc, #192]	; (fd60 <am_hal_pwrctrl_low_power_init+0xdc>)
    fca0:	2100      	movs	r1, #0
    fca2:	200c      	movs	r0, #12
    fca4:	f7ff f80e 	bl	ecc4 <am_hal_cachectrl_control>
    fca8:	69a3      	ldr	r3, [r4, #24]
    fcaa:	05d8      	lsls	r0, r3, #23
    fcac:	d520      	bpl.n	fcf0 <am_hal_pwrctrl_low_power_init+0x6c>
    fcae:	2000      	movs	r0, #0
    fcb0:	b005      	add	sp, #20
    fcb2:	bd30      	pop	{r4, r5, pc}
    fcb4:	4c2a      	ldr	r4, [pc, #168]	; (fd60 <am_hal_pwrctrl_low_power_init+0xdc>)
    fcb6:	6863      	ldr	r3, [r4, #4]
    fcb8:	07d9      	lsls	r1, r3, #31
    fcba:	d5f0      	bpl.n	fc9e <am_hal_pwrctrl_low_power_init+0x1a>
    fcbc:	f7ff fd52 	bl	f764 <am_hal_interrupt_master_disable>
    fcc0:	9003      	str	r0, [sp, #12]
    fcc2:	68a3      	ldr	r3, [r4, #8]
    fcc4:	f443 5380 	orr.w	r3, r3, #4096	; 0x1000
    fcc8:	60a3      	str	r3, [r4, #8]
    fcca:	9803      	ldr	r0, [sp, #12]
    fccc:	f7ff fd4e 	bl	f76c <am_hal_interrupt_master_set>
    fcd0:	20a0      	movs	r0, #160	; 0xa0
    fcd2:	f7ff fafb 	bl	f2cc <am_hal_flash_delay>
    fcd6:	69a3      	ldr	r3, [r4, #24]
    fcd8:	061a      	lsls	r2, r3, #24
    fcda:	d403      	bmi.n	fce4 <am_hal_pwrctrl_low_power_init+0x60>
    fcdc:	20a0      	movs	r0, #160	; 0xa0
    fcde:	f7ff faf5 	bl	f2cc <am_hal_flash_delay>
    fce2:	69a3      	ldr	r3, [r4, #24]
    fce4:	4b1e      	ldr	r3, [pc, #120]	; (fd60 <am_hal_pwrctrl_low_power_init+0xdc>)
    fce6:	699b      	ldr	r3, [r3, #24]
    fce8:	061b      	lsls	r3, r3, #24
    fcea:	d4d8      	bmi.n	fc9e <am_hal_pwrctrl_low_power_init+0x1a>
    fcec:	2001      	movs	r0, #1
    fcee:	e7df      	b.n	fcb0 <am_hal_pwrctrl_low_power_init+0x2c>
    fcf0:	4d1a      	ldr	r5, [pc, #104]	; (fd5c <am_hal_pwrctrl_low_power_init+0xd8>)
    fcf2:	491c      	ldr	r1, [pc, #112]	; (fd64 <am_hal_pwrctrl_low_power_init+0xe0>)
    fcf4:	7e2a      	ldrb	r2, [r5, #24]
    fcf6:	2001      	movs	r0, #1
    fcf8:	4302      	orrs	r2, r0
    fcfa:	2307      	movs	r3, #7
    fcfc:	762a      	strb	r2, [r5, #24]
    fcfe:	9000      	str	r0, [sp, #0]
    fd00:	461a      	mov	r2, r3
    fd02:	f242 7010 	movw	r0, #10000	; 0x2710
    fd06:	f7ff faf1 	bl	f2ec <am_hal_flash_delay_status_check>
    fd0a:	b110      	cbz	r0, fd12 <am_hal_pwrctrl_low_power_init+0x8e>
    fd0c:	2004      	movs	r0, #4
    fd0e:	b005      	add	sp, #20
    fd10:	bd30      	pop	{r4, r5, pc}
    fd12:	6823      	ldr	r3, [r4, #0]
    fd14:	f043 0301 	orr.w	r3, r3, #1
    fd18:	6023      	str	r3, [r4, #0]
    fd1a:	6a63      	ldr	r3, [r4, #36]	; 0x24
    fd1c:	f043 0340 	orr.w	r3, r3, #64	; 0x40
    fd20:	6263      	str	r3, [r4, #36]	; 0x24
    fd22:	68eb      	ldr	r3, [r5, #12]
    fd24:	b2db      	uxtb	r3, r3
    fd26:	2b11      	cmp	r3, #17
    fd28:	d1c1      	bne.n	fcae <am_hal_pwrctrl_low_power_init+0x2a>
    fd2a:	f8d5 335c 	ldr.w	r3, [r5, #860]	; 0x35c
    fd2e:	f360 5356 	bfi	r3, r0, #21, #2
    fd32:	f8c5 335c 	str.w	r3, [r5, #860]	; 0x35c
    fd36:	f8d5 3368 	ldr.w	r3, [r5, #872]	; 0x368
    fd3a:	220f      	movs	r2, #15
    fd3c:	f362 138b 	bfi	r3, r2, #6, #6
    fd40:	f8c5 3368 	str.w	r3, [r5, #872]	; 0x368
    fd44:	f8d5 3368 	ldr.w	r3, [r5, #872]	; 0x368
    fd48:	f362 0305 	bfi	r3, r2, #0, #6
    fd4c:	f8c5 3368 	str.w	r3, [r5, #872]	; 0x368
    fd50:	e7ae      	b.n	fcb0 <am_hal_pwrctrl_low_power_init+0x2c>
    fd52:	bf00      	nop
    fd54:	1000c5b0 	.word	0x1000c5b0
    fd58:	4ffff000 	.word	0x4ffff000
    fd5c:	40020000 	.word	0x40020000
    fd60:	40021000 	.word	0x40021000
    fd64:	40020018 	.word	0x40020018

0000fd68 <am_hal_rtc_osc_disable>:
    fd68:	4a03      	ldr	r2, [pc, #12]	; (fd78 <am_hal_rtc_osc_disable+0x10>)
    fd6a:	f892 3050 	ldrb.w	r3, [r2, #80]	; 0x50
    fd6e:	f043 0310 	orr.w	r3, r3, #16
    fd72:	f882 3050 	strb.w	r3, [r2, #80]	; 0x50
    fd76:	4770      	bx	lr
    fd78:	40004200 	.word	0x40004200

0000fd7c <am_hal_uart_initialize>:
    fd7c:	2801      	cmp	r0, #1
    fd7e:	d901      	bls.n	fd84 <am_hal_uart_initialize+0x8>
    fd80:	2005      	movs	r0, #5
    fd82:	4770      	bx	lr
    fd84:	b169      	cbz	r1, fda2 <am_hal_uart_initialize+0x26>
    fd86:	b5f0      	push	{r4, r5, r6, r7, lr}
    fd88:	2264      	movs	r2, #100	; 0x64
    fd8a:	4e0e      	ldr	r6, [pc, #56]	; (fdc4 <am_hal_uart_initialize+0x48>)
    fd8c:	fb02 f200 	mul.w	r2, r2, r0
    fd90:	18b4      	adds	r4, r6, r2
    fd92:	4603      	mov	r3, r0
    fd94:	78e0      	ldrb	r0, [r4, #3]
    fd96:	f3c0 0700 	ubfx	r7, r0, #0, #1
    fd9a:	b2fd      	uxtb	r5, r7
    fd9c:	b11d      	cbz	r5, fda6 <am_hal_uart_initialize+0x2a>
    fd9e:	2007      	movs	r0, #7
    fda0:	bdf0      	pop	{r4, r5, r6, r7, pc}
    fda2:	2006      	movs	r0, #6
    fda4:	4770      	bx	lr
    fda6:	f040 0001 	orr.w	r0, r0, #1
    fdaa:	70e0      	strb	r0, [r4, #3]
    fdac:	58b0      	ldr	r0, [r6, r2]
    fdae:	f8df e018 	ldr.w	lr, [pc, #24]	; fdc8 <am_hal_uart_initialize+0x4c>
    fdb2:	f36e 0017 	bfi	r0, lr, #0, #24
    fdb6:	50b0      	str	r0, [r6, r2]
    fdb8:	6263      	str	r3, [r4, #36]	; 0x24
    fdba:	7127      	strb	r7, [r4, #4]
    fdbc:	6625      	str	r5, [r4, #96]	; 0x60
    fdbe:	4628      	mov	r0, r5
    fdc0:	600c      	str	r4, [r1, #0]
    fdc2:	bdf0      	pop	{r4, r5, r6, r7, pc}
    fdc4:	1003ce8c 	.word	0x1003ce8c
    fdc8:	00ea9e06 	.word	0x00ea9e06

0000fdcc <am_hal_uart_power_control>:
    fdcc:	e92d 43f0 	stmdb	sp!, {r4, r5, r6, r7, r8, r9, lr}
    fdd0:	6804      	ldr	r4, [r0, #0]
    fdd2:	4b36      	ldr	r3, [pc, #216]	; (feac <am_hal_uart_power_control+0xe0>)
    fdd4:	f024 447e 	bic.w	r4, r4, #4261412864	; 0xfe000000
    fdd8:	429c      	cmp	r4, r3
    fdda:	b083      	sub	sp, #12
    fddc:	d003      	beq.n	fde6 <am_hal_uart_power_control+0x1a>
    fdde:	2002      	movs	r0, #2
    fde0:	b003      	add	sp, #12
    fde2:	e8bd 83f0 	ldmia.w	sp!, {r4, r5, r6, r7, r8, r9, pc}
    fde6:	6a47      	ldr	r7, [r0, #36]	; 0x24
    fde8:	4605      	mov	r5, r0
    fdea:	f107 0008 	add.w	r0, r7, #8
    fdee:	4691      	mov	r9, r2
    fdf0:	460e      	mov	r6, r1
    fdf2:	fa5f f880 	uxtb.w	r8, r0
    fdf6:	b181      	cbz	r1, fe1a <am_hal_uart_power_control+0x4e>
    fdf8:	2902      	cmp	r1, #2
    fdfa:	d80c      	bhi.n	fe16 <am_hal_uart_power_control+0x4a>
    fdfc:	b992      	cbnz	r2, fe24 <am_hal_uart_power_control+0x58>
    fdfe:	f507 2780 	add.w	r7, r7, #262144	; 0x40000
    fe02:	371c      	adds	r7, #28
    fe04:	033f      	lsls	r7, r7, #12
    fe06:	f04f 33ff 	mov.w	r3, #4294967295	; 0xffffffff
    fe0a:	647b      	str	r3, [r7, #68]	; 0x44
    fe0c:	4640      	mov	r0, r8
    fe0e:	f7ff ff0d 	bl	fc2c <am_hal_pwrctrl_periph_disable>
    fe12:	2000      	movs	r0, #0
    fe14:	e7e4      	b.n	fde0 <am_hal_uart_power_control+0x14>
    fe16:	2006      	movs	r0, #6
    fe18:	e7e2      	b.n	fde0 <am_hal_uart_power_control+0x14>
    fe1a:	b322      	cbz	r2, fe66 <am_hal_uart_power_control+0x9a>
    fe1c:	792b      	ldrb	r3, [r5, #4]
    fe1e:	bb3b      	cbnz	r3, fe70 <am_hal_uart_power_control+0xa4>
    fe20:	2007      	movs	r0, #7
    fe22:	e7dd      	b.n	fde0 <am_hal_uart_power_control+0x14>
    fe24:	f7ff fc9e 	bl	f764 <am_hal_interrupt_master_disable>
    fe28:	f507 2380 	add.w	r3, r7, #262144	; 0x40000
    fe2c:	331c      	adds	r3, #28
    fe2e:	031b      	lsls	r3, r3, #12
    fe30:	9001      	str	r0, [sp, #4]
    fe32:	6a1a      	ldr	r2, [r3, #32]
    fe34:	60aa      	str	r2, [r5, #8]
    fe36:	6a5a      	ldr	r2, [r3, #36]	; 0x24
    fe38:	60ea      	str	r2, [r5, #12]
    fe3a:	6a9a      	ldr	r2, [r3, #40]	; 0x28
    fe3c:	612a      	str	r2, [r5, #16]
    fe3e:	6ada      	ldr	r2, [r3, #44]	; 0x2c
    fe40:	616a      	str	r2, [r5, #20]
    fe42:	6b1a      	ldr	r2, [r3, #48]	; 0x30
    fe44:	61aa      	str	r2, [r5, #24]
    fe46:	6b5a      	ldr	r2, [r3, #52]	; 0x34
    fe48:	61ea      	str	r2, [r5, #28]
    fe4a:	6b9b      	ldr	r3, [r3, #56]	; 0x38
    fe4c:	622b      	str	r3, [r5, #32]
    fe4e:	2301      	movs	r3, #1
    fe50:	712b      	strb	r3, [r5, #4]
    fe52:	9801      	ldr	r0, [sp, #4]
    fe54:	f7ff fc8a 	bl	f76c <am_hal_interrupt_master_set>
    fe58:	682b      	ldr	r3, [r5, #0]
    fe5a:	f023 437e 	bic.w	r3, r3, #4261412864	; 0xfe000000
    fe5e:	42a3      	cmp	r3, r4
    fe60:	d1d4      	bne.n	fe0c <am_hal_uart_power_control+0x40>
    fe62:	6a6f      	ldr	r7, [r5, #36]	; 0x24
    fe64:	e7cb      	b.n	fdfe <am_hal_uart_power_control+0x32>
    fe66:	4640      	mov	r0, r8
    fe68:	f7ff feb6 	bl	fbd8 <am_hal_pwrctrl_periph_enable>
    fe6c:	4648      	mov	r0, r9
    fe6e:	e7b7      	b.n	fde0 <am_hal_uart_power_control+0x14>
    fe70:	4640      	mov	r0, r8
    fe72:	f7ff feb1 	bl	fbd8 <am_hal_pwrctrl_periph_enable>
    fe76:	f7ff fc75 	bl	f764 <am_hal_interrupt_master_disable>
    fe7a:	f507 2380 	add.w	r3, r7, #262144	; 0x40000
    fe7e:	331c      	adds	r3, #28
    fe80:	031b      	lsls	r3, r3, #12
    fe82:	68aa      	ldr	r2, [r5, #8]
    fe84:	9000      	str	r0, [sp, #0]
    fe86:	621a      	str	r2, [r3, #32]
    fe88:	68ea      	ldr	r2, [r5, #12]
    fe8a:	625a      	str	r2, [r3, #36]	; 0x24
    fe8c:	692a      	ldr	r2, [r5, #16]
    fe8e:	629a      	str	r2, [r3, #40]	; 0x28
    fe90:	696a      	ldr	r2, [r5, #20]
    fe92:	62da      	str	r2, [r3, #44]	; 0x2c
    fe94:	69aa      	ldr	r2, [r5, #24]
    fe96:	631a      	str	r2, [r3, #48]	; 0x30
    fe98:	69ea      	ldr	r2, [r5, #28]
    fe9a:	635a      	str	r2, [r3, #52]	; 0x34
    fe9c:	6a2a      	ldr	r2, [r5, #32]
    fe9e:	639a      	str	r2, [r3, #56]	; 0x38
    fea0:	9800      	ldr	r0, [sp, #0]
    fea2:	712e      	strb	r6, [r5, #4]
    fea4:	f7ff fc62 	bl	f76c <am_hal_interrupt_master_set>
    fea8:	4630      	mov	r0, r6
    feaa:	e799      	b.n	fde0 <am_hal_uart_power_control+0x14>
    feac:	01ea9e06 	.word	0x01ea9e06

0000feb0 <am_hal_uart_configure>:
    feb0:	6803      	ldr	r3, [r0, #0]
    feb2:	4a84      	ldr	r2, [pc, #528]	; (100c4 <am_hal_uart_configure+0x214>)
    feb4:	f023 437e 	bic.w	r3, r3, #4261412864	; 0xfe000000
    feb8:	4293      	cmp	r3, r2
    feba:	d001      	beq.n	fec0 <am_hal_uart_configure+0x10>
    febc:	2002      	movs	r0, #2
    febe:	4770      	bx	lr
    fec0:	e92d 41f0 	stmdb	sp!, {r4, r5, r6, r7, r8, lr}
    fec4:	6a45      	ldr	r5, [r0, #36]	; 0x24
    fec6:	f505 2580 	add.w	r5, r5, #262144	; 0x40000
    feca:	351c      	adds	r5, #28
    fecc:	032d      	lsls	r5, r5, #12
    fece:	2700      	movs	r7, #0
    fed0:	b084      	sub	sp, #16
    fed2:	632f      	str	r7, [r5, #48]	; 0x30
    fed4:	460e      	mov	r6, r1
    fed6:	4604      	mov	r4, r0
    fed8:	f7ff fc44 	bl	f764 <am_hal_interrupt_master_disable>
    fedc:	9001      	str	r0, [sp, #4]
    fede:	8e2b      	ldrh	r3, [r5, #48]	; 0x30
    fee0:	f043 0308 	orr.w	r3, r3, #8
    fee4:	862b      	strh	r3, [r5, #48]	; 0x30
    fee6:	8e2b      	ldrh	r3, [r5, #48]	; 0x30
    fee8:	2201      	movs	r2, #1
    feea:	f362 1306 	bfi	r3, r2, #4, #3
    feee:	862b      	strh	r3, [r5, #48]	; 0x30
    fef0:	9801      	ldr	r0, [sp, #4]
    fef2:	f7ff fc3b 	bl	f76c <am_hal_interrupt_master_set>
    fef6:	f7ff fc35 	bl	f764 <am_hal_interrupt_master_disable>
    fefa:	9002      	str	r0, [sp, #8]
    fefc:	8e2b      	ldrh	r3, [r5, #48]	; 0x30
    fefe:	f367 0300 	bfi	r3, r7, #0, #1
    ff02:	862b      	strh	r3, [r5, #48]	; 0x30
    ff04:	8e2b      	ldrh	r3, [r5, #48]	; 0x30
    ff06:	f367 2349 	bfi	r3, r7, #9, #1
    ff0a:	862b      	strh	r3, [r5, #48]	; 0x30
    ff0c:	8e2b      	ldrh	r3, [r5, #48]	; 0x30
    ff0e:	f367 2308 	bfi	r3, r7, #8, #1
    ff12:	862b      	strh	r3, [r5, #48]	; 0x30
    ff14:	9802      	ldr	r0, [sp, #8]
    ff16:	f7ff fc29 	bl	f76c <am_hal_interrupt_master_set>
    ff1a:	4a6b      	ldr	r2, [pc, #428]	; (100c8 <am_hal_uart_configure+0x218>)
    ff1c:	6833      	ldr	r3, [r6, #0]
    ff1e:	68d2      	ldr	r2, [r2, #12]
    ff20:	b2d2      	uxtb	r2, r2
    ff22:	2a12      	cmp	r2, #18
    ff24:	d00b      	beq.n	ff3e <am_hal_uart_configure+0x8e>
    ff26:	4a68      	ldr	r2, [pc, #416]	; (100c8 <am_hal_uart_configure+0x218>)
    ff28:	68d2      	ldr	r2, [r2, #12]
    ff2a:	b2d2      	uxtb	r2, r2
    ff2c:	2a20      	cmp	r2, #32
    ff2e:	d90a      	bls.n	ff46 <am_hal_uart_configure+0x96>
    ff30:	4a66      	ldr	r2, [pc, #408]	; (100cc <am_hal_uart_configure+0x21c>)
    ff32:	4293      	cmp	r3, r2
    ff34:	d907      	bls.n	ff46 <am_hal_uart_configure+0x96>
    ff36:	4866      	ldr	r0, [pc, #408]	; (100d0 <am_hal_uart_configure+0x220>)
    ff38:	b004      	add	sp, #16
    ff3a:	e8bd 81f0 	ldmia.w	sp!, {r4, r5, r6, r7, r8, pc}
    ff3e:	f5b3 2f61 	cmp.w	r3, #921600	; 0xe1000
    ff42:	d8f8      	bhi.n	ff36 <am_hal_uart_configure+0x86>
    ff44:	e7ef      	b.n	ff26 <am_hal_uart_configure+0x76>
    ff46:	6b2a      	ldr	r2, [r5, #48]	; 0x30
    ff48:	f3c2 1202 	ubfx	r2, r2, #4, #3
    ff4c:	3a01      	subs	r2, #1
    ff4e:	2a03      	cmp	r2, #3
    ff50:	d852      	bhi.n	fff8 <am_hal_uart_configure+0x148>
    ff52:	e8df f002 	tbb	[pc, r2]
    ff56:	020f      	.short	0x020f
    ff58:	1215      	.short	0x1215
    ff5a:	4a5e      	ldr	r2, [pc, #376]	; (100d4 <am_hal_uart_configure+0x224>)
    ff5c:	495e      	ldr	r1, [pc, #376]	; (100d8 <am_hal_uart_configure+0x228>)
    ff5e:	011b      	lsls	r3, r3, #4
    ff60:	fbb2 f2f3 	udiv	r2, r2, r3
    ff64:	fbb1 f3f3 	udiv	r3, r1, r3
    ff68:	eba2 1283 	sub.w	r2, r2, r3, lsl #6
    ff6c:	b95b      	cbnz	r3, ff86 <am_hal_uart_configure+0xd6>
    ff6e:	6623      	str	r3, [r4, #96]	; 0x60
    ff70:	4857      	ldr	r0, [pc, #348]	; (100d0 <am_hal_uart_configure+0x220>)
    ff72:	e7e1      	b.n	ff38 <am_hal_uart_configure+0x88>
    ff74:	4a59      	ldr	r2, [pc, #356]	; (100dc <am_hal_uart_configure+0x22c>)
    ff76:	495a      	ldr	r1, [pc, #360]	; (100e0 <am_hal_uart_configure+0x230>)
    ff78:	e7f1      	b.n	ff5e <am_hal_uart_configure+0xae>
    ff7a:	4a5a      	ldr	r2, [pc, #360]	; (100e4 <am_hal_uart_configure+0x234>)
    ff7c:	495a      	ldr	r1, [pc, #360]	; (100e8 <am_hal_uart_configure+0x238>)
    ff7e:	e7ee      	b.n	ff5e <am_hal_uart_configure+0xae>
    ff80:	4a5a      	ldr	r2, [pc, #360]	; (100ec <am_hal_uart_configure+0x23c>)
    ff82:	495b      	ldr	r1, [pc, #364]	; (100f0 <am_hal_uart_configure+0x240>)
    ff84:	e7eb      	b.n	ff5e <am_hal_uart_configure+0xae>
    ff86:	0890      	lsrs	r0, r2, #2
    ff88:	626b      	str	r3, [r5, #36]	; 0x24
    ff8a:	eb00 1003 	add.w	r0, r0, r3, lsl #4
    ff8e:	626b      	str	r3, [r5, #36]	; 0x24
    ff90:	fbb1 f1f0 	udiv	r1, r1, r0
    ff94:	62aa      	str	r2, [r5, #40]	; 0x28
    ff96:	6621      	str	r1, [r4, #96]	; 0x60
    ff98:	8e2b      	ldrh	r3, [r5, #48]	; 0x30
    ff9a:	f36f 338e 	bfc	r3, #14, #1
    ff9e:	862b      	strh	r3, [r5, #48]	; 0x30
    ffa0:	8e2b      	ldrh	r3, [r5, #48]	; 0x30
    ffa2:	f36f 33cf 	bfc	r3, #15, #1
    ffa6:	862b      	strh	r3, [r5, #48]	; 0x30
    ffa8:	6b2a      	ldr	r2, [r5, #48]	; 0x30
    ffaa:	6933      	ldr	r3, [r6, #16]
    ffac:	4313      	orrs	r3, r2
    ffae:	632b      	str	r3, [r5, #48]	; 0x30
    ffb0:	6973      	ldr	r3, [r6, #20]
    ffb2:	636b      	str	r3, [r5, #52]	; 0x34
    ffb4:	6871      	ldr	r1, [r6, #4]
    ffb6:	68b3      	ldr	r3, [r6, #8]
    ffb8:	68f2      	ldr	r2, [r6, #12]
    ffba:	430b      	orrs	r3, r1
    ffbc:	f043 0310 	orr.w	r3, r3, #16
    ffc0:	4313      	orrs	r3, r2
    ffc2:	62eb      	str	r3, [r5, #44]	; 0x2c
    ffc4:	f7ff fbce 	bl	f764 <am_hal_interrupt_master_disable>
    ffc8:	9003      	str	r0, [sp, #12]
    ffca:	8e2b      	ldrh	r3, [r5, #48]	; 0x30
    ffcc:	f043 0301 	orr.w	r3, r3, #1
    ffd0:	862b      	strh	r3, [r5, #48]	; 0x30
    ffd2:	8e2b      	ldrh	r3, [r5, #48]	; 0x30
    ffd4:	f443 7300 	orr.w	r3, r3, #512	; 0x200
    ffd8:	862b      	strh	r3, [r5, #48]	; 0x30
    ffda:	8e2b      	ldrh	r3, [r5, #48]	; 0x30
    ffdc:	f443 7380 	orr.w	r3, r3, #256	; 0x100
    ffe0:	862b      	strh	r3, [r5, #48]	; 0x30
    ffe2:	9803      	ldr	r0, [sp, #12]
    ffe4:	f7ff fbc2 	bl	f76c <am_hal_interrupt_master_set>
    ffe8:	6825      	ldr	r5, [r4, #0]
    ffea:	4b36      	ldr	r3, [pc, #216]	; (100c4 <am_hal_uart_configure+0x214>)
    ffec:	f025 457e 	bic.w	r5, r5, #4261412864	; 0xfe000000
    fff0:	429d      	cmp	r5, r3
    fff2:	d005      	beq.n	10000 <am_hal_uart_configure+0x150>
    fff4:	2000      	movs	r0, #0
    fff6:	e79f      	b.n	ff38 <am_hal_uart_configure+0x88>
    fff8:	2300      	movs	r3, #0
    fffa:	6623      	str	r3, [r4, #96]	; 0x60
    fffc:	483d      	ldr	r0, [pc, #244]	; (100f4 <am_hal_uart_configure+0x244>)
    fffe:	e79b      	b.n	ff38 <am_hal_uart_configure+0x88>
   10000:	69b1      	ldr	r1, [r6, #24]
   10002:	6a37      	ldr	r7, [r6, #32]
   10004:	f8d6 8024 	ldr.w	r8, [r6, #36]	; 0x24
   10008:	b109      	cbz	r1, 1000e <am_hal_uart_configure+0x15e>
   1000a:	69f3      	ldr	r3, [r6, #28]
   1000c:	bb3b      	cbnz	r3, 1005e <am_hal_uart_configure+0x1ae>
   1000e:	6a63      	ldr	r3, [r4, #36]	; 0x24
   10010:	f503 2380 	add.w	r3, r3, #262144	; 0x40000
   10014:	f103 021c 	add.w	r2, r3, #28
   10018:	0312      	lsls	r2, r2, #12
   1001a:	2100      	movs	r1, #0
   1001c:	f884 1028 	strb.w	r1, [r4, #40]	; 0x28
   10020:	6b91      	ldr	r1, [r2, #56]	; 0x38
   10022:	f021 0120 	bic.w	r1, r1, #32
   10026:	6391      	str	r1, [r2, #56]	; 0x38
   10028:	b1b7      	cbz	r7, 10058 <am_hal_uart_configure+0x1a8>
   1002a:	f1b8 0f00 	cmp.w	r8, #0
   1002e:	d12e      	bne.n	1008e <am_hal_uart_configure+0x1de>
   10030:	6823      	ldr	r3, [r4, #0]
   10032:	4a24      	ldr	r2, [pc, #144]	; (100c4 <am_hal_uart_configure+0x214>)
   10034:	f023 437e 	bic.w	r3, r3, #4261412864	; 0xfe000000
   10038:	2100      	movs	r1, #0
   1003a:	4293      	cmp	r3, r2
   1003c:	f884 1044 	strb.w	r1, [r4, #68]	; 0x44
   10040:	d1d8      	bne.n	fff4 <am_hal_uart_configure+0x144>
   10042:	6a63      	ldr	r3, [r4, #36]	; 0x24
   10044:	f503 2380 	add.w	r3, r3, #262144	; 0x40000
   10048:	331c      	adds	r3, #28
   1004a:	031b      	lsls	r3, r3, #12
   1004c:	2000      	movs	r0, #0
   1004e:	6b9a      	ldr	r2, [r3, #56]	; 0x38
   10050:	f022 0250 	bic.w	r2, r2, #80	; 0x50
   10054:	639a      	str	r2, [r3, #56]	; 0x38
   10056:	e76f      	b.n	ff38 <am_hal_uart_configure+0x88>
   10058:	f884 7044 	strb.w	r7, [r4, #68]	; 0x44
   1005c:	e7f4      	b.n	10048 <am_hal_uart_configure+0x198>
   1005e:	2201      	movs	r2, #1
   10060:	f884 2028 	strb.w	r2, [r4, #40]	; 0x28
   10064:	f104 002c 	add.w	r0, r4, #44	; 0x2c
   10068:	f000 fa80 	bl	1056c <am_hal_queue_init>
   1006c:	6823      	ldr	r3, [r4, #0]
   1006e:	f023 437e 	bic.w	r3, r3, #4261412864	; 0xfe000000
   10072:	42ab      	cmp	r3, r5
   10074:	d1be      	bne.n	fff4 <am_hal_uart_configure+0x144>
   10076:	6a63      	ldr	r3, [r4, #36]	; 0x24
   10078:	f503 2380 	add.w	r3, r3, #262144	; 0x40000
   1007c:	331c      	adds	r3, #28
   1007e:	031b      	lsls	r3, r3, #12
   10080:	6b9a      	ldr	r2, [r3, #56]	; 0x38
   10082:	f042 0220 	orr.w	r2, r2, #32
   10086:	639a      	str	r2, [r3, #56]	; 0x38
   10088:	2f00      	cmp	r7, #0
   1008a:	d1ce      	bne.n	1002a <am_hal_uart_configure+0x17a>
   1008c:	e7d0      	b.n	10030 <am_hal_uart_configure+0x180>
   1008e:	2201      	movs	r2, #1
   10090:	4643      	mov	r3, r8
   10092:	f884 2044 	strb.w	r2, [r4, #68]	; 0x44
   10096:	4639      	mov	r1, r7
   10098:	f104 0048 	add.w	r0, r4, #72	; 0x48
   1009c:	f000 fa66 	bl	1056c <am_hal_queue_init>
   100a0:	6823      	ldr	r3, [r4, #0]
   100a2:	4a08      	ldr	r2, [pc, #32]	; (100c4 <am_hal_uart_configure+0x214>)
   100a4:	f023 437e 	bic.w	r3, r3, #4261412864	; 0xfe000000
   100a8:	4293      	cmp	r3, r2
   100aa:	d1a3      	bne.n	fff4 <am_hal_uart_configure+0x144>
   100ac:	6a63      	ldr	r3, [r4, #36]	; 0x24
   100ae:	f503 2380 	add.w	r3, r3, #262144	; 0x40000
   100b2:	331c      	adds	r3, #28
   100b4:	031b      	lsls	r3, r3, #12
   100b6:	2000      	movs	r0, #0
   100b8:	6b9a      	ldr	r2, [r3, #56]	; 0x38
   100ba:	f042 0250 	orr.w	r2, r2, #80	; 0x50
   100be:	639a      	str	r2, [r3, #56]	; 0x38
   100c0:	e73a      	b.n	ff38 <am_hal_uart_configure+0x88>
   100c2:	bf00      	nop
   100c4:	01ea9e06 	.word	0x01ea9e06
   100c8:	40020000 	.word	0x40020000
   100cc:	0016e360 	.word	0x0016e360
   100d0:	08000003 	.word	0x08000003
   100d4:	2dc6c000 	.word	0x2dc6c000
   100d8:	00b71b00 	.word	0x00b71b00
   100dc:	5b8d8000 	.word	0x5b8d8000
   100e0:	016e3600 	.word	0x016e3600
   100e4:	0b71b000 	.word	0x0b71b000
   100e8:	002dc6c0 	.word	0x002dc6c0
   100ec:	16e36000 	.word	0x16e36000
   100f0:	005b8d80 	.word	0x005b8d80
   100f4:	08000002 	.word	0x08000002

000100f8 <am_hal_uart_transfer>:
   100f8:	e92d 4ff0 	stmdb	sp!, {r4, r5, r6, r7, r8, r9, sl, fp, lr}
   100fc:	680f      	ldr	r7, [r1, #0]
   100fe:	b091      	sub	sp, #68	; 0x44
   10100:	4605      	mov	r5, r0
   10102:	b13f      	cbz	r7, 10114 <am_hal_uart_transfer+0x1c>
   10104:	2f01      	cmp	r7, #1
   10106:	bf18      	it	ne
   10108:	2707      	movne	r7, #7
   1010a:	d024      	beq.n	10156 <am_hal_uart_transfer+0x5e>
   1010c:	4638      	mov	r0, r7
   1010e:	b011      	add	sp, #68	; 0x44
   10110:	e8bd 8ff0 	ldmia.w	sp!, {r4, r5, r6, r7, r8, r9, sl, fp, pc}
   10114:	f8d1 900c 	ldr.w	r9, [r1, #12]
   10118:	690b      	ldr	r3, [r1, #16]
   1011a:	f8d1 a004 	ldr.w	sl, [r1, #4]
   1011e:	688e      	ldr	r6, [r1, #8]
   10120:	9300      	str	r3, [sp, #0]
   10122:	f1b9 0f00 	cmp.w	r9, #0
   10126:	d031      	beq.n	1018c <am_hal_uart_transfer+0x94>
   10128:	2e00      	cmp	r6, #0
   1012a:	f000 819c 	beq.w	10466 <am_hal_uart_transfer+0x36e>
   1012e:	2800      	cmp	r0, #0
   10130:	f000 8097 	beq.w	10262 <am_hal_uart_transfer+0x16a>
   10134:	6803      	ldr	r3, [r0, #0]
   10136:	4aa9      	ldr	r2, [pc, #676]	; (103dc <am_hal_uart_transfer+0x2e4>)
   10138:	f023 437e 	bic.w	r3, r3, #4261412864	; 0xfe000000
   1013c:	4293      	cmp	r3, r2
   1013e:	f000 8092 	beq.w	10266 <am_hal_uart_transfer+0x16e>
   10142:	46b8      	mov	r8, r7
   10144:	9b00      	ldr	r3, [sp, #0]
   10146:	b10b      	cbz	r3, 1014c <am_hal_uart_transfer+0x54>
   10148:	f8c3 8000 	str.w	r8, [r3]
   1014c:	2702      	movs	r7, #2
   1014e:	4638      	mov	r0, r7
   10150:	b011      	add	sp, #68	; 0x44
   10152:	e8bd 8ff0 	ldmia.w	sp!, {r4, r5, r6, r7, r8, r9, sl, fp, pc}
   10156:	1d0b      	adds	r3, r1, #4
   10158:	e893 0a88 	ldmia.w	r3, {r3, r7, r9, fp}
   1015c:	f1b9 0f00 	cmp.w	r9, #0
   10160:	d043      	beq.n	101ea <am_hal_uart_transfer+0xf2>
   10162:	2f00      	cmp	r7, #0
   10164:	f000 8185 	beq.w	10472 <am_hal_uart_transfer+0x37a>
   10168:	2800      	cmp	r0, #0
   1016a:	f000 80eb 	beq.w	10344 <am_hal_uart_transfer+0x24c>
   1016e:	6802      	ldr	r2, [r0, #0]
   10170:	499a      	ldr	r1, [pc, #616]	; (103dc <am_hal_uart_transfer+0x2e4>)
   10172:	f022 427e 	bic.w	r2, r2, #4261412864	; 0xfe000000
   10176:	428a      	cmp	r2, r1
   10178:	f000 80e7 	beq.w	1034a <am_hal_uart_transfer+0x252>
   1017c:	2600      	movs	r6, #0
   1017e:	2702      	movs	r7, #2
   10180:	f1bb 0f00 	cmp.w	fp, #0
   10184:	d0c2      	beq.n	1010c <am_hal_uart_transfer+0x14>
   10186:	f8cb 6000 	str.w	r6, [fp]
   1018a:	e7bf      	b.n	1010c <am_hal_uart_transfer+0x14>
   1018c:	2800      	cmp	r0, #0
   1018e:	d0dd      	beq.n	1014c <am_hal_uart_transfer+0x54>
   10190:	6803      	ldr	r3, [r0, #0]
   10192:	4a92      	ldr	r2, [pc, #584]	; (103dc <am_hal_uart_transfer+0x2e4>)
   10194:	f023 437e 	bic.w	r3, r3, #4261412864	; 0xfe000000
   10198:	4293      	cmp	r3, r2
   1019a:	d1d7      	bne.n	1014c <am_hal_uart_transfer+0x54>
   1019c:	9b00      	ldr	r3, [sp, #0]
   1019e:	b10b      	cbz	r3, 101a4 <am_hal_uart_transfer+0xac>
   101a0:	f8c3 9000 	str.w	r9, [r3]
   101a4:	b1fe      	cbz	r6, 101e6 <am_hal_uart_transfer+0xee>
   101a6:	f895 3028 	ldrb.w	r3, [r5, #40]	; 0x28
   101aa:	2b00      	cmp	r3, #0
   101ac:	f040 8165 	bne.w	1047a <am_hal_uart_transfer+0x382>
   101b0:	6a69      	ldr	r1, [r5, #36]	; 0x24
   101b2:	f501 2180 	add.w	r1, r1, #262144	; 0x40000
   101b6:	311c      	adds	r1, #28
   101b8:	0309      	lsls	r1, r1, #12
   101ba:	698a      	ldr	r2, [r1, #24]
   101bc:	f3c2 1240 	ubfx	r2, r2, #5, #1
   101c0:	2a00      	cmp	r2, #0
   101c2:	f040 818d 	bne.w	104e0 <am_hal_uart_transfer+0x3e8>
   101c6:	f10a 33ff 	add.w	r3, sl, #4294967295	; 0xffffffff
   101ca:	e003      	b.n	101d4 <am_hal_uart_transfer+0xdc>
   101cc:	6988      	ldr	r0, [r1, #24]
   101ce:	0680      	lsls	r0, r0, #26
   101d0:	f100 8151 	bmi.w	10476 <am_hal_uart_transfer+0x37e>
   101d4:	3201      	adds	r2, #1
   101d6:	f813 0f01 	ldrb.w	r0, [r3, #1]!
   101da:	6008      	str	r0, [r1, #0]
   101dc:	4296      	cmp	r6, r2
   101de:	d1f5      	bne.n	101cc <am_hal_uart_transfer+0xd4>
   101e0:	9b00      	ldr	r3, [sp, #0]
   101e2:	b103      	cbz	r3, 101e6 <am_hal_uart_transfer+0xee>
   101e4:	601e      	str	r6, [r3, #0]
   101e6:	2700      	movs	r7, #0
   101e8:	e790      	b.n	1010c <am_hal_uart_transfer+0x14>
   101ea:	2800      	cmp	r0, #0
   101ec:	d0ae      	beq.n	1014c <am_hal_uart_transfer+0x54>
   101ee:	6802      	ldr	r2, [r0, #0]
   101f0:	497a      	ldr	r1, [pc, #488]	; (103dc <am_hal_uart_transfer+0x2e4>)
   101f2:	f022 427e 	bic.w	r2, r2, #4261412864	; 0xfe000000
   101f6:	428a      	cmp	r2, r1
   101f8:	d1a8      	bne.n	1014c <am_hal_uart_transfer+0x54>
   101fa:	f1bb 0f00 	cmp.w	fp, #0
   101fe:	d001      	beq.n	10204 <am_hal_uart_transfer+0x10c>
   10200:	f8cb 9000 	str.w	r9, [fp]
   10204:	2f00      	cmp	r7, #0
   10206:	d0ee      	beq.n	101e6 <am_hal_uart_transfer+0xee>
   10208:	f895 4044 	ldrb.w	r4, [r5, #68]	; 0x44
   1020c:	2c00      	cmp	r4, #0
   1020e:	f040 816c 	bne.w	104ea <am_hal_uart_transfer+0x3f2>
   10212:	6a6a      	ldr	r2, [r5, #36]	; 0x24
   10214:	f502 2280 	add.w	r2, r2, #262144	; 0x40000
   10218:	321c      	adds	r2, #28
   1021a:	0312      	lsls	r2, r2, #12
   1021c:	6990      	ldr	r0, [r2, #24]
   1021e:	f3c0 1000 	ubfx	r0, r0, #4, #1
   10222:	2800      	cmp	r0, #0
   10224:	f040 819d 	bne.w	10562 <am_hal_uart_transfer+0x46a>
   10228:	6811      	ldr	r1, [r2, #0]
   1022a:	f411 6470 	ands.w	r4, r1, #3840	; 0xf00
   1022e:	bf08      	it	eq
   10230:	f103 33ff 	addeq.w	r3, r3, #4294967295	; 0xffffffff
   10234:	d008      	beq.n	10248 <am_hal_uart_transfer+0x150>
   10236:	e190      	b.n	1055a <am_hal_uart_transfer+0x462>
   10238:	6991      	ldr	r1, [r2, #24]
   1023a:	06c8      	lsls	r0, r1, #27
   1023c:	d409      	bmi.n	10252 <am_hal_uart_transfer+0x15a>
   1023e:	6811      	ldr	r1, [r2, #0]
   10240:	f411 6f70 	tst.w	r1, #3840	; 0xf00
   10244:	f040 814e 	bne.w	104e4 <am_hal_uart_transfer+0x3ec>
   10248:	3401      	adds	r4, #1
   1024a:	42a7      	cmp	r7, r4
   1024c:	f803 1f01 	strb.w	r1, [r3, #1]!
   10250:	d1f2      	bne.n	10238 <am_hal_uart_transfer+0x140>
   10252:	2700      	movs	r7, #0
   10254:	f1bb 0f00 	cmp.w	fp, #0
   10258:	f43f af58 	beq.w	1010c <am_hal_uart_transfer+0x14>
   1025c:	f8cb 4000 	str.w	r4, [fp]
   10260:	e754      	b.n	1010c <am_hal_uart_transfer+0x14>
   10262:	4680      	mov	r8, r0
   10264:	e76e      	b.n	10144 <am_hal_uart_transfer+0x4c>
   10266:	9301      	str	r3, [sp, #4]
   10268:	4651      	mov	r1, sl
   1026a:	46bb      	mov	fp, r7
   1026c:	46b8      	mov	r8, r7
   1026e:	f895 2028 	ldrb.w	r2, [r5, #40]	; 0x28
   10272:	b9f2      	cbnz	r2, 102b2 <am_hal_uart_transfer+0x1ba>
   10274:	6a6a      	ldr	r2, [r5, #36]	; 0x24
   10276:	b19e      	cbz	r6, 102a0 <am_hal_uart_transfer+0x1a8>
   10278:	f502 2280 	add.w	r2, r2, #262144	; 0x40000
   1027c:	321c      	adds	r2, #28
   1027e:	0312      	lsls	r2, r2, #12
   10280:	3901      	subs	r1, #1
   10282:	6994      	ldr	r4, [r2, #24]
   10284:	f3c4 1440 	ubfx	r4, r4, #5, #1
   10288:	b11c      	cbz	r4, 10292 <am_hal_uart_transfer+0x19a>
   1028a:	e047      	b.n	1031c <am_hal_uart_transfer+0x224>
   1028c:	6993      	ldr	r3, [r2, #24]
   1028e:	069b      	lsls	r3, r3, #26
   10290:	d441      	bmi.n	10316 <am_hal_uart_transfer+0x21e>
   10292:	3401      	adds	r4, #1
   10294:	f811 3f01 	ldrb.w	r3, [r1, #1]!
   10298:	6013      	str	r3, [r2, #0]
   1029a:	42b4      	cmp	r4, r6
   1029c:	d1f6      	bne.n	1028c <am_hal_uart_transfer+0x194>
   1029e:	44a0      	add	r8, r4
   102a0:	9b00      	ldr	r3, [sp, #0]
   102a2:	2b00      	cmp	r3, #0
   102a4:	d09f      	beq.n	101e6 <am_hal_uart_transfer+0xee>
   102a6:	4638      	mov	r0, r7
   102a8:	f8c3 8000 	str.w	r8, [r3]
   102ac:	b011      	add	sp, #68	; 0x44
   102ae:	e8bd 8ff0 	ldmia.w	sp!, {r4, r5, r6, r7, r8, r9, sl, fp, pc}
   102b2:	6baa      	ldr	r2, [r5, #56]	; 0x38
   102b4:	6b6c      	ldr	r4, [r5, #52]	; 0x34
   102b6:	1b14      	subs	r4, r2, r4
   102b8:	42b4      	cmp	r4, r6
   102ba:	f105 032c 	add.w	r3, r5, #44	; 0x2c
   102be:	bf28      	it	cs
   102c0:	4634      	movcs	r4, r6
   102c2:	4622      	mov	r2, r4
   102c4:	4618      	mov	r0, r3
   102c6:	9302      	str	r3, [sp, #8]
   102c8:	f000 f95c 	bl	10584 <am_hal_queue_item_add>
   102cc:	6a6b      	ldr	r3, [r5, #36]	; 0x24
   102ce:	9303      	str	r3, [sp, #12]
   102d0:	f7ff fa48 	bl	f764 <am_hal_interrupt_master_disable>
   102d4:	9b03      	ldr	r3, [sp, #12]
   102d6:	9008      	str	r0, [sp, #32]
   102d8:	f503 2380 	add.w	r3, r3, #262144	; 0x40000
   102dc:	331c      	adds	r3, #28
   102de:	031b      	lsls	r3, r3, #12
   102e0:	9303      	str	r3, [sp, #12]
   102e2:	e00d      	b.n	10300 <am_hal_uart_transfer+0x208>
   102e4:	f000 f986 	bl	105f4 <am_hal_queue_item_get>
   102e8:	b190      	cbz	r0, 10310 <am_hal_uart_transfer+0x218>
   102ea:	6a6b      	ldr	r3, [r5, #36]	; 0x24
   102ec:	f503 2380 	add.w	r3, r3, #262144	; 0x40000
   102f0:	331c      	adds	r3, #28
   102f2:	031b      	lsls	r3, r3, #12
   102f4:	699a      	ldr	r2, [r3, #24]
   102f6:	0692      	lsls	r2, r2, #26
   102f8:	bf5c      	itt	pl
   102fa:	f89d 201c 	ldrbpl.w	r2, [sp, #28]
   102fe:	601a      	strpl	r2, [r3, #0]
   10300:	9b03      	ldr	r3, [sp, #12]
   10302:	9802      	ldr	r0, [sp, #8]
   10304:	699b      	ldr	r3, [r3, #24]
   10306:	069b      	lsls	r3, r3, #26
   10308:	f04f 0201 	mov.w	r2, #1
   1030c:	a907      	add	r1, sp, #28
   1030e:	d5e9      	bpl.n	102e4 <am_hal_uart_transfer+0x1ec>
   10310:	9808      	ldr	r0, [sp, #32]
   10312:	f7ff fa2b 	bl	f76c <am_hal_interrupt_master_set>
   10316:	1b36      	subs	r6, r6, r4
   10318:	44a0      	add	r8, r4
   1031a:	d0c1      	beq.n	102a0 <am_hal_uart_transfer+0x1a8>
   1031c:	2010      	movs	r0, #16
   1031e:	f7fe ffd5 	bl	f2cc <am_hal_flash_delay>
   10322:	f1b9 3fff 	cmp.w	r9, #4294967295	; 0xffffffff
   10326:	d001      	beq.n	1032c <am_hal_uart_transfer+0x234>
   10328:	f10b 0b01 	add.w	fp, fp, #1
   1032c:	45d9      	cmp	r9, fp
   1032e:	d9b7      	bls.n	102a0 <am_hal_uart_transfer+0x1a8>
   10330:	682a      	ldr	r2, [r5, #0]
   10332:	9b01      	ldr	r3, [sp, #4]
   10334:	f022 427e 	bic.w	r2, r2, #4261412864	; 0xfe000000
   10338:	429a      	cmp	r2, r3
   1033a:	eb0a 0108 	add.w	r1, sl, r8
   1033e:	f47f af01 	bne.w	10144 <am_hal_uart_transfer+0x4c>
   10342:	e794      	b.n	1026e <am_hal_uart_transfer+0x176>
   10344:	4606      	mov	r6, r0
   10346:	2702      	movs	r7, #2
   10348:	e71a      	b.n	10180 <am_hal_uart_transfer+0x88>
   1034a:	9200      	str	r2, [sp, #0]
   1034c:	f100 0248 	add.w	r2, r0, #72	; 0x48
   10350:	f04f 0a00 	mov.w	sl, #0
   10354:	9202      	str	r2, [sp, #8]
   10356:	465a      	mov	r2, fp
   10358:	4698      	mov	r8, r3
   1035a:	469b      	mov	fp, r3
   1035c:	4656      	mov	r6, sl
   1035e:	4613      	mov	r3, r2
   10360:	f895 2044 	ldrb.w	r2, [r5, #68]	; 0x44
   10364:	2a00      	cmp	r2, #0
   10366:	d152      	bne.n	1040e <am_hal_uart_transfer+0x316>
   10368:	6a69      	ldr	r1, [r5, #36]	; 0x24
   1036a:	b3a7      	cbz	r7, 103d6 <am_hal_uart_transfer+0x2de>
   1036c:	f501 2180 	add.w	r1, r1, #262144	; 0x40000
   10370:	311c      	adds	r1, #28
   10372:	0309      	lsls	r1, r1, #12
   10374:	698a      	ldr	r2, [r1, #24]
   10376:	06d0      	lsls	r0, r2, #27
   10378:	d432      	bmi.n	103e0 <am_hal_uart_transfer+0x2e8>
   1037a:	680a      	ldr	r2, [r1, #0]
   1037c:	f412 6470 	ands.w	r4, r2, #3840	; 0xf00
   10380:	f040 80aa 	bne.w	104d8 <am_hal_uart_transfer+0x3e0>
   10384:	f108 38ff 	add.w	r8, r8, #4294967295	; 0xffffffff
   10388:	e006      	b.n	10398 <am_hal_uart_transfer+0x2a0>
   1038a:	698a      	ldr	r2, [r1, #24]
   1038c:	06d2      	lsls	r2, r2, #27
   1038e:	d41f      	bmi.n	103d0 <am_hal_uart_transfer+0x2d8>
   10390:	680a      	ldr	r2, [r1, #0]
   10392:	f412 6f70 	tst.w	r2, #3840	; 0xf00
   10396:	d161      	bne.n	1045c <am_hal_uart_transfer+0x364>
   10398:	3401      	adds	r4, #1
   1039a:	42bc      	cmp	r4, r7
   1039c:	f808 2f01 	strb.w	r2, [r8, #1]!
   103a0:	d1f3      	bne.n	1038a <am_hal_uart_transfer+0x292>
   103a2:	469b      	mov	fp, r3
   103a4:	4426      	add	r6, r4
   103a6:	f1bb 0f00 	cmp.w	fp, #0
   103aa:	f43f af1c 	beq.w	101e6 <am_hal_uart_transfer+0xee>
   103ae:	f8cb 6000 	str.w	r6, [fp]
   103b2:	2700      	movs	r7, #0
   103b4:	e6aa      	b.n	1010c <am_hal_uart_transfer+0x14>
   103b6:	9807      	ldr	r0, [sp, #28]
   103b8:	f7ff f9d8 	bl	f76c <am_hal_interrupt_master_set>
   103bc:	6d2c      	ldr	r4, [r5, #80]	; 0x50
   103be:	9802      	ldr	r0, [sp, #8]
   103c0:	42bc      	cmp	r4, r7
   103c2:	bf28      	it	cs
   103c4:	463c      	movcs	r4, r7
   103c6:	4641      	mov	r1, r8
   103c8:	4622      	mov	r2, r4
   103ca:	f000 f913 	bl	105f4 <am_hal_queue_item_get>
   103ce:	9b01      	ldr	r3, [sp, #4]
   103d0:	1b3f      	subs	r7, r7, r4
   103d2:	4426      	add	r6, r4
   103d4:	d104      	bne.n	103e0 <am_hal_uart_transfer+0x2e8>
   103d6:	469b      	mov	fp, r3
   103d8:	e7e5      	b.n	103a6 <am_hal_uart_transfer+0x2ae>
   103da:	bf00      	nop
   103dc:	01ea9e06 	.word	0x01ea9e06
   103e0:	2010      	movs	r0, #16
   103e2:	9301      	str	r3, [sp, #4]
   103e4:	f7fe ff72 	bl	f2cc <am_hal_flash_delay>
   103e8:	f1b9 3fff 	cmp.w	r9, #4294967295	; 0xffffffff
   103ec:	9b01      	ldr	r3, [sp, #4]
   103ee:	d001      	beq.n	103f4 <am_hal_uart_transfer+0x2fc>
   103f0:	f10a 0a01 	add.w	sl, sl, #1
   103f4:	45d1      	cmp	r9, sl
   103f6:	d9ee      	bls.n	103d6 <am_hal_uart_transfer+0x2de>
   103f8:	682a      	ldr	r2, [r5, #0]
   103fa:	9900      	ldr	r1, [sp, #0]
   103fc:	f022 427e 	bic.w	r2, r2, #4261412864	; 0xfe000000
   10400:	428a      	cmp	r2, r1
   10402:	eb0b 0806 	add.w	r8, fp, r6
   10406:	d0ab      	beq.n	10360 <am_hal_uart_transfer+0x268>
   10408:	469b      	mov	fp, r3
   1040a:	2702      	movs	r7, #2
   1040c:	e6b8      	b.n	10180 <am_hal_uart_transfer+0x88>
   1040e:	9301      	str	r3, [sp, #4]
   10410:	f7ff f9a8 	bl	f764 <am_hal_interrupt_master_disable>
   10414:	6a6a      	ldr	r2, [r5, #36]	; 0x24
   10416:	9007      	str	r0, [sp, #28]
   10418:	f502 2080 	add.w	r0, r2, #262144	; 0x40000
   1041c:	301c      	adds	r0, #28
   1041e:	9b01      	ldr	r3, [sp, #4]
   10420:	0300      	lsls	r0, r0, #12
   10422:	ac08      	add	r4, sp, #32
   10424:	2200      	movs	r2, #0
   10426:	6981      	ldr	r1, [r0, #24]
   10428:	06c9      	lsls	r1, r1, #27
   1042a:	d409      	bmi.n	10440 <am_hal_uart_transfer+0x348>
   1042c:	6801      	ldr	r1, [r0, #0]
   1042e:	f411 6f70 	tst.w	r1, #3840	; 0xf00
   10432:	f102 0201 	add.w	r2, r2, #1
   10436:	d118      	bne.n	1046a <am_hal_uart_transfer+0x372>
   10438:	2a20      	cmp	r2, #32
   1043a:	f804 1b01 	strb.w	r1, [r4], #1
   1043e:	d1f2      	bne.n	10426 <am_hal_uart_transfer+0x32e>
   10440:	a908      	add	r1, sp, #32
   10442:	9802      	ldr	r0, [sp, #8]
   10444:	9301      	str	r3, [sp, #4]
   10446:	f000 f89d 	bl	10584 <am_hal_queue_item_add>
   1044a:	9b01      	ldr	r3, [sp, #4]
   1044c:	2800      	cmp	r0, #0
   1044e:	d1b2      	bne.n	103b6 <am_hal_uart_transfer+0x2be>
   10450:	4f45      	ldr	r7, [pc, #276]	; (10568 <am_hal_uart_transfer+0x470>)
   10452:	469b      	mov	fp, r3
   10454:	9807      	ldr	r0, [sp, #28]
   10456:	f7ff f989 	bl	f76c <am_hal_interrupt_master_set>
   1045a:	e691      	b.n	10180 <am_hal_uart_transfer+0x88>
   1045c:	469b      	mov	fp, r3
   1045e:	4426      	add	r6, r4
   10460:	f04f 6700 	mov.w	r7, #134217728	; 0x8000000
   10464:	e68c      	b.n	10180 <am_hal_uart_transfer+0x88>
   10466:	46b8      	mov	r8, r7
   10468:	e71a      	b.n	102a0 <am_hal_uart_transfer+0x1a8>
   1046a:	469b      	mov	fp, r3
   1046c:	f04f 6700 	mov.w	r7, #134217728	; 0x8000000
   10470:	e7f0      	b.n	10454 <am_hal_uart_transfer+0x35c>
   10472:	463e      	mov	r6, r7
   10474:	e797      	b.n	103a6 <am_hal_uart_transfer+0x2ae>
   10476:	4616      	mov	r6, r2
   10478:	e6b2      	b.n	101e0 <am_hal_uart_transfer+0xe8>
   1047a:	6b6a      	ldr	r2, [r5, #52]	; 0x34
   1047c:	6bab      	ldr	r3, [r5, #56]	; 0x38
   1047e:	1a9b      	subs	r3, r3, r2
   10480:	429e      	cmp	r6, r3
   10482:	bf28      	it	cs
   10484:	461e      	movcs	r6, r3
   10486:	f105 042c 	add.w	r4, r5, #44	; 0x2c
   1048a:	4651      	mov	r1, sl
   1048c:	4632      	mov	r2, r6
   1048e:	4620      	mov	r0, r4
   10490:	f000 f878 	bl	10584 <am_hal_queue_item_add>
   10494:	6a6f      	ldr	r7, [r5, #36]	; 0x24
   10496:	f7ff f965 	bl	f764 <am_hal_interrupt_master_disable>
   1049a:	f507 2780 	add.w	r7, r7, #262144	; 0x40000
   1049e:	371c      	adds	r7, #28
   104a0:	033f      	lsls	r7, r7, #12
   104a2:	9005      	str	r0, [sp, #20]
   104a4:	e00d      	b.n	104c2 <am_hal_uart_transfer+0x3ca>
   104a6:	f000 f8a5 	bl	105f4 <am_hal_queue_item_get>
   104aa:	b188      	cbz	r0, 104d0 <am_hal_uart_transfer+0x3d8>
   104ac:	6a6b      	ldr	r3, [r5, #36]	; 0x24
   104ae:	f503 2380 	add.w	r3, r3, #262144	; 0x40000
   104b2:	331c      	adds	r3, #28
   104b4:	031b      	lsls	r3, r3, #12
   104b6:	699a      	ldr	r2, [r3, #24]
   104b8:	0692      	lsls	r2, r2, #26
   104ba:	bf5c      	itt	pl
   104bc:	f89d 2020 	ldrbpl.w	r2, [sp, #32]
   104c0:	601a      	strpl	r2, [r3, #0]
   104c2:	69bb      	ldr	r3, [r7, #24]
   104c4:	069b      	lsls	r3, r3, #26
   104c6:	f04f 0201 	mov.w	r2, #1
   104ca:	a908      	add	r1, sp, #32
   104cc:	4620      	mov	r0, r4
   104ce:	d5ea      	bpl.n	104a6 <am_hal_uart_transfer+0x3ae>
   104d0:	9805      	ldr	r0, [sp, #20]
   104d2:	f7ff f94b 	bl	f76c <am_hal_interrupt_master_set>
   104d6:	e683      	b.n	101e0 <am_hal_uart_transfer+0xe8>
   104d8:	469b      	mov	fp, r3
   104da:	f04f 6700 	mov.w	r7, #134217728	; 0x8000000
   104de:	e64f      	b.n	10180 <am_hal_uart_transfer+0x88>
   104e0:	461e      	mov	r6, r3
   104e2:	e67d      	b.n	101e0 <am_hal_uart_transfer+0xe8>
   104e4:	f04f 6700 	mov.w	r7, #134217728	; 0x8000000
   104e8:	e6b4      	b.n	10254 <am_hal_uart_transfer+0x15c>
   104ea:	9300      	str	r3, [sp, #0]
   104ec:	f7ff f93a 	bl	f764 <am_hal_interrupt_master_disable>
   104f0:	6a6a      	ldr	r2, [r5, #36]	; 0x24
   104f2:	9006      	str	r0, [sp, #24]
   104f4:	f502 2280 	add.w	r2, r2, #262144	; 0x40000
   104f8:	321c      	adds	r2, #28
   104fa:	0311      	lsls	r1, r2, #12
   104fc:	a808      	add	r0, sp, #32
   104fe:	2200      	movs	r2, #0
   10500:	9b00      	ldr	r3, [sp, #0]
   10502:	e009      	b.n	10518 <am_hal_uart_transfer+0x420>
   10504:	680c      	ldr	r4, [r1, #0]
   10506:	f414 6f70 	tst.w	r4, #3840	; 0xf00
   1050a:	f102 0201 	add.w	r2, r2, #1
   1050e:	d121      	bne.n	10554 <am_hal_uart_transfer+0x45c>
   10510:	2a20      	cmp	r2, #32
   10512:	f800 4b01 	strb.w	r4, [r0], #1
   10516:	d002      	beq.n	1051e <am_hal_uart_transfer+0x426>
   10518:	698c      	ldr	r4, [r1, #24]
   1051a:	06e4      	lsls	r4, r4, #27
   1051c:	d5f2      	bpl.n	10504 <am_hal_uart_transfer+0x40c>
   1051e:	f105 0648 	add.w	r6, r5, #72	; 0x48
   10522:	a908      	add	r1, sp, #32
   10524:	4630      	mov	r0, r6
   10526:	9300      	str	r3, [sp, #0]
   10528:	f000 f82c 	bl	10584 <am_hal_queue_item_add>
   1052c:	b920      	cbnz	r0, 10538 <am_hal_uart_transfer+0x440>
   1052e:	4f0e      	ldr	r7, [pc, #56]	; (10568 <am_hal_uart_transfer+0x470>)
   10530:	9806      	ldr	r0, [sp, #24]
   10532:	f7ff f91b 	bl	f76c <am_hal_interrupt_master_set>
   10536:	e5e9      	b.n	1010c <am_hal_uart_transfer+0x14>
   10538:	9806      	ldr	r0, [sp, #24]
   1053a:	f7ff f917 	bl	f76c <am_hal_interrupt_master_set>
   1053e:	6d2c      	ldr	r4, [r5, #80]	; 0x50
   10540:	9b00      	ldr	r3, [sp, #0]
   10542:	42bc      	cmp	r4, r7
   10544:	bf28      	it	cs
   10546:	463c      	movcs	r4, r7
   10548:	4619      	mov	r1, r3
   1054a:	4630      	mov	r0, r6
   1054c:	4622      	mov	r2, r4
   1054e:	f000 f851 	bl	105f4 <am_hal_queue_item_get>
   10552:	e67e      	b.n	10252 <am_hal_uart_transfer+0x15a>
   10554:	f04f 6700 	mov.w	r7, #134217728	; 0x8000000
   10558:	e7ea      	b.n	10530 <am_hal_uart_transfer+0x438>
   1055a:	4604      	mov	r4, r0
   1055c:	f04f 6700 	mov.w	r7, #134217728	; 0x8000000
   10560:	e678      	b.n	10254 <am_hal_uart_transfer+0x15c>
   10562:	4627      	mov	r7, r4
   10564:	e676      	b.n	10254 <am_hal_uart_transfer+0x15c>
   10566:	bf00      	nop
   10568:	08000001 	.word	0x08000001

0001056c <am_hal_queue_init>:
   1056c:	b410      	push	{r4}
   1056e:	2400      	movs	r4, #0
   10570:	6004      	str	r4, [r0, #0]
   10572:	6044      	str	r4, [r0, #4]
   10574:	6084      	str	r4, [r0, #8]
   10576:	60c3      	str	r3, [r0, #12]
   10578:	6102      	str	r2, [r0, #16]
   1057a:	6141      	str	r1, [r0, #20]
   1057c:	f85d 4b04 	ldr.w	r4, [sp], #4
   10580:	4770      	bx	lr
   10582:	bf00      	nop

00010584 <am_hal_queue_item_add>:
   10584:	b5f0      	push	{r4, r5, r6, r7, lr}
   10586:	4604      	mov	r4, r0
   10588:	6906      	ldr	r6, [r0, #16]
   1058a:	b083      	sub	sp, #12
   1058c:	fb06 f602 	mul.w	r6, r6, r2
   10590:	460d      	mov	r5, r1
   10592:	f7ff f8e7 	bl	f764 <am_hal_interrupt_master_disable>
   10596:	68e7      	ldr	r7, [r4, #12]
   10598:	68a2      	ldr	r2, [r4, #8]
   1059a:	9001      	str	r0, [sp, #4]
   1059c:	1abb      	subs	r3, r7, r2
   1059e:	429e      	cmp	r6, r3
   105a0:	d826      	bhi.n	105f0 <am_hal_queue_item_add+0x6c>
   105a2:	b196      	cbz	r6, 105ca <am_hal_queue_item_add+0x46>
   105a4:	6823      	ldr	r3, [r4, #0]
   105a6:	4629      	mov	r1, r5
   105a8:	b1c5      	cbz	r5, 105dc <am_hal_queue_item_add+0x58>
   105aa:	19af      	adds	r7, r5, r6
   105ac:	6962      	ldr	r2, [r4, #20]
   105ae:	f811 0b01 	ldrb.w	r0, [r1], #1
   105b2:	54d0      	strb	r0, [r2, r3]
   105b4:	6823      	ldr	r3, [r4, #0]
   105b6:	68e5      	ldr	r5, [r4, #12]
   105b8:	3301      	adds	r3, #1
   105ba:	42b9      	cmp	r1, r7
   105bc:	fbb3 f0f5 	udiv	r0, r3, r5
   105c0:	fb05 3310 	mls	r3, r5, r0, r3
   105c4:	6023      	str	r3, [r4, #0]
   105c6:	d1f1      	bne.n	105ac <am_hal_queue_item_add+0x28>
   105c8:	68a2      	ldr	r2, [r4, #8]
   105ca:	4432      	add	r2, r6
   105cc:	60a2      	str	r2, [r4, #8]
   105ce:	2401      	movs	r4, #1
   105d0:	9801      	ldr	r0, [sp, #4]
   105d2:	f7ff f8cb 	bl	f76c <am_hal_interrupt_master_set>
   105d6:	4620      	mov	r0, r4
   105d8:	b003      	add	sp, #12
   105da:	bdf0      	pop	{r4, r5, r6, r7, pc}
   105dc:	3101      	adds	r1, #1
   105de:	3301      	adds	r3, #1
   105e0:	428e      	cmp	r6, r1
   105e2:	fbb3 f0f7 	udiv	r0, r3, r7
   105e6:	fb07 3310 	mls	r3, r7, r0, r3
   105ea:	d1f7      	bne.n	105dc <am_hal_queue_item_add+0x58>
   105ec:	6023      	str	r3, [r4, #0]
   105ee:	e7ec      	b.n	105ca <am_hal_queue_item_add+0x46>
   105f0:	2400      	movs	r4, #0
   105f2:	e7ed      	b.n	105d0 <am_hal_queue_item_add+0x4c>

000105f4 <am_hal_queue_item_get>:
   105f4:	b5f0      	push	{r4, r5, r6, r7, lr}
   105f6:	4604      	mov	r4, r0
   105f8:	6906      	ldr	r6, [r0, #16]
   105fa:	b083      	sub	sp, #12
   105fc:	fb06 f602 	mul.w	r6, r6, r2
   10600:	460d      	mov	r5, r1
   10602:	f7ff f8af 	bl	f764 <am_hal_interrupt_master_disable>
   10606:	68a2      	ldr	r2, [r4, #8]
   10608:	9001      	str	r0, [sp, #4]
   1060a:	4296      	cmp	r6, r2
   1060c:	d81c      	bhi.n	10648 <am_hal_queue_item_get+0x54>
   1060e:	b196      	cbz	r6, 10636 <am_hal_queue_item_get+0x42>
   10610:	6863      	ldr	r3, [r4, #4]
   10612:	b1dd      	cbz	r5, 1064c <am_hal_queue_item_get+0x58>
   10614:	4629      	mov	r1, r5
   10616:	19af      	adds	r7, r5, r6
   10618:	6962      	ldr	r2, [r4, #20]
   1061a:	5cd3      	ldrb	r3, [r2, r3]
   1061c:	f801 3b01 	strb.w	r3, [r1], #1
   10620:	6863      	ldr	r3, [r4, #4]
   10622:	68e5      	ldr	r5, [r4, #12]
   10624:	3301      	adds	r3, #1
   10626:	428f      	cmp	r7, r1
   10628:	fbb3 f0f5 	udiv	r0, r3, r5
   1062c:	fb05 3310 	mls	r3, r5, r0, r3
   10630:	6063      	str	r3, [r4, #4]
   10632:	d1f1      	bne.n	10618 <am_hal_queue_item_get+0x24>
   10634:	68a2      	ldr	r2, [r4, #8]
   10636:	1b92      	subs	r2, r2, r6
   10638:	60a2      	str	r2, [r4, #8]
   1063a:	2401      	movs	r4, #1
   1063c:	9801      	ldr	r0, [sp, #4]
   1063e:	f7ff f895 	bl	f76c <am_hal_interrupt_master_set>
   10642:	4620      	mov	r0, r4
   10644:	b003      	add	sp, #12
   10646:	bdf0      	pop	{r4, r5, r6, r7, pc}
   10648:	2400      	movs	r4, #0
   1064a:	e7f7      	b.n	1063c <am_hal_queue_item_get+0x48>
   1064c:	68e0      	ldr	r0, [r4, #12]
   1064e:	4629      	mov	r1, r5
   10650:	3101      	adds	r1, #1
   10652:	3301      	adds	r3, #1
   10654:	428e      	cmp	r6, r1
   10656:	fbb3 f5f0 	udiv	r5, r3, r0
   1065a:	fb00 3315 	mls	r3, r0, r5, r3
   1065e:	d1f7      	bne.n	10650 <am_hal_queue_item_get+0x5c>
   10660:	6063      	str	r3, [r4, #4]
   10662:	e7e8      	b.n	10636 <am_hal_queue_item_get+0x42>

00010664 <arm_min_f32>:
   10664:	e92d 41f0 	stmdb	sp!, {r4, r5, r6, r7, r8, lr}
   10668:	1e4f      	subs	r7, r1, #1
   1066a:	ea5f 0897 	movs.w	r8, r7, lsr #2
   1066e:	f100 0e04 	add.w	lr, r0, #4
   10672:	edd0 7a00 	vldr	s15, [r0]
   10676:	d058      	beq.n	1072a <arm_min_f32+0xc6>
   10678:	3014      	adds	r0, #20
   1067a:	46c4      	mov	ip, r8
   1067c:	2604      	movs	r6, #4
   1067e:	2400      	movs	r4, #0
   10680:	ed10 6a04 	vldr	s12, [r0, #-16]
   10684:	ed50 6a03 	vldr	s13, [r0, #-12]
   10688:	ed10 7a02 	vldr	s14, [r0, #-8]
   1068c:	ed50 5a01 	vldr	s11, [r0, #-4]
   10690:	eeb4 6ae7 	vcmpe.f32	s12, s15
   10694:	eef1 fa10 	vmrs	APSR_nzcv, fpscr
   10698:	bf48      	it	mi
   1069a:	eef0 7a46 	vmovmi.f32	s15, s12
   1069e:	f1a6 0503 	sub.w	r5, r6, #3
   106a2:	eef4 7ae6 	vcmpe.f32	s15, s13
   106a6:	bf48      	it	mi
   106a8:	462c      	movmi	r4, r5
   106aa:	eef1 fa10 	vmrs	APSR_nzcv, fpscr
   106ae:	bfc8      	it	gt
   106b0:	eef0 7a66 	vmovgt.f32	s15, s13
   106b4:	f1a6 0502 	sub.w	r5, r6, #2
   106b8:	eef4 7ac7 	vcmpe.f32	s15, s14
   106bc:	bfc8      	it	gt
   106be:	462c      	movgt	r4, r5
   106c0:	eef1 fa10 	vmrs	APSR_nzcv, fpscr
   106c4:	bfc8      	it	gt
   106c6:	eef0 7a47 	vmovgt.f32	s15, s14
   106ca:	f106 35ff 	add.w	r5, r6, #4294967295	; 0xffffffff
   106ce:	eef4 7ae5 	vcmpe.f32	s15, s11
   106d2:	bfc8      	it	gt
   106d4:	462c      	movgt	r4, r5
   106d6:	eef1 fa10 	vmrs	APSR_nzcv, fpscr
   106da:	bfc8      	it	gt
   106dc:	4634      	movgt	r4, r6
   106de:	bfc8      	it	gt
   106e0:	eef0 7a65 	vmovgt.f32	s15, s11
   106e4:	f1bc 0c01 	subs.w	ip, ip, #1
   106e8:	f106 0604 	add.w	r6, r6, #4
   106ec:	f100 0010 	add.w	r0, r0, #16
   106f0:	d1c6      	bne.n	10680 <arm_min_f32+0x1c>
   106f2:	eb0e 1e08 	add.w	lr, lr, r8, lsl #4
   106f6:	f017 0003 	ands.w	r0, r7, #3
   106fa:	d018      	beq.n	1072e <arm_min_f32+0xca>
   106fc:	1a08      	subs	r0, r1, r0
   106fe:	ecbe 7a01 	vldmia	lr!, {s14}
   10702:	eeb4 7ae7 	vcmpe.f32	s14, s15
   10706:	eef1 fa10 	vmrs	APSR_nzcv, fpscr
   1070a:	bf48      	it	mi
   1070c:	4604      	movmi	r4, r0
   1070e:	f100 0001 	add.w	r0, r0, #1
   10712:	bf58      	it	pl
   10714:	eeb0 7a67 	vmovpl.f32	s14, s15
   10718:	4288      	cmp	r0, r1
   1071a:	eef0 7a47 	vmov.f32	s15, s14
   1071e:	d1ee      	bne.n	106fe <arm_min_f32+0x9a>
   10720:	ed82 7a00 	vstr	s14, [r2]
   10724:	601c      	str	r4, [r3, #0]
   10726:	e8bd 81f0 	ldmia.w	sp!, {r4, r5, r6, r7, r8, pc}
   1072a:	4644      	mov	r4, r8
   1072c:	e7e3      	b.n	106f6 <arm_min_f32+0x92>
   1072e:	eeb0 7a67 	vmov.f32	s14, s15
   10732:	e7f5      	b.n	10720 <arm_min_f32+0xbc>

00010734 <arm_rfft_fast_init_f32>:
   10734:	084b      	lsrs	r3, r1, #1
   10736:	2b80      	cmp	r3, #128	; 0x80
   10738:	b410      	push	{r4}
   1073a:	8201      	strh	r1, [r0, #16]
   1073c:	8003      	strh	r3, [r0, #0]
   1073e:	d047      	beq.n	107d0 <arm_rfft_fast_init_f32+0x9c>
   10740:	d917      	bls.n	10772 <arm_rfft_fast_init_f32+0x3e>
   10742:	f5b3 7f00 	cmp.w	r3, #512	; 0x200
   10746:	d03d      	beq.n	107c4 <arm_rfft_fast_init_f32+0x90>
   10748:	d929      	bls.n	1079e <arm_rfft_fast_init_f32+0x6a>
   1074a:	f5b3 6f80 	cmp.w	r3, #1024	; 0x400
   1074e:	d020      	beq.n	10792 <arm_rfft_fast_init_f32+0x5e>
   10750:	f5b3 6f00 	cmp.w	r3, #2048	; 0x800
   10754:	d113      	bne.n	1077e <arm_rfft_fast_init_f32+0x4a>
   10756:	4921      	ldr	r1, [pc, #132]	; (107dc <arm_rfft_fast_init_f32+0xa8>)
   10758:	4a21      	ldr	r2, [pc, #132]	; (107e0 <arm_rfft_fast_init_f32+0xac>)
   1075a:	4b22      	ldr	r3, [pc, #136]	; (107e4 <arm_rfft_fast_init_f32+0xb0>)
   1075c:	f44f 646e 	mov.w	r4, #3808	; 0xee0
   10760:	8184      	strh	r4, [r0, #12]
   10762:	6081      	str	r1, [r0, #8]
   10764:	6042      	str	r2, [r0, #4]
   10766:	6143      	str	r3, [r0, #20]
   10768:	2000      	movs	r0, #0
   1076a:	b240      	sxtb	r0, r0
   1076c:	f85d 4b04 	ldr.w	r4, [sp], #4
   10770:	4770      	bx	lr
   10772:	2b20      	cmp	r3, #32
   10774:	d01c      	beq.n	107b0 <arm_rfft_fast_init_f32+0x7c>
   10776:	2b40      	cmp	r3, #64	; 0x40
   10778:	d006      	beq.n	10788 <arm_rfft_fast_init_f32+0x54>
   1077a:	2b10      	cmp	r3, #16
   1077c:	d01d      	beq.n	107ba <arm_rfft_fast_init_f32+0x86>
   1077e:	20ff      	movs	r0, #255	; 0xff
   10780:	b240      	sxtb	r0, r0
   10782:	f85d 4b04 	ldr.w	r4, [sp], #4
   10786:	4770      	bx	lr
   10788:	2438      	movs	r4, #56	; 0x38
   1078a:	4917      	ldr	r1, [pc, #92]	; (107e8 <arm_rfft_fast_init_f32+0xb4>)
   1078c:	4a17      	ldr	r2, [pc, #92]	; (107ec <arm_rfft_fast_init_f32+0xb8>)
   1078e:	4b18      	ldr	r3, [pc, #96]	; (107f0 <arm_rfft_fast_init_f32+0xbc>)
   10790:	e7e6      	b.n	10760 <arm_rfft_fast_init_f32+0x2c>
   10792:	f44f 64e1 	mov.w	r4, #1800	; 0x708
   10796:	4917      	ldr	r1, [pc, #92]	; (107f4 <arm_rfft_fast_init_f32+0xc0>)
   10798:	4a17      	ldr	r2, [pc, #92]	; (107f8 <arm_rfft_fast_init_f32+0xc4>)
   1079a:	4b18      	ldr	r3, [pc, #96]	; (107fc <arm_rfft_fast_init_f32+0xc8>)
   1079c:	e7e0      	b.n	10760 <arm_rfft_fast_init_f32+0x2c>
   1079e:	f5b3 7f80 	cmp.w	r3, #256	; 0x100
   107a2:	d1ec      	bne.n	1077e <arm_rfft_fast_init_f32+0x4a>
   107a4:	f44f 74dc 	mov.w	r4, #440	; 0x1b8
   107a8:	4915      	ldr	r1, [pc, #84]	; (10800 <arm_rfft_fast_init_f32+0xcc>)
   107aa:	4a16      	ldr	r2, [pc, #88]	; (10804 <arm_rfft_fast_init_f32+0xd0>)
   107ac:	4b16      	ldr	r3, [pc, #88]	; (10808 <arm_rfft_fast_init_f32+0xd4>)
   107ae:	e7d7      	b.n	10760 <arm_rfft_fast_init_f32+0x2c>
   107b0:	2430      	movs	r4, #48	; 0x30
   107b2:	4916      	ldr	r1, [pc, #88]	; (1080c <arm_rfft_fast_init_f32+0xd8>)
   107b4:	4a16      	ldr	r2, [pc, #88]	; (10810 <arm_rfft_fast_init_f32+0xdc>)
   107b6:	4b17      	ldr	r3, [pc, #92]	; (10814 <arm_rfft_fast_init_f32+0xe0>)
   107b8:	e7d2      	b.n	10760 <arm_rfft_fast_init_f32+0x2c>
   107ba:	2414      	movs	r4, #20
   107bc:	4916      	ldr	r1, [pc, #88]	; (10818 <arm_rfft_fast_init_f32+0xe4>)
   107be:	4a17      	ldr	r2, [pc, #92]	; (1081c <arm_rfft_fast_init_f32+0xe8>)
   107c0:	4b17      	ldr	r3, [pc, #92]	; (10820 <arm_rfft_fast_init_f32+0xec>)
   107c2:	e7cd      	b.n	10760 <arm_rfft_fast_init_f32+0x2c>
   107c4:	f44f 74e0 	mov.w	r4, #448	; 0x1c0
   107c8:	4916      	ldr	r1, [pc, #88]	; (10824 <arm_rfft_fast_init_f32+0xf0>)
   107ca:	4a17      	ldr	r2, [pc, #92]	; (10828 <arm_rfft_fast_init_f32+0xf4>)
   107cc:	4b17      	ldr	r3, [pc, #92]	; (1082c <arm_rfft_fast_init_f32+0xf8>)
   107ce:	e7c7      	b.n	10760 <arm_rfft_fast_init_f32+0x2c>
   107d0:	24d0      	movs	r4, #208	; 0xd0
   107d2:	4917      	ldr	r1, [pc, #92]	; (10830 <arm_rfft_fast_init_f32+0xfc>)
   107d4:	4a17      	ldr	r2, [pc, #92]	; (10834 <arm_rfft_fast_init_f32+0x100>)
   107d6:	4b18      	ldr	r3, [pc, #96]	; (10838 <arm_rfft_fast_init_f32+0x104>)
   107d8:	e7c2      	b.n	10760 <arm_rfft_fast_init_f32+0x2c>
   107da:	bf00      	nop
   107dc:	000224c0 	.word	0x000224c0
   107e0:	000136b8 	.word	0x000136b8
   107e4:	00019828 	.word	0x00019828
   107e8:	000177b8 	.word	0x000177b8
   107ec:	00024280 	.word	0x00024280
   107f0:	00026770 	.word	0x00026770
   107f4:	000201a8 	.word	0x000201a8
   107f8:	0001e0a8 	.word	0x0001e0a8
   107fc:	00017828 	.word	0x00017828
   10800:	00026400 	.word	0x00026400
   10804:	0001d828 	.word	0x0001d828
   10808:	00024480 	.word	0x00024480
   1080c:	00021060 	.word	0x00021060
   10810:	000200a8 	.word	0x000200a8
   10814:	000176b8 	.word	0x000176b8
   10818:	00020fb8 	.word	0x00020fb8
   1081c:	0001e028 	.word	0x0001e028
   10820:	00020fe0 	.word	0x00020fe0
   10824:	00024c80 	.word	0x00024c80
   10828:	000214c0 	.word	0x000214c0
   1082c:	00025000 	.word	0x00025000
   10830:	00026970 	.word	0x00026970
   10834:	000210c0 	.word	0x000210c0
   10838:	00026000 	.word	0x00026000

0001083c <arm_rfft_fast_f32>:
   1083c:	e92d 41f0 	stmdb	sp!, {r4, r5, r6, r7, r8, lr}
   10840:	8a06      	ldrh	r6, [r0, #16]
   10842:	0876      	lsrs	r6, r6, #1
   10844:	4607      	mov	r7, r0
   10846:	4615      	mov	r5, r2
   10848:	8006      	strh	r6, [r0, #0]
   1084a:	460c      	mov	r4, r1
   1084c:	2b00      	cmp	r3, #0
   1084e:	d15c      	bne.n	1090a <arm_rfft_fast_f32+0xce>
   10850:	461a      	mov	r2, r3
   10852:	2301      	movs	r3, #1
   10854:	f000 fbe6 	bl	11024 <arm_cfft_f32>
   10858:	edd4 7a00 	vldr	s15, [r4]
   1085c:	ed94 7a01 	vldr	s14, [r4, #4]
   10860:	883e      	ldrh	r6, [r7, #0]
   10862:	6978      	ldr	r0, [r7, #20]
   10864:	ee37 7a07 	vadd.f32	s14, s14, s14
   10868:	ee77 7aa7 	vadd.f32	s15, s15, s15
   1086c:	eef6 3a00 	vmov.f32	s7, #96	; 0x3f000000  0.5
   10870:	ee77 6a87 	vadd.f32	s13, s15, s14
   10874:	ee77 7ac7 	vsub.f32	s15, s15, s14
   10878:	3e01      	subs	r6, #1
   1087a:	ee26 7aa3 	vmul.f32	s14, s13, s7
   1087e:	ee67 7aa3 	vmul.f32	s15, s15, s7
   10882:	eb04 03c6 	add.w	r3, r4, r6, lsl #3
   10886:	ed85 7a00 	vstr	s14, [r5]
   1088a:	edc5 7a01 	vstr	s15, [r5, #4]
   1088e:	3010      	adds	r0, #16
   10890:	f105 0210 	add.w	r2, r5, #16
   10894:	3b08      	subs	r3, #8
   10896:	f104 0110 	add.w	r1, r4, #16
   1089a:	ed51 4a02 	vldr	s9, [r1, #-8]
   1089e:	ed93 5a02 	vldr	s10, [r3, #8]
   108a2:	ed11 7a01 	vldr	s14, [r1, #-4]
   108a6:	ed10 6a02 	vldr	s12, [r0, #-8]
   108aa:	edd3 5a03 	vldr	s11, [r3, #12]
   108ae:	ed50 6a01 	vldr	s13, [r0, #-4]
   108b2:	ee75 7a64 	vsub.f32	s15, s10, s9
   108b6:	ee35 4a87 	vadd.f32	s8, s11, s14
   108ba:	ee35 5a24 	vadd.f32	s10, s10, s9
   108be:	ee77 5a65 	vsub.f32	s11, s14, s11
   108c2:	ee66 4a27 	vmul.f32	s9, s12, s15
   108c6:	ee26 7aa7 	vmul.f32	s14, s13, s15
   108ca:	ee34 5a85 	vadd.f32	s10, s9, s10
   108ce:	ee26 6a04 	vmul.f32	s12, s12, s8
   108d2:	ee66 6a84 	vmul.f32	s13, s13, s8
   108d6:	ee77 7a25 	vadd.f32	s15, s14, s11
   108da:	ee76 6a85 	vadd.f32	s13, s13, s10
   108de:	ee77 7ac6 	vsub.f32	s15, s15, s12
   108e2:	ee66 6aa3 	vmul.f32	s13, s13, s7
   108e6:	ee67 7aa3 	vmul.f32	s15, s15, s7
   108ea:	3e01      	subs	r6, #1
   108ec:	ed42 6a02 	vstr	s13, [r2, #-8]
   108f0:	ed42 7a01 	vstr	s15, [r2, #-4]
   108f4:	f1a3 0308 	sub.w	r3, r3, #8
   108f8:	f101 0108 	add.w	r1, r1, #8
   108fc:	f100 0008 	add.w	r0, r0, #8
   10900:	f102 0208 	add.w	r2, r2, #8
   10904:	d1c9      	bne.n	1089a <arm_rfft_fast_f32+0x5e>
   10906:	e8bd 81f0 	ldmia.w	sp!, {r4, r5, r6, r7, r8, pc}
   1090a:	edd1 7a00 	vldr	s15, [r1]
   1090e:	edd1 6a01 	vldr	s13, [r1, #4]
   10912:	6941      	ldr	r1, [r0, #20]
   10914:	ee37 7aa6 	vadd.f32	s14, s15, s13
   10918:	ee77 7ae6 	vsub.f32	s15, s15, s13
   1091c:	eef6 3a00 	vmov.f32	s7, #96	; 0x3f000000  0.5
   10920:	ee27 7a23 	vmul.f32	s14, s14, s7
   10924:	ee67 7aa3 	vmul.f32	s15, s15, s7
   10928:	3e01      	subs	r6, #1
   1092a:	ed82 7a00 	vstr	s14, [r2]
   1092e:	edc2 7a01 	vstr	s15, [r2, #4]
   10932:	00f0      	lsls	r0, r6, #3
   10934:	b3ee      	cbz	r6, 109b2 <arm_rfft_fast_f32+0x176>
   10936:	3808      	subs	r0, #8
   10938:	f101 0e10 	add.w	lr, r1, #16
   1093c:	4420      	add	r0, r4
   1093e:	f104 0110 	add.w	r1, r4, #16
   10942:	f102 0c10 	add.w	ip, r2, #16
   10946:	ed90 7a02 	vldr	s14, [r0, #8]
   1094a:	ed51 6a02 	vldr	s13, [r1, #-8]
   1094e:	ed1e 6a02 	vldr	s12, [lr, #-8]
   10952:	ed90 4a03 	vldr	s8, [r0, #12]
   10956:	ed11 5a01 	vldr	s10, [r1, #-4]
   1095a:	ed5e 5a01 	vldr	s11, [lr, #-4]
   1095e:	ee76 7ac7 	vsub.f32	s15, s13, s14
   10962:	ee74 4a05 	vadd.f32	s9, s8, s10
   10966:	ee26 3a27 	vmul.f32	s6, s12, s15
   1096a:	ee77 6a26 	vadd.f32	s13, s14, s13
   1096e:	ee35 5a44 	vsub.f32	s10, s10, s8
   10972:	ee25 7aa7 	vmul.f32	s14, s11, s15
   10976:	ee76 6ac3 	vsub.f32	s13, s13, s6
   1097a:	ee77 7a05 	vadd.f32	s15, s14, s10
   1097e:	ee26 6a24 	vmul.f32	s12, s12, s9
   10982:	ee65 5aa4 	vmul.f32	s11, s11, s9
   10986:	ee77 7ac6 	vsub.f32	s15, s15, s12
   1098a:	ee36 7ae5 	vsub.f32	s14, s13, s11
   1098e:	ee67 7aa3 	vmul.f32	s15, s15, s7
   10992:	ee27 7a23 	vmul.f32	s14, s14, s7
   10996:	3e01      	subs	r6, #1
   10998:	ed0c 7a02 	vstr	s14, [ip, #-8]
   1099c:	ed4c 7a01 	vstr	s15, [ip, #-4]
   109a0:	f1a0 0008 	sub.w	r0, r0, #8
   109a4:	f101 0108 	add.w	r1, r1, #8
   109a8:	f10e 0e08 	add.w	lr, lr, #8
   109ac:	f10c 0c08 	add.w	ip, ip, #8
   109b0:	d1c9      	bne.n	10946 <arm_rfft_fast_f32+0x10a>
   109b2:	4638      	mov	r0, r7
   109b4:	4629      	mov	r1, r5
   109b6:	461a      	mov	r2, r3
   109b8:	e8bd 41f0 	ldmia.w	sp!, {r4, r5, r6, r7, r8, lr}
   109bc:	2301      	movs	r3, #1
   109be:	f000 bb31 	b.w	11024 <arm_cfft_f32>
   109c2:	bf00      	nop

000109c4 <arm_cfft_radix8by2_f32>:
   109c4:	e92d 41f0 	stmdb	sp!, {r4, r5, r6, r7, r8, lr}
   109c8:	ed2d 8b08 	vpush	{d8-d11}
   109cc:	f8b0 e000 	ldrh.w	lr, [r0]
   109d0:	6842      	ldr	r2, [r0, #4]
   109d2:	ea4f 0c5e 	mov.w	ip, lr, lsr #1
   109d6:	eb01 088e 	add.w	r8, r1, lr, lsl #2
   109da:	ea5f 0ede 	movs.w	lr, lr, lsr #3
   109de:	4607      	mov	r7, r0
   109e0:	ea4f 038c 	mov.w	r3, ip, lsl #2
   109e4:	f000 80af 	beq.w	10b46 <arm_cfft_radix8by2_f32+0x182>
   109e8:	3310      	adds	r3, #16
   109ea:	18ce      	adds	r6, r1, r3
   109ec:	3210      	adds	r2, #16
   109ee:	4443      	add	r3, r8
   109f0:	f101 0510 	add.w	r5, r1, #16
   109f4:	f108 0410 	add.w	r4, r8, #16
   109f8:	ed54 1a04 	vldr	s3, [r4, #-16]
   109fc:	ed13 4a04 	vldr	s8, [r3, #-16]
   10a00:	ed53 3a03 	vldr	s7, [r3, #-12]
   10a04:	ed53 5a02 	vldr	s11, [r3, #-8]
   10a08:	ed13 5a01 	vldr	s10, [r3, #-4]
   10a0c:	ed54 6a03 	vldr	s13, [r4, #-12]
   10a10:	ed14 0a02 	vldr	s0, [r4, #-8]
   10a14:	ed16 2a04 	vldr	s4, [r6, #-16]
   10a18:	ed56 2a03 	vldr	s5, [r6, #-12]
   10a1c:	ed15 6a03 	vldr	s12, [r5, #-12]
   10a20:	ed15 7a01 	vldr	s14, [r5, #-4]
   10a24:	ed15 3a04 	vldr	s6, [r5, #-16]
   10a28:	ed54 7a01 	vldr	s15, [r4, #-4]
   10a2c:	ed56 0a02 	vldr	s1, [r6, #-8]
   10a30:	ed16 1a01 	vldr	s2, [r6, #-4]
   10a34:	ed55 4a02 	vldr	s9, [r5, #-8]
   10a38:	ee73 ba21 	vadd.f32	s23, s6, s3
   10a3c:	ee36 ba26 	vadd.f32	s22, s12, s13
   10a40:	ee37 aa27 	vadd.f32	s20, s14, s15
   10a44:	ee72 9a04 	vadd.f32	s19, s4, s8
   10a48:	ee32 9aa3 	vadd.f32	s18, s5, s7
   10a4c:	ee31 8a05 	vadd.f32	s16, s2, s10
   10a50:	ee74 aa80 	vadd.f32	s21, s9, s0
   10a54:	ee70 8aa5 	vadd.f32	s17, s1, s11
   10a58:	ed45 ba04 	vstr	s23, [r5, #-16]
   10a5c:	ed05 ba03 	vstr	s22, [r5, #-12]
   10a60:	ed45 aa02 	vstr	s21, [r5, #-8]
   10a64:	ed05 aa01 	vstr	s20, [r5, #-4]
   10a68:	ed06 8a01 	vstr	s16, [r6, #-4]
   10a6c:	ed46 9a04 	vstr	s19, [r6, #-16]
   10a70:	ed06 9a03 	vstr	s18, [r6, #-12]
   10a74:	ed46 8a02 	vstr	s17, [r6, #-8]
   10a78:	ee76 6a66 	vsub.f32	s13, s12, s13
   10a7c:	ee73 3ae2 	vsub.f32	s7, s7, s5
   10a80:	ed12 6a03 	vldr	s12, [r2, #-12]
   10a84:	ed52 2a04 	vldr	s5, [r2, #-16]
   10a88:	ee33 3a61 	vsub.f32	s6, s6, s3
   10a8c:	ee34 4a42 	vsub.f32	s8, s8, s4
   10a90:	ee26 8a86 	vmul.f32	s16, s13, s12
   10a94:	ee24 2a06 	vmul.f32	s4, s8, s12
   10a98:	ee63 1a22 	vmul.f32	s3, s6, s5
   10a9c:	ee24 4a22 	vmul.f32	s8, s8, s5
   10aa0:	ee23 3a06 	vmul.f32	s6, s6, s12
   10aa4:	ee66 6aa2 	vmul.f32	s13, s13, s5
   10aa8:	ee23 6a86 	vmul.f32	s12, s7, s12
   10aac:	ee63 3aa2 	vmul.f32	s7, s7, s5
   10ab0:	ee36 6a04 	vadd.f32	s12, s12, s8
   10ab4:	ee76 6ac3 	vsub.f32	s13, s13, s6
   10ab8:	ee72 3a63 	vsub.f32	s7, s4, s7
   10abc:	ee71 2a88 	vadd.f32	s5, s3, s16
   10ac0:	ed44 6a03 	vstr	s13, [r4, #-12]
   10ac4:	ed44 2a04 	vstr	s5, [r4, #-16]
   10ac8:	ed43 3a04 	vstr	s7, [r3, #-16]
   10acc:	ed03 6a03 	vstr	s12, [r3, #-12]
   10ad0:	ee77 7a67 	vsub.f32	s15, s14, s15
   10ad4:	ee75 6ae0 	vsub.f32	s13, s11, s1
   10ad8:	ed12 7a01 	vldr	s14, [r2, #-4]
   10adc:	ed52 5a02 	vldr	s11, [r2, #-8]
   10ae0:	ee35 6a41 	vsub.f32	s12, s10, s2
   10ae4:	ee74 4ac0 	vsub.f32	s9, s9, s0
   10ae8:	ee67 3a87 	vmul.f32	s7, s15, s14
   10aec:	ee26 5a87 	vmul.f32	s10, s13, s14
   10af0:	ee24 4aa5 	vmul.f32	s8, s9, s11
   10af4:	ee67 7aa5 	vmul.f32	s15, s15, s11
   10af8:	ee64 4a87 	vmul.f32	s9, s9, s14
   10afc:	ee66 6aa5 	vmul.f32	s13, s13, s11
   10b00:	ee26 7a07 	vmul.f32	s14, s12, s14
   10b04:	ee26 6a25 	vmul.f32	s12, s12, s11
   10b08:	ee77 7ae4 	vsub.f32	s15, s15, s9
   10b0c:	ee74 5a23 	vadd.f32	s11, s8, s7
   10b10:	ee35 6a46 	vsub.f32	s12, s10, s12
   10b14:	ee37 7a26 	vadd.f32	s14, s14, s13
   10b18:	f1be 0e01 	subs.w	lr, lr, #1
   10b1c:	ed44 5a02 	vstr	s11, [r4, #-8]
   10b20:	f105 0510 	add.w	r5, r5, #16
   10b24:	ed44 7a01 	vstr	s15, [r4, #-4]
   10b28:	f106 0610 	add.w	r6, r6, #16
   10b2c:	ed03 6a02 	vstr	s12, [r3, #-8]
   10b30:	ed03 7a01 	vstr	s14, [r3, #-4]
   10b34:	f102 0210 	add.w	r2, r2, #16
   10b38:	f104 0410 	add.w	r4, r4, #16
   10b3c:	f103 0310 	add.w	r3, r3, #16
   10b40:	f47f af5a 	bne.w	109f8 <arm_cfft_radix8by2_f32+0x34>
   10b44:	687a      	ldr	r2, [r7, #4]
   10b46:	fa1f f48c 	uxth.w	r4, ip
   10b4a:	4608      	mov	r0, r1
   10b4c:	2302      	movs	r3, #2
   10b4e:	4621      	mov	r1, r4
   10b50:	f000 fc46 	bl	113e0 <arm_radix8_butterfly_f32>
   10b54:	ecbd 8b08 	vpop	{d8-d11}
   10b58:	4640      	mov	r0, r8
   10b5a:	4621      	mov	r1, r4
   10b5c:	687a      	ldr	r2, [r7, #4]
   10b5e:	2302      	movs	r3, #2
   10b60:	e8bd 41f0 	ldmia.w	sp!, {r4, r5, r6, r7, r8, lr}
   10b64:	f000 bc3c 	b.w	113e0 <arm_radix8_butterfly_f32>

00010b68 <arm_cfft_radix8by4_f32>:
   10b68:	e92d 4ff0 	stmdb	sp!, {r4, r5, r6, r7, r8, r9, sl, fp, lr}
   10b6c:	ed2d 8b0a 	vpush	{d8-d12}
   10b70:	8802      	ldrh	r2, [r0, #0]
   10b72:	ed91 6a00 	vldr	s12, [r1]
   10b76:	b08f      	sub	sp, #60	; 0x3c
   10b78:	460f      	mov	r7, r1
   10b7a:	0852      	lsrs	r2, r2, #1
   10b7c:	0093      	lsls	r3, r2, #2
   10b7e:	900c      	str	r0, [sp, #48]	; 0x30
   10b80:	9103      	str	r1, [sp, #12]
   10b82:	6841      	ldr	r1, [r0, #4]
   10b84:	ed97 7a01 	vldr	s14, [r7, #4]
   10b88:	4638      	mov	r0, r7
   10b8a:	4418      	add	r0, r3
   10b8c:	4606      	mov	r6, r0
   10b8e:	9009      	str	r0, [sp, #36]	; 0x24
   10b90:	4418      	add	r0, r3
   10b92:	edd0 6a00 	vldr	s13, [r0]
   10b96:	edd6 3a00 	vldr	s7, [r6]
   10b9a:	edd6 2a01 	vldr	s5, [r6, #4]
   10b9e:	edd0 7a01 	vldr	s15, [r0, #4]
   10ba2:	900a      	str	r0, [sp, #40]	; 0x28
   10ba4:	ee76 5a26 	vadd.f32	s11, s12, s13
   10ba8:	4604      	mov	r4, r0
   10baa:	4625      	mov	r5, r4
   10bac:	441c      	add	r4, r3
   10bae:	ed94 4a00 	vldr	s8, [r4]
   10bb2:	ed94 5a01 	vldr	s10, [r4, #4]
   10bb6:	9401      	str	r4, [sp, #4]
   10bb8:	ee75 4aa3 	vadd.f32	s9, s11, s7
   10bbc:	4630      	mov	r0, r6
   10bbe:	ee74 4a24 	vadd.f32	s9, s8, s9
   10bc2:	463e      	mov	r6, r7
   10bc4:	ee14 ea90 	vmov	lr, s9
   10bc8:	ee76 6a66 	vsub.f32	s13, s12, s13
   10bcc:	f846 eb08 	str.w	lr, [r6], #8
   10bd0:	ee37 6a27 	vadd.f32	s12, s14, s15
   10bd4:	edd0 4a01 	vldr	s9, [r0, #4]
   10bd8:	9604      	str	r6, [sp, #16]
   10bda:	ee77 7a67 	vsub.f32	s15, s14, s15
   10bde:	9e01      	ldr	r6, [sp, #4]
   10be0:	ee32 3aa6 	vadd.f32	s6, s5, s13
   10be4:	ed96 2a01 	vldr	s4, [r6, #4]
   10be8:	ee36 7a24 	vadd.f32	s14, s12, s9
   10bec:	ee75 5ae3 	vsub.f32	s11, s11, s7
   10bf0:	ee77 4ae3 	vsub.f32	s9, s15, s7
   10bf4:	ee36 6a62 	vsub.f32	s12, s12, s5
   10bf8:	ee77 7aa3 	vadd.f32	s15, s15, s7
   10bfc:	ee76 6ae2 	vsub.f32	s13, s13, s5
   10c00:	ee73 3a45 	vsub.f32	s7, s6, s10
   10c04:	4604      	mov	r4, r0
   10c06:	ee36 6a45 	vsub.f32	s12, s12, s10
   10c0a:	ee75 6a26 	vadd.f32	s13, s10, s13
   10c0e:	46a3      	mov	fp, r4
   10c10:	ee37 7a02 	vadd.f32	s14, s14, s4
   10c14:	ee34 5a84 	vadd.f32	s10, s9, s8
   10c18:	ee13 8a90 	vmov	r8, s7
   10c1c:	46a4      	mov	ip, r4
   10c1e:	ee75 5ac4 	vsub.f32	s11, s11, s8
   10c22:	ed87 7a01 	vstr	s14, [r7, #4]
   10c26:	f84b 8b08 	str.w	r8, [fp], #8
   10c2a:	f1ac 0704 	sub.w	r7, ip, #4
   10c2e:	ed8c 5a01 	vstr	s10, [ip, #4]
   10c32:	f101 0c08 	add.w	ip, r1, #8
   10c36:	462c      	mov	r4, r5
   10c38:	f8cd c014 	str.w	ip, [sp, #20]
   10c3c:	ee15 ca90 	vmov	ip, s11
   10c40:	f844 cb08 	str.w	ip, [r4], #8
   10c44:	9407      	str	r4, [sp, #28]
   10c46:	f101 0410 	add.w	r4, r1, #16
   10c4a:	ed85 6a01 	vstr	s12, [r5, #4]
   10c4e:	0852      	lsrs	r2, r2, #1
   10c50:	9402      	str	r4, [sp, #8]
   10c52:	462c      	mov	r4, r5
   10c54:	f101 0518 	add.w	r5, r1, #24
   10c58:	920b      	str	r2, [sp, #44]	; 0x2c
   10c5a:	46b2      	mov	sl, r6
   10c5c:	9506      	str	r5, [sp, #24]
   10c5e:	ee77 7ac4 	vsub.f32	s15, s15, s8
   10c62:	3a02      	subs	r2, #2
   10c64:	ee16 5a90 	vmov	r5, s13
   10c68:	46b6      	mov	lr, r6
   10c6a:	4630      	mov	r0, r6
   10c6c:	0852      	lsrs	r2, r2, #1
   10c6e:	f84a 5b08 	str.w	r5, [sl], #8
   10c72:	f1a0 0604 	sub.w	r6, r0, #4
   10c76:	edce 7a01 	vstr	s15, [lr, #4]
   10c7a:	9208      	str	r2, [sp, #32]
   10c7c:	f000 8130 	beq.w	10ee0 <arm_cfft_radix8by4_f32+0x378>
   10c80:	4691      	mov	r9, r2
   10c82:	9a03      	ldr	r2, [sp, #12]
   10c84:	f8dd 8008 	ldr.w	r8, [sp, #8]
   10c88:	f8cd a034 	str.w	sl, [sp, #52]	; 0x34
   10c8c:	3b08      	subs	r3, #8
   10c8e:	f102 0510 	add.w	r5, r2, #16
   10c92:	f101 0c20 	add.w	ip, r1, #32
   10c96:	f1a4 020c 	sub.w	r2, r4, #12
   10c9a:	f101 0e30 	add.w	lr, r1, #48	; 0x30
   10c9e:	4433      	add	r3, r6
   10ca0:	3410      	adds	r4, #16
   10ca2:	4650      	mov	r0, sl
   10ca4:	4659      	mov	r1, fp
   10ca6:	ed55 3a02 	vldr	s7, [r5, #-8]
   10caa:	ed14 5a02 	vldr	s10, [r4, #-8]
   10cae:	ed91 7a00 	vldr	s14, [r1]
   10cb2:	edd0 7a00 	vldr	s15, [r0]
   10cb6:	ed15 4a01 	vldr	s8, [r5, #-4]
   10cba:	ed54 5a01 	vldr	s11, [r4, #-4]
   10cbe:	edd0 6a01 	vldr	s13, [r0, #4]
   10cc2:	ed91 6a01 	vldr	s12, [r1, #4]
   10cc6:	ee33 8a85 	vadd.f32	s16, s7, s10
   10cca:	ee34 0a25 	vadd.f32	s0, s8, s11
   10cce:	ee78 4a07 	vadd.f32	s9, s16, s14
   10cd2:	ee74 5a65 	vsub.f32	s11, s8, s11
   10cd6:	ee77 4aa4 	vadd.f32	s9, s15, s9
   10cda:	ee33 5ac5 	vsub.f32	s10, s7, s10
   10cde:	ed45 4a02 	vstr	s9, [r5, #-8]
   10ce2:	edd1 4a01 	vldr	s9, [r1, #4]
   10ce6:	ed90 4a01 	vldr	s8, [r0, #4]
   10cea:	ee70 4a24 	vadd.f32	s9, s0, s9
   10cee:	ee76 aa05 	vadd.f32	s21, s12, s10
   10cf2:	ee74 4a84 	vadd.f32	s9, s9, s8
   10cf6:	ee35 aac7 	vsub.f32	s20, s11, s14
   10cfa:	ed45 4a01 	vstr	s9, [r5, #-4]
   10cfe:	edd6 1a00 	vldr	s3, [r6]
   10d02:	edd7 0a00 	vldr	s1, [r7]
   10d06:	ed92 4a02 	vldr	s8, [r2, #8]
   10d0a:	edd3 3a02 	vldr	s7, [r3, #8]
   10d0e:	ed93 2a01 	vldr	s4, [r3, #4]
   10d12:	ed16 1a01 	vldr	s2, [r6, #-4]
   10d16:	edd2 2a01 	vldr	s5, [r2, #4]
   10d1a:	ed57 9a01 	vldr	s19, [r7, #-4]
   10d1e:	ee70 4aa1 	vadd.f32	s9, s1, s3
   10d22:	ee39 3a81 	vadd.f32	s6, s19, s2
   10d26:	ee74 8a84 	vadd.f32	s17, s9, s8
   10d2a:	ee70 1ae1 	vsub.f32	s3, s1, s3
   10d2e:	ee73 8aa8 	vadd.f32	s17, s7, s17
   10d32:	ee7a aae6 	vsub.f32	s21, s21, s13
   10d36:	ee18 aa90 	vmov	sl, s17
   10d3a:	f847 a908 	str.w	sl, [r7], #-8
   10d3e:	edd2 8a01 	vldr	s17, [r2, #4]
   10d42:	ed93 9a01 	vldr	s18, [r3, #4]
   10d46:	ee73 8a28 	vadd.f32	s17, s6, s17
   10d4a:	ee3a aa27 	vadd.f32	s20, s20, s15
   10d4e:	ee78 8a89 	vadd.f32	s17, s17, s18
   10d52:	ee74 0a63 	vsub.f32	s1, s8, s7
   10d56:	edc7 8a01 	vstr	s17, [r7, #4]
   10d5a:	ed18 ba02 	vldr	s22, [r8, #-8]
   10d5e:	ed58 8a01 	vldr	s17, [r8, #-4]
   10d62:	ee39 1ac1 	vsub.f32	s2, s19, s2
   10d66:	ee6a ba28 	vmul.f32	s23, s20, s17
   10d6a:	ee2a ca8b 	vmul.f32	s24, s21, s22
   10d6e:	ee71 9ae2 	vsub.f32	s19, s3, s5
   10d72:	ee30 9a81 	vadd.f32	s18, s1, s2
   10d76:	ee79 9a82 	vadd.f32	s19, s19, s4
   10d7a:	ee3c ca2b 	vadd.f32	s24, s24, s23
   10d7e:	ee6a aaa8 	vmul.f32	s21, s21, s17
   10d82:	ee69 baa8 	vmul.f32	s23, s19, s17
   10d86:	ee2a aa0b 	vmul.f32	s20, s20, s22
   10d8a:	ee69 9a8b 	vmul.f32	s19, s19, s22
   10d8e:	ee69 8a28 	vmul.f32	s17, s18, s17
   10d92:	ee29 ba0b 	vmul.f32	s22, s18, s22
   10d96:	ee1c aa10 	vmov	sl, s24
   10d9a:	ee78 8aa9 	vadd.f32	s17, s17, s19
   10d9e:	f841 ab08 	str.w	sl, [r1], #8
   10da2:	ee3a aa6a 	vsub.f32	s20, s20, s21
   10da6:	ee3b bacb 	vsub.f32	s22, s23, s22
   10daa:	ee34 4ac4 	vsub.f32	s8, s9, s8
   10dae:	ee33 3a62 	vsub.f32	s6, s6, s5
   10db2:	ed01 aa01 	vstr	s20, [r1, #-4]
   10db6:	edc2 8a01 	vstr	s17, [r2, #4]
   10dba:	ed82 ba02 	vstr	s22, [r2, #8]
   10dbe:	ed5c 4a04 	vldr	s9, [ip, #-16]
   10dc2:	ee74 3a63 	vsub.f32	s7, s8, s7
   10dc6:	ee38 8a47 	vsub.f32	s16, s16, s14
   10dca:	ed1c 4a03 	vldr	s8, [ip, #-12]
   10dce:	ee30 0a46 	vsub.f32	s0, s0, s12
   10dd2:	ee33 3a42 	vsub.f32	s6, s6, s4
   10dd6:	ee38 8a67 	vsub.f32	s16, s16, s15
   10dda:	ee30 0a66 	vsub.f32	s0, s0, s13
   10dde:	ee23 9ae4 	vnmul.f32	s18, s7, s9
   10de2:	ee63 8a04 	vmul.f32	s17, s6, s8
   10de6:	ee28 aa24 	vmul.f32	s20, s16, s9
   10dea:	ee60 9a04 	vmul.f32	s19, s0, s8
   10dee:	ee28 8a04 	vmul.f32	s16, s16, s8
   10df2:	ee20 0a24 	vmul.f32	s0, s0, s9
   10df6:	ee63 3a84 	vmul.f32	s7, s7, s8
   10dfa:	ee39 4a68 	vsub.f32	s8, s18, s17
   10dfe:	ee7a 9a29 	vadd.f32	s19, s20, s19
   10e02:	ee14 aa10 	vmov	sl, s8
   10e06:	ee30 0a48 	vsub.f32	s0, s0, s16
   10e0a:	ee63 4a24 	vmul.f32	s9, s6, s9
   10e0e:	ed44 9a02 	vstr	s19, [r4, #-8]
   10e12:	ee73 3ae4 	vsub.f32	s7, s7, s9
   10e16:	ed04 0a01 	vstr	s0, [r4, #-4]
   10e1a:	f846 a908 	str.w	sl, [r6], #-8
   10e1e:	ee35 6a46 	vsub.f32	s12, s10, s12
   10e22:	ee35 7a87 	vadd.f32	s14, s11, s14
   10e26:	edc6 3a01 	vstr	s7, [r6, #4]
   10e2a:	ee76 6a86 	vadd.f32	s13, s13, s12
   10e2e:	ee77 7a67 	vsub.f32	s15, s14, s15
   10e32:	ed1e 6a05 	vldr	s12, [lr, #-20]	; 0xffffffec
   10e36:	ed1e 7a06 	vldr	s14, [lr, #-24]	; 0xffffffe8
   10e3a:	ee67 5a86 	vmul.f32	s11, s15, s12
   10e3e:	ee26 5a87 	vmul.f32	s10, s13, s14
   10e42:	ee72 2a62 	vsub.f32	s5, s4, s5
   10e46:	ee30 1ac1 	vsub.f32	s2, s1, s2
   10e4a:	ee72 2ae1 	vsub.f32	s5, s5, s3
   10e4e:	ee75 5a25 	vadd.f32	s11, s10, s11
   10e52:	ee62 0a86 	vmul.f32	s1, s5, s12
   10e56:	ee66 6a86 	vmul.f32	s13, s13, s12
   10e5a:	ee67 7a87 	vmul.f32	s15, s15, s14
   10e5e:	ee21 6a06 	vmul.f32	s12, s2, s12
   10e62:	ee62 2a87 	vmul.f32	s5, s5, s14
   10e66:	ee21 1a07 	vmul.f32	s2, s2, s14
   10e6a:	ee15 aa90 	vmov	sl, s11
   10e6e:	ee77 7ae6 	vsub.f32	s15, s15, s13
   10e72:	f840 ab08 	str.w	sl, [r0], #8
   10e76:	ee30 1ac1 	vsub.f32	s2, s1, s2
   10e7a:	ee76 2a22 	vadd.f32	s5, s12, s5
   10e7e:	f1b9 0901 	subs.w	r9, r9, #1
   10e82:	ed40 7a01 	vstr	s15, [r0, #-4]
   10e86:	f105 0508 	add.w	r5, r5, #8
   10e8a:	ed83 1a02 	vstr	s2, [r3, #8]
   10e8e:	edc3 2a01 	vstr	s5, [r3, #4]
   10e92:	f108 0808 	add.w	r8, r8, #8
   10e96:	f1a2 0208 	sub.w	r2, r2, #8
   10e9a:	f10c 0c10 	add.w	ip, ip, #16
   10e9e:	f104 0408 	add.w	r4, r4, #8
   10ea2:	f10e 0e18 	add.w	lr, lr, #24
   10ea6:	f1a3 0308 	sub.w	r3, r3, #8
   10eaa:	f47f aefc 	bne.w	10ca6 <arm_cfft_radix8by4_f32+0x13e>
   10eae:	9908      	ldr	r1, [sp, #32]
   10eb0:	9802      	ldr	r0, [sp, #8]
   10eb2:	f8dd a034 	ldr.w	sl, [sp, #52]	; 0x34
   10eb6:	00cb      	lsls	r3, r1, #3
   10eb8:	eb01 0241 	add.w	r2, r1, r1, lsl #1
   10ebc:	eb00 1101 	add.w	r1, r0, r1, lsl #4
   10ec0:	9102      	str	r1, [sp, #8]
   10ec2:	9904      	ldr	r1, [sp, #16]
   10ec4:	4419      	add	r1, r3
   10ec6:	9104      	str	r1, [sp, #16]
   10ec8:	9905      	ldr	r1, [sp, #20]
   10eca:	4419      	add	r1, r3
   10ecc:	9105      	str	r1, [sp, #20]
   10ece:	9907      	ldr	r1, [sp, #28]
   10ed0:	449b      	add	fp, r3
   10ed2:	4419      	add	r1, r3
   10ed4:	449a      	add	sl, r3
   10ed6:	9b06      	ldr	r3, [sp, #24]
   10ed8:	9107      	str	r1, [sp, #28]
   10eda:	eb03 03c2 	add.w	r3, r3, r2, lsl #3
   10ede:	9306      	str	r3, [sp, #24]
   10ee0:	9a04      	ldr	r2, [sp, #16]
   10ee2:	9807      	ldr	r0, [sp, #28]
   10ee4:	edd2 3a00 	vldr	s7, [r2]
   10ee8:	ed90 4a00 	vldr	s8, [r0]
   10eec:	eddb 7a00 	vldr	s15, [fp]
   10ef0:	ed9a 3a00 	vldr	s6, [sl]
   10ef4:	edd2 4a01 	vldr	s9, [r2, #4]
   10ef8:	ed90 7a01 	vldr	s14, [r0, #4]
   10efc:	ed9b 2a01 	vldr	s4, [fp, #4]
   10f00:	edda 5a01 	vldr	s11, [sl, #4]
   10f04:	f8bd 402c 	ldrh.w	r4, [sp, #44]	; 0x2c
   10f08:	9e0c      	ldr	r6, [sp, #48]	; 0x30
   10f0a:	ee73 6a84 	vadd.f32	s13, s7, s8
   10f0e:	ee34 6a87 	vadd.f32	s12, s9, s14
   10f12:	ee36 5aa7 	vadd.f32	s10, s13, s15
   10f16:	ee34 7ac7 	vsub.f32	s14, s9, s14
   10f1a:	ee33 5a05 	vadd.f32	s10, s6, s10
   10f1e:	ee33 4ac4 	vsub.f32	s8, s7, s8
   10f22:	ed82 5a00 	vstr	s10, [r2]
   10f26:	ed9b 5a01 	vldr	s10, [fp, #4]
   10f2a:	edda 4a01 	vldr	s9, [sl, #4]
   10f2e:	ee36 5a05 	vadd.f32	s10, s12, s10
   10f32:	ee72 3a04 	vadd.f32	s7, s4, s8
   10f36:	ee35 5a24 	vadd.f32	s10, s10, s9
   10f3a:	ee77 4a67 	vsub.f32	s9, s14, s15
   10f3e:	ed82 5a01 	vstr	s10, [r2, #4]
   10f42:	9a05      	ldr	r2, [sp, #20]
   10f44:	ee34 5a83 	vadd.f32	s10, s9, s6
   10f48:	edd2 1a00 	vldr	s3, [r2]
   10f4c:	edd2 2a01 	vldr	s5, [r2, #4]
   10f50:	9a02      	ldr	r2, [sp, #8]
   10f52:	ee73 3ae5 	vsub.f32	s7, s7, s11
   10f56:	ee36 6a42 	vsub.f32	s12, s12, s4
   10f5a:	ee63 4aa1 	vmul.f32	s9, s7, s3
   10f5e:	ee63 3aa2 	vmul.f32	s7, s7, s5
   10f62:	ee65 2a22 	vmul.f32	s5, s10, s5
   10f66:	ee25 5a21 	vmul.f32	s10, s10, s3
   10f6a:	ee74 2aa2 	vadd.f32	s5, s9, s5
   10f6e:	ee35 5a63 	vsub.f32	s10, s10, s7
   10f72:	ee76 6ae7 	vsub.f32	s13, s13, s15
   10f76:	edcb 2a00 	vstr	s5, [fp]
   10f7a:	ed8b 5a01 	vstr	s10, [fp, #4]
   10f7e:	edd2 3a01 	vldr	s7, [r2, #4]
   10f82:	ed92 5a00 	vldr	s10, [r2]
   10f86:	9a06      	ldr	r2, [sp, #24]
   10f88:	ee76 6ac3 	vsub.f32	s13, s13, s6
   10f8c:	ee36 6a65 	vsub.f32	s12, s12, s11
   10f90:	ee66 4a85 	vmul.f32	s9, s13, s10
   10f94:	ee26 5a05 	vmul.f32	s10, s12, s10
   10f98:	ee66 6aa3 	vmul.f32	s13, s13, s7
   10f9c:	ee26 6a23 	vmul.f32	s12, s12, s7
   10fa0:	ee75 6a66 	vsub.f32	s13, s10, s13
   10fa4:	ee34 6a86 	vadd.f32	s12, s9, s12
   10fa8:	ee34 4a42 	vsub.f32	s8, s8, s4
   10fac:	ee37 7a27 	vadd.f32	s14, s14, s15
   10fb0:	edc0 6a01 	vstr	s13, [r0, #4]
   10fb4:	ed80 6a00 	vstr	s12, [r0]
   10fb8:	ed92 6a01 	vldr	s12, [r2, #4]
   10fbc:	9803      	ldr	r0, [sp, #12]
   10fbe:	ee77 7a43 	vsub.f32	s15, s14, s6
   10fc2:	ee75 5a84 	vadd.f32	s11, s11, s8
   10fc6:	ed92 7a00 	vldr	s14, [r2]
   10fca:	ee65 6a87 	vmul.f32	s13, s11, s14
   10fce:	ee27 7a87 	vmul.f32	s14, s15, s14
   10fd2:	ee65 5a86 	vmul.f32	s11, s11, s12
   10fd6:	ee67 7a86 	vmul.f32	s15, s15, s12
   10fda:	ee77 5a65 	vsub.f32	s11, s14, s11
   10fde:	ee76 7aa7 	vadd.f32	s15, s13, s15
   10fe2:	edca 5a01 	vstr	s11, [sl, #4]
   10fe6:	edca 7a00 	vstr	s15, [sl]
   10fea:	6872      	ldr	r2, [r6, #4]
   10fec:	4621      	mov	r1, r4
   10fee:	2304      	movs	r3, #4
   10ff0:	f000 f9f6 	bl	113e0 <arm_radix8_butterfly_f32>
   10ff4:	9809      	ldr	r0, [sp, #36]	; 0x24
   10ff6:	6872      	ldr	r2, [r6, #4]
   10ff8:	4621      	mov	r1, r4
   10ffa:	2304      	movs	r3, #4
   10ffc:	f000 f9f0 	bl	113e0 <arm_radix8_butterfly_f32>
   11000:	980a      	ldr	r0, [sp, #40]	; 0x28
   11002:	6872      	ldr	r2, [r6, #4]
   11004:	4621      	mov	r1, r4
   11006:	2304      	movs	r3, #4
   11008:	f000 f9ea 	bl	113e0 <arm_radix8_butterfly_f32>
   1100c:	9801      	ldr	r0, [sp, #4]
   1100e:	6872      	ldr	r2, [r6, #4]
   11010:	4621      	mov	r1, r4
   11012:	2304      	movs	r3, #4
   11014:	b00f      	add	sp, #60	; 0x3c
   11016:	ecbd 8b0a 	vpop	{d8-d12}
   1101a:	e8bd 4ff0 	ldmia.w	sp!, {r4, r5, r6, r7, r8, r9, sl, fp, lr}
   1101e:	f000 b9df 	b.w	113e0 <arm_radix8_butterfly_f32>
   11022:	bf00      	nop

00011024 <arm_cfft_f32>:
   11024:	e92d 41f0 	stmdb	sp!, {r4, r5, r6, r7, r8, lr}
   11028:	2a01      	cmp	r2, #1
   1102a:	4606      	mov	r6, r0
   1102c:	4617      	mov	r7, r2
   1102e:	460c      	mov	r4, r1
   11030:	4698      	mov	r8, r3
   11032:	8805      	ldrh	r5, [r0, #0]
   11034:	d054      	beq.n	110e0 <arm_cfft_f32+0xbc>
   11036:	f5b5 7f80 	cmp.w	r5, #256	; 0x100
   1103a:	d04c      	beq.n	110d6 <arm_cfft_f32+0xb2>
   1103c:	d916      	bls.n	1106c <arm_cfft_f32+0x48>
   1103e:	f5b5 6f80 	cmp.w	r5, #1024	; 0x400
   11042:	d01a      	beq.n	1107a <arm_cfft_f32+0x56>
   11044:	d95c      	bls.n	11100 <arm_cfft_f32+0xdc>
   11046:	f5b5 6f00 	cmp.w	r5, #2048	; 0x800
   1104a:	d044      	beq.n	110d6 <arm_cfft_f32+0xb2>
   1104c:	f5b5 5f80 	cmp.w	r5, #4096	; 0x1000
   11050:	d105      	bne.n	1105e <arm_cfft_f32+0x3a>
   11052:	4620      	mov	r0, r4
   11054:	4629      	mov	r1, r5
   11056:	6872      	ldr	r2, [r6, #4]
   11058:	2301      	movs	r3, #1
   1105a:	f000 f9c1 	bl	113e0 <arm_radix8_butterfly_f32>
   1105e:	f1b8 0f00 	cmp.w	r8, #0
   11062:	d111      	bne.n	11088 <arm_cfft_f32+0x64>
   11064:	2f01      	cmp	r7, #1
   11066:	d016      	beq.n	11096 <arm_cfft_f32+0x72>
   11068:	e8bd 81f0 	ldmia.w	sp!, {r4, r5, r6, r7, r8, pc}
   1106c:	2d20      	cmp	r5, #32
   1106e:	d032      	beq.n	110d6 <arm_cfft_f32+0xb2>
   11070:	d94a      	bls.n	11108 <arm_cfft_f32+0xe4>
   11072:	2d40      	cmp	r5, #64	; 0x40
   11074:	d0ed      	beq.n	11052 <arm_cfft_f32+0x2e>
   11076:	2d80      	cmp	r5, #128	; 0x80
   11078:	d1f1      	bne.n	1105e <arm_cfft_f32+0x3a>
   1107a:	4630      	mov	r0, r6
   1107c:	4621      	mov	r1, r4
   1107e:	f7ff fca1 	bl	109c4 <arm_cfft_radix8by2_f32>
   11082:	f1b8 0f00 	cmp.w	r8, #0
   11086:	d0ed      	beq.n	11064 <arm_cfft_f32+0x40>
   11088:	4620      	mov	r0, r4
   1108a:	89b1      	ldrh	r1, [r6, #12]
   1108c:	68b2      	ldr	r2, [r6, #8]
   1108e:	f7fb f837 	bl	c100 <arm_bitreversal_32>
   11092:	2f01      	cmp	r7, #1
   11094:	d1e8      	bne.n	11068 <arm_cfft_f32+0x44>
   11096:	ee07 5a90 	vmov	s15, r5
   1109a:	eef8 6a67 	vcvt.f32.u32	s13, s15
   1109e:	eef7 7a00 	vmov.f32	s15, #112	; 0x3f800000  1.0
   110a2:	eec7 6aa6 	vdiv.f32	s13, s15, s13
   110a6:	2d00      	cmp	r5, #0
   110a8:	d0de      	beq.n	11068 <arm_cfft_f32+0x44>
   110aa:	f104 0108 	add.w	r1, r4, #8
   110ae:	2300      	movs	r3, #0
   110b0:	3301      	adds	r3, #1
   110b2:	429d      	cmp	r5, r3
   110b4:	f101 0108 	add.w	r1, r1, #8
   110b8:	ed11 7a04 	vldr	s14, [r1, #-16]
   110bc:	ed51 7a03 	vldr	s15, [r1, #-12]
   110c0:	ee27 7a26 	vmul.f32	s14, s14, s13
   110c4:	ee67 7ae6 	vnmul.f32	s15, s15, s13
   110c8:	ed01 7a04 	vstr	s14, [r1, #-16]
   110cc:	ed41 7a03 	vstr	s15, [r1, #-12]
   110d0:	d1ee      	bne.n	110b0 <arm_cfft_f32+0x8c>
   110d2:	e8bd 81f0 	ldmia.w	sp!, {r4, r5, r6, r7, r8, pc}
   110d6:	4630      	mov	r0, r6
   110d8:	4621      	mov	r1, r4
   110da:	f7ff fd45 	bl	10b68 <arm_cfft_radix8by4_f32>
   110de:	e7be      	b.n	1105e <arm_cfft_f32+0x3a>
   110e0:	b1ad      	cbz	r5, 1110e <arm_cfft_f32+0xea>
   110e2:	f101 030c 	add.w	r3, r1, #12
   110e6:	2200      	movs	r2, #0
   110e8:	ed53 7a02 	vldr	s15, [r3, #-8]
   110ec:	3201      	adds	r2, #1
   110ee:	eef1 7a67 	vneg.f32	s15, s15
   110f2:	4295      	cmp	r5, r2
   110f4:	ed43 7a02 	vstr	s15, [r3, #-8]
   110f8:	f103 0308 	add.w	r3, r3, #8
   110fc:	d1f4      	bne.n	110e8 <arm_cfft_f32+0xc4>
   110fe:	e79a      	b.n	11036 <arm_cfft_f32+0x12>
   11100:	f5b5 7f00 	cmp.w	r5, #512	; 0x200
   11104:	d0a5      	beq.n	11052 <arm_cfft_f32+0x2e>
   11106:	e7aa      	b.n	1105e <arm_cfft_f32+0x3a>
   11108:	2d10      	cmp	r5, #16
   1110a:	d0b6      	beq.n	1107a <arm_cfft_f32+0x56>
   1110c:	e7a7      	b.n	1105e <arm_cfft_f32+0x3a>
   1110e:	f5b5 7f80 	cmp.w	r5, #256	; 0x100
   11112:	d894      	bhi.n	1103e <arm_cfft_f32+0x1a>
   11114:	e7aa      	b.n	1106c <arm_cfft_f32+0x48>
   11116:	bf00      	nop

00011118 <arm_cmplx_mult_real_f32>:
   11118:	b5f0      	push	{r4, r5, r6, r7, lr}
   1111a:	ea5f 0e93 	movs.w	lr, r3, lsr #2
   1111e:	d04c      	beq.n	111ba <arm_cmplx_mult_real_f32+0xa2>
   11120:	f100 0520 	add.w	r5, r0, #32
   11124:	f101 0610 	add.w	r6, r1, #16
   11128:	f102 0420 	add.w	r4, r2, #32
   1112c:	4677      	mov	r7, lr
   1112e:	ed56 3a04 	vldr	s7, [r6, #-16]
   11132:	ed16 7a03 	vldr	s14, [r6, #-12]
   11136:	ed56 7a02 	vldr	s15, [r6, #-8]
   1113a:	ed16 3a01 	vldr	s6, [r6, #-4]
   1113e:	ed15 4a07 	vldr	s8, [r5, #-28]	; 0xffffffe4
   11142:	ed55 4a06 	vldr	s9, [r5, #-24]	; 0xffffffe8
   11146:	ed15 2a05 	vldr	s4, [r5, #-20]	; 0xffffffec
   1114a:	ed55 5a02 	vldr	s11, [r5, #-8]
   1114e:	ed15 5a04 	vldr	s10, [r5, #-16]
   11152:	ed15 6a01 	vldr	s12, [r5, #-4]
   11156:	ed55 2a03 	vldr	s5, [r5, #-12]
   1115a:	ed55 6a08 	vldr	s13, [r5, #-32]	; 0xffffffe0
   1115e:	ee67 4a24 	vmul.f32	s9, s14, s9
   11162:	ee27 5a85 	vmul.f32	s10, s15, s10
   11166:	ee23 4a84 	vmul.f32	s8, s7, s8
   1116a:	ee27 7a02 	vmul.f32	s14, s14, s4
   1116e:	ee67 7aa2 	vmul.f32	s15, s15, s5
   11172:	ee65 5a83 	vmul.f32	s11, s11, s6
   11176:	ee26 6a03 	vmul.f32	s12, s12, s6
   1117a:	ee66 6aa3 	vmul.f32	s13, s13, s7
   1117e:	3f01      	subs	r7, #1
   11180:	ed04 4a07 	vstr	s8, [r4, #-28]	; 0xffffffe4
   11184:	ed44 4a06 	vstr	s9, [r4, #-24]	; 0xffffffe8
   11188:	ed04 7a05 	vstr	s14, [r4, #-20]	; 0xffffffec
   1118c:	ed04 5a04 	vstr	s10, [r4, #-16]
   11190:	ed44 7a03 	vstr	s15, [r4, #-12]
   11194:	ed44 5a02 	vstr	s11, [r4, #-8]
   11198:	ed04 6a01 	vstr	s12, [r4, #-4]
   1119c:	ed44 6a08 	vstr	s13, [r4, #-32]	; 0xffffffe0
   111a0:	f106 0610 	add.w	r6, r6, #16
   111a4:	f105 0520 	add.w	r5, r5, #32
   111a8:	f104 0420 	add.w	r4, r4, #32
   111ac:	d1bf      	bne.n	1112e <arm_cmplx_mult_real_f32+0x16>
   111ae:	ea4f 144e 	mov.w	r4, lr, lsl #5
   111b2:	eb01 110e 	add.w	r1, r1, lr, lsl #4
   111b6:	4420      	add	r0, r4
   111b8:	4422      	add	r2, r4
   111ba:	f013 0303 	ands.w	r3, r3, #3
   111be:	d015      	beq.n	111ec <arm_cmplx_mult_real_f32+0xd4>
   111c0:	3208      	adds	r2, #8
   111c2:	3008      	adds	r0, #8
   111c4:	ecf1 6a01 	vldmia	r1!, {s13}
   111c8:	ed10 7a02 	vldr	s14, [r0, #-8]
   111cc:	ee27 7a26 	vmul.f32	s14, s14, s13
   111d0:	3b01      	subs	r3, #1
   111d2:	ed02 7a02 	vstr	s14, [r2, #-8]
   111d6:	ed50 7a01 	vldr	s15, [r0, #-4]
   111da:	ee67 7aa6 	vmul.f32	s15, s15, s13
   111de:	f100 0008 	add.w	r0, r0, #8
   111e2:	ed42 7a01 	vstr	s15, [r2, #-4]
   111e6:	f102 0208 	add.w	r2, r2, #8
   111ea:	d1eb      	bne.n	111c4 <arm_cmplx_mult_real_f32+0xac>
   111ec:	bdf0      	pop	{r4, r5, r6, r7, pc}
   111ee:	bf00      	nop

000111f0 <arm_cmplx_mult_cmplx_f32>:
   111f0:	b5f0      	push	{r4, r5, r6, r7, lr}
   111f2:	ea5f 0e93 	movs.w	lr, r3, lsr #2
   111f6:	d073      	beq.n	112e0 <arm_cmplx_mult_cmplx_f32+0xf0>
   111f8:	f100 0620 	add.w	r6, r0, #32
   111fc:	f101 0520 	add.w	r5, r1, #32
   11200:	f102 0420 	add.w	r4, r2, #32
   11204:	4677      	mov	r7, lr
   11206:	ed16 7a08 	vldr	s14, [r6, #-32]	; 0xffffffe0
   1120a:	ed15 2a08 	vldr	s4, [r5, #-32]	; 0xffffffe0
   1120e:	ed16 5a07 	vldr	s10, [r6, #-28]	; 0xffffffe4
   11212:	ed55 2a07 	vldr	s5, [r5, #-28]	; 0xffffffe4
   11216:	ed15 3a06 	vldr	s6, [r5, #-24]	; 0xffffffe8
   1121a:	ed16 6a06 	vldr	s12, [r6, #-24]	; 0xffffffe8
   1121e:	ed55 5a05 	vldr	s11, [r5, #-20]	; 0xffffffec
   11222:	ed56 7a05 	vldr	s15, [r6, #-20]	; 0xffffffec
   11226:	ed56 6a04 	vldr	s13, [r6, #-16]
   1122a:	ed55 3a04 	vldr	s7, [r5, #-16]
   1122e:	ee67 4a02 	vmul.f32	s9, s14, s4
   11232:	ee25 4a22 	vmul.f32	s8, s10, s5
   11236:	ee27 7a22 	vmul.f32	s14, s14, s5
   1123a:	ee25 5a02 	vmul.f32	s10, s10, s4
   1123e:	ee34 4ac4 	vsub.f32	s8, s9, s8
   11242:	ee66 4a03 	vmul.f32	s9, s12, s6
   11246:	ee26 6a25 	vmul.f32	s12, s12, s11
   1124a:	ee67 5aa5 	vmul.f32	s11, s15, s11
   1124e:	ee67 7a83 	vmul.f32	s15, s15, s6
   11252:	ee37 7a05 	vadd.f32	s14, s14, s10
   11256:	ed04 4a08 	vstr	s8, [r4, #-32]	; 0xffffffe0
   1125a:	ee74 5ae5 	vsub.f32	s11, s9, s11
   1125e:	ee77 7a86 	vadd.f32	s15, s15, s12
   11262:	ed16 5a03 	vldr	s10, [r6, #-12]
   11266:	ed04 7a07 	vstr	s14, [r4, #-28]	; 0xffffffe4
   1126a:	ed15 7a03 	vldr	s14, [r5, #-12]
   1126e:	ed44 5a06 	vstr	s11, [r4, #-24]	; 0xffffffe8
   11272:	ed44 7a05 	vstr	s15, [r4, #-20]	; 0xffffffec
   11276:	ed56 7a02 	vldr	s15, [r6, #-8]
   1127a:	ed15 6a02 	vldr	s12, [r5, #-8]
   1127e:	ed56 5a01 	vldr	s11, [r6, #-4]
   11282:	ed15 4a01 	vldr	s8, [r5, #-4]
   11286:	ee67 4a86 	vmul.f32	s9, s15, s12
   1128a:	ee25 3a23 	vmul.f32	s6, s10, s7
   1128e:	ee25 6a86 	vmul.f32	s12, s11, s12
   11292:	ee25 5a07 	vmul.f32	s10, s10, s14
   11296:	ee65 5a84 	vmul.f32	s11, s11, s8
   1129a:	ee26 7a87 	vmul.f32	s14, s13, s14
   1129e:	ee67 7a84 	vmul.f32	s15, s15, s8
   112a2:	ee66 6aa3 	vmul.f32	s13, s13, s7
   112a6:	ee37 7a03 	vadd.f32	s14, s14, s6
   112aa:	ee76 6ac5 	vsub.f32	s13, s13, s10
   112ae:	ee74 5ae5 	vsub.f32	s11, s9, s11
   112b2:	ee77 7a86 	vadd.f32	s15, s15, s12
   112b6:	3f01      	subs	r7, #1
   112b8:	ed44 6a04 	vstr	s13, [r4, #-16]
   112bc:	ed04 7a03 	vstr	s14, [r4, #-12]
   112c0:	ed44 5a02 	vstr	s11, [r4, #-8]
   112c4:	ed44 7a01 	vstr	s15, [r4, #-4]
   112c8:	f106 0620 	add.w	r6, r6, #32
   112cc:	f105 0520 	add.w	r5, r5, #32
   112d0:	f104 0420 	add.w	r4, r4, #32
   112d4:	d197      	bne.n	11206 <arm_cmplx_mult_cmplx_f32+0x16>
   112d6:	ea4f 144e 	mov.w	r4, lr, lsl #5
   112da:	4420      	add	r0, r4
   112dc:	4421      	add	r1, r4
   112de:	4422      	add	r2, r4
   112e0:	f013 0303 	ands.w	r3, r3, #3
   112e4:	d022      	beq.n	1132c <arm_cmplx_mult_cmplx_f32+0x13c>
   112e6:	3008      	adds	r0, #8
   112e8:	3108      	adds	r1, #8
   112ea:	3208      	adds	r2, #8
   112ec:	ed50 7a02 	vldr	s15, [r0, #-8]
   112f0:	ed11 7a02 	vldr	s14, [r1, #-8]
   112f4:	ed50 6a01 	vldr	s13, [r0, #-4]
   112f8:	ed51 5a01 	vldr	s11, [r1, #-4]
   112fc:	ee27 6a87 	vmul.f32	s12, s15, s14
   11300:	ee26 7a87 	vmul.f32	s14, s13, s14
   11304:	ee67 7aa5 	vmul.f32	s15, s15, s11
   11308:	ee66 6aa5 	vmul.f32	s13, s13, s11
   1130c:	ee77 7a87 	vadd.f32	s15, s15, s14
   11310:	ee76 6a66 	vsub.f32	s13, s12, s13
   11314:	3b01      	subs	r3, #1
   11316:	ed42 6a02 	vstr	s13, [r2, #-8]
   1131a:	ed42 7a01 	vstr	s15, [r2, #-4]
   1131e:	f100 0008 	add.w	r0, r0, #8
   11322:	f101 0108 	add.w	r1, r1, #8
   11326:	f102 0208 	add.w	r2, r2, #8
   1132a:	d1df      	bne.n	112ec <arm_cmplx_mult_cmplx_f32+0xfc>
   1132c:	bdf0      	pop	{r4, r5, r6, r7, pc}
   1132e:	bf00      	nop

00011330 <arm_cmplx_mag_squared_f32>:
   11330:	b470      	push	{r4, r5, r6}
   11332:	0896      	lsrs	r6, r2, #2
   11334:	d03e      	beq.n	113b4 <arm_cmplx_mag_squared_f32+0x84>
   11336:	f100 0320 	add.w	r3, r0, #32
   1133a:	f101 0410 	add.w	r4, r1, #16
   1133e:	4635      	mov	r5, r6
   11340:	ed13 6a08 	vldr	s12, [r3, #-32]	; 0xffffffe0
   11344:	ed13 4a07 	vldr	s8, [r3, #-28]	; 0xffffffe4
   11348:	ed53 6a06 	vldr	s13, [r3, #-24]	; 0xffffffe8
   1134c:	ed53 4a05 	vldr	s9, [r3, #-20]	; 0xffffffec
   11350:	ed13 7a04 	vldr	s14, [r3, #-16]
   11354:	ed13 5a03 	vldr	s10, [r3, #-12]
   11358:	ed53 7a02 	vldr	s15, [r3, #-8]
   1135c:	ed53 5a01 	vldr	s11, [r3, #-4]
   11360:	ee26 6a06 	vmul.f32	s12, s12, s12
   11364:	ee24 4a04 	vmul.f32	s8, s8, s8
   11368:	ee66 6aa6 	vmul.f32	s13, s13, s13
   1136c:	ee64 4aa4 	vmul.f32	s9, s9, s9
   11370:	ee27 7a07 	vmul.f32	s14, s14, s14
   11374:	ee25 5a05 	vmul.f32	s10, s10, s10
   11378:	ee67 7aa7 	vmul.f32	s15, s15, s15
   1137c:	ee65 5aa5 	vmul.f32	s11, s11, s11
   11380:	ee36 6a04 	vadd.f32	s12, s12, s8
   11384:	ee76 6aa4 	vadd.f32	s13, s13, s9
   11388:	ee37 7a05 	vadd.f32	s14, s14, s10
   1138c:	ee77 7aa5 	vadd.f32	s15, s15, s11
   11390:	3d01      	subs	r5, #1
   11392:	ed04 6a04 	vstr	s12, [r4, #-16]
   11396:	ed44 6a03 	vstr	s13, [r4, #-12]
   1139a:	ed04 7a02 	vstr	s14, [r4, #-8]
   1139e:	ed44 7a01 	vstr	s15, [r4, #-4]
   113a2:	f103 0320 	add.w	r3, r3, #32
   113a6:	f104 0410 	add.w	r4, r4, #16
   113aa:	d1c9      	bne.n	11340 <arm_cmplx_mag_squared_f32+0x10>
   113ac:	eb00 1046 	add.w	r0, r0, r6, lsl #5
   113b0:	eb01 1106 	add.w	r1, r1, r6, lsl #4
   113b4:	f012 0203 	ands.w	r2, r2, #3
   113b8:	d010      	beq.n	113dc <arm_cmplx_mag_squared_f32+0xac>
   113ba:	3008      	adds	r0, #8
   113bc:	ed50 7a02 	vldr	s15, [r0, #-8]
   113c0:	ed10 7a01 	vldr	s14, [r0, #-4]
   113c4:	ee67 7aa7 	vmul.f32	s15, s15, s15
   113c8:	ee27 7a07 	vmul.f32	s14, s14, s14
   113cc:	3a01      	subs	r2, #1
   113ce:	ee77 7a87 	vadd.f32	s15, s15, s14
   113d2:	f100 0008 	add.w	r0, r0, #8
   113d6:	ece1 7a01 	vstmia	r1!, {s15}
   113da:	d1ef      	bne.n	113bc <arm_cmplx_mag_squared_f32+0x8c>
   113dc:	bc70      	pop	{r4, r5, r6}
   113de:	4770      	bx	lr

000113e0 <arm_radix8_butterfly_f32>:
   113e0:	e92d 4ff0 	stmdb	sp!, {r4, r5, r6, r7, r8, r9, sl, fp, lr}
   113e4:	ed2d 8b10 	vpush	{d8-d15}
   113e8:	b09d      	sub	sp, #116	; 0x74
   113ea:	461c      	mov	r4, r3
   113ec:	ed9f bac8 	vldr	s22, [pc, #800]	; 11710 <arm_radix8_butterfly_f32+0x330>
   113f0:	921a      	str	r2, [sp, #104]	; 0x68
   113f2:	1d03      	adds	r3, r0, #4
   113f4:	4682      	mov	sl, r0
   113f6:	4689      	mov	r9, r1
   113f8:	468b      	mov	fp, r1
   113fa:	931b      	str	r3, [sp, #108]	; 0x6c
   113fc:	9400      	str	r4, [sp, #0]
   113fe:	469e      	mov	lr, r3
   11400:	ea4f 03db 	mov.w	r3, fp, lsr #3
   11404:	005a      	lsls	r2, r3, #1
   11406:	18d6      	adds	r6, r2, r3
   11408:	18f5      	adds	r5, r6, r3
   1140a:	9203      	str	r2, [sp, #12]
   1140c:	195a      	adds	r2, r3, r5
   1140e:	18d0      	adds	r0, r2, r3
   11410:	00df      	lsls	r7, r3, #3
   11412:	1819      	adds	r1, r3, r0
   11414:	463c      	mov	r4, r7
   11416:	9701      	str	r7, [sp, #4]
   11418:	4457      	add	r7, sl
   1141a:	930c      	str	r3, [sp, #48]	; 0x30
   1141c:	eb0a 02c2 	add.w	r2, sl, r2, lsl #3
   11420:	011b      	lsls	r3, r3, #4
   11422:	eb0a 01c1 	add.w	r1, sl, r1, lsl #3
   11426:	eb07 0c04 	add.w	ip, r7, r4
   1142a:	9c00      	ldr	r4, [sp, #0]
   1142c:	9302      	str	r3, [sp, #8]
   1142e:	eb0a 06c6 	add.w	r6, sl, r6, lsl #3
   11432:	eb0a 05c5 	add.w	r5, sl, r5, lsl #3
   11436:	3204      	adds	r2, #4
   11438:	3104      	adds	r1, #4
   1143a:	eb0a 00c0 	add.w	r0, sl, r0, lsl #3
   1143e:	ea4f 03cb 	mov.w	r3, fp, lsl #3
   11442:	f04f 0800 	mov.w	r8, #0
   11446:	eddc 7a00 	vldr	s15, [ip]
   1144a:	edd7 6a00 	vldr	s13, [r7]
   1144e:	edd6 3a00 	vldr	s7, [r6]
   11452:	ed5e aa01 	vldr	s21, [lr, #-4]
   11456:	edd5 4a00 	vldr	s9, [r5]
   1145a:	ed90 2a00 	vldr	s4, [r0]
   1145e:	ed12 7a01 	vldr	s14, [r2, #-4]
   11462:	ed51 0a01 	vldr	s1, [r1, #-4]
   11466:	ee77 8a82 	vadd.f32	s17, s15, s4
   1146a:	ee33 4aa0 	vadd.f32	s8, s7, s1
   1146e:	ee76 1a87 	vadd.f32	s3, s13, s14
   11472:	ee3a 3aa4 	vadd.f32	s6, s21, s9
   11476:	ee31 6a84 	vadd.f32	s12, s3, s8
   1147a:	ee33 5a28 	vadd.f32	s10, s6, s17
   1147e:	ee36 7ac7 	vsub.f32	s14, s13, s14
   11482:	ee75 6a06 	vadd.f32	s13, s10, s12
   11486:	ee35 5a46 	vsub.f32	s10, s10, s12
   1148a:	ed4e 6a01 	vstr	s13, [lr, #-4]
   1148e:	ed85 5a00 	vstr	s10, [r5]
   11492:	ed96 1a01 	vldr	s2, [r6, #4]
   11496:	edd7 5a01 	vldr	s11, [r7, #4]
   1149a:	ed92 aa00 	vldr	s20, [r2]
   1149e:	ed91 6a00 	vldr	s12, [r1]
   114a2:	ed9e 9a00 	vldr	s18, [lr]
   114a6:	ed95 5a01 	vldr	s10, [r5, #4]
   114aa:	eddc 6a01 	vldr	s13, [ip, #4]
   114ae:	edd0 9a01 	vldr	s19, [r0, #4]
   114b2:	ee73 0ae0 	vsub.f32	s1, s7, s1
   114b6:	ee71 2a46 	vsub.f32	s5, s2, s12
   114ba:	ee75 3aca 	vsub.f32	s7, s11, s20
   114be:	ee37 0a60 	vsub.f32	s0, s14, s1
   114c2:	ee33 8aa2 	vadd.f32	s16, s7, s5
   114c6:	ee37 7a20 	vadd.f32	s14, s14, s1
   114ca:	ee73 2ae2 	vsub.f32	s5, s7, s5
   114ce:	ee37 2ac2 	vsub.f32	s4, s15, s4
   114d2:	ee79 3a05 	vadd.f32	s7, s18, s10
   114d6:	ee60 0a0b 	vmul.f32	s1, s0, s22
   114da:	ee39 5a45 	vsub.f32	s10, s18, s10
   114de:	ee7a 4ae4 	vsub.f32	s9, s21, s9
   114e2:	ee36 9aa9 	vadd.f32	s18, s13, s19
   114e6:	ee75 5a8a 	vadd.f32	s11, s11, s20
   114ea:	ee31 6a06 	vadd.f32	s12, s2, s12
   114ee:	ee76 6ae9 	vsub.f32	s13, s13, s19
   114f2:	ee28 8a0b 	vmul.f32	s16, s16, s22
   114f6:	ee62 2a8b 	vmul.f32	s5, s5, s22
   114fa:	ee67 7a0b 	vmul.f32	s15, s14, s22
   114fe:	ee33 3a68 	vsub.f32	s6, s6, s17
   11502:	ee36 0a88 	vadd.f32	s0, s13, s16
   11506:	ee75 8a86 	vadd.f32	s17, s11, s12
   1150a:	ee36 7ac8 	vsub.f32	s14, s13, s16
   1150e:	ee71 1ac4 	vsub.f32	s3, s3, s8
   11512:	ee75 6a62 	vsub.f32	s13, s10, s5
   11516:	ee33 4ac9 	vsub.f32	s8, s7, s18
   1151a:	ee35 6ac6 	vsub.f32	s12, s11, s12
   1151e:	ee33 1a89 	vadd.f32	s2, s7, s18
   11522:	ee74 5ae0 	vsub.f32	s11, s9, s1
   11526:	ee74 3aa0 	vadd.f32	s7, s9, s1
   1152a:	ee75 4a22 	vadd.f32	s9, s10, s5
   1152e:	ee32 5a27 	vadd.f32	s10, s4, s15
   11532:	ee72 7a67 	vsub.f32	s15, s4, s15
   11536:	ee33 8a06 	vadd.f32	s16, s6, s12
   1153a:	ee75 2a87 	vadd.f32	s5, s11, s14
   1153e:	ee31 9a28 	vadd.f32	s18, s2, s17
   11542:	ee33 6a46 	vsub.f32	s12, s6, s12
   11546:	ee74 0a61 	vsub.f32	s1, s8, s3
   1154a:	ee33 2a80 	vadd.f32	s4, s7, s0
   1154e:	ee35 7ac7 	vsub.f32	s14, s11, s14
   11552:	ee34 3ac5 	vsub.f32	s6, s9, s10
   11556:	ee76 5ae7 	vsub.f32	s11, s13, s15
   1155a:	ee31 1a68 	vsub.f32	s2, s2, s17
   1155e:	ee34 4a21 	vadd.f32	s8, s8, s3
   11562:	ee73 3ac0 	vsub.f32	s7, s7, s0
   11566:	ee74 4a85 	vadd.f32	s9, s9, s10
   1156a:	ee76 6aa7 	vadd.f32	s13, s13, s15
   1156e:	44d8      	add	r8, fp
   11570:	45c1      	cmp	r9, r8
   11572:	ed8e 9a00 	vstr	s18, [lr]
   11576:	ed85 1a01 	vstr	s2, [r5, #4]
   1157a:	449e      	add	lr, r3
   1157c:	ed8c 8a00 	vstr	s16, [ip]
   11580:	441d      	add	r5, r3
   11582:	ed80 6a00 	vstr	s12, [r0]
   11586:	edcc 0a01 	vstr	s1, [ip, #4]
   1158a:	ed80 4a01 	vstr	s8, [r0, #4]
   1158e:	449c      	add	ip, r3
   11590:	ed87 2a00 	vstr	s4, [r7]
   11594:	4418      	add	r0, r3
   11596:	ed41 3a01 	vstr	s7, [r1, #-4]
   1159a:	ed42 2a01 	vstr	s5, [r2, #-4]
   1159e:	ed86 7a00 	vstr	s14, [r6]
   115a2:	ed87 3a01 	vstr	s6, [r7, #4]
   115a6:	edc1 4a00 	vstr	s9, [r1]
   115aa:	441f      	add	r7, r3
   115ac:	edc2 5a00 	vstr	s11, [r2]
   115b0:	4419      	add	r1, r3
   115b2:	edc6 6a01 	vstr	s13, [r6, #4]
   115b6:	441a      	add	r2, r3
   115b8:	441e      	add	r6, r3
   115ba:	f63f af44 	bhi.w	11446 <arm_radix8_butterfly_f32+0x66>
   115be:	990c      	ldr	r1, [sp, #48]	; 0x30
   115c0:	2907      	cmp	r1, #7
   115c2:	4620      	mov	r0, r4
   115c4:	f240 81e9 	bls.w	1199a <arm_radix8_butterfly_f32+0x5ba>
   115c8:	eb04 0744 	add.w	r7, r4, r4, lsl #1
   115cc:	193e      	adds	r6, r7, r4
   115ce:	1935      	adds	r5, r6, r4
   115d0:	9c03      	ldr	r4, [sp, #12]
   115d2:	9000      	str	r0, [sp, #0]
   115d4:	4622      	mov	r2, r4
   115d6:	3201      	adds	r2, #1
   115d8:	eb02 0281 	add.w	r2, r2, r1, lsl #2
   115dc:	9900      	ldr	r1, [sp, #0]
   115de:	1828      	adds	r0, r5, r0
   115e0:	eb00 0e01 	add.w	lr, r0, r1
   115e4:	990c      	ldr	r1, [sp, #48]	; 0x30
   115e6:	440a      	add	r2, r1
   115e8:	eb04 0c01 	add.w	ip, r4, r1
   115ec:	ea4f 04ce 	mov.w	r4, lr, lsl #3
   115f0:	eb0a 0ec2 	add.w	lr, sl, r2, lsl #3
   115f4:	9a00      	ldr	r2, [sp, #0]
   115f6:	940f      	str	r4, [sp, #60]	; 0x3c
   115f8:	00ed      	lsls	r5, r5, #3
   115fa:	9511      	str	r5, [sp, #68]	; 0x44
   115fc:	00d5      	lsls	r5, r2, #3
   115fe:	950d      	str	r5, [sp, #52]	; 0x34
   11600:	9d01      	ldr	r5, [sp, #4]
   11602:	3508      	adds	r5, #8
   11604:	9516      	str	r5, [sp, #88]	; 0x58
   11606:	9d02      	ldr	r5, [sp, #8]
   11608:	3508      	adds	r5, #8
   1160a:	0114      	lsls	r4, r2, #4
   1160c:	9517      	str	r5, [sp, #92]	; 0x5c
   1160e:	9a0f      	ldr	r2, [sp, #60]	; 0x3c
   11610:	9d1a      	ldr	r5, [sp, #104]	; 0x68
   11612:	940e      	str	r4, [sp, #56]	; 0x38
   11614:	00c0      	lsls	r0, r0, #3
   11616:	9010      	str	r0, [sp, #64]	; 0x40
   11618:	18aa      	adds	r2, r5, r2
   1161a:	9207      	str	r2, [sp, #28]
   1161c:	9a10      	ldr	r2, [sp, #64]	; 0x40
   1161e:	9c0c      	ldr	r4, [sp, #48]	; 0x30
   11620:	18aa      	adds	r2, r5, r2
   11622:	9208      	str	r2, [sp, #32]
   11624:	9a11      	ldr	r2, [sp, #68]	; 0x44
   11626:	18aa      	adds	r2, r5, r2
   11628:	9209      	str	r2, [sp, #36]	; 0x24
   1162a:	eb01 0181 	add.w	r1, r1, r1, lsl #2
   1162e:	f10e 0204 	add.w	r2, lr, #4
   11632:	920a      	str	r2, [sp, #40]	; 0x28
   11634:	00c9      	lsls	r1, r1, #3
   11636:	9a0d      	ldr	r2, [sp, #52]	; 0x34
   11638:	310c      	adds	r1, #12
   1163a:	00f6      	lsls	r6, r6, #3
   1163c:	ea4f 00cc 	mov.w	r0, ip, lsl #3
   11640:	9114      	str	r1, [sp, #80]	; 0x50
   11642:	18a9      	adds	r1, r5, r2
   11644:	9a0e      	ldr	r2, [sp, #56]	; 0x38
   11646:	9612      	str	r6, [sp, #72]	; 0x48
   11648:	00ff      	lsls	r7, r7, #3
   1164a:	19ae      	adds	r6, r5, r6
   1164c:	3008      	adds	r0, #8
   1164e:	ea4f 1c0c 	mov.w	ip, ip, lsl #4
   11652:	9606      	str	r6, [sp, #24]
   11654:	9019      	str	r0, [sp, #100]	; 0x64
   11656:	18aa      	adds	r2, r5, r2
   11658:	0164      	lsls	r4, r4, #5
   1165a:	19ee      	adds	r6, r5, r7
   1165c:	f10c 000c 	add.w	r0, ip, #12
   11660:	9713      	str	r7, [sp, #76]	; 0x4c
   11662:	9604      	str	r6, [sp, #16]
   11664:	9015      	str	r0, [sp, #84]	; 0x54
   11666:	9103      	str	r1, [sp, #12]
   11668:	9205      	str	r2, [sp, #20]
   1166a:	f104 0208 	add.w	r2, r4, #8
   1166e:	9218      	str	r2, [sp, #96]	; 0x60
   11670:	f04f 0801 	mov.w	r8, #1
   11674:	2200      	movs	r2, #0
   11676:	f102 0108 	add.w	r1, r2, #8
   1167a:	460f      	mov	r7, r1
   1167c:	910b      	str	r1, [sp, #44]	; 0x2c
   1167e:	9918      	ldr	r1, [sp, #96]	; 0x60
   11680:	188e      	adds	r6, r1, r2
   11682:	9916      	ldr	r1, [sp, #88]	; 0x58
   11684:	188d      	adds	r5, r1, r2
   11686:	9917      	ldr	r1, [sp, #92]	; 0x5c
   11688:	188c      	adds	r4, r1, r2
   1168a:	9919      	ldr	r1, [sp, #100]	; 0x64
   1168c:	1888      	adds	r0, r1, r2
   1168e:	9914      	ldr	r1, [sp, #80]	; 0x50
   11690:	eb01 0c02 	add.w	ip, r1, r2
   11694:	9915      	ldr	r1, [sp, #84]	; 0x54
   11696:	440a      	add	r2, r1
   11698:	9903      	ldr	r1, [sp, #12]
   1169a:	edd1 fa00 	vldr	s31, [r1]
   1169e:	9905      	ldr	r1, [sp, #20]
   116a0:	ed91 fa00 	vldr	s30, [r1]
   116a4:	9904      	ldr	r1, [sp, #16]
   116a6:	edd1 ea00 	vldr	s29, [r1]
   116aa:	9906      	ldr	r1, [sp, #24]
   116ac:	ed91 ea00 	vldr	s28, [r1]
   116b0:	9909      	ldr	r1, [sp, #36]	; 0x24
   116b2:	edd1 da00 	vldr	s27, [r1]
   116b6:	9908      	ldr	r1, [sp, #32]
   116b8:	ed91 da00 	vldr	s26, [r1]
   116bc:	9907      	ldr	r1, [sp, #28]
   116be:	edd1 ca00 	vldr	s25, [r1]
   116c2:	9903      	ldr	r1, [sp, #12]
   116c4:	ed91 ca01 	vldr	s24, [r1, #4]
   116c8:	9905      	ldr	r1, [sp, #20]
   116ca:	edd1 ba01 	vldr	s23, [r1, #4]
   116ce:	9904      	ldr	r1, [sp, #16]
   116d0:	edd1 aa01 	vldr	s21, [r1, #4]
   116d4:	9906      	ldr	r1, [sp, #24]
   116d6:	ed91 aa01 	vldr	s20, [r1, #4]
   116da:	9909      	ldr	r1, [sp, #36]	; 0x24
   116dc:	edd1 7a01 	vldr	s15, [r1, #4]
   116e0:	9908      	ldr	r1, [sp, #32]
   116e2:	edcd 7a00 	vstr	s15, [sp]
   116e6:	edd1 7a01 	vldr	s15, [r1, #4]
   116ea:	9907      	ldr	r1, [sp, #28]
   116ec:	edcd 7a01 	vstr	s15, [sp, #4]
   116f0:	edd1 7a01 	vldr	s15, [r1, #4]
   116f4:	eb0a 0e07 	add.w	lr, sl, r7
   116f8:	9f0a      	ldr	r7, [sp, #40]	; 0x28
   116fa:	edcd 7a02 	vstr	s15, [sp, #8]
   116fe:	eb0c 010a 	add.w	r1, ip, sl
   11702:	4456      	add	r6, sl
   11704:	4455      	add	r5, sl
   11706:	4454      	add	r4, sl
   11708:	4450      	add	r0, sl
   1170a:	4452      	add	r2, sl
   1170c:	46c4      	mov	ip, r8
   1170e:	e001      	b.n	11714 <arm_radix8_butterfly_f32+0x334>
   11710:	3f3504f3 	.word	0x3f3504f3
   11714:	ed96 5a00 	vldr	s10, [r6]
   11718:	ed52 9a01 	vldr	s19, [r2, #-4]
   1171c:	ed11 6a01 	vldr	s12, [r1, #-4]
   11720:	edd0 7a00 	vldr	s15, [r0]
   11724:	ed17 7a01 	vldr	s14, [r7, #-4]
   11728:	edde 3a00 	vldr	s7, [lr]
   1172c:	ed94 3a00 	vldr	s6, [r4]
   11730:	ed95 2a00 	vldr	s4, [r5]
   11734:	ed9e 0a01 	vldr	s0, [lr, #4]
   11738:	ee33 8a85 	vadd.f32	s16, s7, s10
   1173c:	ee32 1a06 	vadd.f32	s2, s4, s12
   11740:	ee33 4a29 	vadd.f32	s8, s6, s19
   11744:	ee77 4a87 	vadd.f32	s9, s15, s14
   11748:	ee78 1a04 	vadd.f32	s3, s16, s8
   1174c:	ee71 6a24 	vadd.f32	s13, s2, s9
   11750:	ee32 2a46 	vsub.f32	s4, s4, s12
   11754:	ee31 6aa6 	vadd.f32	s12, s3, s13
   11758:	ee77 7ac7 	vsub.f32	s15, s15, s14
   1175c:	ed8e 6a00 	vstr	s12, [lr]
   11760:	edd0 8a01 	vldr	s17, [r0, #4]
   11764:	ed95 9a01 	vldr	s18, [r5, #4]
   11768:	edd1 2a00 	vldr	s5, [r1]
   1176c:	ed97 7a00 	vldr	s14, [r7]
   11770:	edd4 0a01 	vldr	s1, [r4, #4]
   11774:	ed96 6a01 	vldr	s12, [r6, #4]
   11778:	edd2 5a00 	vldr	s11, [r2]
   1177c:	ee73 3ac5 	vsub.f32	s7, s7, s10
   11780:	ee33 3a69 	vsub.f32	s6, s6, s19
   11784:	ee39 5a62 	vsub.f32	s10, s18, s5
   11788:	ee78 9ac7 	vsub.f32	s19, s17, s14
   1178c:	ee38 4a44 	vsub.f32	s8, s16, s8
   11790:	ee38 7a87 	vadd.f32	s14, s17, s14
   11794:	ee30 8aa5 	vadd.f32	s16, s1, s11
   11798:	ee79 2a22 	vadd.f32	s5, s18, s5
   1179c:	ee75 8a69 	vsub.f32	s17, s10, s19
   117a0:	ee32 9a27 	vadd.f32	s18, s4, s15
   117a4:	ee35 5a29 	vadd.f32	s10, s10, s19
   117a8:	ee72 7a67 	vsub.f32	s15, s4, s15
   117ac:	ee30 2a06 	vadd.f32	s4, s0, s12
   117b0:	ee69 9a0b 	vmul.f32	s19, s18, s22
   117b4:	ee70 5ae5 	vsub.f32	s11, s1, s11
   117b8:	ee32 9a08 	vadd.f32	s18, s4, s16
   117bc:	ee68 8a8b 	vmul.f32	s17, s17, s22
   117c0:	ee32 2a48 	vsub.f32	s4, s4, s16
   117c4:	ee71 4a64 	vsub.f32	s9, s2, s9
   117c8:	ee25 5a0b 	vmul.f32	s10, s10, s22
   117cc:	ee32 1a87 	vadd.f32	s2, s5, s14
   117d0:	ee67 7a8b 	vmul.f32	s15, s15, s22
   117d4:	ee72 2ac7 	vsub.f32	s5, s5, s14
   117d8:	ee30 6a46 	vsub.f32	s12, s0, s12
   117dc:	ee73 0a29 	vadd.f32	s1, s6, s19
   117e0:	ee36 0a28 	vadd.f32	s0, s12, s17
   117e4:	ee33 3a69 	vsub.f32	s6, s6, s19
   117e8:	ee32 7a64 	vsub.f32	s14, s4, s9
   117ec:	ee73 9aa7 	vadd.f32	s19, s7, s15
   117f0:	ee36 6a68 	vsub.f32	s12, s12, s17
   117f4:	ee73 7ae7 	vsub.f32	s15, s7, s15
   117f8:	ee75 8a85 	vadd.f32	s17, s11, s10
   117fc:	ee74 3a22 	vadd.f32	s7, s8, s5
   11800:	ee35 5ac5 	vsub.f32	s10, s11, s10
   11804:	ee71 6ae6 	vsub.f32	s13, s3, s13
   11808:	ee79 1a41 	vsub.f32	s3, s18, s2
   1180c:	ee39 8aa8 	vadd.f32	s16, s19, s17
   11810:	ee76 5a43 	vsub.f32	s11, s12, s6
   11814:	ee74 2a62 	vsub.f32	s5, s8, s5
   11818:	ee72 4a24 	vadd.f32	s9, s4, s9
   1181c:	ee30 4a60 	vsub.f32	s8, s0, s1
   11820:	ee79 8ae8 	vsub.f32	s17, s19, s17
   11824:	ee30 0a20 	vadd.f32	s0, s0, s1
   11828:	ee77 9a85 	vadd.f32	s19, s15, s10
   1182c:	ee36 6a03 	vadd.f32	s12, s12, s6
   11830:	ee77 7ac5 	vsub.f32	s15, s15, s10
   11834:	ee2e 2a21 	vmul.f32	s4, s28, s3
   11838:	ee2e 5a26 	vmul.f32	s10, s28, s13
   1183c:	ee6f 0a23 	vmul.f32	s1, s30, s7
   11840:	ee2a 3a21 	vmul.f32	s6, s20, s3
   11844:	ee39 1a01 	vadd.f32	s2, s18, s2
   11848:	ee6a 6a26 	vmul.f32	s13, s20, s13
   1184c:	ee2b 9a87 	vmul.f32	s18, s23, s14
   11850:	ee6b 3aa3 	vmul.f32	s7, s23, s7
   11854:	ee2f 7a07 	vmul.f32	s14, s30, s14
   11858:	ee6f 1a84 	vmul.f32	s3, s31, s8
   1185c:	ee35 3a03 	vadd.f32	s6, s10, s6
   11860:	ee72 6a66 	vsub.f32	s13, s4, s13
   11864:	ee2c 5a04 	vmul.f32	s10, s24, s8
   11868:	ee2f 2a88 	vmul.f32	s4, s31, s16
   1186c:	ed9d 4a02 	vldr	s8, [sp, #8]
   11870:	ed8e 1a01 	vstr	s2, [lr, #4]
   11874:	ee77 3a63 	vsub.f32	s7, s14, s7
   11878:	ee2c 8a08 	vmul.f32	s16, s24, s16
   1187c:	ed9d 7a01 	vldr	s14, [sp, #4]
   11880:	ed86 3a00 	vstr	s6, [r6]
   11884:	ee30 9a89 	vadd.f32	s18, s1, s18
   11888:	ee32 2a05 	vadd.f32	s4, s4, s10
   1188c:	ee6d 0a22 	vmul.f32	s1, s26, s5
   11890:	ee31 8ac8 	vsub.f32	s16, s3, s16
   11894:	ee67 2a22 	vmul.f32	s5, s14, s5
   11898:	ee64 1a00 	vmul.f32	s3, s8, s0
   1189c:	ee27 7a24 	vmul.f32	s14, s14, s9
   118a0:	ee2c 5aa8 	vmul.f32	s10, s25, s17
   118a4:	ee6d 4a24 	vmul.f32	s9, s26, s9
   118a8:	ee64 8a28 	vmul.f32	s17, s8, s17
   118ac:	ed9d 4a00 	vldr	s8, [sp]
   118b0:	edc6 6a01 	vstr	s13, [r6, #4]
   118b4:	ee74 2ae2 	vsub.f32	s5, s9, s5
   118b8:	ee6d 4aa9 	vmul.f32	s9, s27, s19
   118bc:	ee64 9a29 	vmul.f32	s19, s8, s19
   118c0:	ee24 4a25 	vmul.f32	s8, s8, s11
   118c4:	ee30 7a87 	vadd.f32	s14, s1, s14
   118c8:	ee74 4a84 	vadd.f32	s9, s9, s8
   118cc:	ee6e 0aa7 	vmul.f32	s1, s29, s15
   118d0:	ee2a 4a86 	vmul.f32	s8, s21, s12
   118d4:	ee2c 0a80 	vmul.f32	s0, s25, s0
   118d8:	ee6d 5aa5 	vmul.f32	s11, s27, s11
   118dc:	ee6a 7aa7 	vmul.f32	s15, s21, s15
   118e0:	ee2e 6a86 	vmul.f32	s12, s29, s12
   118e4:	ee75 1a21 	vadd.f32	s3, s10, s3
   118e8:	ee30 0a68 	vsub.f32	s0, s0, s17
   118ec:	ee75 9ae9 	vsub.f32	s19, s11, s19
   118f0:	ee70 0a84 	vadd.f32	s1, s1, s8
   118f4:	ee36 6a67 	vsub.f32	s12, s12, s15
   118f8:	44dc      	add	ip, fp
   118fa:	45e1      	cmp	r9, ip
   118fc:	ed84 9a00 	vstr	s18, [r4]
   11900:	edc4 3a01 	vstr	s7, [r4, #4]
   11904:	449e      	add	lr, r3
   11906:	ed02 7a01 	vstr	s14, [r2, #-4]
   1190a:	edc2 2a00 	vstr	s5, [r2]
   1190e:	441e      	add	r6, r3
   11910:	ed85 2a00 	vstr	s4, [r5]
   11914:	ed85 8a01 	vstr	s16, [r5, #4]
   11918:	441c      	add	r4, r3
   1191a:	ed47 1a01 	vstr	s3, [r7, #-4]
   1191e:	ed87 0a00 	vstr	s0, [r7]
   11922:	441a      	add	r2, r3
   11924:	ed41 4a01 	vstr	s9, [r1, #-4]
   11928:	edc1 9a00 	vstr	s19, [r1]
   1192c:	441d      	add	r5, r3
   1192e:	edc0 0a00 	vstr	s1, [r0]
   11932:	441f      	add	r7, r3
   11934:	ed80 6a01 	vstr	s12, [r0, #4]
   11938:	4419      	add	r1, r3
   1193a:	4418      	add	r0, r3
   1193c:	f63f aeea 	bhi.w	11714 <arm_radix8_butterfly_f32+0x334>
   11940:	9a03      	ldr	r2, [sp, #12]
   11942:	990d      	ldr	r1, [sp, #52]	; 0x34
   11944:	440a      	add	r2, r1
   11946:	9203      	str	r2, [sp, #12]
   11948:	990e      	ldr	r1, [sp, #56]	; 0x38
   1194a:	9a05      	ldr	r2, [sp, #20]
   1194c:	440a      	add	r2, r1
   1194e:	9205      	str	r2, [sp, #20]
   11950:	9913      	ldr	r1, [sp, #76]	; 0x4c
   11952:	9a04      	ldr	r2, [sp, #16]
   11954:	440a      	add	r2, r1
   11956:	9204      	str	r2, [sp, #16]
   11958:	9912      	ldr	r1, [sp, #72]	; 0x48
   1195a:	9a06      	ldr	r2, [sp, #24]
   1195c:	440a      	add	r2, r1
   1195e:	9206      	str	r2, [sp, #24]
   11960:	9911      	ldr	r1, [sp, #68]	; 0x44
   11962:	9a09      	ldr	r2, [sp, #36]	; 0x24
   11964:	440a      	add	r2, r1
   11966:	9209      	str	r2, [sp, #36]	; 0x24
   11968:	9910      	ldr	r1, [sp, #64]	; 0x40
   1196a:	9a08      	ldr	r2, [sp, #32]
   1196c:	440a      	add	r2, r1
   1196e:	9208      	str	r2, [sp, #32]
   11970:	990f      	ldr	r1, [sp, #60]	; 0x3c
   11972:	9a07      	ldr	r2, [sp, #28]
   11974:	440a      	add	r2, r1
   11976:	9207      	str	r2, [sp, #28]
   11978:	990c      	ldr	r1, [sp, #48]	; 0x30
   1197a:	9a0a      	ldr	r2, [sp, #40]	; 0x28
   1197c:	f108 0801 	add.w	r8, r8, #1
   11980:	3208      	adds	r2, #8
   11982:	4588      	cmp	r8, r1
   11984:	920a      	str	r2, [sp, #40]	; 0x28
   11986:	9a0b      	ldr	r2, [sp, #44]	; 0x2c
   11988:	f47f ae75 	bne.w	11676 <arm_radix8_butterfly_f32+0x296>
   1198c:	f8bd 3034 	ldrh.w	r3, [sp, #52]	; 0x34
   11990:	9300      	str	r3, [sp, #0]
   11992:	46c3      	mov	fp, r8
   11994:	f8dd e06c 	ldr.w	lr, [sp, #108]	; 0x6c
   11998:	e532      	b.n	11400 <arm_radix8_butterfly_f32+0x20>
   1199a:	b01d      	add	sp, #116	; 0x74
   1199c:	ecbd 8b10 	vpop	{d8-d15}
   119a0:	e8bd 8ff0 	ldmia.w	sp!, {r4, r5, r6, r7, r8, r9, sl, fp, pc}
   119a4:	0000      	movs	r0, r0
	...

000119a8 <pow>:
   119a8:	e92d 4ff0 	stmdb	sp!, {r4, r5, r6, r7, r8, r9, sl, fp, lr}
   119ac:	ed2d 8b02 	vpush	{d8}
   119b0:	f8df a324 	ldr.w	sl, [pc, #804]	; 11cd8 <pow+0x330>
   119b4:	b08b      	sub	sp, #44	; 0x2c
   119b6:	ec57 6b10 	vmov	r6, r7, d0
   119ba:	ec55 4b11 	vmov	r4, r5, d1
   119be:	f000 f98f 	bl	11ce0 <__ieee754_pow>
   119c2:	f99a 8000 	ldrsb.w	r8, [sl]
   119c6:	eeb0 8a40 	vmov.f32	s16, s0
   119ca:	eef0 8a60 	vmov.f32	s17, s1
   119ce:	f1b8 3fff 	cmp.w	r8, #4294967295	; 0xffffffff
   119d2:	d033      	beq.n	11a3c <pow+0x94>
   119d4:	4622      	mov	r2, r4
   119d6:	462b      	mov	r3, r5
   119d8:	4620      	mov	r0, r4
   119da:	4629      	mov	r1, r5
   119dc:	f7fb f8e0 	bl	cba0 <__aeabi_dcmpun>
   119e0:	4683      	mov	fp, r0
   119e2:	bb58      	cbnz	r0, 11a3c <pow+0x94>
   119e4:	4632      	mov	r2, r6
   119e6:	463b      	mov	r3, r7
   119e8:	4630      	mov	r0, r6
   119ea:	4639      	mov	r1, r7
   119ec:	f7fb f8d8 	bl	cba0 <__aeabi_dcmpun>
   119f0:	4681      	mov	r9, r0
   119f2:	2800      	cmp	r0, #0
   119f4:	d166      	bne.n	11ac4 <pow+0x11c>
   119f6:	4630      	mov	r0, r6
   119f8:	4639      	mov	r1, r7
   119fa:	2200      	movs	r2, #0
   119fc:	2300      	movs	r3, #0
   119fe:	f7fb f89d 	bl	cb3c <__aeabi_dcmpeq>
   11a02:	b320      	cbz	r0, 11a4e <pow+0xa6>
   11a04:	2200      	movs	r2, #0
   11a06:	2300      	movs	r3, #0
   11a08:	4620      	mov	r0, r4
   11a0a:	4629      	mov	r1, r5
   11a0c:	f7fb f896 	bl	cb3c <__aeabi_dcmpeq>
   11a10:	4683      	mov	fp, r0
   11a12:	2800      	cmp	r0, #0
   11a14:	d07d      	beq.n	11b12 <pow+0x16a>
   11a16:	ed9f 7ba6 	vldr	d7, [pc, #664]	; 11cb0 <pow+0x308>
   11a1a:	2201      	movs	r2, #1
   11a1c:	4baa      	ldr	r3, [pc, #680]	; (11cc8 <pow+0x320>)
   11a1e:	f8cd 9020 	str.w	r9, [sp, #32]
   11a22:	9200      	str	r2, [sp, #0]
   11a24:	e9cd 6702 	strd	r6, r7, [sp, #8]
   11a28:	e9cd 4504 	strd	r4, r5, [sp, #16]
   11a2c:	ed8d 7b06 	vstr	d7, [sp, #24]
   11a30:	9301      	str	r3, [sp, #4]
   11a32:	f1b8 0f00 	cmp.w	r8, #0
   11a36:	d05e      	beq.n	11af6 <pow+0x14e>
   11a38:	ed9f 8b9f 	vldr	d8, [pc, #636]	; 11cb8 <pow+0x310>
   11a3c:	eeb0 0a48 	vmov.f32	s0, s16
   11a40:	eef0 0a68 	vmov.f32	s1, s17
   11a44:	b00b      	add	sp, #44	; 0x2c
   11a46:	ecbd 8b02 	vpop	{d8}
   11a4a:	e8bd 8ff0 	ldmia.w	sp!, {r4, r5, r6, r7, r8, r9, sl, fp, pc}
   11a4e:	eeb0 0a48 	vmov.f32	s0, s16
   11a52:	eef0 0a68 	vmov.f32	s1, s17
   11a56:	f000 ff73 	bl	12940 <finite>
   11a5a:	4680      	mov	r8, r0
   11a5c:	2800      	cmp	r0, #0
   11a5e:	f000 8082 	beq.w	11b66 <pow+0x1be>
   11a62:	f04f 0800 	mov.w	r8, #0
   11a66:	f04f 0900 	mov.w	r9, #0
   11a6a:	ec51 0b18 	vmov	r0, r1, d8
   11a6e:	4642      	mov	r2, r8
   11a70:	464b      	mov	r3, r9
   11a72:	f7fb f863 	bl	cb3c <__aeabi_dcmpeq>
   11a76:	2800      	cmp	r0, #0
   11a78:	d0e0      	beq.n	11a3c <pow+0x94>
   11a7a:	ec47 6b10 	vmov	d0, r6, r7
   11a7e:	f000 ff5f 	bl	12940 <finite>
   11a82:	2800      	cmp	r0, #0
   11a84:	d0da      	beq.n	11a3c <pow+0x94>
   11a86:	ec45 4b10 	vmov	d0, r4, r5
   11a8a:	f000 ff59 	bl	12940 <finite>
   11a8e:	2800      	cmp	r0, #0
   11a90:	d0d4      	beq.n	11a3c <pow+0x94>
   11a92:	f99a 3000 	ldrsb.w	r3, [sl]
   11a96:	4a8c      	ldr	r2, [pc, #560]	; (11cc8 <pow+0x320>)
   11a98:	9201      	str	r2, [sp, #4]
   11a9a:	2104      	movs	r1, #4
   11a9c:	2200      	movs	r2, #0
   11a9e:	2b02      	cmp	r3, #2
   11aa0:	e9cd 6702 	strd	r6, r7, [sp, #8]
   11aa4:	e9cd 4504 	strd	r4, r5, [sp, #16]
   11aa8:	e9cd 8906 	strd	r8, r9, [sp, #24]
   11aac:	9100      	str	r1, [sp, #0]
   11aae:	9208      	str	r2, [sp, #32]
   11ab0:	d003      	beq.n	11aba <pow+0x112>
   11ab2:	4668      	mov	r0, sp
   11ab4:	f000 ff4c 	bl	12950 <matherr>
   11ab8:	bb10      	cbnz	r0, 11b00 <pow+0x158>
   11aba:	f001 f875 	bl	12ba8 <__errno>
   11abe:	2322      	movs	r3, #34	; 0x22
   11ac0:	6003      	str	r3, [r0, #0]
   11ac2:	e01d      	b.n	11b00 <pow+0x158>
   11ac4:	2200      	movs	r2, #0
   11ac6:	2300      	movs	r3, #0
   11ac8:	4620      	mov	r0, r4
   11aca:	4629      	mov	r1, r5
   11acc:	f7fb f836 	bl	cb3c <__aeabi_dcmpeq>
   11ad0:	2800      	cmp	r0, #0
   11ad2:	d0b3      	beq.n	11a3c <pow+0x94>
   11ad4:	ed9f 8b78 	vldr	d8, [pc, #480]	; 11cb8 <pow+0x310>
   11ad8:	2201      	movs	r2, #1
   11ada:	4b7b      	ldr	r3, [pc, #492]	; (11cc8 <pow+0x320>)
   11adc:	f8cd b020 	str.w	fp, [sp, #32]
   11ae0:	f1b8 0f02 	cmp.w	r8, #2
   11ae4:	9200      	str	r2, [sp, #0]
   11ae6:	e9cd 6702 	strd	r6, r7, [sp, #8]
   11aea:	e9cd 4504 	strd	r4, r5, [sp, #16]
   11aee:	ed8d 8b06 	vstr	d8, [sp, #24]
   11af2:	9301      	str	r3, [sp, #4]
   11af4:	d0a2      	beq.n	11a3c <pow+0x94>
   11af6:	4668      	mov	r0, sp
   11af8:	f000 ff2a 	bl	12950 <matherr>
   11afc:	2800      	cmp	r0, #0
   11afe:	d078      	beq.n	11bf2 <pow+0x24a>
   11b00:	9b08      	ldr	r3, [sp, #32]
   11b02:	b11b      	cbz	r3, 11b0c <pow+0x164>
   11b04:	f001 f850 	bl	12ba8 <__errno>
   11b08:	9b08      	ldr	r3, [sp, #32]
   11b0a:	6003      	str	r3, [r0, #0]
   11b0c:	ed9d 8b06 	vldr	d8, [sp, #24]
   11b10:	e794      	b.n	11a3c <pow+0x94>
   11b12:	ec45 4b10 	vmov	d0, r4, r5
   11b16:	f000 ff13 	bl	12940 <finite>
   11b1a:	2800      	cmp	r0, #0
   11b1c:	d08e      	beq.n	11a3c <pow+0x94>
   11b1e:	2200      	movs	r2, #0
   11b20:	2300      	movs	r3, #0
   11b22:	4620      	mov	r0, r4
   11b24:	4629      	mov	r1, r5
   11b26:	f7fb f813 	bl	cb50 <__aeabi_dcmplt>
   11b2a:	2800      	cmp	r0, #0
   11b2c:	d086      	beq.n	11a3c <pow+0x94>
   11b2e:	4a66      	ldr	r2, [pc, #408]	; (11cc8 <pow+0x320>)
   11b30:	f99a 3000 	ldrsb.w	r3, [sl]
   11b34:	f8cd b020 	str.w	fp, [sp, #32]
   11b38:	2101      	movs	r1, #1
   11b3a:	e9cd 6702 	strd	r6, r7, [sp, #8]
   11b3e:	e9cd 4504 	strd	r4, r5, [sp, #16]
   11b42:	e9cd 1200 	strd	r1, r2, [sp]
   11b46:	2b00      	cmp	r3, #0
   11b48:	d058      	beq.n	11bfc <pow+0x254>
   11b4a:	4960      	ldr	r1, [pc, #384]	; (11ccc <pow+0x324>)
   11b4c:	2000      	movs	r0, #0
   11b4e:	2b02      	cmp	r3, #2
   11b50:	e9cd 0106 	strd	r0, r1, [sp, #24]
   11b54:	d156      	bne.n	11c04 <pow+0x25c>
   11b56:	f001 f827 	bl	12ba8 <__errno>
   11b5a:	2321      	movs	r3, #33	; 0x21
   11b5c:	6003      	str	r3, [r0, #0]
   11b5e:	9b08      	ldr	r3, [sp, #32]
   11b60:	2b00      	cmp	r3, #0
   11b62:	d0d3      	beq.n	11b0c <pow+0x164>
   11b64:	e7ce      	b.n	11b04 <pow+0x15c>
   11b66:	ec47 6b10 	vmov	d0, r6, r7
   11b6a:	f000 fee9 	bl	12940 <finite>
   11b6e:	2800      	cmp	r0, #0
   11b70:	f43f af77 	beq.w	11a62 <pow+0xba>
   11b74:	ec45 4b10 	vmov	d0, r4, r5
   11b78:	f000 fee2 	bl	12940 <finite>
   11b7c:	2800      	cmp	r0, #0
   11b7e:	f43f af70 	beq.w	11a62 <pow+0xba>
   11b82:	ec53 2b18 	vmov	r2, r3, d8
   11b86:	ee18 0a10 	vmov	r0, s16
   11b8a:	4619      	mov	r1, r3
   11b8c:	f7fb f808 	bl	cba0 <__aeabi_dcmpun>
   11b90:	f99a 9000 	ldrsb.w	r9, [sl]
   11b94:	2800      	cmp	r0, #0
   11b96:	d16f      	bne.n	11c78 <pow+0x2d0>
   11b98:	2303      	movs	r3, #3
   11b9a:	f8df c12c 	ldr.w	ip, [pc, #300]	; 11cc8 <pow+0x320>
   11b9e:	9008      	str	r0, [sp, #32]
   11ba0:	4629      	mov	r1, r5
   11ba2:	4620      	mov	r0, r4
   11ba4:	9300      	str	r3, [sp, #0]
   11ba6:	2200      	movs	r2, #0
   11ba8:	4b49      	ldr	r3, [pc, #292]	; (11cd0 <pow+0x328>)
   11baa:	f8cd c004 	str.w	ip, [sp, #4]
   11bae:	e9cd 4504 	strd	r4, r5, [sp, #16]
   11bb2:	e9cd 6702 	strd	r6, r7, [sp, #8]
   11bb6:	f7fa fd59 	bl	c66c <__aeabi_dmul>
   11bba:	4604      	mov	r4, r0
   11bbc:	460d      	mov	r5, r1
   11bbe:	f1b9 0f00 	cmp.w	r9, #0
   11bc2:	d125      	bne.n	11c10 <pow+0x268>
   11bc4:	f8df 9114 	ldr.w	r9, [pc, #276]	; 11cdc <pow+0x334>
   11bc8:	f04f 4860 	mov.w	r8, #3758096384	; 0xe0000000
   11bcc:	2200      	movs	r2, #0
   11bce:	2300      	movs	r3, #0
   11bd0:	4630      	mov	r0, r6
   11bd2:	4639      	mov	r1, r7
   11bd4:	e9cd 8906 	strd	r8, r9, [sp, #24]
   11bd8:	f7fa ffba 	bl	cb50 <__aeabi_dcmplt>
   11bdc:	bb38      	cbnz	r0, 11c2e <pow+0x286>
   11bde:	4668      	mov	r0, sp
   11be0:	f000 feb6 	bl	12950 <matherr>
   11be4:	2800      	cmp	r0, #0
   11be6:	d1ba      	bne.n	11b5e <pow+0x1b6>
   11be8:	f000 ffde 	bl	12ba8 <__errno>
   11bec:	2322      	movs	r3, #34	; 0x22
   11bee:	6003      	str	r3, [r0, #0]
   11bf0:	e7b5      	b.n	11b5e <pow+0x1b6>
   11bf2:	f000 ffd9 	bl	12ba8 <__errno>
   11bf6:	2321      	movs	r3, #33	; 0x21
   11bf8:	6003      	str	r3, [r0, #0]
   11bfa:	e781      	b.n	11b00 <pow+0x158>
   11bfc:	ed9f 7b2c 	vldr	d7, [pc, #176]	; 11cb0 <pow+0x308>
   11c00:	ed8d 7b06 	vstr	d7, [sp, #24]
   11c04:	4668      	mov	r0, sp
   11c06:	f000 fea3 	bl	12950 <matherr>
   11c0a:	2800      	cmp	r0, #0
   11c0c:	d1a7      	bne.n	11b5e <pow+0x1b6>
   11c0e:	e7a2      	b.n	11b56 <pow+0x1ae>
   11c10:	ed9f 7b2b 	vldr	d7, [pc, #172]	; 11cc0 <pow+0x318>
   11c14:	2200      	movs	r2, #0
   11c16:	2300      	movs	r3, #0
   11c18:	4630      	mov	r0, r6
   11c1a:	4639      	mov	r1, r7
   11c1c:	ed8d 7b06 	vstr	d7, [sp, #24]
   11c20:	f7fa ff96 	bl	cb50 <__aeabi_dcmplt>
   11c24:	b9b0      	cbnz	r0, 11c54 <pow+0x2ac>
   11c26:	f1b9 0f02 	cmp.w	r9, #2
   11c2a:	d0dd      	beq.n	11be8 <pow+0x240>
   11c2c:	e7d7      	b.n	11bde <pow+0x236>
   11c2e:	ec45 4b10 	vmov	d0, r4, r5
   11c32:	f000 fe99 	bl	12968 <rint>
   11c36:	4622      	mov	r2, r4
   11c38:	462b      	mov	r3, r5
   11c3a:	ec51 0b10 	vmov	r0, r1, d0
   11c3e:	f7fa ff7d 	bl	cb3c <__aeabi_dcmpeq>
   11c42:	b9b0      	cbnz	r0, 11c72 <pow+0x2ca>
   11c44:	4b23      	ldr	r3, [pc, #140]	; (11cd4 <pow+0x32c>)
   11c46:	f99a 9000 	ldrsb.w	r9, [sl]
   11c4a:	f04f 4260 	mov.w	r2, #3758096384	; 0xe0000000
   11c4e:	e9cd 2306 	strd	r2, r3, [sp, #24]
   11c52:	e7e8      	b.n	11c26 <pow+0x27e>
   11c54:	ec45 4b10 	vmov	d0, r4, r5
   11c58:	f000 fe86 	bl	12968 <rint>
   11c5c:	4622      	mov	r2, r4
   11c5e:	462b      	mov	r3, r5
   11c60:	ec51 0b10 	vmov	r0, r1, d0
   11c64:	f7fa ff6a 	bl	cb3c <__aeabi_dcmpeq>
   11c68:	b918      	cbnz	r0, 11c72 <pow+0x2ca>
   11c6a:	4b18      	ldr	r3, [pc, #96]	; (11ccc <pow+0x324>)
   11c6c:	2200      	movs	r2, #0
   11c6e:	e9cd 2306 	strd	r2, r3, [sp, #24]
   11c72:	f99a 9000 	ldrsb.w	r9, [sl]
   11c76:	e7d6      	b.n	11c26 <pow+0x27e>
   11c78:	2201      	movs	r2, #1
   11c7a:	4b13      	ldr	r3, [pc, #76]	; (11cc8 <pow+0x320>)
   11c7c:	f8cd 8020 	str.w	r8, [sp, #32]
   11c80:	9200      	str	r2, [sp, #0]
   11c82:	e9cd 6702 	strd	r6, r7, [sp, #8]
   11c86:	e9cd 4504 	strd	r4, r5, [sp, #16]
   11c8a:	9301      	str	r3, [sp, #4]
   11c8c:	f1b9 0f00 	cmp.w	r9, #0
   11c90:	d0b4      	beq.n	11bfc <pow+0x254>
   11c92:	2200      	movs	r2, #0
   11c94:	2300      	movs	r3, #0
   11c96:	4610      	mov	r0, r2
   11c98:	4619      	mov	r1, r3
   11c9a:	f7fa fe11 	bl	c8c0 <__aeabi_ddiv>
   11c9e:	f1b9 0f02 	cmp.w	r9, #2
   11ca2:	e9cd 0106 	strd	r0, r1, [sp, #24]
   11ca6:	f43f af56 	beq.w	11b56 <pow+0x1ae>
   11caa:	e7ab      	b.n	11c04 <pow+0x25c>
   11cac:	f3af 8000 	nop.w
	...
   11cbc:	3ff00000 	.word	0x3ff00000
   11cc0:	00000000 	.word	0x00000000
   11cc4:	7ff00000 	.word	0x7ff00000
   11cc8:	00026b10 	.word	0x00026b10
   11ccc:	fff00000 	.word	0xfff00000
   11cd0:	3fe00000 	.word	0x3fe00000
   11cd4:	c7efffff 	.word	0xc7efffff
   11cd8:	1000c050 	.word	0x1000c050
   11cdc:	47efffff 	.word	0x47efffff

00011ce0 <__ieee754_pow>:
   11ce0:	e92d 4ff0 	stmdb	sp!, {r4, r5, r6, r7, r8, r9, sl, fp, lr}
   11ce4:	ec51 0b11 	vmov	r0, r1, d1
   11ce8:	f021 4500 	bic.w	r5, r1, #2147483648	; 0x80000000
   11cec:	ea55 0300 	orrs.w	r3, r5, r0
   11cf0:	b093      	sub	sp, #76	; 0x4c
   11cf2:	d010      	beq.n	11d16 <__ieee754_pow+0x36>
   11cf4:	ec59 8b10 	vmov	r8, r9, d0
   11cf8:	4b6d      	ldr	r3, [pc, #436]	; (11eb0 <__ieee754_pow+0x1d0>)
   11cfa:	f029 4400 	bic.w	r4, r9, #2147483648	; 0x80000000
   11cfe:	429c      	cmp	r4, r3
   11d00:	464e      	mov	r6, r9
   11d02:	ee10 aa10 	vmov	sl, s0
   11d06:	dd0d      	ble.n	11d24 <__ieee754_pow+0x44>
   11d08:	f104 4440 	add.w	r4, r4, #3221225472	; 0xc0000000
   11d0c:	f504 1480 	add.w	r4, r4, #1048576	; 0x100000
   11d10:	ea54 030a 	orrs.w	r3, r4, sl
   11d14:	d156      	bne.n	11dc4 <__ieee754_pow+0xe4>
   11d16:	4967      	ldr	r1, [pc, #412]	; (11eb4 <__ieee754_pow+0x1d4>)
   11d18:	2000      	movs	r0, #0
   11d1a:	ec41 0b10 	vmov	d0, r0, r1
   11d1e:	b013      	add	sp, #76	; 0x4c
   11d20:	e8bd 8ff0 	ldmia.w	sp!, {r4, r5, r6, r7, r8, r9, sl, fp, pc}
   11d24:	460f      	mov	r7, r1
   11d26:	ee11 ca10 	vmov	ip, s2
   11d2a:	d048      	beq.n	11dbe <__ieee754_pow+0xde>
   11d2c:	429d      	cmp	r5, r3
   11d2e:	dceb      	bgt.n	11d08 <__ieee754_pow+0x28>
   11d30:	4b5f      	ldr	r3, [pc, #380]	; (11eb0 <__ieee754_pow+0x1d0>)
   11d32:	429d      	cmp	r5, r3
   11d34:	d05f      	beq.n	11df6 <__ieee754_pow+0x116>
   11d36:	2e00      	cmp	r6, #0
   11d38:	e9cd 0100 	strd	r0, r1, [sp]
   11d3c:	db5f      	blt.n	11dfe <__ieee754_pow+0x11e>
   11d3e:	f04f 0b00 	mov.w	fp, #0
   11d42:	f1bc 0f00 	cmp.w	ip, #0
   11d46:	d10e      	bne.n	11d66 <__ieee754_pow+0x86>
   11d48:	4b59      	ldr	r3, [pc, #356]	; (11eb0 <__ieee754_pow+0x1d0>)
   11d4a:	429d      	cmp	r5, r3
   11d4c:	d043      	beq.n	11dd6 <__ieee754_pow+0xf6>
   11d4e:	4b59      	ldr	r3, [pc, #356]	; (11eb4 <__ieee754_pow+0x1d4>)
   11d50:	429d      	cmp	r5, r3
   11d52:	f000 808c 	beq.w	11e6e <__ieee754_pow+0x18e>
   11d56:	f1b7 4f80 	cmp.w	r7, #1073741824	; 0x40000000
   11d5a:	f000 809e 	beq.w	11e9a <__ieee754_pow+0x1ba>
   11d5e:	4b56      	ldr	r3, [pc, #344]	; (11eb8 <__ieee754_pow+0x1d8>)
   11d60:	429f      	cmp	r7, r3
   11d62:	f000 83b8 	beq.w	124d6 <__ieee754_pow+0x7f6>
   11d66:	ec49 8b10 	vmov	d0, r8, r9
   11d6a:	f000 fddf 	bl	1292c <fabs>
   11d6e:	ec51 0b10 	vmov	r0, r1, d0
   11d72:	f1ba 0f00 	cmp.w	sl, #0
   11d76:	d106      	bne.n	11d86 <__ieee754_pow+0xa6>
   11d78:	2c00      	cmp	r4, #0
   11d7a:	d05a      	beq.n	11e32 <__ieee754_pow+0x152>
   11d7c:	4b4d      	ldr	r3, [pc, #308]	; (11eb4 <__ieee754_pow+0x1d4>)
   11d7e:	f026 4240 	bic.w	r2, r6, #3221225472	; 0xc0000000
   11d82:	429a      	cmp	r2, r3
   11d84:	d055      	beq.n	11e32 <__ieee754_pow+0x152>
   11d86:	0ff6      	lsrs	r6, r6, #31
   11d88:	f106 3aff 	add.w	sl, r6, #4294967295	; 0xffffffff
   11d8c:	ea5b 030a 	orrs.w	r3, fp, sl
   11d90:	d073      	beq.n	11e7a <__ieee754_pow+0x19a>
   11d92:	4b4a      	ldr	r3, [pc, #296]	; (11ebc <__ieee754_pow+0x1dc>)
   11d94:	429d      	cmp	r5, r3
   11d96:	f340 8099 	ble.w	11ecc <__ieee754_pow+0x1ec>
   11d9a:	f103 7304 	add.w	r3, r3, #34603008	; 0x2100000
   11d9e:	429d      	cmp	r5, r3
   11da0:	f340 8438 	ble.w	12614 <__ieee754_pow+0x934>
   11da4:	4b46      	ldr	r3, [pc, #280]	; (11ec0 <__ieee754_pow+0x1e0>)
   11da6:	429c      	cmp	r4, r3
   11da8:	dd72      	ble.n	11e90 <__ieee754_pow+0x1b0>
   11daa:	2f00      	cmp	r7, #0
   11dac:	dd72      	ble.n	11e94 <__ieee754_pow+0x1b4>
   11dae:	a33e      	add	r3, pc, #248	; (adr r3, 11ea8 <__ieee754_pow+0x1c8>)
   11db0:	e9d3 2300 	ldrd	r2, r3, [r3]
   11db4:	4610      	mov	r0, r2
   11db6:	4619      	mov	r1, r3
   11db8:	f7fa fc58 	bl	c66c <__aeabi_dmul>
   11dbc:	e7ad      	b.n	11d1a <__ieee754_pow+0x3a>
   11dbe:	f1b8 0f00 	cmp.w	r8, #0
   11dc2:	d005      	beq.n	11dd0 <__ieee754_pow+0xf0>
   11dc4:	483f      	ldr	r0, [pc, #252]	; (11ec4 <__ieee754_pow+0x1e4>)
   11dc6:	b013      	add	sp, #76	; 0x4c
   11dc8:	e8bd 4ff0 	ldmia.w	sp!, {r4, r5, r6, r7, r8, r9, sl, fp, lr}
   11dcc:	f000 bdc4 	b.w	12958 <nan>
   11dd0:	42a5      	cmp	r5, r4
   11dd2:	dcf7      	bgt.n	11dc4 <__ieee754_pow+0xe4>
   11dd4:	e7ac      	b.n	11d30 <__ieee754_pow+0x50>
   11dd6:	f104 4340 	add.w	r3, r4, #3221225472	; 0xc0000000
   11dda:	f503 1380 	add.w	r3, r3, #1048576	; 0x100000
   11dde:	ea53 030a 	orrs.w	r3, r3, sl
   11de2:	d098      	beq.n	11d16 <__ieee754_pow+0x36>
   11de4:	4b36      	ldr	r3, [pc, #216]	; (11ec0 <__ieee754_pow+0x1e0>)
   11de6:	429c      	cmp	r4, r3
   11de8:	f340 837f 	ble.w	124ea <__ieee754_pow+0x80a>
   11dec:	2f00      	cmp	r7, #0
   11dee:	db51      	blt.n	11e94 <__ieee754_pow+0x1b4>
   11df0:	e9dd 0100 	ldrd	r0, r1, [sp]
   11df4:	e791      	b.n	11d1a <__ieee754_pow+0x3a>
   11df6:	f1bc 0f00 	cmp.w	ip, #0
   11dfa:	d09c      	beq.n	11d36 <__ieee754_pow+0x56>
   11dfc:	e784      	b.n	11d08 <__ieee754_pow+0x28>
   11dfe:	4b32      	ldr	r3, [pc, #200]	; (11ec8 <__ieee754_pow+0x1e8>)
   11e00:	429d      	cmp	r5, r3
   11e02:	dc31      	bgt.n	11e68 <__ieee754_pow+0x188>
   11e04:	f1a3 7354 	sub.w	r3, r3, #55574528	; 0x3500000
   11e08:	429d      	cmp	r5, r3
   11e0a:	dd98      	ble.n	11d3e <__ieee754_pow+0x5e>
   11e0c:	152b      	asrs	r3, r5, #20
   11e0e:	f2a3 33ff 	subw	r3, r3, #1023	; 0x3ff
   11e12:	2b14      	cmp	r3, #20
   11e14:	f340 83a1 	ble.w	1255a <__ieee754_pow+0x87a>
   11e18:	f1c3 0334 	rsb	r3, r3, #52	; 0x34
   11e1c:	fa2c f203 	lsr.w	r2, ip, r3
   11e20:	fa02 f303 	lsl.w	r3, r2, r3
   11e24:	4563      	cmp	r3, ip
   11e26:	d18a      	bne.n	11d3e <__ieee754_pow+0x5e>
   11e28:	f002 0201 	and.w	r2, r2, #1
   11e2c:	f1c2 0b02 	rsb	fp, r2, #2
   11e30:	e787      	b.n	11d42 <__ieee754_pow+0x62>
   11e32:	2f00      	cmp	r7, #0
   11e34:	da05      	bge.n	11e42 <__ieee754_pow+0x162>
   11e36:	4602      	mov	r2, r0
   11e38:	460b      	mov	r3, r1
   11e3a:	2000      	movs	r0, #0
   11e3c:	491d      	ldr	r1, [pc, #116]	; (11eb4 <__ieee754_pow+0x1d4>)
   11e3e:	f7fa fd3f 	bl	c8c0 <__aeabi_ddiv>
   11e42:	2e00      	cmp	r6, #0
   11e44:	f6bf af69 	bge.w	11d1a <__ieee754_pow+0x3a>
   11e48:	f104 4440 	add.w	r4, r4, #3221225472	; 0xc0000000
   11e4c:	f504 1480 	add.w	r4, r4, #1048576	; 0x100000
   11e50:	ea54 030b 	orrs.w	r3, r4, fp
   11e54:	f000 843a 	beq.w	126cc <__ieee754_pow+0x9ec>
   11e58:	f1bb 0f01 	cmp.w	fp, #1
   11e5c:	f47f af5d 	bne.w	11d1a <__ieee754_pow+0x3a>
   11e60:	f101 4300 	add.w	r3, r1, #2147483648	; 0x80000000
   11e64:	4619      	mov	r1, r3
   11e66:	e758      	b.n	11d1a <__ieee754_pow+0x3a>
   11e68:	f04f 0b02 	mov.w	fp, #2
   11e6c:	e769      	b.n	11d42 <__ieee754_pow+0x62>
   11e6e:	2f00      	cmp	r7, #0
   11e70:	f2c0 8344 	blt.w	124fc <__ieee754_pow+0x81c>
   11e74:	4640      	mov	r0, r8
   11e76:	4649      	mov	r1, r9
   11e78:	e74f      	b.n	11d1a <__ieee754_pow+0x3a>
   11e7a:	4642      	mov	r2, r8
   11e7c:	464b      	mov	r3, r9
   11e7e:	4610      	mov	r0, r2
   11e80:	4619      	mov	r1, r3
   11e82:	f7fa fa3b 	bl	c2fc <__aeabi_dsub>
   11e86:	4602      	mov	r2, r0
   11e88:	460b      	mov	r3, r1
   11e8a:	f7fa fd19 	bl	c8c0 <__aeabi_ddiv>
   11e8e:	e744      	b.n	11d1a <__ieee754_pow+0x3a>
   11e90:	2f00      	cmp	r7, #0
   11e92:	db8c      	blt.n	11dae <__ieee754_pow+0xce>
   11e94:	2000      	movs	r0, #0
   11e96:	2100      	movs	r1, #0
   11e98:	e73f      	b.n	11d1a <__ieee754_pow+0x3a>
   11e9a:	4642      	mov	r2, r8
   11e9c:	464b      	mov	r3, r9
   11e9e:	4640      	mov	r0, r8
   11ea0:	4649      	mov	r1, r9
   11ea2:	f7fa fbe3 	bl	c66c <__aeabi_dmul>
   11ea6:	e738      	b.n	11d1a <__ieee754_pow+0x3a>
   11ea8:	8800759c 	.word	0x8800759c
   11eac:	7e37e43c 	.word	0x7e37e43c
   11eb0:	7ff00000 	.word	0x7ff00000
   11eb4:	3ff00000 	.word	0x3ff00000
   11eb8:	3fe00000 	.word	0x3fe00000
   11ebc:	41e00000 	.word	0x41e00000
   11ec0:	3fefffff 	.word	0x3fefffff
   11ec4:	00012c84 	.word	0x00012c84
   11ec8:	433fffff 	.word	0x433fffff
   11ecc:	f5b4 1f80 	cmp.w	r4, #1048576	; 0x100000
   11ed0:	f280 8360 	bge.w	12594 <__ieee754_pow+0x8b4>
   11ed4:	2200      	movs	r2, #0
   11ed6:	4bd0      	ldr	r3, [pc, #832]	; (12218 <__ieee754_pow+0x538>)
   11ed8:	f7fa fbc8 	bl	c66c <__aeabi_dmul>
   11edc:	f06f 0634 	mvn.w	r6, #52	; 0x34
   11ee0:	460c      	mov	r4, r1
   11ee2:	1523      	asrs	r3, r4, #20
   11ee4:	4acd      	ldr	r2, [pc, #820]	; (1221c <__ieee754_pow+0x53c>)
   11ee6:	f3c4 0413 	ubfx	r4, r4, #0, #20
   11eea:	f2a3 33ff 	subw	r3, r3, #1023	; 0x3ff
   11eee:	f044 557f 	orr.w	r5, r4, #1069547520	; 0x3fc00000
   11ef2:	199e      	adds	r6, r3, r6
   11ef4:	4294      	cmp	r4, r2
   11ef6:	960d      	str	r6, [sp, #52]	; 0x34
   11ef8:	f445 1540 	orr.w	r5, r5, #3145728	; 0x300000
   11efc:	f340 833d 	ble.w	1257a <__ieee754_pow+0x89a>
   11f00:	4bc7      	ldr	r3, [pc, #796]	; (12220 <__ieee754_pow+0x540>)
   11f02:	429c      	cmp	r4, r3
   11f04:	f340 8401 	ble.w	1270a <__ieee754_pow+0xa2a>
   11f08:	ed9f 7bad 	vldr	d7, [pc, #692]	; 121c0 <__ieee754_pow+0x4e0>
   11f0c:	ed8d 7b08 	vstr	d7, [sp, #32]
   11f10:	ed8d 7b10 	vstr	d7, [sp, #64]	; 0x40
   11f14:	ed9f 7bac 	vldr	d7, [pc, #688]	; 121c8 <__ieee754_pow+0x4e8>
   11f18:	ed8d 7b06 	vstr	d7, [sp, #24]
   11f1c:	3601      	adds	r6, #1
   11f1e:	960d      	str	r6, [sp, #52]	; 0x34
   11f20:	f5a5 1580 	sub.w	r5, r5, #1048576	; 0x100000
   11f24:	f04f 0800 	mov.w	r8, #0
   11f28:	e9dd 2306 	ldrd	r2, r3, [sp, #24]
   11f2c:	4629      	mov	r1, r5
   11f2e:	4606      	mov	r6, r0
   11f30:	f7fa f9e4 	bl	c2fc <__aeabi_dsub>
   11f34:	e9dd 2306 	ldrd	r2, r3, [sp, #24]
   11f38:	e9cd 010a 	strd	r0, r1, [sp, #40]	; 0x28
   11f3c:	4630      	mov	r0, r6
   11f3e:	4629      	mov	r1, r5
   11f40:	f7fa f9de 	bl	c300 <__adddf3>
   11f44:	4602      	mov	r2, r0
   11f46:	460b      	mov	r3, r1
   11f48:	2000      	movs	r0, #0
   11f4a:	49b6      	ldr	r1, [pc, #728]	; (12224 <__ieee754_pow+0x544>)
   11f4c:	f7fa fcb8 	bl	c8c0 <__aeabi_ddiv>
   11f50:	4603      	mov	r3, r0
   11f52:	460c      	mov	r4, r1
   11f54:	e9cd 340e 	strd	r3, r4, [sp, #56]	; 0x38
   11f58:	4602      	mov	r2, r0
   11f5a:	460b      	mov	r3, r1
   11f5c:	e9dd 010a 	ldrd	r0, r1, [sp, #40]	; 0x28
   11f60:	f7fa fb84 	bl	c66c <__aeabi_dmul>
   11f64:	106b      	asrs	r3, r5, #1
   11f66:	f043 5300 	orr.w	r3, r3, #536870912	; 0x20000000
   11f6a:	f503 2300 	add.w	r3, r3, #524288	; 0x80000
   11f6e:	460a      	mov	r2, r1
   11f70:	462f      	mov	r7, r5
   11f72:	4601      	mov	r1, r0
   11f74:	eb03 0508 	add.w	r5, r3, r8
   11f78:	2300      	movs	r3, #0
   11f7a:	e9cd 1202 	strd	r1, r2, [sp, #8]
   11f7e:	9302      	str	r3, [sp, #8]
   11f80:	e9dd 8902 	ldrd	r8, r9, [sp, #8]
   11f84:	2400      	movs	r4, #0
   11f86:	e9cd 1204 	strd	r1, r2, [sp, #16]
   11f8a:	462b      	mov	r3, r5
   11f8c:	4622      	mov	r2, r4
   11f8e:	4640      	mov	r0, r8
   11f90:	4649      	mov	r1, r9
   11f92:	f7fa fb6b 	bl	c66c <__aeabi_dmul>
   11f96:	4602      	mov	r2, r0
   11f98:	460b      	mov	r3, r1
   11f9a:	e9dd 010a 	ldrd	r0, r1, [sp, #40]	; 0x28
   11f9e:	f7fa f9ad 	bl	c2fc <__aeabi_dsub>
   11fa2:	e9dd 2306 	ldrd	r2, r3, [sp, #24]
   11fa6:	e9cd 010a 	strd	r0, r1, [sp, #40]	; 0x28
   11faa:	4620      	mov	r0, r4
   11fac:	4629      	mov	r1, r5
   11fae:	f7fa f9a5 	bl	c2fc <__aeabi_dsub>
   11fb2:	4602      	mov	r2, r0
   11fb4:	460b      	mov	r3, r1
   11fb6:	4630      	mov	r0, r6
   11fb8:	4639      	mov	r1, r7
   11fba:	f7fa f99f 	bl	c2fc <__aeabi_dsub>
   11fbe:	4642      	mov	r2, r8
   11fc0:	464b      	mov	r3, r9
   11fc2:	f7fa fb53 	bl	c66c <__aeabi_dmul>
   11fc6:	4602      	mov	r2, r0
   11fc8:	460b      	mov	r3, r1
   11fca:	e9dd 010a 	ldrd	r0, r1, [sp, #40]	; 0x28
   11fce:	f7fa f995 	bl	c2fc <__aeabi_dsub>
   11fd2:	e9dd 230e 	ldrd	r2, r3, [sp, #56]	; 0x38
   11fd6:	f7fa fb49 	bl	c66c <__aeabi_dmul>
   11fda:	e9dd 4504 	ldrd	r4, r5, [sp, #16]
   11fde:	e9cd 0106 	strd	r0, r1, [sp, #24]
   11fe2:	4622      	mov	r2, r4
   11fe4:	462b      	mov	r3, r5
   11fe6:	4620      	mov	r0, r4
   11fe8:	4629      	mov	r1, r5
   11fea:	f7fa fb3f 	bl	c66c <__aeabi_dmul>
   11fee:	a378      	add	r3, pc, #480	; (adr r3, 121d0 <__ieee754_pow+0x4f0>)
   11ff0:	e9d3 2300 	ldrd	r2, r3, [r3]
   11ff4:	4604      	mov	r4, r0
   11ff6:	460d      	mov	r5, r1
   11ff8:	f7fa fb38 	bl	c66c <__aeabi_dmul>
   11ffc:	a376      	add	r3, pc, #472	; (adr r3, 121d8 <__ieee754_pow+0x4f8>)
   11ffe:	e9d3 2300 	ldrd	r2, r3, [r3]
   12002:	f7fa f97d 	bl	c300 <__adddf3>
   12006:	4622      	mov	r2, r4
   12008:	462b      	mov	r3, r5
   1200a:	f7fa fb2f 	bl	c66c <__aeabi_dmul>
   1200e:	a374      	add	r3, pc, #464	; (adr r3, 121e0 <__ieee754_pow+0x500>)
   12010:	e9d3 2300 	ldrd	r2, r3, [r3]
   12014:	f7fa f974 	bl	c300 <__adddf3>
   12018:	4622      	mov	r2, r4
   1201a:	462b      	mov	r3, r5
   1201c:	f7fa fb26 	bl	c66c <__aeabi_dmul>
   12020:	a371      	add	r3, pc, #452	; (adr r3, 121e8 <__ieee754_pow+0x508>)
   12022:	e9d3 2300 	ldrd	r2, r3, [r3]
   12026:	f7fa f96b 	bl	c300 <__adddf3>
   1202a:	4622      	mov	r2, r4
   1202c:	462b      	mov	r3, r5
   1202e:	f7fa fb1d 	bl	c66c <__aeabi_dmul>
   12032:	a36f      	add	r3, pc, #444	; (adr r3, 121f0 <__ieee754_pow+0x510>)
   12034:	e9d3 2300 	ldrd	r2, r3, [r3]
   12038:	f7fa f962 	bl	c300 <__adddf3>
   1203c:	4622      	mov	r2, r4
   1203e:	462b      	mov	r3, r5
   12040:	f7fa fb14 	bl	c66c <__aeabi_dmul>
   12044:	a36c      	add	r3, pc, #432	; (adr r3, 121f8 <__ieee754_pow+0x518>)
   12046:	e9d3 2300 	ldrd	r2, r3, [r3]
   1204a:	f7fa f959 	bl	c300 <__adddf3>
   1204e:	4622      	mov	r2, r4
   12050:	4606      	mov	r6, r0
   12052:	460f      	mov	r7, r1
   12054:	462b      	mov	r3, r5
   12056:	4620      	mov	r0, r4
   12058:	4629      	mov	r1, r5
   1205a:	f7fa fb07 	bl	c66c <__aeabi_dmul>
   1205e:	4602      	mov	r2, r0
   12060:	460b      	mov	r3, r1
   12062:	4630      	mov	r0, r6
   12064:	4639      	mov	r1, r7
   12066:	f7fa fb01 	bl	c66c <__aeabi_dmul>
   1206a:	4642      	mov	r2, r8
   1206c:	4604      	mov	r4, r0
   1206e:	460d      	mov	r5, r1
   12070:	464b      	mov	r3, r9
   12072:	e9dd 0104 	ldrd	r0, r1, [sp, #16]
   12076:	f7fa f943 	bl	c300 <__adddf3>
   1207a:	e9dd 2306 	ldrd	r2, r3, [sp, #24]
   1207e:	f7fa faf5 	bl	c66c <__aeabi_dmul>
   12082:	4622      	mov	r2, r4
   12084:	462b      	mov	r3, r5
   12086:	f7fa f93b 	bl	c300 <__adddf3>
   1208a:	4642      	mov	r2, r8
   1208c:	4606      	mov	r6, r0
   1208e:	460f      	mov	r7, r1
   12090:	464b      	mov	r3, r9
   12092:	4640      	mov	r0, r8
   12094:	4649      	mov	r1, r9
   12096:	f7fa fae9 	bl	c66c <__aeabi_dmul>
   1209a:	2200      	movs	r2, #0
   1209c:	4b62      	ldr	r3, [pc, #392]	; (12228 <__ieee754_pow+0x548>)
   1209e:	e9cd 010a 	strd	r0, r1, [sp, #40]	; 0x28
   120a2:	f7fa f92d 	bl	c300 <__adddf3>
   120a6:	4632      	mov	r2, r6
   120a8:	463b      	mov	r3, r7
   120aa:	f7fa f929 	bl	c300 <__adddf3>
   120ae:	9802      	ldr	r0, [sp, #8]
   120b0:	460d      	mov	r5, r1
   120b2:	4604      	mov	r4, r0
   120b4:	4622      	mov	r2, r4
   120b6:	462b      	mov	r3, r5
   120b8:	4640      	mov	r0, r8
   120ba:	4649      	mov	r1, r9
   120bc:	f7fa fad6 	bl	c66c <__aeabi_dmul>
   120c0:	2200      	movs	r2, #0
   120c2:	4680      	mov	r8, r0
   120c4:	4689      	mov	r9, r1
   120c6:	4b58      	ldr	r3, [pc, #352]	; (12228 <__ieee754_pow+0x548>)
   120c8:	4620      	mov	r0, r4
   120ca:	4629      	mov	r1, r5
   120cc:	f7fa f916 	bl	c2fc <__aeabi_dsub>
   120d0:	e9dd 230a 	ldrd	r2, r3, [sp, #40]	; 0x28
   120d4:	f7fa f912 	bl	c2fc <__aeabi_dsub>
   120d8:	4602      	mov	r2, r0
   120da:	460b      	mov	r3, r1
   120dc:	4630      	mov	r0, r6
   120de:	4639      	mov	r1, r7
   120e0:	f7fa f90c 	bl	c2fc <__aeabi_dsub>
   120e4:	e9dd 2304 	ldrd	r2, r3, [sp, #16]
   120e8:	f7fa fac0 	bl	c66c <__aeabi_dmul>
   120ec:	4622      	mov	r2, r4
   120ee:	4606      	mov	r6, r0
   120f0:	460f      	mov	r7, r1
   120f2:	462b      	mov	r3, r5
   120f4:	e9dd 0106 	ldrd	r0, r1, [sp, #24]
   120f8:	f7fa fab8 	bl	c66c <__aeabi_dmul>
   120fc:	4602      	mov	r2, r0
   120fe:	460b      	mov	r3, r1
   12100:	4630      	mov	r0, r6
   12102:	4639      	mov	r1, r7
   12104:	f7fa f8fc 	bl	c300 <__adddf3>
   12108:	4606      	mov	r6, r0
   1210a:	460f      	mov	r7, r1
   1210c:	4602      	mov	r2, r0
   1210e:	460b      	mov	r3, r1
   12110:	4640      	mov	r0, r8
   12112:	4649      	mov	r1, r9
   12114:	f7fa f8f4 	bl	c300 <__adddf3>
   12118:	9802      	ldr	r0, [sp, #8]
   1211a:	a339      	add	r3, pc, #228	; (adr r3, 12200 <__ieee754_pow+0x520>)
   1211c:	e9d3 2300 	ldrd	r2, r3, [r3]
   12120:	4604      	mov	r4, r0
   12122:	460d      	mov	r5, r1
   12124:	f7fa faa2 	bl	c66c <__aeabi_dmul>
   12128:	4642      	mov	r2, r8
   1212a:	e9cd 0104 	strd	r0, r1, [sp, #16]
   1212e:	464b      	mov	r3, r9
   12130:	4620      	mov	r0, r4
   12132:	4629      	mov	r1, r5
   12134:	f7fa f8e2 	bl	c2fc <__aeabi_dsub>
   12138:	4602      	mov	r2, r0
   1213a:	460b      	mov	r3, r1
   1213c:	4630      	mov	r0, r6
   1213e:	4639      	mov	r1, r7
   12140:	f7fa f8dc 	bl	c2fc <__aeabi_dsub>
   12144:	a330      	add	r3, pc, #192	; (adr r3, 12208 <__ieee754_pow+0x528>)
   12146:	e9d3 2300 	ldrd	r2, r3, [r3]
   1214a:	f7fa fa8f 	bl	c66c <__aeabi_dmul>
   1214e:	a330      	add	r3, pc, #192	; (adr r3, 12210 <__ieee754_pow+0x530>)
   12150:	e9d3 2300 	ldrd	r2, r3, [r3]
   12154:	4606      	mov	r6, r0
   12156:	460f      	mov	r7, r1
   12158:	4620      	mov	r0, r4
   1215a:	4629      	mov	r1, r5
   1215c:	f7fa fa86 	bl	c66c <__aeabi_dmul>
   12160:	4602      	mov	r2, r0
   12162:	460b      	mov	r3, r1
   12164:	4630      	mov	r0, r6
   12166:	4639      	mov	r1, r7
   12168:	f7fa f8ca 	bl	c300 <__adddf3>
   1216c:	e9dd 2310 	ldrd	r2, r3, [sp, #64]	; 0x40
   12170:	f7fa f8c6 	bl	c300 <__adddf3>
   12174:	4606      	mov	r6, r0
   12176:	980d      	ldr	r0, [sp, #52]	; 0x34
   12178:	460f      	mov	r7, r1
   1217a:	f7fa fa0d 	bl	c598 <__aeabi_i2d>
   1217e:	4632      	mov	r2, r6
   12180:	4680      	mov	r8, r0
   12182:	4689      	mov	r9, r1
   12184:	463b      	mov	r3, r7
   12186:	e9dd 0104 	ldrd	r0, r1, [sp, #16]
   1218a:	f7fa f8b9 	bl	c300 <__adddf3>
   1218e:	e9dd 2308 	ldrd	r2, r3, [sp, #32]
   12192:	f7fa f8b5 	bl	c300 <__adddf3>
   12196:	4642      	mov	r2, r8
   12198:	464b      	mov	r3, r9
   1219a:	f7fa f8b1 	bl	c300 <__adddf3>
   1219e:	9802      	ldr	r0, [sp, #8]
   121a0:	4642      	mov	r2, r8
   121a2:	464b      	mov	r3, r9
   121a4:	4604      	mov	r4, r0
   121a6:	460d      	mov	r5, r1
   121a8:	f7fa f8a8 	bl	c2fc <__aeabi_dsub>
   121ac:	e9dd 2308 	ldrd	r2, r3, [sp, #32]
   121b0:	f7fa f8a4 	bl	c2fc <__aeabi_dsub>
   121b4:	e9dd 2304 	ldrd	r2, r3, [sp, #16]
   121b8:	e038      	b.n	1222c <__ieee754_pow+0x54c>
   121ba:	bf00      	nop
   121bc:	f3af 8000 	nop.w
	...
   121cc:	3ff00000 	.word	0x3ff00000
   121d0:	4a454eef 	.word	0x4a454eef
   121d4:	3fca7e28 	.word	0x3fca7e28
   121d8:	93c9db65 	.word	0x93c9db65
   121dc:	3fcd864a 	.word	0x3fcd864a
   121e0:	a91d4101 	.word	0xa91d4101
   121e4:	3fd17460 	.word	0x3fd17460
   121e8:	518f264d 	.word	0x518f264d
   121ec:	3fd55555 	.word	0x3fd55555
   121f0:	db6fabff 	.word	0xdb6fabff
   121f4:	3fdb6db6 	.word	0x3fdb6db6
   121f8:	33333303 	.word	0x33333303
   121fc:	3fe33333 	.word	0x3fe33333
   12200:	e0000000 	.word	0xe0000000
   12204:	3feec709 	.word	0x3feec709
   12208:	dc3a03fd 	.word	0xdc3a03fd
   1220c:	3feec709 	.word	0x3feec709
   12210:	145b01f5 	.word	0x145b01f5
   12214:	be3e2fe0 	.word	0xbe3e2fe0
   12218:	43400000 	.word	0x43400000
   1221c:	0003988e 	.word	0x0003988e
   12220:	000bb679 	.word	0x000bb679
   12224:	3ff00000 	.word	0x3ff00000
   12228:	40080000 	.word	0x40080000
   1222c:	f7fa f866 	bl	c2fc <__aeabi_dsub>
   12230:	460b      	mov	r3, r1
   12232:	4602      	mov	r2, r0
   12234:	4639      	mov	r1, r7
   12236:	4630      	mov	r0, r6
   12238:	f7fa f860 	bl	c2fc <__aeabi_dsub>
   1223c:	f10b 33ff 	add.w	r3, fp, #4294967295	; 0xffffffff
   12240:	ea53 030a 	orrs.w	r3, r3, sl
   12244:	e9cd 0104 	strd	r0, r1, [sp, #16]
   12248:	f000 815f 	beq.w	1250a <__ieee754_pow+0x82a>
   1224c:	ed9f 7bd2 	vldr	d7, [pc, #840]	; 12598 <__ieee754_pow+0x8b8>
   12250:	ed8d 7b02 	vstr	d7, [sp, #8]
   12254:	e9dd ab00 	ldrd	sl, fp, [sp]
   12258:	2300      	movs	r3, #0
   1225a:	4656      	mov	r6, sl
   1225c:	465f      	mov	r7, fp
   1225e:	e9cd 6700 	strd	r6, r7, [sp]
   12262:	9300      	str	r3, [sp, #0]
   12264:	e9dd 6700 	ldrd	r6, r7, [sp]
   12268:	4650      	mov	r0, sl
   1226a:	4632      	mov	r2, r6
   1226c:	463b      	mov	r3, r7
   1226e:	4659      	mov	r1, fp
   12270:	f7fa f844 	bl	c2fc <__aeabi_dsub>
   12274:	4622      	mov	r2, r4
   12276:	462b      	mov	r3, r5
   12278:	f7fa f9f8 	bl	c66c <__aeabi_dmul>
   1227c:	4652      	mov	r2, sl
   1227e:	4680      	mov	r8, r0
   12280:	4689      	mov	r9, r1
   12282:	465b      	mov	r3, fp
   12284:	e9dd 0104 	ldrd	r0, r1, [sp, #16]
   12288:	f7fa f9f0 	bl	c66c <__aeabi_dmul>
   1228c:	4602      	mov	r2, r0
   1228e:	460b      	mov	r3, r1
   12290:	4640      	mov	r0, r8
   12292:	4649      	mov	r1, r9
   12294:	f7fa f834 	bl	c300 <__adddf3>
   12298:	4632      	mov	r2, r6
   1229a:	4680      	mov	r8, r0
   1229c:	4689      	mov	r9, r1
   1229e:	463b      	mov	r3, r7
   122a0:	4620      	mov	r0, r4
   122a2:	4629      	mov	r1, r5
   122a4:	e9cd 8904 	strd	r8, r9, [sp, #16]
   122a8:	f7fa f9e0 	bl	c66c <__aeabi_dmul>
   122ac:	460b      	mov	r3, r1
   122ae:	4602      	mov	r2, r0
   122b0:	4606      	mov	r6, r0
   122b2:	460f      	mov	r7, r1
   122b4:	4640      	mov	r0, r8
   122b6:	4649      	mov	r1, r9
   122b8:	f7fa f822 	bl	c300 <__adddf3>
   122bc:	4bd0      	ldr	r3, [pc, #832]	; (12600 <__ieee754_pow+0x920>)
   122be:	4299      	cmp	r1, r3
   122c0:	4604      	mov	r4, r0
   122c2:	460d      	mov	r5, r1
   122c4:	468a      	mov	sl, r1
   122c6:	f340 8125 	ble.w	12514 <__ieee754_pow+0x834>
   122ca:	f101 433f 	add.w	r3, r1, #3204448256	; 0xbf000000
   122ce:	f503 03e0 	add.w	r3, r3, #7340032	; 0x700000
   122d2:	4303      	orrs	r3, r0
   122d4:	f040 81fe 	bne.w	126d4 <__ieee754_pow+0x9f4>
   122d8:	a3b1      	add	r3, pc, #708	; (adr r3, 125a0 <__ieee754_pow+0x8c0>)
   122da:	e9d3 2300 	ldrd	r2, r3, [r3]
   122de:	e9dd 0104 	ldrd	r0, r1, [sp, #16]
   122e2:	f7fa f80d 	bl	c300 <__adddf3>
   122e6:	4632      	mov	r2, r6
   122e8:	4680      	mov	r8, r0
   122ea:	4689      	mov	r9, r1
   122ec:	463b      	mov	r3, r7
   122ee:	4620      	mov	r0, r4
   122f0:	4629      	mov	r1, r5
   122f2:	f7fa f803 	bl	c2fc <__aeabi_dsub>
   122f6:	4602      	mov	r2, r0
   122f8:	460b      	mov	r3, r1
   122fa:	4640      	mov	r0, r8
   122fc:	4649      	mov	r1, r9
   122fe:	f7fa fc45 	bl	cb8c <__aeabi_dcmpgt>
   12302:	2800      	cmp	r0, #0
   12304:	f040 81e6 	bne.w	126d4 <__ieee754_pow+0x9f4>
   12308:	46a8      	mov	r8, r5
   1230a:	ea4f 5328 	mov.w	r3, r8, asr #20
   1230e:	f2a3 32fe 	subw	r2, r3, #1022	; 0x3fe
   12312:	f44f 1380 	mov.w	r3, #1048576	; 0x100000
   12316:	4113      	asrs	r3, r2
   12318:	4453      	add	r3, sl
   1231a:	f3c3 520a 	ubfx	r2, r3, #20, #11
   1231e:	4db9      	ldr	r5, [pc, #740]	; (12604 <__ieee754_pow+0x924>)
   12320:	f2a2 32ff 	subw	r2, r2, #1023	; 0x3ff
   12324:	4115      	asrs	r5, r2
   12326:	f3c3 0413 	ubfx	r4, r3, #0, #20
   1232a:	ea23 0105 	bic.w	r1, r3, r5
   1232e:	2000      	movs	r0, #0
   12330:	f1c2 0b14 	rsb	fp, r2, #20
   12334:	f444 1480 	orr.w	r4, r4, #1048576	; 0x100000
   12338:	f1ba 0f00 	cmp.w	sl, #0
   1233c:	4602      	mov	r2, r0
   1233e:	460b      	mov	r3, r1
   12340:	fa44 fb0b 	asr.w	fp, r4, fp
   12344:	4630      	mov	r0, r6
   12346:	4639      	mov	r1, r7
   12348:	bfb8      	it	lt
   1234a:	f1cb 0b00 	rsblt	fp, fp, #0
   1234e:	f7f9 ffd5 	bl	c2fc <__aeabi_dsub>
   12352:	4606      	mov	r6, r0
   12354:	460f      	mov	r7, r1
   12356:	4632      	mov	r2, r6
   12358:	e9dd 0104 	ldrd	r0, r1, [sp, #16]
   1235c:	463b      	mov	r3, r7
   1235e:	f7f9 ffcf 	bl	c300 <__adddf3>
   12362:	ea4f 5a0b 	mov.w	sl, fp, lsl #20
   12366:	460d      	mov	r5, r1
   12368:	2400      	movs	r4, #0
   1236a:	a38f      	add	r3, pc, #572	; (adr r3, 125a8 <__ieee754_pow+0x8c8>)
   1236c:	e9d3 2300 	ldrd	r2, r3, [r3]
   12370:	4620      	mov	r0, r4
   12372:	4629      	mov	r1, r5
   12374:	f7fa f97a 	bl	c66c <__aeabi_dmul>
   12378:	4632      	mov	r2, r6
   1237a:	4680      	mov	r8, r0
   1237c:	4689      	mov	r9, r1
   1237e:	463b      	mov	r3, r7
   12380:	4620      	mov	r0, r4
   12382:	4629      	mov	r1, r5
   12384:	f7f9 ffba 	bl	c2fc <__aeabi_dsub>
   12388:	4602      	mov	r2, r0
   1238a:	460b      	mov	r3, r1
   1238c:	e9dd 0104 	ldrd	r0, r1, [sp, #16]
   12390:	f7f9 ffb4 	bl	c2fc <__aeabi_dsub>
   12394:	a386      	add	r3, pc, #536	; (adr r3, 125b0 <__ieee754_pow+0x8d0>)
   12396:	e9d3 2300 	ldrd	r2, r3, [r3]
   1239a:	f7fa f967 	bl	c66c <__aeabi_dmul>
   1239e:	a386      	add	r3, pc, #536	; (adr r3, 125b8 <__ieee754_pow+0x8d8>)
   123a0:	e9d3 2300 	ldrd	r2, r3, [r3]
   123a4:	4606      	mov	r6, r0
   123a6:	460f      	mov	r7, r1
   123a8:	4620      	mov	r0, r4
   123aa:	4629      	mov	r1, r5
   123ac:	f7fa f95e 	bl	c66c <__aeabi_dmul>
   123b0:	4602      	mov	r2, r0
   123b2:	460b      	mov	r3, r1
   123b4:	4630      	mov	r0, r6
   123b6:	4639      	mov	r1, r7
   123b8:	f7f9 ffa2 	bl	c300 <__adddf3>
   123bc:	4606      	mov	r6, r0
   123be:	460f      	mov	r7, r1
   123c0:	4602      	mov	r2, r0
   123c2:	460b      	mov	r3, r1
   123c4:	4640      	mov	r0, r8
   123c6:	4649      	mov	r1, r9
   123c8:	f7f9 ff9a 	bl	c300 <__adddf3>
   123cc:	4642      	mov	r2, r8
   123ce:	464b      	mov	r3, r9
   123d0:	4604      	mov	r4, r0
   123d2:	460d      	mov	r5, r1
   123d4:	f7f9 ff92 	bl	c2fc <__aeabi_dsub>
   123d8:	4602      	mov	r2, r0
   123da:	460b      	mov	r3, r1
   123dc:	4630      	mov	r0, r6
   123de:	4639      	mov	r1, r7
   123e0:	f7f9 ff8c 	bl	c2fc <__aeabi_dsub>
   123e4:	4622      	mov	r2, r4
   123e6:	4680      	mov	r8, r0
   123e8:	4689      	mov	r9, r1
   123ea:	462b      	mov	r3, r5
   123ec:	4620      	mov	r0, r4
   123ee:	4629      	mov	r1, r5
   123f0:	f7fa f93c 	bl	c66c <__aeabi_dmul>
   123f4:	a372      	add	r3, pc, #456	; (adr r3, 125c0 <__ieee754_pow+0x8e0>)
   123f6:	e9d3 2300 	ldrd	r2, r3, [r3]
   123fa:	4606      	mov	r6, r0
   123fc:	460f      	mov	r7, r1
   123fe:	f7fa f935 	bl	c66c <__aeabi_dmul>
   12402:	a371      	add	r3, pc, #452	; (adr r3, 125c8 <__ieee754_pow+0x8e8>)
   12404:	e9d3 2300 	ldrd	r2, r3, [r3]
   12408:	f7f9 ff78 	bl	c2fc <__aeabi_dsub>
   1240c:	4632      	mov	r2, r6
   1240e:	463b      	mov	r3, r7
   12410:	f7fa f92c 	bl	c66c <__aeabi_dmul>
   12414:	a36e      	add	r3, pc, #440	; (adr r3, 125d0 <__ieee754_pow+0x8f0>)
   12416:	e9d3 2300 	ldrd	r2, r3, [r3]
   1241a:	f7f9 ff71 	bl	c300 <__adddf3>
   1241e:	4632      	mov	r2, r6
   12420:	463b      	mov	r3, r7
   12422:	f7fa f923 	bl	c66c <__aeabi_dmul>
   12426:	a36c      	add	r3, pc, #432	; (adr r3, 125d8 <__ieee754_pow+0x8f8>)
   12428:	e9d3 2300 	ldrd	r2, r3, [r3]
   1242c:	f7f9 ff66 	bl	c2fc <__aeabi_dsub>
   12430:	4632      	mov	r2, r6
   12432:	463b      	mov	r3, r7
   12434:	f7fa f91a 	bl	c66c <__aeabi_dmul>
   12438:	a369      	add	r3, pc, #420	; (adr r3, 125e0 <__ieee754_pow+0x900>)
   1243a:	e9d3 2300 	ldrd	r2, r3, [r3]
   1243e:	f7f9 ff5f 	bl	c300 <__adddf3>
   12442:	4632      	mov	r2, r6
   12444:	463b      	mov	r3, r7
   12446:	f7fa f911 	bl	c66c <__aeabi_dmul>
   1244a:	4602      	mov	r2, r0
   1244c:	460b      	mov	r3, r1
   1244e:	4620      	mov	r0, r4
   12450:	4629      	mov	r1, r5
   12452:	f7f9 ff53 	bl	c2fc <__aeabi_dsub>
   12456:	4606      	mov	r6, r0
   12458:	460f      	mov	r7, r1
   1245a:	4602      	mov	r2, r0
   1245c:	460b      	mov	r3, r1
   1245e:	4620      	mov	r0, r4
   12460:	4629      	mov	r1, r5
   12462:	f7fa f903 	bl	c66c <__aeabi_dmul>
   12466:	2200      	movs	r2, #0
   12468:	e9cd 0100 	strd	r0, r1, [sp]
   1246c:	f04f 4380 	mov.w	r3, #1073741824	; 0x40000000
   12470:	4630      	mov	r0, r6
   12472:	4639      	mov	r1, r7
   12474:	f7f9 ff42 	bl	c2fc <__aeabi_dsub>
   12478:	4602      	mov	r2, r0
   1247a:	460b      	mov	r3, r1
   1247c:	e9dd 0100 	ldrd	r0, r1, [sp]
   12480:	f7fa fa1e 	bl	c8c0 <__aeabi_ddiv>
   12484:	4642      	mov	r2, r8
   12486:	4606      	mov	r6, r0
   12488:	460f      	mov	r7, r1
   1248a:	464b      	mov	r3, r9
   1248c:	4620      	mov	r0, r4
   1248e:	4629      	mov	r1, r5
   12490:	f7fa f8ec 	bl	c66c <__aeabi_dmul>
   12494:	4642      	mov	r2, r8
   12496:	464b      	mov	r3, r9
   12498:	f7f9 ff32 	bl	c300 <__adddf3>
   1249c:	4602      	mov	r2, r0
   1249e:	460b      	mov	r3, r1
   124a0:	4630      	mov	r0, r6
   124a2:	4639      	mov	r1, r7
   124a4:	f7f9 ff2a 	bl	c2fc <__aeabi_dsub>
   124a8:	4622      	mov	r2, r4
   124aa:	462b      	mov	r3, r5
   124ac:	f7f9 ff26 	bl	c2fc <__aeabi_dsub>
   124b0:	4602      	mov	r2, r0
   124b2:	460b      	mov	r3, r1
   124b4:	2000      	movs	r0, #0
   124b6:	4954      	ldr	r1, [pc, #336]	; (12608 <__ieee754_pow+0x928>)
   124b8:	f7f9 ff20 	bl	c2fc <__aeabi_dsub>
   124bc:	448a      	add	sl, r1
   124be:	f5ba 1f80 	cmp.w	sl, #1048576	; 0x100000
   124c2:	4602      	mov	r2, r0
   124c4:	460b      	mov	r3, r1
   124c6:	f2c0 8130 	blt.w	1272a <__ieee754_pow+0xa4a>
   124ca:	4651      	mov	r1, sl
   124cc:	e9dd 2302 	ldrd	r2, r3, [sp, #8]
   124d0:	f7fa f8cc 	bl	c66c <__aeabi_dmul>
   124d4:	e421      	b.n	11d1a <__ieee754_pow+0x3a>
   124d6:	2e00      	cmp	r6, #0
   124d8:	f6ff ac45 	blt.w	11d66 <__ieee754_pow+0x86>
   124dc:	ec49 8b10 	vmov	d0, r8, r9
   124e0:	b013      	add	sp, #76	; 0x4c
   124e2:	e8bd 4ff0 	ldmia.w	sp!, {r4, r5, r6, r7, r8, r9, sl, fp, lr}
   124e6:	f000 b957 	b.w	12798 <__ieee754_sqrt>
   124ea:	2f00      	cmp	r7, #0
   124ec:	f6bf acd2 	bge.w	11e94 <__ieee754_pow+0x1b4>
   124f0:	e9dd 3400 	ldrd	r3, r4, [sp]
   124f4:	4618      	mov	r0, r3
   124f6:	f104 4100 	add.w	r1, r4, #2147483648	; 0x80000000
   124fa:	e40e      	b.n	11d1a <__ieee754_pow+0x3a>
   124fc:	4642      	mov	r2, r8
   124fe:	464b      	mov	r3, r9
   12500:	2000      	movs	r0, #0
   12502:	4941      	ldr	r1, [pc, #260]	; (12608 <__ieee754_pow+0x928>)
   12504:	f7fa f9dc 	bl	c8c0 <__aeabi_ddiv>
   12508:	e407      	b.n	11d1a <__ieee754_pow+0x3a>
   1250a:	ed9f 7b37 	vldr	d7, [pc, #220]	; 125e8 <__ieee754_pow+0x908>
   1250e:	ed8d 7b02 	vstr	d7, [sp, #8]
   12512:	e69f      	b.n	12254 <__ieee754_pow+0x574>
   12514:	4b3d      	ldr	r3, [pc, #244]	; (1260c <__ieee754_pow+0x92c>)
   12516:	f021 4800 	bic.w	r8, r1, #2147483648	; 0x80000000
   1251a:	4598      	cmp	r8, r3
   1251c:	f340 80e8 	ble.w	126f0 <__ieee754_pow+0xa10>
   12520:	4b3b      	ldr	r3, [pc, #236]	; (12610 <__ieee754_pow+0x930>)
   12522:	440b      	add	r3, r1
   12524:	4303      	orrs	r3, r0
   12526:	d10a      	bne.n	1253e <__ieee754_pow+0x85e>
   12528:	4632      	mov	r2, r6
   1252a:	463b      	mov	r3, r7
   1252c:	f7f9 fee6 	bl	c2fc <__aeabi_dsub>
   12530:	e9dd 2304 	ldrd	r2, r3, [sp, #16]
   12534:	f7fa fb20 	bl	cb78 <__aeabi_dcmpge>
   12538:	2800      	cmp	r0, #0
   1253a:	f43f aee6 	beq.w	1230a <__ieee754_pow+0x62a>
   1253e:	e9dd 0102 	ldrd	r0, r1, [sp, #8]
   12542:	a32b      	add	r3, pc, #172	; (adr r3, 125f0 <__ieee754_pow+0x910>)
   12544:	e9d3 2300 	ldrd	r2, r3, [r3]
   12548:	f7fa f890 	bl	c66c <__aeabi_dmul>
   1254c:	a328      	add	r3, pc, #160	; (adr r3, 125f0 <__ieee754_pow+0x910>)
   1254e:	e9d3 2300 	ldrd	r2, r3, [r3]
   12552:	f7fa f88b 	bl	c66c <__aeabi_dmul>
   12556:	f7ff bbe0 	b.w	11d1a <__ieee754_pow+0x3a>
   1255a:	f1bc 0f00 	cmp.w	ip, #0
   1255e:	f040 80d0 	bne.w	12702 <__ieee754_pow+0xa22>
   12562:	f1c3 0314 	rsb	r3, r3, #20
   12566:	fa45 f203 	asr.w	r2, r5, r3
   1256a:	fa02 f303 	lsl.w	r3, r2, r3
   1256e:	42ab      	cmp	r3, r5
   12570:	f000 80e3 	beq.w	1273a <__ieee754_pow+0xa5a>
   12574:	46e3      	mov	fp, ip
   12576:	f7ff bbea 	b.w	11d4e <__ieee754_pow+0x6e>
   1257a:	ed9f 7b1f 	vldr	d7, [pc, #124]	; 125f8 <__ieee754_pow+0x918>
   1257e:	ed8d 7b08 	vstr	d7, [sp, #32]
   12582:	ed8d 7b10 	vstr	d7, [sp, #64]	; 0x40
   12586:	ed9f 7b04 	vldr	d7, [pc, #16]	; 12598 <__ieee754_pow+0x8b8>
   1258a:	f04f 0800 	mov.w	r8, #0
   1258e:	ed8d 7b06 	vstr	d7, [sp, #24]
   12592:	e4c9      	b.n	11f28 <__ieee754_pow+0x248>
   12594:	2600      	movs	r6, #0
   12596:	e4a4      	b.n	11ee2 <__ieee754_pow+0x202>
   12598:	00000000 	.word	0x00000000
   1259c:	3ff00000 	.word	0x3ff00000
   125a0:	652b82fe 	.word	0x652b82fe
   125a4:	3c971547 	.word	0x3c971547
   125a8:	00000000 	.word	0x00000000
   125ac:	3fe62e43 	.word	0x3fe62e43
   125b0:	fefa39ef 	.word	0xfefa39ef
   125b4:	3fe62e42 	.word	0x3fe62e42
   125b8:	0ca86c39 	.word	0x0ca86c39
   125bc:	be205c61 	.word	0xbe205c61
   125c0:	72bea4d0 	.word	0x72bea4d0
   125c4:	3e663769 	.word	0x3e663769
   125c8:	c5d26bf1 	.word	0xc5d26bf1
   125cc:	3ebbbd41 	.word	0x3ebbbd41
   125d0:	af25de2c 	.word	0xaf25de2c
   125d4:	3f11566a 	.word	0x3f11566a
   125d8:	16bebd93 	.word	0x16bebd93
   125dc:	3f66c16c 	.word	0x3f66c16c
   125e0:	5555553e 	.word	0x5555553e
   125e4:	3fc55555 	.word	0x3fc55555
   125e8:	00000000 	.word	0x00000000
   125ec:	bff00000 	.word	0xbff00000
   125f0:	c2f8f359 	.word	0xc2f8f359
   125f4:	01a56e1f 	.word	0x01a56e1f
	...
   12600:	408fffff 	.word	0x408fffff
   12604:	000fffff 	.word	0x000fffff
   12608:	3ff00000 	.word	0x3ff00000
   1260c:	4090cbff 	.word	0x4090cbff
   12610:	3f6f3400 	.word	0x3f6f3400
   12614:	4b5c      	ldr	r3, [pc, #368]	; (12788 <__ieee754_pow+0xaa8>)
   12616:	429c      	cmp	r4, r3
   12618:	f77f ac3a 	ble.w	11e90 <__ieee754_pow+0x1b0>
   1261c:	4b5b      	ldr	r3, [pc, #364]	; (1278c <__ieee754_pow+0xaac>)
   1261e:	429c      	cmp	r4, r3
   12620:	f73f abc3 	bgt.w	11daa <__ieee754_pow+0xca>
   12624:	2200      	movs	r2, #0
   12626:	4b59      	ldr	r3, [pc, #356]	; (1278c <__ieee754_pow+0xaac>)
   12628:	f7f9 fe68 	bl	c2fc <__aeabi_dsub>
   1262c:	a346      	add	r3, pc, #280	; (adr r3, 12748 <__ieee754_pow+0xa68>)
   1262e:	e9d3 2300 	ldrd	r2, r3, [r3]
   12632:	4604      	mov	r4, r0
   12634:	460d      	mov	r5, r1
   12636:	f7fa f819 	bl	c66c <__aeabi_dmul>
   1263a:	a345      	add	r3, pc, #276	; (adr r3, 12750 <__ieee754_pow+0xa70>)
   1263c:	e9d3 2300 	ldrd	r2, r3, [r3]
   12640:	4680      	mov	r8, r0
   12642:	4689      	mov	r9, r1
   12644:	4620      	mov	r0, r4
   12646:	4629      	mov	r1, r5
   12648:	f7fa f810 	bl	c66c <__aeabi_dmul>
   1264c:	2200      	movs	r2, #0
   1264e:	e9cd 0102 	strd	r0, r1, [sp, #8]
   12652:	4b4f      	ldr	r3, [pc, #316]	; (12790 <__ieee754_pow+0xab0>)
   12654:	4620      	mov	r0, r4
   12656:	4629      	mov	r1, r5
   12658:	f7fa f808 	bl	c66c <__aeabi_dmul>
   1265c:	4602      	mov	r2, r0
   1265e:	460b      	mov	r3, r1
   12660:	a13d      	add	r1, pc, #244	; (adr r1, 12758 <__ieee754_pow+0xa78>)
   12662:	e9d1 0100 	ldrd	r0, r1, [r1]
   12666:	f7f9 fe49 	bl	c2fc <__aeabi_dsub>
   1266a:	4622      	mov	r2, r4
   1266c:	462b      	mov	r3, r5
   1266e:	f7f9 fffd 	bl	c66c <__aeabi_dmul>
   12672:	4602      	mov	r2, r0
   12674:	460b      	mov	r3, r1
   12676:	2000      	movs	r0, #0
   12678:	4946      	ldr	r1, [pc, #280]	; (12794 <__ieee754_pow+0xab4>)
   1267a:	f7f9 fe3f 	bl	c2fc <__aeabi_dsub>
   1267e:	4622      	mov	r2, r4
   12680:	4606      	mov	r6, r0
   12682:	460f      	mov	r7, r1
   12684:	462b      	mov	r3, r5
   12686:	4620      	mov	r0, r4
   12688:	4629      	mov	r1, r5
   1268a:	f7f9 ffef 	bl	c66c <__aeabi_dmul>
   1268e:	4602      	mov	r2, r0
   12690:	460b      	mov	r3, r1
   12692:	4630      	mov	r0, r6
   12694:	4639      	mov	r1, r7
   12696:	f7f9 ffe9 	bl	c66c <__aeabi_dmul>
   1269a:	a331      	add	r3, pc, #196	; (adr r3, 12760 <__ieee754_pow+0xa80>)
   1269c:	e9d3 2300 	ldrd	r2, r3, [r3]
   126a0:	f7f9 ffe4 	bl	c66c <__aeabi_dmul>
   126a4:	4602      	mov	r2, r0
   126a6:	460b      	mov	r3, r1
   126a8:	e9dd 0102 	ldrd	r0, r1, [sp, #8]
   126ac:	f7f9 fe26 	bl	c2fc <__aeabi_dsub>
   126b0:	4602      	mov	r2, r0
   126b2:	460b      	mov	r3, r1
   126b4:	4606      	mov	r6, r0
   126b6:	460f      	mov	r7, r1
   126b8:	4640      	mov	r0, r8
   126ba:	4649      	mov	r1, r9
   126bc:	f7f9 fe20 	bl	c300 <__adddf3>
   126c0:	2000      	movs	r0, #0
   126c2:	4604      	mov	r4, r0
   126c4:	460d      	mov	r5, r1
   126c6:	4642      	mov	r2, r8
   126c8:	464b      	mov	r3, r9
   126ca:	e5af      	b.n	1222c <__ieee754_pow+0x54c>
   126cc:	4602      	mov	r2, r0
   126ce:	460b      	mov	r3, r1
   126d0:	f7ff bbd5 	b.w	11e7e <__ieee754_pow+0x19e>
   126d4:	e9dd 0102 	ldrd	r0, r1, [sp, #8]
   126d8:	a323      	add	r3, pc, #140	; (adr r3, 12768 <__ieee754_pow+0xa88>)
   126da:	e9d3 2300 	ldrd	r2, r3, [r3]
   126de:	f7f9 ffc5 	bl	c66c <__aeabi_dmul>
   126e2:	a321      	add	r3, pc, #132	; (adr r3, 12768 <__ieee754_pow+0xa88>)
   126e4:	e9d3 2300 	ldrd	r2, r3, [r3]
   126e8:	f7f9 ffc0 	bl	c66c <__aeabi_dmul>
   126ec:	f7ff bb15 	b.w	11d1a <__ieee754_pow+0x3a>
   126f0:	4b28      	ldr	r3, [pc, #160]	; (12794 <__ieee754_pow+0xab4>)
   126f2:	4598      	cmp	r8, r3
   126f4:	f73f ae09 	bgt.w	1230a <__ieee754_pow+0x62a>
   126f8:	e9dd 2300 	ldrd	r2, r3, [sp]
   126fc:	4692      	mov	sl, r2
   126fe:	4693      	mov	fp, r2
   12700:	e632      	b.n	12368 <__ieee754_pow+0x688>
   12702:	f04f 0b00 	mov.w	fp, #0
   12706:	f7ff bb2e 	b.w	11d66 <__ieee754_pow+0x86>
   1270a:	ed9f 7b19 	vldr	d7, [pc, #100]	; 12770 <__ieee754_pow+0xa90>
   1270e:	ed8d 7b08 	vstr	d7, [sp, #32]
   12712:	ed9f 7b19 	vldr	d7, [pc, #100]	; 12778 <__ieee754_pow+0xa98>
   12716:	ed8d 7b10 	vstr	d7, [sp, #64]	; 0x40
   1271a:	ed9f 7b19 	vldr	d7, [pc, #100]	; 12780 <__ieee754_pow+0xaa0>
   1271e:	f44f 2880 	mov.w	r8, #262144	; 0x40000
   12722:	ed8d 7b06 	vstr	d7, [sp, #24]
   12726:	f7ff bbff 	b.w	11f28 <__ieee754_pow+0x248>
   1272a:	4658      	mov	r0, fp
   1272c:	ec43 2b10 	vmov	d0, r2, r3
   12730:	f000 f9a2 	bl	12a78 <scalbn>
   12734:	ec51 0b10 	vmov	r0, r1, d0
   12738:	e6c8      	b.n	124cc <__ieee754_pow+0x7ec>
   1273a:	f002 0201 	and.w	r2, r2, #1
   1273e:	f1c2 0b02 	rsb	fp, r2, #2
   12742:	f7ff bb04 	b.w	11d4e <__ieee754_pow+0x6e>
   12746:	bf00      	nop
   12748:	60000000 	.word	0x60000000
   1274c:	3ff71547 	.word	0x3ff71547
   12750:	f85ddf44 	.word	0xf85ddf44
   12754:	3e54ae0b 	.word	0x3e54ae0b
   12758:	55555555 	.word	0x55555555
   1275c:	3fd55555 	.word	0x3fd55555
   12760:	652b82fe 	.word	0x652b82fe
   12764:	3ff71547 	.word	0x3ff71547
   12768:	8800759c 	.word	0x8800759c
   1276c:	7e37e43c 	.word	0x7e37e43c
   12770:	40000000 	.word	0x40000000
   12774:	3fe2b803 	.word	0x3fe2b803
   12778:	43cfd006 	.word	0x43cfd006
   1277c:	3e4cfdeb 	.word	0x3e4cfdeb
   12780:	00000000 	.word	0x00000000
   12784:	3ff80000 	.word	0x3ff80000
   12788:	3feffffe 	.word	0x3feffffe
   1278c:	3ff00000 	.word	0x3ff00000
   12790:	3fd00000 	.word	0x3fd00000
   12794:	3fe00000 	.word	0x3fe00000

00012798 <__ieee754_sqrt>:
   12798:	e92d 41f0 	stmdb	sp!, {r4, r5, r6, r7, r8, lr}
   1279c:	4a62      	ldr	r2, [pc, #392]	; (12928 <__ieee754_sqrt+0x190>)
   1279e:	ec57 6b10 	vmov	r6, r7, d0
   127a2:	43ba      	bics	r2, r7
   127a4:	f000 8095 	beq.w	128d2 <__ieee754_sqrt+0x13a>
   127a8:	2f00      	cmp	r7, #0
   127aa:	463b      	mov	r3, r7
   127ac:	ee10 1a10 	vmov	r1, s0
   127b0:	4634      	mov	r4, r6
   127b2:	dd54      	ble.n	1285e <__ieee754_sqrt+0xc6>
   127b4:	153f      	asrs	r7, r7, #20
   127b6:	f000 80af 	beq.w	12918 <__ieee754_sqrt+0x180>
   127ba:	f3c3 0313 	ubfx	r3, r3, #0, #20
   127be:	f2a7 37ff 	subw	r7, r7, #1023	; 0x3ff
   127c2:	f443 1380 	orr.w	r3, r3, #1048576	; 0x100000
   127c6:	0fe2      	lsrs	r2, r4, #31
   127c8:	07f9      	lsls	r1, r7, #31
   127ca:	eb02 0343 	add.w	r3, r2, r3, lsl #1
   127ce:	ea4f 0544 	mov.w	r5, r4, lsl #1
   127d2:	d503      	bpl.n	127dc <__ieee754_sqrt+0x44>
   127d4:	0fed      	lsrs	r5, r5, #31
   127d6:	eb05 0343 	add.w	r3, r5, r3, lsl #1
   127da:	00a5      	lsls	r5, r4, #2
   127dc:	2600      	movs	r6, #0
   127de:	107f      	asrs	r7, r7, #1
   127e0:	46b4      	mov	ip, r6
   127e2:	2216      	movs	r2, #22
   127e4:	f44f 1100 	mov.w	r1, #2097152	; 0x200000
   127e8:	eb0c 0001 	add.w	r0, ip, r1
   127ec:	4298      	cmp	r0, r3
   127ee:	ea4f 74d5 	mov.w	r4, r5, lsr #31
   127f2:	ea4f 0545 	mov.w	r5, r5, lsl #1
   127f6:	dc03      	bgt.n	12800 <__ieee754_sqrt+0x68>
   127f8:	1a1b      	subs	r3, r3, r0
   127fa:	eb00 0c01 	add.w	ip, r0, r1
   127fe:	440e      	add	r6, r1
   12800:	3a01      	subs	r2, #1
   12802:	eb04 0343 	add.w	r3, r4, r3, lsl #1
   12806:	ea4f 0151 	mov.w	r1, r1, lsr #1
   1280a:	d1ed      	bne.n	127e8 <__ieee754_sqrt+0x50>
   1280c:	4610      	mov	r0, r2
   1280e:	4696      	mov	lr, r2
   12810:	2420      	movs	r4, #32
   12812:	f04f 4200 	mov.w	r2, #2147483648	; 0x80000000
   12816:	e009      	b.n	1282c <__ieee754_sqrt+0x94>
   12818:	d052      	beq.n	128c0 <__ieee754_sqrt+0x128>
   1281a:	005b      	lsls	r3, r3, #1
   1281c:	3c01      	subs	r4, #1
   1281e:	eb03 73d5 	add.w	r3, r3, r5, lsr #31
   12822:	ea4f 0252 	mov.w	r2, r2, lsr #1
   12826:	ea4f 0545 	mov.w	r5, r5, lsl #1
   1282a:	d036      	beq.n	1289a <__ieee754_sqrt+0x102>
   1282c:	4563      	cmp	r3, ip
   1282e:	eb02 010e 	add.w	r1, r2, lr
   12832:	ddf1      	ble.n	12818 <__ieee754_sqrt+0x80>
   12834:	2900      	cmp	r1, #0
   12836:	eb01 0e02 	add.w	lr, r1, r2
   1283a:	db0a      	blt.n	12852 <__ieee754_sqrt+0xba>
   1283c:	46e0      	mov	r8, ip
   1283e:	eba3 030c 	sub.w	r3, r3, ip
   12842:	42a9      	cmp	r1, r5
   12844:	bf88      	it	hi
   12846:	f103 33ff 	addhi.w	r3, r3, #4294967295	; 0xffffffff
   1284a:	1a6d      	subs	r5, r5, r1
   1284c:	4410      	add	r0, r2
   1284e:	46c4      	mov	ip, r8
   12850:	e7e3      	b.n	1281a <__ieee754_sqrt+0x82>
   12852:	f1be 0f00 	cmp.w	lr, #0
   12856:	dbf1      	blt.n	1283c <__ieee754_sqrt+0xa4>
   12858:	f10c 0801 	add.w	r8, ip, #1
   1285c:	e7ef      	b.n	1283e <__ieee754_sqrt+0xa6>
   1285e:	f027 4200 	bic.w	r2, r7, #2147483648	; 0x80000000
   12862:	4332      	orrs	r2, r6
   12864:	d02a      	beq.n	128bc <__ieee754_sqrt+0x124>
   12866:	2f00      	cmp	r7, #0
   12868:	d149      	bne.n	128fe <__ieee754_sqrt+0x166>
   1286a:	0aca      	lsrs	r2, r1, #11
   1286c:	3b15      	subs	r3, #21
   1286e:	0549      	lsls	r1, r1, #21
   12870:	2a00      	cmp	r2, #0
   12872:	d0fa      	beq.n	1286a <__ieee754_sqrt+0xd2>
   12874:	f412 1080 	ands.w	r0, r2, #1048576	; 0x100000
   12878:	d001      	beq.n	1287e <__ieee754_sqrt+0xe6>
   1287a:	e050      	b.n	1291e <__ieee754_sqrt+0x186>
   1287c:	4620      	mov	r0, r4
   1287e:	0052      	lsls	r2, r2, #1
   12880:	02d5      	lsls	r5, r2, #11
   12882:	f100 0401 	add.w	r4, r0, #1
   12886:	d5f9      	bpl.n	1287c <__ieee754_sqrt+0xe4>
   12888:	f1c4 0520 	rsb	r5, r4, #32
   1288c:	fa01 f404 	lsl.w	r4, r1, r4
   12890:	40e9      	lsrs	r1, r5
   12892:	1a1f      	subs	r7, r3, r0
   12894:	ea41 0302 	orr.w	r3, r1, r2
   12898:	e78f      	b.n	127ba <__ieee754_sqrt+0x22>
   1289a:	432b      	orrs	r3, r5
   1289c:	d129      	bne.n	128f2 <__ieee754_sqrt+0x15a>
   1289e:	0844      	lsrs	r4, r0, #1
   128a0:	1071      	asrs	r1, r6, #1
   128a2:	07f3      	lsls	r3, r6, #31
   128a4:	f101 517f 	add.w	r1, r1, #1069547520	; 0x3fc00000
   128a8:	f501 1100 	add.w	r1, r1, #2097152	; 0x200000
   128ac:	bf48      	it	mi
   128ae:	f044 4400 	orrmi.w	r4, r4, #2147483648	; 0x80000000
   128b2:	eb01 5307 	add.w	r3, r1, r7, lsl #20
   128b6:	4622      	mov	r2, r4
   128b8:	ec43 2b10 	vmov	d0, r2, r3
   128bc:	e8bd 81f0 	ldmia.w	sp!, {r4, r5, r6, r7, r8, pc}
   128c0:	42a9      	cmp	r1, r5
   128c2:	d8aa      	bhi.n	1281a <__ieee754_sqrt+0x82>
   128c4:	2900      	cmp	r1, #0
   128c6:	eb01 0e02 	add.w	lr, r1, r2
   128ca:	dbc2      	blt.n	12852 <__ieee754_sqrt+0xba>
   128cc:	4698      	mov	r8, r3
   128ce:	2300      	movs	r3, #0
   128d0:	e7bb      	b.n	1284a <__ieee754_sqrt+0xb2>
   128d2:	ee10 2a10 	vmov	r2, s0
   128d6:	463b      	mov	r3, r7
   128d8:	ee10 0a10 	vmov	r0, s0
   128dc:	4639      	mov	r1, r7
   128de:	f7f9 fec5 	bl	c66c <__aeabi_dmul>
   128e2:	4632      	mov	r2, r6
   128e4:	463b      	mov	r3, r7
   128e6:	f7f9 fd0b 	bl	c300 <__adddf3>
   128ea:	ec41 0b10 	vmov	d0, r0, r1
   128ee:	e8bd 81f0 	ldmia.w	sp!, {r4, r5, r6, r7, r8, pc}
   128f2:	1c42      	adds	r2, r0, #1
   128f4:	bf16      	itet	ne
   128f6:	1c42      	addne	r2, r0, #1
   128f8:	3601      	addeq	r6, #1
   128fa:	0854      	lsrne	r4, r2, #1
   128fc:	e7d0      	b.n	128a0 <__ieee754_sqrt+0x108>
   128fe:	ee10 2a10 	vmov	r2, s0
   12902:	4630      	mov	r0, r6
   12904:	4639      	mov	r1, r7
   12906:	f7f9 fcf9 	bl	c2fc <__aeabi_dsub>
   1290a:	4602      	mov	r2, r0
   1290c:	460b      	mov	r3, r1
   1290e:	f7f9 ffd7 	bl	c8c0 <__aeabi_ddiv>
   12912:	ec41 0b10 	vmov	d0, r0, r1
   12916:	e7d1      	b.n	128bc <__ieee754_sqrt+0x124>
   12918:	461a      	mov	r2, r3
   1291a:	463b      	mov	r3, r7
   1291c:	e7aa      	b.n	12874 <__ieee754_sqrt+0xdc>
   1291e:	460c      	mov	r4, r1
   12920:	2520      	movs	r5, #32
   12922:	f04f 30ff 	mov.w	r0, #4294967295	; 0xffffffff
   12926:	e7b3      	b.n	12890 <__ieee754_sqrt+0xf8>
   12928:	7ff00000 	.word	0x7ff00000

0001292c <fabs>:
   1292c:	ec51 0b10 	vmov	r0, r1, d0
   12930:	ee10 2a10 	vmov	r2, s0
   12934:	f021 4300 	bic.w	r3, r1, #2147483648	; 0x80000000
   12938:	ec43 2b10 	vmov	d0, r2, r3
   1293c:	4770      	bx	lr
   1293e:	bf00      	nop

00012940 <finite>:
   12940:	ee10 3a90 	vmov	r3, s1
   12944:	f043 4000 	orr.w	r0, r3, #2147483648	; 0x80000000
   12948:	f500 1080 	add.w	r0, r0, #1048576	; 0x100000
   1294c:	0fc0      	lsrs	r0, r0, #31
   1294e:	4770      	bx	lr

00012950 <matherr>:
   12950:	2000      	movs	r0, #0
   12952:	4770      	bx	lr
   12954:	0000      	movs	r0, r0
	...

00012958 <nan>:
   12958:	ed9f 0b01 	vldr	d0, [pc, #4]	; 12960 <nan+0x8>
   1295c:	4770      	bx	lr
   1295e:	bf00      	nop
   12960:	00000000 	.word	0x00000000
   12964:	7ff80000 	.word	0x7ff80000

00012968 <rint>:
   12968:	b5f0      	push	{r4, r5, r6, r7, lr}
   1296a:	ec51 0b10 	vmov	r0, r1, d0
   1296e:	f3c1 550a 	ubfx	r5, r1, #20, #11
   12972:	f2a5 32ff 	subw	r2, r5, #1023	; 0x3ff
   12976:	2a13      	cmp	r2, #19
   12978:	b083      	sub	sp, #12
   1297a:	460b      	mov	r3, r1
   1297c:	ea4f 76d1 	mov.w	r6, r1, lsr #31
   12980:	ee10 4a10 	vmov	r4, s0
   12984:	dc2f      	bgt.n	129e6 <rint+0x7e>
   12986:	2a00      	cmp	r2, #0
   12988:	db4a      	blt.n	12a20 <rint+0xb8>
   1298a:	4d39      	ldr	r5, [pc, #228]	; (12a70 <rint+0x108>)
   1298c:	4115      	asrs	r5, r2
   1298e:	ea01 0705 	and.w	r7, r1, r5
   12992:	4307      	orrs	r7, r0
   12994:	d023      	beq.n	129de <rint+0x76>
   12996:	086d      	lsrs	r5, r5, #1
   12998:	4029      	ands	r1, r5
   1299a:	430c      	orrs	r4, r1
   1299c:	d00c      	beq.n	129b8 <rint+0x50>
   1299e:	f44f 2180 	mov.w	r1, #262144	; 0x40000
   129a2:	2a13      	cmp	r2, #19
   129a4:	ea23 0505 	bic.w	r5, r3, r5
   129a8:	fa41 f302 	asr.w	r3, r1, r2
   129ac:	ea43 0305 	orr.w	r3, r3, r5
   129b0:	bf0c      	ite	eq
   129b2:	f04f 4400 	moveq.w	r4, #2147483648	; 0x80000000
   129b6:	2400      	movne	r4, #0
   129b8:	4a2e      	ldr	r2, [pc, #184]	; (12a74 <rint+0x10c>)
   129ba:	eb02 06c6 	add.w	r6, r2, r6, lsl #3
   129be:	4620      	mov	r0, r4
   129c0:	e9d6 4500 	ldrd	r4, r5, [r6]
   129c4:	4602      	mov	r2, r0
   129c6:	4629      	mov	r1, r5
   129c8:	4620      	mov	r0, r4
   129ca:	f7f9 fc99 	bl	c300 <__adddf3>
   129ce:	e9cd 0100 	strd	r0, r1, [sp]
   129d2:	4622      	mov	r2, r4
   129d4:	462b      	mov	r3, r5
   129d6:	e9dd 0100 	ldrd	r0, r1, [sp]
   129da:	f7f9 fc8f 	bl	c2fc <__aeabi_dsub>
   129de:	ec41 0b10 	vmov	d0, r0, r1
   129e2:	b003      	add	sp, #12
   129e4:	bdf0      	pop	{r4, r5, r6, r7, pc}
   129e6:	2a33      	cmp	r2, #51	; 0x33
   129e8:	dd07      	ble.n	129fa <rint+0x92>
   129ea:	f5b2 6f80 	cmp.w	r2, #1024	; 0x400
   129ee:	d1f6      	bne.n	129de <rint+0x76>
   129f0:	ee10 2a10 	vmov	r2, s0
   129f4:	f7f9 fc84 	bl	c300 <__adddf3>
   129f8:	e7f1      	b.n	129de <rint+0x76>
   129fa:	f2a5 4513 	subw	r5, r5, #1043	; 0x413
   129fe:	f04f 32ff 	mov.w	r2, #4294967295	; 0xffffffff
   12a02:	40ea      	lsrs	r2, r5
   12a04:	4210      	tst	r0, r2
   12a06:	d0ea      	beq.n	129de <rint+0x76>
   12a08:	0852      	lsrs	r2, r2, #1
   12a0a:	4210      	tst	r0, r2
   12a0c:	d0d4      	beq.n	129b8 <rint+0x50>
   12a0e:	f04f 4180 	mov.w	r1, #1073741824	; 0x40000000
   12a12:	ea24 0202 	bic.w	r2, r4, r2
   12a16:	fa41 f505 	asr.w	r5, r1, r5
   12a1a:	ea42 0405 	orr.w	r4, r2, r5
   12a1e:	e7cb      	b.n	129b8 <rint+0x50>
   12a20:	f021 4200 	bic.w	r2, r1, #2147483648	; 0x80000000
   12a24:	4302      	orrs	r2, r0
   12a26:	d0da      	beq.n	129de <rint+0x76>
   12a28:	f3c1 0213 	ubfx	r2, r1, #0, #20
   12a2c:	4302      	orrs	r2, r0
   12a2e:	4254      	negs	r4, r2
   12a30:	4d10      	ldr	r5, [pc, #64]	; (12a74 <rint+0x10c>)
   12a32:	4314      	orrs	r4, r2
   12a34:	0b24      	lsrs	r4, r4, #12
   12a36:	eb05 00c6 	add.w	r0, r5, r6, lsl #3
   12a3a:	0c4f      	lsrs	r7, r1, #17
   12a3c:	f404 2100 	and.w	r1, r4, #524288	; 0x80000
   12a40:	e9d0 4500 	ldrd	r4, r5, [r0]
   12a44:	047f      	lsls	r7, r7, #17
   12a46:	ee10 2a10 	vmov	r2, s0
   12a4a:	ea41 0307 	orr.w	r3, r1, r7
   12a4e:	4620      	mov	r0, r4
   12a50:	4629      	mov	r1, r5
   12a52:	f7f9 fc55 	bl	c300 <__adddf3>
   12a56:	e9cd 0100 	strd	r0, r1, [sp]
   12a5a:	462b      	mov	r3, r5
   12a5c:	4622      	mov	r2, r4
   12a5e:	e9dd 0100 	ldrd	r0, r1, [sp]
   12a62:	f7f9 fc4b 	bl	c2fc <__aeabi_dsub>
   12a66:	f021 4300 	bic.w	r3, r1, #2147483648	; 0x80000000
   12a6a:	ea43 71c6 	orr.w	r1, r3, r6, lsl #31
   12a6e:	e7b6      	b.n	129de <rint+0x76>
   12a70:	000fffff 	.word	0x000fffff
   12a74:	00026b18 	.word	0x00026b18

00012a78 <scalbn>:
   12a78:	b538      	push	{r3, r4, r5, lr}
   12a7a:	ec53 2b10 	vmov	r2, r3, d0
   12a7e:	f3c3 510a 	ubfx	r1, r3, #20, #11
   12a82:	461c      	mov	r4, r3
   12a84:	4605      	mov	r5, r0
   12a86:	bb29      	cbnz	r1, 12ad4 <scalbn+0x5c>
   12a88:	ee10 1a10 	vmov	r1, s0
   12a8c:	f023 4400 	bic.w	r4, r3, #2147483648	; 0x80000000
   12a90:	4321      	orrs	r1, r4
   12a92:	d01e      	beq.n	12ad2 <scalbn+0x5a>
   12a94:	4619      	mov	r1, r3
   12a96:	2200      	movs	r2, #0
   12a98:	4b39      	ldr	r3, [pc, #228]	; (12b80 <scalbn+0x108>)
   12a9a:	4c3a      	ldr	r4, [pc, #232]	; (12b84 <scalbn+0x10c>)
   12a9c:	ee10 0a10 	vmov	r0, s0
   12aa0:	f7f9 fde4 	bl	c66c <__aeabi_dmul>
   12aa4:	42a5      	cmp	r5, r4
   12aa6:	4602      	mov	r2, r0
   12aa8:	460b      	mov	r3, r1
   12aaa:	db36      	blt.n	12b1a <scalbn+0xa2>
   12aac:	460c      	mov	r4, r1
   12aae:	f3c1 510a 	ubfx	r1, r1, #20, #11
   12ab2:	3936      	subs	r1, #54	; 0x36
   12ab4:	4429      	add	r1, r5
   12ab6:	f240 70fe 	movw	r0, #2046	; 0x7fe
   12aba:	4281      	cmp	r1, r0
   12abc:	dc35      	bgt.n	12b2a <scalbn+0xb2>
   12abe:	2900      	cmp	r1, #0
   12ac0:	dd14      	ble.n	12aec <scalbn+0x74>
   12ac2:	f024 44ff 	bic.w	r4, r4, #2139095040	; 0x7f800000
   12ac6:	f424 04e0 	bic.w	r4, r4, #7340032	; 0x700000
   12aca:	ea44 5301 	orr.w	r3, r4, r1, lsl #20
   12ace:	ec43 2b10 	vmov	d0, r2, r3
   12ad2:	bd38      	pop	{r3, r4, r5, pc}
   12ad4:	f240 70ff 	movw	r0, #2047	; 0x7ff
   12ad8:	4281      	cmp	r1, r0
   12ada:	d1eb      	bne.n	12ab4 <scalbn+0x3c>
   12adc:	ee10 0a10 	vmov	r0, s0
   12ae0:	4619      	mov	r1, r3
   12ae2:	f7f9 fc0d 	bl	c300 <__adddf3>
   12ae6:	ec41 0b10 	vmov	d0, r0, r1
   12aea:	bd38      	pop	{r3, r4, r5, pc}
   12aec:	f111 0f35 	cmn.w	r1, #53	; 0x35
   12af0:	da1e      	bge.n	12b30 <scalbn+0xb8>
   12af2:	f24c 3150 	movw	r1, #50000	; 0xc350
   12af6:	428d      	cmp	r5, r1
   12af8:	ec43 2b11 	vmov	d1, r2, r3
   12afc:	dd28      	ble.n	12b50 <scalbn+0xd8>
   12afe:	ed9f 0b1c 	vldr	d0, [pc, #112]	; 12b70 <scalbn+0xf8>
   12b02:	f000 f843 	bl	12b8c <copysign>
   12b06:	a31a      	add	r3, pc, #104	; (adr r3, 12b70 <scalbn+0xf8>)
   12b08:	e9d3 2300 	ldrd	r2, r3, [r3]
   12b0c:	ec51 0b10 	vmov	r0, r1, d0
   12b10:	f7f9 fdac 	bl	c66c <__aeabi_dmul>
   12b14:	ec41 0b10 	vmov	d0, r0, r1
   12b18:	bd38      	pop	{r3, r4, r5, pc}
   12b1a:	a317      	add	r3, pc, #92	; (adr r3, 12b78 <scalbn+0x100>)
   12b1c:	e9d3 2300 	ldrd	r2, r3, [r3]
   12b20:	f7f9 fda4 	bl	c66c <__aeabi_dmul>
   12b24:	ec41 0b10 	vmov	d0, r0, r1
   12b28:	bd38      	pop	{r3, r4, r5, pc}
   12b2a:	ec43 2b11 	vmov	d1, r2, r3
   12b2e:	e7e6      	b.n	12afe <scalbn+0x86>
   12b30:	f024 44ff 	bic.w	r4, r4, #2139095040	; 0x7f800000
   12b34:	f424 04e0 	bic.w	r4, r4, #7340032	; 0x700000
   12b38:	3136      	adds	r1, #54	; 0x36
   12b3a:	ea44 5301 	orr.w	r3, r4, r1, lsl #20
   12b3e:	4610      	mov	r0, r2
   12b40:	4619      	mov	r1, r3
   12b42:	2200      	movs	r2, #0
   12b44:	4b10      	ldr	r3, [pc, #64]	; (12b88 <scalbn+0x110>)
   12b46:	f7f9 fd91 	bl	c66c <__aeabi_dmul>
   12b4a:	ec41 0b10 	vmov	d0, r0, r1
   12b4e:	bd38      	pop	{r3, r4, r5, pc}
   12b50:	ed9f 0b09 	vldr	d0, [pc, #36]	; 12b78 <scalbn+0x100>
   12b54:	f000 f81a 	bl	12b8c <copysign>
   12b58:	a307      	add	r3, pc, #28	; (adr r3, 12b78 <scalbn+0x100>)
   12b5a:	e9d3 2300 	ldrd	r2, r3, [r3]
   12b5e:	ec51 0b10 	vmov	r0, r1, d0
   12b62:	f7f9 fd83 	bl	c66c <__aeabi_dmul>
   12b66:	ec41 0b10 	vmov	d0, r0, r1
   12b6a:	bd38      	pop	{r3, r4, r5, pc}
   12b6c:	f3af 8000 	nop.w
   12b70:	8800759c 	.word	0x8800759c
   12b74:	7e37e43c 	.word	0x7e37e43c
   12b78:	c2f8f359 	.word	0xc2f8f359
   12b7c:	01a56e1f 	.word	0x01a56e1f
   12b80:	43500000 	.word	0x43500000
   12b84:	ffff3cb0 	.word	0xffff3cb0
   12b88:	3c900000 	.word	0x3c900000

00012b8c <copysign>:
   12b8c:	ec53 2b10 	vmov	r2, r3, d0
   12b90:	ee11 0a90 	vmov	r0, s3
   12b94:	f023 4100 	bic.w	r1, r3, #2147483648	; 0x80000000
   12b98:	f000 4000 	and.w	r0, r0, #2147483648	; 0x80000000
   12b9c:	ea41 0300 	orr.w	r3, r1, r0
   12ba0:	ec43 2b10 	vmov	d0, r2, r3
   12ba4:	4770      	bx	lr
   12ba6:	bf00      	nop

00012ba8 <__errno>:
   12ba8:	4b01      	ldr	r3, [pc, #4]	; (12bb0 <__errno+0x8>)
   12baa:	6818      	ldr	r0, [r3, #0]
   12bac:	4770      	bx	lr
   12bae:	bf00      	nop
   12bb0:	1000c054 	.word	0x1000c054

00012bb4 <memset>:
   12bb4:	b4f0      	push	{r4, r5, r6, r7}
   12bb6:	0786      	lsls	r6, r0, #30
   12bb8:	d043      	beq.n	12c42 <memset+0x8e>
   12bba:	1e54      	subs	r4, r2, #1
   12bbc:	2a00      	cmp	r2, #0
   12bbe:	d03e      	beq.n	12c3e <memset+0x8a>
   12bc0:	b2ca      	uxtb	r2, r1
   12bc2:	4603      	mov	r3, r0
   12bc4:	e002      	b.n	12bcc <memset+0x18>
   12bc6:	f114 34ff 	adds.w	r4, r4, #4294967295	; 0xffffffff
   12bca:	d338      	bcc.n	12c3e <memset+0x8a>
   12bcc:	f803 2b01 	strb.w	r2, [r3], #1
   12bd0:	079d      	lsls	r5, r3, #30
   12bd2:	d1f8      	bne.n	12bc6 <memset+0x12>
   12bd4:	2c03      	cmp	r4, #3
   12bd6:	d92b      	bls.n	12c30 <memset+0x7c>
   12bd8:	b2cd      	uxtb	r5, r1
   12bda:	ea45 2505 	orr.w	r5, r5, r5, lsl #8
   12bde:	2c0f      	cmp	r4, #15
   12be0:	ea45 4505 	orr.w	r5, r5, r5, lsl #16
   12be4:	d916      	bls.n	12c14 <memset+0x60>
   12be6:	f1a4 0710 	sub.w	r7, r4, #16
   12bea:	093f      	lsrs	r7, r7, #4
   12bec:	f103 0620 	add.w	r6, r3, #32
   12bf0:	eb06 1607 	add.w	r6, r6, r7, lsl #4
   12bf4:	f103 0210 	add.w	r2, r3, #16
   12bf8:	e942 5504 	strd	r5, r5, [r2, #-16]
   12bfc:	e942 5502 	strd	r5, r5, [r2, #-8]
   12c00:	3210      	adds	r2, #16
   12c02:	42b2      	cmp	r2, r6
   12c04:	d1f8      	bne.n	12bf8 <memset+0x44>
   12c06:	f004 040f 	and.w	r4, r4, #15
   12c0a:	3701      	adds	r7, #1
   12c0c:	2c03      	cmp	r4, #3
   12c0e:	eb03 1307 	add.w	r3, r3, r7, lsl #4
   12c12:	d90d      	bls.n	12c30 <memset+0x7c>
   12c14:	461e      	mov	r6, r3
   12c16:	4622      	mov	r2, r4
   12c18:	3a04      	subs	r2, #4
   12c1a:	2a03      	cmp	r2, #3
   12c1c:	f846 5b04 	str.w	r5, [r6], #4
   12c20:	d8fa      	bhi.n	12c18 <memset+0x64>
   12c22:	1f22      	subs	r2, r4, #4
   12c24:	f022 0203 	bic.w	r2, r2, #3
   12c28:	3204      	adds	r2, #4
   12c2a:	4413      	add	r3, r2
   12c2c:	f004 0403 	and.w	r4, r4, #3
   12c30:	b12c      	cbz	r4, 12c3e <memset+0x8a>
   12c32:	b2c9      	uxtb	r1, r1
   12c34:	441c      	add	r4, r3
   12c36:	f803 1b01 	strb.w	r1, [r3], #1
   12c3a:	429c      	cmp	r4, r3
   12c3c:	d1fb      	bne.n	12c36 <memset+0x82>
   12c3e:	bcf0      	pop	{r4, r5, r6, r7}
   12c40:	4770      	bx	lr
   12c42:	4614      	mov	r4, r2
   12c44:	4603      	mov	r3, r0
   12c46:	e7c5      	b.n	12bd4 <memset+0x20>
   12c48:	69647541 	.word	0x69647541
   12c4c:	6574206f 	.word	0x6574206f
   12c50:	73207473 	.word	0x73207473
   12c54:	74726174 	.word	0x74726174
   12c58:	0a0d2173 	.word	0x0a0d2173
   12c5c:	0000000a 	.word	0x0000000a
   12c60:	72617453 	.word	0x72617453
   12c64:	6f742074 	.word	0x6f742074
   12c68:	63657220 	.word	0x63657220
   12c6c:	2064726f 	.word	0x2064726f
   12c70:	69647561 	.word	0x69647561
   12c74:	6e69206f 	.word	0x6e69206f
   12c78:	73203220 	.word	0x73203220
   12c7c:	2e736365 	.word	0x2e736365
   12c80:	0d0a2e2e 	.word	0x0d0a2e2e
   12c84:	00000000 	.word	0x00000000
   12c88:	69647541 	.word	0x69647541
   12c8c:	6572206f 	.word	0x6572206f
   12c90:	64726f63 	.word	0x64726f63
   12c94:	20676e69 	.word	0x20676e69
   12c98:	74207369 	.word	0x74207369
   12c9c:	696d7265 	.word	0x696d7265
   12ca0:	6574616e 	.word	0x6574616e
   12ca4:	6e612064 	.word	0x6e612064
   12ca8:	61642064 	.word	0x61642064
   12cac:	73206174 	.word	0x73206174
   12cb0:	74726174 	.word	0x74726174
   12cb4:	6f742073 	.word	0x6f742073
   12cb8:	6c707520 	.word	0x6c707520
   12cbc:	3a64616f 	.word	0x3a64616f
   12cc0:	00000d0a 	.word	0x00000d0a
   12cc4:	00000020 	.word	0x00000020
   12cc8:	20656854 	.word	0x20656854
   12ccc:	20646e65 	.word	0x20646e65
   12cd0:	6420666f 	.word	0x6420666f
   12cd4:	20617461 	.word	0x20617461
   12cd8:	6e617274 	.word	0x6e617274
   12cdc:	72656673 	.word	0x72656673
   12ce0:	0a2e2e2e 	.word	0x0a2e2e2e
   12ce4:	0000000d 	.word	0x0000000d
   12ce8:	00007325 	.word	0x00007325
   12cec:	00006425 	.word	0x00006425
   12cf0:	6c6f7041 	.word	0x6c6f7041
   12cf4:	20336f6c 	.word	0x20336f6c
   12cf8:	73727542 	.word	0x73727542
   12cfc:	6f4d2074 	.word	0x6f4d2074
   12d00:	69206564 	.word	0x69206564
   12d04:	76412073 	.word	0x76412073
   12d08:	616c6961 	.word	0x616c6961
   12d0c:	0d656c62 	.word	0x0d656c62
   12d10:	0000000a 	.word	0x0000000a
   12d14:	6c6f7041 	.word	0x6c6f7041
   12d18:	20336f6c 	.word	0x20336f6c
   12d1c:	73727542 	.word	0x73727542
   12d20:	6f4d2074 	.word	0x6f4d2074
   12d24:	69206564 	.word	0x69206564
   12d28:	6f4e2073 	.word	0x6f4e2073
   12d2c:	76412074 	.word	0x76412074
   12d30:	616c6961 	.word	0x616c6961
   12d34:	0d656c62 	.word	0x0d656c62
   12d38:	0000000a 	.word	0x0000000a
   12d3c:	6c696146 	.word	0x6c696146
   12d40:	74206465 	.word	0x74206465
   12d44:	6e49206f 	.word	0x6e49206f
   12d48:	61697469 	.word	0x61697469
   12d4c:	657a696c 	.word	0x657a696c
   12d50:	726f6620 	.word	0x726f6620
   12d54:	72754220 	.word	0x72754220
   12d58:	4d207473 	.word	0x4d207473
   12d5c:	2065646f 	.word	0x2065646f
   12d60:	7265706f 	.word	0x7265706f
   12d64:	6f697461 	.word	0x6f697461
   12d68:	000a0d6e 	.word	0x000a0d6e
   12d6c:	6c6f7041 	.word	0x6c6f7041
   12d70:	20336f6c 	.word	0x20336f6c
   12d74:	7265706f 	.word	0x7265706f
   12d78:	6e697461 	.word	0x6e697461
   12d7c:	6e692067 	.word	0x6e692067
   12d80:	72754220 	.word	0x72754220
   12d84:	4d207473 	.word	0x4d207473
   12d88:	2065646f 	.word	0x2065646f
   12d8c:	4d363928 	.word	0x4d363928
   12d90:	0d297a48 	.word	0x0d297a48
   12d94:	0000000a 	.word	0x0000000a
   12d98:	6c696146 	.word	0x6c696146
   12d9c:	74206465 	.word	0x74206465
   12da0:	6e45206f 	.word	0x6e45206f
   12da4:	656c6261 	.word	0x656c6261
   12da8:	72754220 	.word	0x72754220
   12dac:	4d207473 	.word	0x4d207473
   12db0:	2065646f 	.word	0x2065646f
   12db4:	7265706f 	.word	0x7265706f
   12db8:	6f697461 	.word	0x6f697461
   12dbc:	000a0d6e 	.word	0x000a0d6e

00012dc0 <g_SysRingBuffSetup>:
   12dc0:	00000001 1000c634 0002ee00              ....4.......

00012dcc <g_deepsleep_button0>:
   12dcc:	00001003                                ....

00012dd0 <g_f32BeamformingWeightLeftChPara>:
   12dd0:	3f000000 37f34507 3f2ac5c1 3ff0240b     ...?.E.7..*?.$.?
   12de0:	3ee15a08 40305d64 3eaeb1c4 40337cee     .Z.>d]0@...>.|3@
   12df0:	3e930553 4024f909 3e839043 40136e2f     S..>..$@C..>/n.@
   12e00:	3e766278 40034880 3e6cd749 3feaeb1c     xbv>.H.@I.l>...?
   12e10:	3e6a3055 3fd3ac71 3e69081c 3fc0346e     U0j>q..?..i>n4.?
   12e20:	3e67a8d6 3fafd8ae 3e66a7f0 3fa1f55a     ..g>...?..f>Z..?
   12e30:	3e663c75 3f9617c2 3e66b7aa 3f8bd3c3     u<f>...?..f>...?
   12e40:	3e66dc5d 3f82ee63 3e677ee5 3f763e6c     ].f>c..?.~g>l>v?
   12e50:	3e680496 3f688073 3e65460b 3f5c8b44     ..h>s.h?.Fe>D.\?
   12e60:	3e6368f1 3f51e109 3e6594af 3f4815a0     .hc>..Q?..e>..H?
   12e70:	3e64c2f8 3f3f7e3d 3e643d47 3f37be77     ..d>=~??G=d>w.7?
   12e80:	3e644a62 3f30b589 3e652935 3f2a454e     bJd>..0?5)e>NE*?
   12e90:	3e647c31 3f248d3b 3e65119d 3f1f3ffb     1|d>;.$?..e>.?.?
   12ea0:	3e65e354 3f1a6613 3e669596 3f15fa44     T.e>.f.?..f>D..?
   12eb0:	3e6732df 3f11f2bb 3e67d806 3f0e43aa     .2g>...?..g>.C.?
   12ec0:	3e68850a 3f0ae48f 3e69b7bf 3f07c1be     ..h>...?..i>...?
   12ed0:	3e6a6ca0 3f04f0d8 3e6b630b 3f02584f     .lj>...?.ck>OX.?
   12ee0:	3e6b4e12 3f001840 3e6b5dcc 3efc17ec     .Nk>@..?.]k>...>
   12ef0:	3e6b4e12 3ef86d72 3e6b1466 3ef52d23     .Nk>rm.>f.k>#-.>
   12f00:	3e6a3055 3ef27286 3e6ab0c9 3eefb54a     U0j>.r.>..j>J..>
   12f10:	3e6b6ae8 3eed3997 3e69df11 3eeb9778     .jk>.9.>..i>x..>
   12f20:	3e6a47ed 3ee9bf9c 3e6a8c15 3ee83276     .Gj>...>..j>v2.>
   12f30:	3e6ac322 3ee6e58a 3e6ac322 3ee5df65     ".j>...>".j>e..>
   12f40:	3e6a79bc 3ee52157 3e6b295f 3ee4538f     .yj>W!.>_)k>.S.>
   12f50:	3e697636 3ee44fa0 3e66d1e1 3ee4b09f     6vi>.O.>..f>...>
   12f60:	3e64cd75 3ee50c5f 3e627286 3ee599ed     u.d>_..>.rb>...>
   12f70:	3e5e98dd 3ee68b1a 3e5a3444 3ee7967d     ..^>...>D4Z>}..>
   12f80:	3e5689ca 3ee87161 3e4f3cb4 3eea1b5c     ..V>aq.>.<O>\..>
   12f90:	3e472086 3eebd902 3e3fe32a 3eed590c     . G>...>*.?>.Y.>
   12fa0:	3e36d86f 3eef266c 3e2c9d9d 3ef10774     o.6>l&.>..,>t..>
   12fb0:	3e21bda5 3ef2e5de 3e1635e7 3ef4bdba     ..!>...>.5.>...>
   12fc0:	3e10624e 3ef59ddc 3dfc7a3a 3ef81adf     Nb.>...>:z.=...>
   12fd0:	3deb50b1 3ef92b80                       .P.=.+.>

00012fd8 <g_f32BeamformingWeightRightChPara>:
   12fd8:	3f000000 37f34507 3e748d3b bffd0481     ...?.E.7;.t>....
   12fe8:	3e9d4d40 c03182aa 3e8ca18c c033f488     @M.>..1....>..3.
   12ff8:	3e78ec96 c02542c4 3e609fe8 c013ae14     ..x>.B%...`>....
   13008:	3e4de2ac c0038d50 3e3fe08b bfeb8ef3     ..M>P.....?>....
   13018:	3e3266ba bfd484b6 3e2833c6 bfc14467     .f2>.....3(>gD..
   13028:	3e21719f bfb10ff9 3e1c8f32 bfa3573f     .q!>....2..>?W..
   13038:	3e18b04b bf97a0f9 3e15158c bf8d8e22     K..>.......>"...
   13048:	3e12b7fe bf84d014 3e108ede bf7a5b96     ...>.......>.[z.
   13058:	3e0f0d84 bf6cf180 3e115619 bf60f473     ...>..l..V.>s.`.
   13068:	3e1318fc bf564f76 3e1111f1 bf4cf80e     ...>vOV....>..L.
   13078:	3e12599f bf4478ea 3e139192 bf3cd4aa     .Y.>.xD....>..<.
   13088:	3e146349 bf35f3b6 3e148fda bf2fc45d     Ic.>..5....>]./.
   13098:	3e167a10 bf2a12d7 3e173c0c bf24f56f     .z.>..*..<.>o.$.
   130a8:	3e17e133 bf204ff4 3e18c2a4 bf1c1206     3..>.O ....>....
   130b8:	3e19d346 bf183127 3e1af102 bf14a772     F..>'1.....>r...
   130c8:	3e1c193b bf116bba 3e1cc63f bf0e8145     ;..>.k..?..>E...
   130d8:	3e1e0371 bf0bcfd5 3e1f01b8 bf096095     q..>.......>.`..
   130e8:	3e211dbd bf071412 3e23126f bf04fe9b     ..!>....o.#>....
   130f8:	3e2523f6 bf0317ad 3e275a32 bf015a08     .#%>....2Z'>.Z..
   13108:	3e2a3055 beff7122 3e2b7803 befcbe62     U0*>"q...x+>b...
   13118:	3e2c6690 befa6613 3e2f8df8 bef7ef9e     .f,>.f..../>....
   13128:	3e307747 bef61e4f 3e314e3c bef48e8a     Gw0>O...<N1>....
   13138:	3e31e8e6 bef3443d 3e326959 bef2339c     ..1>=D..Yi2>.3..
   13148:	3e32d235 bef15a08 3e31c194 bef0f3cb     5.2>.Z....1>....
   13158:	3e32ad82 bef05bc0 3e33f7cf beefd60f     ..2>.[....3>....
   13168:	3e33e814 beefb54a 3e336502 beefc654     ..3>J....e3>T...
   13178:	3e336f7e beefc3b5 3e32e1ef beefddec     ~o3>......2>....
   13188:	3e305532 bef05682 3e3035bd bef060fe     2U0>.V...50>.`..
   13198:	3e2f66a5 bef08312 3e2c27a6 bef119ce     .f/>.....',>....
   131a8:	3e290d5a bef1ac9b 3e2540cc bef251c2     Z.)>.....@%>.Q..
   131b8:	3e201a37 bef32b56 3e197f63 bef43aa8     7. >V+..c..>.:..
   131c8:	3e0ae536 bef667b6 3e062f5a bef70f7c     6..>.g..Z/.>|...
   131d8:	3deaae29 bef935fc                       )..=.5..

000131e0 <g_f32HanningWindow>:
   131e0:	00000000 3a1dcf89 3b1dcf89 3bb15726     .......:...;&W.;
   131f0:	3c1d66ae 3c757f73 3cb05faf 3cef6f8f     .f.<s.u<._.<.o.<
   13200:	3d1be4cd 3d44a0e4 3d71d2e1 3d91afc0     ...=..D=..q=...=
   13210:	3dac9321 3dc983d8 3de87011 3e04a1f1     !..=...=.p.=...>
   13220:	3e15f634 3e28298d 3e3b30b6 3e4f0069     4..>.)(>.0;>i.O>
   13230:	3e638c54 3e78c79f 3e875297 3e928bb1     T.c>..x>.R.>...>
   13240:	3e9e086c 3ea9c194 3eb5aff3 3ec1cc10     l..>...>...>...>
   13250:	3ece0e95 3eda6fe7 3ee6e84b 3ef37048     ...>.o.>K..>Hp.>
   13260:	3f000000 3f0647dc 3f0c8bdb 3f12c80c     ...?.G.?...?...?
   13270:	3f18f8b6 3f1f19f8 3f252807 3f2b1f36     ...?...?.(%?6.+?
   13280:	3f30fbca 3f36ba28 3f3c56b4 3f41ce18     ..0?(.6?.V<?..A?
   13290:	3f471ceb 3f4c3fe6 3f5133d3 3f55f59d     ..G?.?L?.3Q?..U?
   132a0:	3f5a8273 3f5ed784 3f62f1fe 3f66cf85     s.Z?..^?..b?..f?
   132b0:	3f6a6d9c 3f6dca08 3f70e2d2 3f73b5f2     .mj?..m?..p?..s?
   132c0:	3f7641b3 3f788484 3f7a7d03 3f7c2a02     .Av?..x?.}z?.*|?
   132d0:	3f7d8a65 3f7e9d52 3f7f6230 3f7fd88c     e.}?R.~?0b.?...?
   132e0:	3f800000 3f7fd88c 3f7f6230 3f7e9d52     ...?...?0b.?R.~?
   132f0:	3f7d8a65 3f7c2a02 3f7a7d03 3f788484     e.}?.*|?.}z?..x?
   13300:	3f7641b3 3f73b5f2 3f70e2d2 3f6dca08     .Av?..s?..p?..m?
   13310:	3f6a6d9c 3f66cf85 3f62f1fe 3f5ed784     .mj?..f?..b?..^?
   13320:	3f5a8273 3f55f59d 3f5133d3 3f4c3fe6     s.Z?..U?.3Q?.?L?
   13330:	3f471ceb 3f41ce18 3f3c56b4 3f36ba28     ..G?..A?.V<?(.6?
   13340:	3f30fbca 3f2b1f36 3f252807 3f1f19f8     ..0?6.+?.(%?...?
   13350:	3f18f8b6 3f12c80c 3f0c8bdb 3f0647dc     ...?...?...?.G.?
   13360:	3f000000 3ef37048 3ee6e84b 3eda6fe7     ...?Hp.>K..>.o.>
   13370:	3ece0e95 3ec1cc10 3eb5aff3 3ea9c194     ...>...>...>...>
   13380:	3e9e086c 3e928bb1 3e875297 3e78c79f     l..>...>.R.>..x>
   13390:	3e638c54 3e4f0069 3e3b30b6 3e28298d     T.c>i.O>.0;>.)(>
   133a0:	3e15f634 3e04a1f1 3de87011 3dc983d8     4..>...>.p.=...=
   133b0:	3dac9321 3d91afc0 3d71d2e1 3d44a0e4     !..=...=..q=..D=
   133c0:	3d1be4cd 3cef6f8f 3cb05faf 3c757f73     ...=.o.<._.<s.u<
   133d0:	3c1d66ae 3bb15726 3b1dcf89 3a1dcf89     .f.<&W.;...;...:

000133e0 <g_sBspUartConfig>:
   133e0:	0001c200 00000060 00000000 00000000     ....`...........
   133f0:	00000000 00000012 00000000 00000000     ................
	...

00013408 <g_AM_BSP_GPIO_COM_UART_TX>:
   13408:	00000000                                ....

0001340c <g_AM_BSP_GPIO_COM_UART_RX>:
   1340c:	00000000                                ....

00013410 <am_hal_cachectrl_defaults>:
   13410:	00000308                                ....

00013414 <g_AM_HAL_GPIO_TRISTATE>:
   13414:	00000c03                                ....

00013418 <g_ui8Bit76Capabilities>:
   13418:	02800101 80010180 80800101 80808080     ................
   13428:	80808080 80808008 01800180 80808080     ................
   13438:	80808080 01800402 01010401 80808080     ................
   13448:	00000101                                ....

0001344c <g_ui8NCEtable>:
   1344c:	13524232 60221202 21534333 20504030     2BR..."`3CS!0@P 
   1345c:	11514131 ffffffff ffffffff 60514131     1AQ.........1AQ`
   1346c:	00504030 23534333 60524232 30201000     0@P.3CS#2BR`.. 0
   1347c:	61504030 01514131 42221202 60231303     0@Pa1AQ..."B..#`
   1348c:	50201000 41211101 32221202 60331303     .. P..!A.."2..3`
   1349c:	21514131 22524232 03534333 40201000     1AQ!2BR"3CS... @
   134ac:	51211101 02524232 13534333 10504030     ..!Q2BR.3CS.0@P.
   134bc:	60514131 12524232 03534333 40201000     1AQ`2BR.3CS... @
   134cc:	61211101 52221202 33231303 30201000     ..!a.."R..#3.. 0
   134dc:	61514131 02524232 53331303 ffffffff     1AQa2BR...3S....
   134ec:	ffffffff 61211101 50201000 61211101     ......!a.. P..!a
   134fc:	52221202 13534333 61504030 31211101     .."R3CS.0@Pa..!1
   1350c:	32221202 43231303                       .."2..#C

00013514 <g_ui8Inpen>:
   13514:	62272323 108703a1 e1005303 55418151     ##'b.....S..Q.AU
   13524:	4080c405 4140b101 31a03114 1180f100     ...@..@A.1.1....
   13534:	11c12191 304511e5 31300037 40007100     .!....E07.01.q.@
   13544:	00003130                                01..

00013548 <g_AM_HAL_GPIO_DISABLE>:
   13548:	00000003                                ....

0001354c <g_AM_HAL_GPIO_OUTPUT>:
   1354c:	00000403                                ....

00013550 <g_ui8nCEpins>:
   13550:	02070707 00080802 01020202 01010101     ................
   13560:	01010101 01010101 01010101 01010101     ................
   13570:	01010101 08010101 01010008 01010101     ................
   13580:	00000101                                ....

00013584 <g_am_hal_mcuctrl_flash_size>:
   13584:	00004000 00008000 00010000 00020000     .@..............
   13594:	00040000 00080000 00100000 00200000     .............. .
   135a4:	00180000 00000000 00000000 00000000     ................
	...

000135c4 <g_am_hal_mcuctrl_sram_size>:
   135c4:	00004000 00008000 00010000 00020000     .@..............
   135d4:	00040000 00080000 00100000 00060000     ................
   135e4:	000c0000 00000000 00000000 00000000     ................
	...

00013604 <am_hal_pwrctrl_peripheral_control>:
	...
   13610:	00000001 00000004 00000004 00000002     ................
   13620:	00000008 00000008 00000004 00000008     ................
   13630:	00000008 00000008 00000008 00000008     ................
   13640:	00000010 00000010 00000010 00000020     ............ ...
   13650:	00000010 00000010 00000040 00000010     ........@.......
   13660:	00000010 00000080 00000004 00000004     ................
   13670:	00000100 00000004 00000004 00000200     ................
   13680:	00000020 00000020 00000400 00000004      ... ...........
   13690:	00000004 00000800 00000040 00000040     ........@...@...
   136a0:	00001000 00000080 00000080 00002000     ............. ..
   136b0:	00000100 00000100                       ........

000136b8 <twiddleCoef_2048>:
   136b8:	3f800000 00000000 3f7fffb1 3b490fc7     ...?.......?..I;
   136c8:	3f7ffec4 3bc90f89 3f7ffd39 3c16cb59     ...?...;9..?Y..<
   136d8:	3f7ffb11 3c490e90 3f7ff84a 3c7b514b     ...?..I<J..?KQ{<
   136e8:	3f7ff4e6 3c96c9b6 3f7ff0e3 3cafea69     ...?...<...?i..<
   136f8:	3f7fec43 3cc90ab0 3f7fe705 3ce22a7b     C..?...<...?{*.<
   13708:	3f7fe129 3cfb49b9 3f7fdaaf 3d0a342f     )..?.I.<...?/4.=
   13718:	3f7fd398 3d16c32c 3f7fcbe2 3d2351cc     ...?,..=...?.Q#=
   13728:	3f7fc38f 3d2fe007 3f7fba9e 3d3c6dd5     ...?../=...?.m<=
   13738:	3f7fb10f 3d48fb2f 3f7fa6e3 3d55880e     ...?/.H=...?..U=
   13748:	3f7f9c18 3d621468 3f7f90b1 3d6ea038     ...?h.b=...?8.n=
   13758:	3f7f84ab 3d7b2b74 3f7f7808 3d83db0a     ...?t+{=.x.?...=
   13768:	3f7f6ac7 3d8a200a 3f7f5ce9 3d9064b4     .j.?. .=.\.?.d.=
   13778:	3f7f4e6d 3d96a905 3f7f3f54 3d9cecf9     mN.?...=T?.?...=
   13788:	3f7f2f9d 3da3308c 3f7f1f49 3da973ba     ./.?.0.=I..?.s.=
   13798:	3f7f0e58 3dafb680 3f7efcc9 3db5f8da     X..?...=..~?...=
   137a8:	3f7eea9d 3dbc3ac3 3f7ed7d4 3dc27c39     ..~?.:.=..~?9|.=
   137b8:	3f7ec46d 3dc8bd36 3f7eb069 3dcefdb7     m.~?6..=i.~?...=
   137c8:	3f7e9bc9 3dd53db9 3f7e868b 3ddb7d37     ..~?.=.=..~?7}.=
   137d8:	3f7e70b0 3de1bc2e 3f7e5a38 3de7fa9a     .p~?...=8Z~?...=
   137e8:	3f7e4323 3dee3876 3f7e2b72 3df475c0     #C~?v8.=r+~?.u.=
   137f8:	3f7e1324 3dfab273 3f7dfa38 3e007745     $.~?s..=8.}?Ew.>
   13808:	3f7de0b1 3e039502 3f7dc68c 3e06b26e     ..}?...>..}?n..>
   13818:	3f7dabcc 3e09cf86 3f7d906e 3e0cec4a     ..}?...>n.}?J..>
   13828:	3f7d7474 3e1008b7 3f7d57de 3e1324ca     tt}?...>.W}?.$.>
   13838:	3f7d3aac 3e164083 3f7d1cdd 3e195be0     .:}?.@.>..}?.[.>
   13848:	3f7cfe73 3e1c76de 3f7cdf6c 3e1f917b     s.|?.v.>l.|?{..>
   13858:	3f7cbfc9 3e22abb6 3f7c9f8a 3e25c58c     ..|?..">..|?..%>
   13868:	3f7c7eb0 3e28defc 3f7c5d3a 3e2bf804     .~|?..(>:]|?..+>
   13878:	3f7c3b28 3e2f10a2 3f7c187a 3e3228d4     (;|?../>z.|?.(2>
   13888:	3f7bf531 3e354098 3f7bd14d 3e3857ec     1.{?.@5>M.{?.W8>
   13898:	3f7baccd 3e3b6ecf 3f7b87b2 3e3e853e     ..{?.n;>..{?>.>>
   138a8:	3f7b61fc 3e419b37 3f7b3bab 3e44b0b9     .a{?7.A>.;{?..D>
   138b8:	3f7b14be 3e47c5c2 3f7aed37 3e4ada4f     ..{?..G>7.z?O.J>
   138c8:	3f7ac516 3e4dee60 3f7a9c59 3e5101f1     ..z?`.M>Y.z?..Q>
   138d8:	3f7a7302 3e541501 3f7a4910 3e57278f     .sz?..T>.Iz?.'W>
   138e8:	3f7a1e84 3e5a3997 3f79f35e 3e5d4b1a     ..z?.9Z>^.y?.K]>
   138f8:	3f79c79d 3e605c13 3f799b43 3e636c83     ..y?.\`>C.y?.lc>
   13908:	3f796e4e 3e667c66 3f7940c0 3e698bba     Nny?f|f>.@y?..i>
   13918:	3f791298 3e6c9a7f 3f78e3d6 3e6fa8b2     ..y?..l>..x?..o>
   13928:	3f78b47b 3e72b651 3f788486 3e75c35a     {.x?Q.r>..x?Z.u>
   13938:	3f7853f8 3e78cfcc 3f7822d1 3e7bdba4     .Sx?..x>."x?..{>
   13948:	3f77f110 3e7ee6e1 3f77beb7 3e80f8c0     ..w?..~>..w?...>
   13958:	3f778bc5 3e827dc0 3f77583a 3e840270     ..w?.}.>:Xw?p..>
   13968:	3f772417 3e8586ce 3f76ef5b 3e870ada     .$w?...>[.v?...>
   13978:	3f76ba07 3e888e93 3f76841b 3e8a11f8     ..v?...>..v?...>
   13988:	3f764d97 3e8b9507 3f76167a 3e8d17c0     .Mv?...>z.v?...>
   13998:	3f75dec6 3e8e9a22 3f75a67b 3e901c2c     ..u?"..>{.u?,..>
   139a8:	3f756d97 3e919ddd 3f75341d 3e931f35     .mu?...>.4u?5..>
   139b8:	3f74fa0b 3e94a031 3f74bf62 3e9620d2     ..t?1..>b.t?. .>
   139c8:	3f748422 3e97a117 3f74484b 3e9920fe     ".t?...>KHt?. .>
   139d8:	3f740bdd 3e9aa086 3f73ced9 3e9c1faf     ..t?...>..s?...>
   139e8:	3f73913f 3e9d9e78 3f73530e 3e9f1cdf     ?.s?x..>.Ss?...>
   139f8:	3f731447 3ea09ae5 3f72d4eb 3ea21887     G.s?...>..r?...>
   13a08:	3f7294f8 3ea395c5 3f725470 3ea5129f     ..r?...>pTr?...>
   13a18:	3f721352 3ea68f12 3f71d19f 3ea80b1f     R.r?...>..q?...>
   13a28:	3f718f57 3ea986c4 3f714c7a 3eab0201     W.q?...>zLq?...>
   13a38:	3f710908 3eac7cd4 3f70c502 3eadf73c     ..q?.|.>..p?<..>
   13a48:	3f708066 3eaf713a 3f703b37 3eb0eacb     f.p?:q.>7;p?...>
   13a58:	3f6ff573 3eb263ef 3f6faf1b 3eb3dca5     s.o?.c.>..o?...>
   13a68:	3f6f6830 3eb554ec 3f6f20b0 3eb6ccc3     0ho?.T.>. o?...>
   13a78:	3f6ed89e 3eb8442a 3f6e8ff8 3eb9bb1e     ..n?*D.>..n?...>
   13a88:	3f6e46be 3ebb31a0 3f6dfcf2 3ebca7af     .Fn?.1.>..m?...>
   13a98:	3f6db293 3ebe1d4a 3f6d67a1 3ebf926f     ..m?J..>.gm?o..>
   13aa8:	3f6d1c1d 3ec1071e 3f6cd007 3ec27b55     ..m?...>..l?U{.>
   13ab8:	3f6c835e 3ec3ef15 3f6c3624 3ec5625c     ^.l?...>$6l?\b.>
   13ac8:	3f6be858 3ec6d529 3f6b99fb 3ec8477c     X.k?)..>..k?|G.>
   13ad8:	3f6b4b0c 3ec9b953 3f6afb8c 3ecb2aae     .Kk?S..>..j?.*.>
   13ae8:	3f6aab7b 3ecc9b8b 3f6a5ad9 3ece0bea     {.j?...>.Zj?...>
   13af8:	3f6a09a7 3ecf7bca 3f69b7e4 3ed0eb2a     ..j?.{.>..i?*..>
   13b08:	3f696591 3ed25a09 3f6912ae 3ed3c867     .ei?.Z.>..i?g..>
   13b18:	3f68bf3c 3ed53641 3f686b39 3ed6a399     <.h?A6.>9kh?...>
   13b28:	3f6816a8 3ed8106b 3f67c187 3ed97cb9     ..h?k..>..g?.|.>
   13b38:	3f676bd8 3edae880 3f671599 3edc53c1     .kg?...>..g?.S.>
   13b48:	3f66becc 3eddbe79 3f666771 3edf28a9     ..f?y..>qgf?.(.>
   13b58:	3f660f88 3ee0924f 3f65b710 3ee1fb6a     ..f?O..>..e?j..>
   13b68:	3f655e0b 3ee363fa 3f650479 3ee4cbfe     .^e?.c.>y.e?...>
   13b78:	3f64aa59 3ee63375 3f644fac 3ee79a5d     Y.d?u3.>.Od?]..>
   13b88:	3f63f473 3ee900b7 3f6398ac 3eea6681     s.c?...>..c?.f.>
   13b98:	3f633c5a 3eebcbbb 3f62df7b 3eed3063     Z<c?...>{.b?c0.>
   13ba8:	3f628210 3eee9479 3f62241a 3eeff7fb     ..b?y..>.$b?...>
   13bb8:	3f61c598 3ef15aea 3f61668a 3ef2bd43     ..a?.Z.>.fa?C..>
   13bc8:	3f6106f2 3ef41f07 3f60a6cf 3ef58035     ..a?...>..`?5..>
   13bd8:	3f604621 3ef6e0cb 3f5fe4e9 3ef840c8     !F`?...>.._?.@.>
   13be8:	3f5f8327 3ef9a02d 3f5f20db 3efafef7     '._?-..>. _?...>
   13bf8:	3f5ebe05 3efc5d27 3f5e5aa6 3efdbabb     ..^?'].>.Z^?...>
   13c08:	3f5df6be 3eff17b2 3f5d924d 3f003a06     ..]?...>M.]?.:.?
   13c18:	3f5d2d53 3f00e7e4 3f5cc7d1 3f019573     S-]?...?..\?s..?
   13c28:	3f5c61c7 3f0242b1 3f5bfb34 3f02ef9f     .a\?.B.?4.[?...?
   13c38:	3f5b941a 3f039c3d 3f5b2c79 3f044889     ..[?=..?y,[?.H.?
   13c48:	3f5ac450 3f04f484 3f5a5ba0 3f05a02c     P.Z?...?.[Z?,..?
   13c58:	3f59f26a 3f064b82 3f5988ad 3f06f686     j.Y?.K.?..Y?...?
   13c68:	3f591e6a 3f07a136 3f58b3a1 3f084b92     j.Y?6..?..X?.K.?
   13c78:	3f584853 3f08f59b 3f57dc7f 3f099f4e     SHX?...?..W?N..?
   13c88:	3f577026 3f0a48ad 3f570348 3f0af1b7     &pW?.H.?H.W?...?
   13c98:	3f5695e5 3f0b9a6b 3f5627fe 3f0c42c9     ..V?k..?.'V?.B.?
   13ca8:	3f55b993 3f0cead0 3f554aa4 3f0d9281     ..U?...?.JU?...?
   13cb8:	3f54db31 3f0e39da 3f546b3b 3f0ee0db     1.T?.9.?;kT?...?
   13cc8:	3f53fac3 3f0f8784 3f5389c7 3f102dd5     ..S?...?..S?.-.?
   13cd8:	3f531849 3f10d3cd 3f52a649 3f11796b     I.S?...?I.R?ky.?
   13ce8:	3f5233c6 3f121eb0 3f51c0c2 3f12c39a     .3R?...?..Q?...?
   13cf8:	3f514d3d 3f13682a 3f50d937 3f140c5f     =MQ?*h.?7.P?_..?
   13d08:	3f5064af 3f14b039 3f4fefa8 3f1553b7     .dP?9..?..O?.S.?
   13d18:	3f4f7a1f 3f15f6d9 3f4f0417 3f16999f     .zO?...?..O?...?
   13d28:	3f4e8d90 3f173c07 3f4e1689 3f17de12     ..N?.<.?..N?...?
   13d38:	3f4d9f02 3f187fc0 3f4d26fd 3f19210f     ..M?...?.&M?.!.?
   13d48:	3f4cae79 3f19c200 3f4c3578 3f1a6293     y.L?...?x5L?.b.?
   13d58:	3f4bbbf8 3f1b02c6 3f4b41fa 3f1ba299     ..K?...?.AK?...?
   13d68:	3f4ac77f 3f1c420c 3f4a4c87 3f1ce11f     ..J?.B.?.LJ?...?
   13d78:	3f49d112 3f1d7fd1 3f495521 3f1e1e22     ..I?...?!UI?"..?
   13d88:	3f48d8b3 3f1ebc12 3f485bca 3f1f599f     ..H?...?.[H?.Y.?
   13d98:	3f47de65 3f1ff6cb 3f476085 3f209393     e.G?...?.`G?.. ?
   13da8:	3f46e22a 3f212ff9 3f466354 3f21cbfb     *.F?./!?TcF?..!?
   13db8:	3f45e403 3f226799 3f456439 3f2302d3     ..E?.g"?9dE?..#?
   13dc8:	3f44e3f5 3f239da9 3f446337 3f24381a     ..D?..#?7cD?.8$?
   13dd8:	3f43e200 3f24d225 3f436051 3f256bcb     ..C?%.$?Q`C?.k%?
   13de8:	3f42de29 3f26050a 3f425b89 3f269de3     ).B?..&?.[B?..&?
   13df8:	3f41d870 3f273656 3f4154e1 3f27ce61     p.A?V6'?.TA?a.'?
   13e08:	3f40d0da 3f286605 3f404c5c 3f28fd41     ..@?.f(?\L@?A.(?
   13e18:	3f3fc767 3f299415 3f3f41fc 3f2a2a80     g.??..)?.A??.**?
   13e28:	3f3ebc1b 3f2ac082 3f3e35c5 3f2b561b     ..>?..*?.5>?.V+?
   13e38:	3f3daef9 3f2beb4a 3f3d27b8 3f2c800f     ..=?J.+?.'=?..,?
   13e48:	3f3ca003 3f2d1469 3f3c17d9 3f2da859     ..<?i.-?..<?Y.-?
   13e58:	3f3b8f3b 3f2e3bde 3f3b0629 3f2ecef7     ;.;?.;.?).;?...?
   13e68:	3f3a7ca4 3f2f61a5 3f39f2ac 3f2ff3e6     .|:?.a/?..9?../?
   13e78:	3f396842 3f3085bb 3f38dd65 3f311722     Bh9?..0?e.8?".1?
   13e88:	3f385216 3f31a81d 3f37c655 3f3238aa     .R8?..1?U.7?.82?
   13e98:	3f373a23 3f32c8c9 3f36ad7f 3f33587a     #:7?..2?..6?zX3?
   13ea8:	3f36206c 3f33e7bc 3f3592e7 3f34768f     l 6?..3?..5?.v4?
   13eb8:	3f3504f3 3f3504f3 3f34768f 3f3592e7     ..5?..5?.v4?..5?
   13ec8:	3f33e7bc 3f36206c 3f33587a 3f36ad7f     ..3?l 6?zX3?..6?
   13ed8:	3f32c8c9 3f373a23 3f3238aa 3f37c655     ..2?#:7?.82?U.7?
   13ee8:	3f31a81d 3f385216 3f311722 3f38dd65     ..1?.R8?".1?e.8?
   13ef8:	3f3085bb 3f396842 3f2ff3e6 3f39f2ac     ..0?Bh9?../?..9?
   13f08:	3f2f61a5 3f3a7ca4 3f2ecef7 3f3b0629     .a/?.|:?...?).;?
   13f18:	3f2e3bde 3f3b8f3b 3f2da859 3f3c17d9     .;.?;.;?Y.-?..<?
   13f28:	3f2d1469 3f3ca003 3f2c800f 3f3d27b8     i.-?..<?..,?.'=?
   13f38:	3f2beb4a 3f3daef9 3f2b561b 3f3e35c5     J.+?..=?.V+?.5>?
   13f48:	3f2ac082 3f3ebc1b 3f2a2a80 3f3f41fc     ..*?..>?.**?.A??
   13f58:	3f299415 3f3fc767 3f28fd41 3f404c5c     ..)?g.??A.(?\L@?
   13f68:	3f286605 3f40d0da 3f27ce61 3f4154e1     .f(?..@?a.'?.TA?
   13f78:	3f273656 3f41d870 3f269de3 3f425b89     V6'?p.A?..&?.[B?
   13f88:	3f26050a 3f42de29 3f256bcb 3f436051     ..&?).B?.k%?Q`C?
   13f98:	3f24d225 3f43e200 3f24381a 3f446337     %.$?..C?.8$?7cD?
   13fa8:	3f239da9 3f44e3f5 3f2302d3 3f456439     ..#?..D?..#?9dE?
   13fb8:	3f226799 3f45e403 3f21cbfb 3f466354     .g"?..E?..!?TcF?
   13fc8:	3f212ff9 3f46e22a 3f209393 3f476085     ./!?*.F?.. ?.`G?
   13fd8:	3f1ff6cb 3f47de65 3f1f599f 3f485bca     ...?e.G?.Y.?.[H?
   13fe8:	3f1ebc12 3f48d8b3 3f1e1e22 3f495521     ...?..H?"..?!UI?
   13ff8:	3f1d7fd1 3f49d112 3f1ce11f 3f4a4c87     ...?..I?...?.LJ?
   14008:	3f1c420c 3f4ac77f 3f1ba299 3f4b41fa     .B.?..J?...?.AK?
   14018:	3f1b02c6 3f4bbbf8 3f1a6293 3f4c3578     ...?..K?.b.?x5L?
   14028:	3f19c200 3f4cae79 3f19210f 3f4d26fd     ...?y.L?.!.?.&M?
   14038:	3f187fc0 3f4d9f02 3f17de12 3f4e1689     ...?..M?...?..N?
   14048:	3f173c07 3f4e8d90 3f16999f 3f4f0417     .<.?..N?...?..O?
   14058:	3f15f6d9 3f4f7a1f 3f1553b7 3f4fefa8     ...?.zO?.S.?..O?
   14068:	3f14b039 3f5064af 3f140c5f 3f50d937     9..?.dP?_..?7.P?
   14078:	3f13682a 3f514d3d 3f12c39a 3f51c0c2     *h.?=MQ?...?..Q?
   14088:	3f121eb0 3f5233c6 3f11796b 3f52a649     ...?.3R?ky.?I.R?
   14098:	3f10d3cd 3f531849 3f102dd5 3f5389c7     ...?I.S?.-.?..S?
   140a8:	3f0f8784 3f53fac3 3f0ee0db 3f546b3b     ...?..S?...?;kT?
   140b8:	3f0e39da 3f54db31 3f0d9281 3f554aa4     .9.?1.T?...?.JU?
   140c8:	3f0cead0 3f55b993 3f0c42c9 3f5627fe     ...?..U?.B.?.'V?
   140d8:	3f0b9a6b 3f5695e5 3f0af1b7 3f570348     k..?..V?...?H.W?
   140e8:	3f0a48ad 3f577026 3f099f4e 3f57dc7f     .H.?&pW?N..?..W?
   140f8:	3f08f59b 3f584853 3f084b92 3f58b3a1     ...?SHX?.K.?..X?
   14108:	3f07a136 3f591e6a 3f06f686 3f5988ad     6..?j.Y?...?..Y?
   14118:	3f064b82 3f59f26a 3f05a02c 3f5a5ba0     .K.?j.Y?,..?.[Z?
   14128:	3f04f484 3f5ac450 3f044889 3f5b2c79     ...?P.Z?.H.?y,[?
   14138:	3f039c3d 3f5b941a 3f02ef9f 3f5bfb34     =..?..[?...?4.[?
   14148:	3f0242b1 3f5c61c7 3f019573 3f5cc7d1     .B.?.a\?s..?..\?
   14158:	3f00e7e4 3f5d2d53 3f003a06 3f5d924d     ...?S-]?.:.?M.]?
   14168:	3eff17b2 3f5df6be 3efdbabb 3f5e5aa6     ...>..]?...>.Z^?
   14178:	3efc5d27 3f5ebe05 3efafef7 3f5f20db     '].>..^?...>. _?
   14188:	3ef9a02d 3f5f8327 3ef840c8 3f5fe4e9     -..>'._?.@.>.._?
   14198:	3ef6e0cb 3f604621 3ef58035 3f60a6cf     ...>!F`?5..>..`?
   141a8:	3ef41f07 3f6106f2 3ef2bd43 3f61668a     ...>..a?C..>.fa?
   141b8:	3ef15aea 3f61c598 3eeff7fb 3f62241a     .Z.>..a?...>.$b?
   141c8:	3eee9479 3f628210 3eed3063 3f62df7b     y..>..b?c0.>{.b?
   141d8:	3eebcbbb 3f633c5a 3eea6681 3f6398ac     ...>Z<c?.f.>..c?
   141e8:	3ee900b7 3f63f473 3ee79a5d 3f644fac     ...>s.c?]..>.Od?
   141f8:	3ee63375 3f64aa59 3ee4cbfe 3f650479     u3.>Y.d?...>y.e?
   14208:	3ee363fa 3f655e0b 3ee1fb6a 3f65b710     .c.>.^e?j..>..e?
   14218:	3ee0924f 3f660f88 3edf28a9 3f666771     O..>..f?.(.>qgf?
   14228:	3eddbe79 3f66becc 3edc53c1 3f671599     y..>..f?.S.>..g?
   14238:	3edae880 3f676bd8 3ed97cb9 3f67c187     ...>.kg?.|.>..g?
   14248:	3ed8106b 3f6816a8 3ed6a399 3f686b39     k..>..h?...>9kh?
   14258:	3ed53641 3f68bf3c 3ed3c867 3f6912ae     A6.><.h?g..>..i?
   14268:	3ed25a09 3f696591 3ed0eb2a 3f69b7e4     .Z.>.ei?*..>..i?
   14278:	3ecf7bca 3f6a09a7 3ece0bea 3f6a5ad9     .{.>..j?...>.Zj?
   14288:	3ecc9b8b 3f6aab7b 3ecb2aae 3f6afb8c     ...>{.j?.*.>..j?
   14298:	3ec9b953 3f6b4b0c 3ec8477c 3f6b99fb     S..>.Kk?|G.>..k?
   142a8:	3ec6d529 3f6be858 3ec5625c 3f6c3624     )..>X.k?\b.>$6l?
   142b8:	3ec3ef15 3f6c835e 3ec27b55 3f6cd007     ...>^.l?U{.>..l?
   142c8:	3ec1071e 3f6d1c1d 3ebf926f 3f6d67a1     ...>..m?o..>.gm?
   142d8:	3ebe1d4a 3f6db293 3ebca7af 3f6dfcf2     J..>..m?...>..m?
   142e8:	3ebb31a0 3f6e46be 3eb9bb1e 3f6e8ff8     .1.>.Fn?...>..n?
   142f8:	3eb8442a 3f6ed89e 3eb6ccc3 3f6f20b0     *D.>..n?...>. o?
   14308:	3eb554ec 3f6f6830 3eb3dca5 3f6faf1b     .T.>0ho?...>..o?
   14318:	3eb263ef 3f6ff573 3eb0eacb 3f703b37     .c.>s.o?...>7;p?
   14328:	3eaf713a 3f708066 3eadf73c 3f70c502     :q.>f.p?<..>..p?
   14338:	3eac7cd4 3f710908 3eab0201 3f714c7a     .|.>..q?...>zLq?
   14348:	3ea986c4 3f718f57 3ea80b1f 3f71d19f     ...>W.q?...>..q?
   14358:	3ea68f12 3f721352 3ea5129f 3f725470     ...>R.r?...>pTr?
   14368:	3ea395c5 3f7294f8 3ea21887 3f72d4eb     ...>..r?...>..r?
   14378:	3ea09ae5 3f731447 3e9f1cdf 3f73530e     ...>G.s?...>.Ss?
   14388:	3e9d9e78 3f73913f 3e9c1faf 3f73ced9     x..>?.s?...>..s?
   14398:	3e9aa086 3f740bdd 3e9920fe 3f74484b     ...>..t?. .>KHt?
   143a8:	3e97a117 3f748422 3e9620d2 3f74bf62     ...>".t?. .>b.t?
   143b8:	3e94a031 3f74fa0b 3e931f35 3f75341d     1..>..t?5..>.4u?
   143c8:	3e919ddd 3f756d97 3e901c2c 3f75a67b     ...>.mu?,..>{.u?
   143d8:	3e8e9a22 3f75dec6 3e8d17c0 3f76167a     "..>..u?...>z.v?
   143e8:	3e8b9507 3f764d97 3e8a11f8 3f76841b     ...>.Mv?...>..v?
   143f8:	3e888e93 3f76ba07 3e870ada 3f76ef5b     ...>..v?...>[.v?
   14408:	3e8586ce 3f772417 3e840270 3f77583a     ...>.$w?p..>:Xw?
   14418:	3e827dc0 3f778bc5 3e80f8c0 3f77beb7     .}.>..w?...>..w?
   14428:	3e7ee6e1 3f77f110 3e7bdba4 3f7822d1     ..~>..w?..{>."x?
   14438:	3e78cfcc 3f7853f8 3e75c35a 3f788486     ..x>.Sx?Z.u>..x?
   14448:	3e72b651 3f78b47b 3e6fa8b2 3f78e3d6     Q.r>{.x?..o>..x?
   14458:	3e6c9a7f 3f791298 3e698bba 3f7940c0     ..l>..y?..i>.@y?
   14468:	3e667c66 3f796e4e 3e636c83 3f799b43     f|f>Nny?.lc>C.y?
   14478:	3e605c13 3f79c79d 3e5d4b1a 3f79f35e     .\`>..y?.K]>^.y?
   14488:	3e5a3997 3f7a1e84 3e57278f 3f7a4910     .9Z>..z?.'W>.Iz?
   14498:	3e541501 3f7a7302 3e5101f1 3f7a9c59     ..T>.sz?..Q>Y.z?
   144a8:	3e4dee60 3f7ac516 3e4ada4f 3f7aed37     `.M>..z?O.J>7.z?
   144b8:	3e47c5c2 3f7b14be 3e44b0b9 3f7b3bab     ..G>..{?..D>.;{?
   144c8:	3e419b37 3f7b61fc 3e3e853e 3f7b87b2     7.A>.a{?>.>>..{?
   144d8:	3e3b6ecf 3f7baccd 3e3857ec 3f7bd14d     .n;>..{?.W8>M.{?
   144e8:	3e354098 3f7bf531 3e3228d4 3f7c187a     .@5>1.{?.(2>z.|?
   144f8:	3e2f10a2 3f7c3b28 3e2bf804 3f7c5d3a     ../>(;|?..+>:]|?
   14508:	3e28defc 3f7c7eb0 3e25c58c 3f7c9f8a     ..(>.~|?..%>..|?
   14518:	3e22abb6 3f7cbfc9 3e1f917b 3f7cdf6c     ..">..|?{..>l.|?
   14528:	3e1c76de 3f7cfe73 3e195be0 3f7d1cdd     .v.>s.|?.[.>..}?
   14538:	3e164083 3f7d3aac 3e1324ca 3f7d57de     .@.>.:}?.$.>.W}?
   14548:	3e1008b7 3f7d7474 3e0cec4a 3f7d906e     ...>tt}?J..>n.}?
   14558:	3e09cf86 3f7dabcc 3e06b26e 3f7dc68c     ...>..}?n..>..}?
   14568:	3e039502 3f7de0b1 3e007745 3f7dfa38     ...>..}?Ew.>8.}?
   14578:	3dfab273 3f7e1324 3df475c0 3f7e2b72     s..=$.~?.u.=r+~?
   14588:	3dee3876 3f7e4323 3de7fa9a 3f7e5a38     v8.=#C~?...=8Z~?
   14598:	3de1bc2e 3f7e70b0 3ddb7d37 3f7e868b     ...=.p~?7}.=..~?
   145a8:	3dd53db9 3f7e9bc9 3dcefdb7 3f7eb069     .=.=..~?...=i.~?
   145b8:	3dc8bd36 3f7ec46d 3dc27c39 3f7ed7d4     6..=m.~?9|.=..~?
   145c8:	3dbc3ac3 3f7eea9d 3db5f8da 3f7efcc9     .:.=..~?...=..~?
   145d8:	3dafb680 3f7f0e58 3da973ba 3f7f1f49     ...=X..?.s.=I..?
   145e8:	3da3308c 3f7f2f9d 3d9cecf9 3f7f3f54     .0.=./.?...=T?.?
   145f8:	3d96a905 3f7f4e6d 3d9064b4 3f7f5ce9     ...=mN.?.d.=.\.?
   14608:	3d8a200a 3f7f6ac7 3d83db0a 3f7f7808     . .=.j.?...=.x.?
   14618:	3d7b2b74 3f7f84ab 3d6ea038 3f7f90b1     t+{=...?8.n=...?
   14628:	3d621468 3f7f9c18 3d55880e 3f7fa6e3     h.b=...?..U=...?
   14638:	3d48fb2f 3f7fb10f 3d3c6dd5 3f7fba9e     /.H=...?.m<=...?
   14648:	3d2fe007 3f7fc38f 3d2351cc 3f7fcbe2     ../=...?.Q#=...?
   14658:	3d16c32c 3f7fd398 3d0a342f 3f7fdaaf     ,..=...?/4.=...?
   14668:	3cfb49b9 3f7fe129 3ce22a7b 3f7fe705     .I.<)..?{*.<...?
   14678:	3cc90ab0 3f7fec43 3cafea69 3f7ff0e3     ...<C..?i..<...?
   14688:	3c96c9b6 3f7ff4e6 3c7b514b 3f7ff84a     ...<...?KQ{<J..?
   14698:	3c490e90 3f7ffb11 3c16cb59 3f7ffd39     ..I<...?Y..<9..?
   146a8:	3bc90f89 3f7ffec4 3b490fc7 3f7fffb1     ...;...?..I;...?
   146b8:	00000000 3f800000 bb490fc7 3f7fffb1     .......?..I....?
   146c8:	bbc90f89 3f7ffec4 bc16cb59 3f7ffd39     .......?Y...9..?
   146d8:	bc490e90 3f7ffb11 bc7b514b 3f7ff84a     ..I....?KQ{.J..?
   146e8:	bc96c9b6 3f7ff4e6 bcafea69 3f7ff0e3     .......?i......?
   146f8:	bcc90ab0 3f7fec43 bce22a7b 3f7fe705     ....C..?{*.....?
   14708:	bcfb49b9 3f7fe129 bd0a342f 3f7fdaaf     .I..)..?/4.....?
   14718:	bd16c32c 3f7fd398 bd2351cc 3f7fcbe2     ,......?.Q#....?
   14728:	bd2fe007 3f7fc38f bd3c6dd5 3f7fba9e     ../....?.m<....?
   14738:	bd48fb2f 3f7fb10f bd55880e 3f7fa6e3     /.H....?..U....?
   14748:	bd621468 3f7f9c18 bd6ea038 3f7f90b1     h.b....?8.n....?
   14758:	bd7b2b74 3f7f84ab bd83db0a 3f7f7808     t+{....?.....x.?
   14768:	bd8a200a 3f7f6ac7 bd9064b4 3f7f5ce9     . ...j.?.d...\.?
   14778:	bd96a905 3f7f4e6d bd9cecf9 3f7f3f54     ....mN.?....T?.?
   14788:	bda3308c 3f7f2f9d bda973ba 3f7f1f49     .0.../.?.s..I..?
   14798:	bdafb680 3f7f0e58 bdb5f8da 3f7efcc9     ....X..?......~?
   147a8:	bdbc3ac3 3f7eea9d bdc27c39 3f7ed7d4     .:....~?9|....~?
   147b8:	bdc8bd36 3f7ec46d bdcefdb7 3f7eb069     6...m.~?....i.~?
   147c8:	bdd53db9 3f7e9bc9 bddb7d37 3f7e868b     .=....~?7}....~?
   147d8:	bde1bc2e 3f7e70b0 bde7fa9a 3f7e5a38     .....p~?....8Z~?
   147e8:	bdee3876 3f7e4323 bdf475c0 3f7e2b72     v8..#C~?.u..r+~?
   147f8:	bdfab273 3f7e1324 be007745 3f7dfa38     s...$.~?Ew..8.}?
   14808:	be039502 3f7de0b1 be06b26e 3f7dc68c     ......}?n.....}?
   14818:	be09cf86 3f7dabcc be0cec4a 3f7d906e     ......}?J...n.}?
   14828:	be1008b7 3f7d7474 be1324ca 3f7d57de     ....tt}?.$...W}?
   14838:	be164083 3f7d3aac be195be0 3f7d1cdd     .@...:}?.[....}?
   14848:	be1c76de 3f7cfe73 be1f917b 3f7cdf6c     .v..s.|?{...l.|?
   14858:	be22abb6 3f7cbfc9 be25c58c 3f7c9f8a     .."...|?..%...|?
   14868:	be28defc 3f7c7eb0 be2bf804 3f7c5d3a     ..(..~|?..+.:]|?
   14878:	be2f10a2 3f7c3b28 be3228d4 3f7c187a     ../.(;|?.(2.z.|?
   14888:	be354098 3f7bf531 be3857ec 3f7bd14d     .@5.1.{?.W8.M.{?
   14898:	be3b6ecf 3f7baccd be3e853e 3f7b87b2     .n;...{?>.>...{?
   148a8:	be419b37 3f7b61fc be44b0b9 3f7b3bab     7.A..a{?..D..;{?
   148b8:	be47c5c2 3f7b14be be4ada4f 3f7aed37     ..G...{?O.J.7.z?
   148c8:	be4dee60 3f7ac516 be5101f1 3f7a9c59     `.M...z?..Q.Y.z?
   148d8:	be541501 3f7a7302 be57278f 3f7a4910     ..T..sz?.'W..Iz?
   148e8:	be5a3997 3f7a1e84 be5d4b1a 3f79f35e     .9Z...z?.K].^.y?
   148f8:	be605c13 3f79c79d be636c83 3f799b43     .\`...y?.lc.C.y?
   14908:	be667c66 3f796e4e be698bba 3f7940c0     f|f.Nny?..i..@y?
   14918:	be6c9a7f 3f791298 be6fa8b2 3f78e3d6     ..l...y?..o...x?
   14928:	be72b651 3f78b47b be75c35a 3f788486     Q.r.{.x?Z.u...x?
   14938:	be78cfcc 3f7853f8 be7bdba4 3f7822d1     ..x..Sx?..{.."x?
   14948:	be7ee6e1 3f77f110 be80f8c0 3f77beb7     ..~...w?......w?
   14958:	be827dc0 3f778bc5 be840270 3f77583a     .}....w?p...:Xw?
   14968:	be8586ce 3f772417 be870ada 3f76ef5b     .....$w?....[.v?
   14978:	be888e93 3f76ba07 be8a11f8 3f76841b     ......v?......v?
   14988:	be8b9507 3f764d97 be8d17c0 3f76167a     .....Mv?....z.v?
   14998:	be8e9a22 3f75dec6 be901c2c 3f75a67b     ".....u?,...{.u?
   149a8:	be919ddd 3f756d97 be931f35 3f75341d     .....mu?5....4u?
   149b8:	be94a031 3f74fa0b be9620d2 3f74bf62     1.....t?. ..b.t?
   149c8:	be97a117 3f748422 be9920fe 3f74484b     ....".t?. ..KHt?
   149d8:	be9aa086 3f740bdd be9c1faf 3f73ced9     ......t?......s?
   149e8:	be9d9e78 3f73913f be9f1cdf 3f73530e     x...?.s?.....Ss?
   149f8:	bea09ae5 3f731447 bea21887 3f72d4eb     ....G.s?......r?
   14a08:	bea395c5 3f7294f8 bea5129f 3f725470     ......r?....pTr?
   14a18:	bea68f12 3f721352 bea80b1f 3f71d19f     ....R.r?......q?
   14a28:	bea986c4 3f718f57 beab0201 3f714c7a     ....W.q?....zLq?
   14a38:	beac7cd4 3f710908 beadf73c 3f70c502     .|....q?<.....p?
   14a48:	beaf713a 3f708066 beb0eacb 3f703b37     :q..f.p?....7;p?
   14a58:	beb263ef 3f6ff573 beb3dca5 3f6faf1b     .c..s.o?......o?
   14a68:	beb554ec 3f6f6830 beb6ccc3 3f6f20b0     .T..0ho?..... o?
   14a78:	beb8442a 3f6ed89e beb9bb1e 3f6e8ff8     *D....n?......n?
   14a88:	bebb31a0 3f6e46be bebca7af 3f6dfcf2     .1...Fn?......m?
   14a98:	bebe1d4a 3f6db293 bebf926f 3f6d67a1     J.....m?o....gm?
   14aa8:	bec1071e 3f6d1c1d bec27b55 3f6cd007     ......m?U{....l?
   14ab8:	bec3ef15 3f6c835e bec5625c 3f6c3624     ....^.l?\b..$6l?
   14ac8:	bec6d529 3f6be858 bec8477c 3f6b99fb     )...X.k?|G....k?
   14ad8:	bec9b953 3f6b4b0c becb2aae 3f6afb8c     S....Kk?.*....j?
   14ae8:	becc9b8b 3f6aab7b bece0bea 3f6a5ad9     ....{.j?.....Zj?
   14af8:	becf7bca 3f6a09a7 bed0eb2a 3f69b7e4     .{....j?*.....i?
   14b08:	bed25a09 3f696591 bed3c867 3f6912ae     .Z...ei?g.....i?
   14b18:	bed53641 3f68bf3c bed6a399 3f686b39     A6..<.h?....9kh?
   14b28:	bed8106b 3f6816a8 bed97cb9 3f67c187     k.....h?.|....g?
   14b38:	bedae880 3f676bd8 bedc53c1 3f671599     .....kg?.S....g?
   14b48:	beddbe79 3f66becc bedf28a9 3f666771     y.....f?.(..qgf?
   14b58:	bee0924f 3f660f88 bee1fb6a 3f65b710     O.....f?j.....e?
   14b68:	bee363fa 3f655e0b bee4cbfe 3f650479     .c...^e?....y.e?
   14b78:	bee63375 3f64aa59 bee79a5d 3f644fac     u3..Y.d?]....Od?
   14b88:	bee900b7 3f63f473 beea6681 3f6398ac     ....s.c?.f....c?
   14b98:	beebcbbb 3f633c5a beed3063 3f62df7b     ....Z<c?c0..{.b?
   14ba8:	beee9479 3f628210 beeff7fb 3f62241a     y.....b?.....$b?
   14bb8:	bef15aea 3f61c598 bef2bd43 3f61668a     .Z....a?C....fa?
   14bc8:	bef41f07 3f6106f2 bef58035 3f60a6cf     ......a?5.....`?
   14bd8:	bef6e0cb 3f604621 bef840c8 3f5fe4e9     ....!F`?.@...._?
   14be8:	bef9a02d 3f5f8327 befafef7 3f5f20db     -...'._?..... _?
   14bf8:	befc5d27 3f5ebe05 befdbabb 3f5e5aa6     ']....^?.....Z^?
   14c08:	beff17b2 3f5df6be bf003a06 3f5d924d     ......]?.:..M.]?
   14c18:	bf00e7e4 3f5d2d53 bf019573 3f5cc7d1     ....S-]?s.....\?
   14c28:	bf0242b1 3f5c61c7 bf02ef9f 3f5bfb34     .B...a\?....4.[?
   14c38:	bf039c3d 3f5b941a bf044889 3f5b2c79     =.....[?.H..y,[?
   14c48:	bf04f484 3f5ac450 bf05a02c 3f5a5ba0     ....P.Z?,....[Z?
   14c58:	bf064b82 3f59f26a bf06f686 3f5988ad     .K..j.Y?......Y?
   14c68:	bf07a136 3f591e6a bf084b92 3f58b3a1     6...j.Y?.K....X?
   14c78:	bf08f59b 3f584853 bf099f4e 3f57dc7f     ....SHX?N.....W?
   14c88:	bf0a48ad 3f577026 bf0af1b7 3f570348     .H..&pW?....H.W?
   14c98:	bf0b9a6b 3f5695e5 bf0c42c9 3f5627fe     k.....V?.B...'V?
   14ca8:	bf0cead0 3f55b993 bf0d9281 3f554aa4     ......U?.....JU?
   14cb8:	bf0e39da 3f54db31 bf0ee0db 3f546b3b     .9..1.T?....;kT?
   14cc8:	bf0f8784 3f53fac3 bf102dd5 3f5389c7     ......S?.-....S?
   14cd8:	bf10d3cd 3f531849 bf11796b 3f52a649     ....I.S?ky..I.R?
   14ce8:	bf121eb0 3f5233c6 bf12c39a 3f51c0c2     .....3R?......Q?
   14cf8:	bf13682a 3f514d3d bf140c5f 3f50d937     *h..=MQ?_...7.P?
   14d08:	bf14b039 3f5064af bf1553b7 3f4fefa8     9....dP?.S....O?
   14d18:	bf15f6d9 3f4f7a1f bf16999f 3f4f0417     .....zO?......O?
   14d28:	bf173c07 3f4e8d90 bf17de12 3f4e1689     .<....N?......N?
   14d38:	bf187fc0 3f4d9f02 bf19210f 3f4d26fd     ......M?.!...&M?
   14d48:	bf19c200 3f4cae79 bf1a6293 3f4c3578     ....y.L?.b..x5L?
   14d58:	bf1b02c6 3f4bbbf8 bf1ba299 3f4b41fa     ......K?.....AK?
   14d68:	bf1c420c 3f4ac77f bf1ce11f 3f4a4c87     .B....J?.....LJ?
   14d78:	bf1d7fd1 3f49d112 bf1e1e22 3f495521     ......I?"...!UI?
   14d88:	bf1ebc12 3f48d8b3 bf1f599f 3f485bca     ......H?.Y...[H?
   14d98:	bf1ff6cb 3f47de65 bf209393 3f476085     ....e.G?.. ..`G?
   14da8:	bf212ff9 3f46e22a bf21cbfb 3f466354     ./!.*.F?..!.TcF?
   14db8:	bf226799 3f45e403 bf2302d3 3f456439     .g"...E?..#.9dE?
   14dc8:	bf239da9 3f44e3f5 bf24381a 3f446337     ..#...D?.8$.7cD?
   14dd8:	bf24d225 3f43e200 bf256bcb 3f436051     %.$...C?.k%.Q`C?
   14de8:	bf26050a 3f42de29 bf269de3 3f425b89     ..&.).B?..&..[B?
   14df8:	bf273656 3f41d870 bf27ce61 3f4154e1     V6'.p.A?a.'..TA?
   14e08:	bf286605 3f40d0da bf28fd41 3f404c5c     .f(...@?A.(.\L@?
   14e18:	bf299415 3f3fc767 bf2a2a80 3f3f41fc     ..).g.??.**..A??
   14e28:	bf2ac082 3f3ebc1b bf2b561b 3f3e35c5     ..*...>?.V+..5>?
   14e38:	bf2beb4a 3f3daef9 bf2c800f 3f3d27b8     J.+...=?..,..'=?
   14e48:	bf2d1469 3f3ca003 bf2da859 3f3c17d9     i.-...<?Y.-...<?
   14e58:	bf2e3bde 3f3b8f3b bf2ecef7 3f3b0629     .;..;.;?....).;?
   14e68:	bf2f61a5 3f3a7ca4 bf2ff3e6 3f39f2ac     .a/..|:?../...9?
   14e78:	bf3085bb 3f396842 bf311722 3f38dd65     ..0.Bh9?".1.e.8?
   14e88:	bf31a81d 3f385216 bf3238aa 3f37c655     ..1..R8?.82.U.7?
   14e98:	bf32c8c9 3f373a23 bf33587a 3f36ad7f     ..2.#:7?zX3...6?
   14ea8:	bf33e7bc 3f36206c bf34768f 3f3592e7     ..3.l 6?.v4...5?
   14eb8:	bf3504f3 3f3504f3 bf3592e7 3f34768f     ..5...5?..5..v4?
   14ec8:	bf36206c 3f33e7bc bf36ad7f 3f33587a     l 6...3?..6.zX3?
   14ed8:	bf373a23 3f32c8c9 bf37c655 3f3238aa     #:7...2?U.7..82?
   14ee8:	bf385216 3f31a81d bf38dd65 3f311722     .R8...1?e.8.".1?
   14ef8:	bf396842 3f3085bb bf39f2ac 3f2ff3e6     Bh9...0?..9.../?
   14f08:	bf3a7ca4 3f2f61a5 bf3b0629 3f2ecef7     .|:..a/?).;....?
   14f18:	bf3b8f3b 3f2e3bde bf3c17d9 3f2da859     ;.;..;.?..<.Y.-?
   14f28:	bf3ca003 3f2d1469 bf3d27b8 3f2c800f     ..<.i.-?.'=...,?
   14f38:	bf3daef9 3f2beb4a bf3e35c5 3f2b561b     ..=.J.+?.5>..V+?
   14f48:	bf3ebc1b 3f2ac082 bf3f41fc 3f2a2a80     ..>...*?.A?..**?
   14f58:	bf3fc767 3f299415 bf404c5c 3f28fd41     g.?...)?\L@.A.(?
   14f68:	bf40d0da 3f286605 bf4154e1 3f27ce61     ..@..f(?.TA.a.'?
   14f78:	bf41d870 3f273656 bf425b89 3f269de3     p.A.V6'?.[B...&?
   14f88:	bf42de29 3f26050a bf436051 3f256bcb     ).B...&?Q`C..k%?
   14f98:	bf43e200 3f24d225 bf446337 3f24381a     ..C.%.$?7cD..8$?
   14fa8:	bf44e3f5 3f239da9 bf456439 3f2302d3     ..D...#?9dE...#?
   14fb8:	bf45e403 3f226799 bf466354 3f21cbfb     ..E..g"?TcF...!?
   14fc8:	bf46e22a 3f212ff9 bf476085 3f209393     *.F../!?.`G... ?
   14fd8:	bf47de65 3f1ff6cb bf485bca 3f1f599f     e.G....?.[H..Y.?
   14fe8:	bf48d8b3 3f1ebc12 bf495521 3f1e1e22     ..H....?!UI."..?
   14ff8:	bf49d112 3f1d7fd1 bf4a4c87 3f1ce11f     ..I....?.LJ....?
   15008:	bf4ac77f 3f1c420c bf4b41fa 3f1ba299     ..J..B.?.AK....?
   15018:	bf4bbbf8 3f1b02c6 bf4c3578 3f1a6293     ..K....?x5L..b.?
   15028:	bf4cae79 3f19c200 bf4d26fd 3f19210f     y.L....?.&M..!.?
   15038:	bf4d9f02 3f187fc0 bf4e1689 3f17de12     ..M....?..N....?
   15048:	bf4e8d90 3f173c07 bf4f0417 3f16999f     ..N..<.?..O....?
   15058:	bf4f7a1f 3f15f6d9 bf4fefa8 3f1553b7     .zO....?..O..S.?
   15068:	bf5064af 3f14b039 bf50d937 3f140c5f     .dP.9..?7.P._..?
   15078:	bf514d3d 3f13682a bf51c0c2 3f12c39a     =MQ.*h.?..Q....?
   15088:	bf5233c6 3f121eb0 bf52a649 3f11796b     .3R....?I.R.ky.?
   15098:	bf531849 3f10d3cd bf5389c7 3f102dd5     I.S....?..S..-.?
   150a8:	bf53fac3 3f0f8784 bf546b3b 3f0ee0db     ..S....?;kT....?
   150b8:	bf54db31 3f0e39da bf554aa4 3f0d9281     1.T..9.?.JU....?
   150c8:	bf55b993 3f0cead0 bf5627fe 3f0c42c9     ..U....?.'V..B.?
   150d8:	bf5695e5 3f0b9a6b bf570348 3f0af1b7     ..V.k..?H.W....?
   150e8:	bf577026 3f0a48ad bf57dc7f 3f099f4e     &pW..H.?..W.N..?
   150f8:	bf584853 3f08f59b bf58b3a1 3f084b92     SHX....?..X..K.?
   15108:	bf591e6a 3f07a136 bf5988ad 3f06f686     j.Y.6..?..Y....?
   15118:	bf59f26a 3f064b82 bf5a5ba0 3f05a02c     j.Y..K.?.[Z.,..?
   15128:	bf5ac450 3f04f484 bf5b2c79 3f044889     P.Z....?y,[..H.?
   15138:	bf5b941a 3f039c3d bf5bfb34 3f02ef9f     ..[.=..?4.[....?
   15148:	bf5c61c7 3f0242b1 bf5cc7d1 3f019573     .a\..B.?..\.s..?
   15158:	bf5d2d53 3f00e7e4 bf5d924d 3f003a06     S-]....?M.]..:.?
   15168:	bf5df6be 3eff17b2 bf5e5aa6 3efdbabb     ..]....>.Z^....>
   15178:	bf5ebe05 3efc5d27 bf5f20db 3efafef7     ..^.'].>. _....>
   15188:	bf5f8327 3ef9a02d bf5fe4e9 3ef840c8     '._.-..>.._..@.>
   15198:	bf604621 3ef6e0cb bf60a6cf 3ef58035     !F`....>..`.5..>
   151a8:	bf6106f2 3ef41f07 bf61668a 3ef2bd43     ..a....>.fa.C..>
   151b8:	bf61c598 3ef15aea bf62241a 3eeff7fb     ..a..Z.>.$b....>
   151c8:	bf628210 3eee9479 bf62df7b 3eed3063     ..b.y..>{.b.c0.>
   151d8:	bf633c5a 3eebcbbb bf6398ac 3eea6681     Z<c....>..c..f.>
   151e8:	bf63f473 3ee900b7 bf644fac 3ee79a5d     s.c....>.Od.]..>
   151f8:	bf64aa59 3ee63375 bf650479 3ee4cbfe     Y.d.u3.>y.e....>
   15208:	bf655e0b 3ee363fa bf65b710 3ee1fb6a     .^e..c.>..e.j..>
   15218:	bf660f88 3ee0924f bf666771 3edf28a9     ..f.O..>qgf..(.>
   15228:	bf66becc 3eddbe79 bf671599 3edc53c1     ..f.y..>..g..S.>
   15238:	bf676bd8 3edae880 bf67c187 3ed97cb9     .kg....>..g..|.>
   15248:	bf6816a8 3ed8106b bf686b39 3ed6a399     ..h.k..>9kh....>
   15258:	bf68bf3c 3ed53641 bf6912ae 3ed3c867     <.h.A6.>..i.g..>
   15268:	bf696591 3ed25a09 bf69b7e4 3ed0eb2a     .ei..Z.>..i.*..>
   15278:	bf6a09a7 3ecf7bca bf6a5ad9 3ece0bea     ..j..{.>.Zj....>
   15288:	bf6aab7b 3ecc9b8b bf6afb8c 3ecb2aae     {.j....>..j..*.>
   15298:	bf6b4b0c 3ec9b953 bf6b99fb 3ec8477c     .Kk.S..>..k.|G.>
   152a8:	bf6be858 3ec6d529 bf6c3624 3ec5625c     X.k.)..>$6l.\b.>
   152b8:	bf6c835e 3ec3ef15 bf6cd007 3ec27b55     ^.l....>..l.U{.>
   152c8:	bf6d1c1d 3ec1071e bf6d67a1 3ebf926f     ..m....>.gm.o..>
   152d8:	bf6db293 3ebe1d4a bf6dfcf2 3ebca7af     ..m.J..>..m....>
   152e8:	bf6e46be 3ebb31a0 bf6e8ff8 3eb9bb1e     .Fn..1.>..n....>
   152f8:	bf6ed89e 3eb8442a bf6f20b0 3eb6ccc3     ..n.*D.>. o....>
   15308:	bf6f6830 3eb554ec bf6faf1b 3eb3dca5     0ho..T.>..o....>
   15318:	bf6ff573 3eb263ef bf703b37 3eb0eacb     s.o..c.>7;p....>
   15328:	bf708066 3eaf713a bf70c502 3eadf73c     f.p.:q.>..p.<..>
   15338:	bf710908 3eac7cd4 bf714c7a 3eab0201     ..q..|.>zLq....>
   15348:	bf718f57 3ea986c4 bf71d19f 3ea80b1f     W.q....>..q....>
   15358:	bf721352 3ea68f12 bf725470 3ea5129f     R.r....>pTr....>
   15368:	bf7294f8 3ea395c5 bf72d4eb 3ea21887     ..r....>..r....>
   15378:	bf731447 3ea09ae5 bf73530e 3e9f1cdf     G.s....>.Ss....>
   15388:	bf73913f 3e9d9e78 bf73ced9 3e9c1faf     ?.s.x..>..s....>
   15398:	bf740bdd 3e9aa086 bf74484b 3e9920fe     ..t....>KHt.. .>
   153a8:	bf748422 3e97a117 bf74bf62 3e9620d2     ".t....>b.t.. .>
   153b8:	bf74fa0b 3e94a031 bf75341d 3e931f35     ..t.1..>.4u.5..>
   153c8:	bf756d97 3e919ddd bf75a67b 3e901c2c     .mu....>{.u.,..>
   153d8:	bf75dec6 3e8e9a22 bf76167a 3e8d17c0     ..u."..>z.v....>
   153e8:	bf764d97 3e8b9507 bf76841b 3e8a11f8     .Mv....>..v....>
   153f8:	bf76ba07 3e888e93 bf76ef5b 3e870ada     ..v....>[.v....>
   15408:	bf772417 3e8586ce bf77583a 3e840270     .$w....>:Xw.p..>
   15418:	bf778bc5 3e827dc0 bf77beb7 3e80f8c0     ..w..}.>..w....>
   15428:	bf77f110 3e7ee6e1 bf7822d1 3e7bdba4     ..w...~>."x...{>
   15438:	bf7853f8 3e78cfcc bf788486 3e75c35a     .Sx...x>..x.Z.u>
   15448:	bf78b47b 3e72b651 bf78e3d6 3e6fa8b2     {.x.Q.r>..x...o>
   15458:	bf791298 3e6c9a7f bf7940c0 3e698bba     ..y...l>.@y...i>
   15468:	bf796e4e 3e667c66 bf799b43 3e636c83     Nny.f|f>C.y..lc>
   15478:	bf79c79d 3e605c13 bf79f35e 3e5d4b1a     ..y..\`>^.y..K]>
   15488:	bf7a1e84 3e5a3997 bf7a4910 3e57278f     ..z..9Z>.Iz..'W>
   15498:	bf7a7302 3e541501 bf7a9c59 3e5101f1     .sz...T>Y.z...Q>
   154a8:	bf7ac516 3e4dee60 bf7aed37 3e4ada4f     ..z.`.M>7.z.O.J>
   154b8:	bf7b14be 3e47c5c2 bf7b3bab 3e44b0b9     ..{...G>.;{...D>
   154c8:	bf7b61fc 3e419b37 bf7b87b2 3e3e853e     .a{.7.A>..{.>.>>
   154d8:	bf7baccd 3e3b6ecf bf7bd14d 3e3857ec     ..{..n;>M.{..W8>
   154e8:	bf7bf531 3e354098 bf7c187a 3e3228d4     1.{..@5>z.|..(2>
   154f8:	bf7c3b28 3e2f10a2 bf7c5d3a 3e2bf804     (;|.../>:]|...+>
   15508:	bf7c7eb0 3e28defc bf7c9f8a 3e25c58c     .~|...(>..|...%>
   15518:	bf7cbfc9 3e22abb6 bf7cdf6c 3e1f917b     ..|...">l.|.{..>
   15528:	bf7cfe73 3e1c76de bf7d1cdd 3e195be0     s.|..v.>..}..[.>
   15538:	bf7d3aac 3e164083 bf7d57de 3e1324ca     .:}..@.>.W}..$.>
   15548:	bf7d7474 3e1008b7 bf7d906e 3e0cec4a     tt}....>n.}.J..>
   15558:	bf7dabcc 3e09cf86 bf7dc68c 3e06b26e     ..}....>..}.n..>
   15568:	bf7de0b1 3e039502 bf7dfa38 3e007745     ..}....>8.}.Ew.>
   15578:	bf7e1324 3dfab273 bf7e2b72 3df475c0     $.~.s..=r+~..u.=
   15588:	bf7e4323 3dee3876 bf7e5a38 3de7fa9a     #C~.v8.=8Z~....=
   15598:	bf7e70b0 3de1bc2e bf7e868b 3ddb7d37     .p~....=..~.7}.=
   155a8:	bf7e9bc9 3dd53db9 bf7eb069 3dcefdb7     ..~..=.=i.~....=
   155b8:	bf7ec46d 3dc8bd36 bf7ed7d4 3dc27c39     m.~.6..=..~.9|.=
   155c8:	bf7eea9d 3dbc3ac3 bf7efcc9 3db5f8da     ..~..:.=..~....=
   155d8:	bf7f0e58 3dafb680 bf7f1f49 3da973ba     X......=I....s.=
   155e8:	bf7f2f9d 3da3308c bf7f3f54 3d9cecf9     ./...0.=T?.....=
   155f8:	bf7f4e6d 3d96a905 bf7f5ce9 3d9064b4     mN.....=.\...d.=
   15608:	bf7f6ac7 3d8a200a bf7f7808 3d83db0a     .j... .=.x.....=
   15618:	bf7f84ab 3d7b2b74 bf7f90b1 3d6ea038     ....t+{=....8.n=
   15628:	bf7f9c18 3d621468 bf7fa6e3 3d55880e     ....h.b=......U=
   15638:	bf7fb10f 3d48fb2f bf7fba9e 3d3c6dd5     ..../.H=.....m<=
   15648:	bf7fc38f 3d2fe007 bf7fcbe2 3d2351cc     ....../=.....Q#=
   15658:	bf7fd398 3d16c32c bf7fdaaf 3d0a342f     ....,..=..../4.=
   15668:	bf7fe129 3cfb49b9 bf7fe705 3ce22a7b     )....I.<....{*.<
   15678:	bf7fec43 3cc90ab0 bf7ff0e3 3cafea69     C......<....i..<
   15688:	bf7ff4e6 3c96c9b6 bf7ff84a 3c7b514b     .......<J...KQ{<
   15698:	bf7ffb11 3c490e90 bf7ffd39 3c16cb59     ......I<9...Y..<
   156a8:	bf7ffec4 3bc90f89 bf7fffb1 3b490fc7     .......;......I;
   156b8:	bf800000 00000000 bf7fffb1 bb490fc7     ..............I.
   156c8:	bf7ffec4 bbc90f89 bf7ffd39 bc16cb59     ........9...Y...
   156d8:	bf7ffb11 bc490e90 bf7ff84a bc7b514b     ......I.J...KQ{.
   156e8:	bf7ff4e6 bc96c9b6 bf7ff0e3 bcafea69     ............i...
   156f8:	bf7fec43 bcc90ab0 bf7fe705 bce22a7b     C...........{*..
   15708:	bf7fe129 bcfb49b9 bf7fdaaf bd0a342f     )....I....../4..
   15718:	bf7fd398 bd16c32c bf7fcbe2 bd2351cc     ....,........Q#.
   15728:	bf7fc38f bd2fe007 bf7fba9e bd3c6dd5     ....../......m<.
   15738:	bf7fb10f bd48fb2f bf7fa6e3 bd55880e     ..../.H.......U.
   15748:	bf7f9c18 bd621468 bf7f90b1 bd6ea038     ....h.b.....8.n.
   15758:	bf7f84ab bd7b2b74 bf7f7808 bd83db0a     ....t+{..x......
   15768:	bf7f6ac7 bd8a200a bf7f5ce9 bd9064b4     .j... ...\...d..
   15778:	bf7f4e6d bd96a905 bf7f3f54 bd9cecf9     mN......T?......
   15788:	bf7f2f9d bda3308c bf7f1f49 bda973ba     ./...0..I....s..
   15798:	bf7f0e58 bdafb680 bf7efcc9 bdb5f8da     X.........~.....
   157a8:	bf7eea9d bdbc3ac3 bf7ed7d4 bdc27c39     ..~..:....~.9|..
   157b8:	bf7ec46d bdc8bd36 bf7eb069 bdcefdb7     m.~.6...i.~.....
   157c8:	bf7e9bc9 bdd53db9 bf7e868b bddb7d37     ..~..=....~.7}..
   157d8:	bf7e70b0 bde1bc2e bf7e5a38 bde7fa9a     .p~.....8Z~.....
   157e8:	bf7e4323 bdee3876 bf7e2b72 bdf475c0     #C~.v8..r+~..u..
   157f8:	bf7e1324 bdfab273 bf7dfa38 be007745     $.~.s...8.}.Ew..
   15808:	bf7de0b1 be039502 bf7dc68c be06b26e     ..}.......}.n...
   15818:	bf7dabcc be09cf86 bf7d906e be0cec4a     ..}.....n.}.J...
   15828:	bf7d7474 be1008b7 bf7d57de be1324ca     tt}......W}..$..
   15838:	bf7d3aac be164083 bf7d1cdd be195be0     .:}..@....}..[..
   15848:	bf7cfe73 be1c76de bf7cdf6c be1f917b     s.|..v..l.|.{...
   15858:	bf7cbfc9 be22abb6 bf7c9f8a be25c58c     ..|..."...|...%.
   15868:	bf7c7eb0 be28defc bf7c5d3a be2bf804     .~|...(.:]|...+.
   15878:	bf7c3b28 be2f10a2 bf7c187a be3228d4     (;|.../.z.|..(2.
   15888:	bf7bf531 be354098 bf7bd14d be3857ec     1.{..@5.M.{..W8.
   15898:	bf7baccd be3b6ecf bf7b87b2 be3e853e     ..{..n;...{.>.>.
   158a8:	bf7b61fc be419b37 bf7b3bab be44b0b9     .a{.7.A..;{...D.
   158b8:	bf7b14be be47c5c2 bf7aed37 be4ada4f     ..{...G.7.z.O.J.
   158c8:	bf7ac516 be4dee60 bf7a9c59 be5101f1     ..z.`.M.Y.z...Q.
   158d8:	bf7a7302 be541501 bf7a4910 be57278f     .sz...T..Iz..'W.
   158e8:	bf7a1e84 be5a3997 bf79f35e be5d4b1a     ..z..9Z.^.y..K].
   158f8:	bf79c79d be605c13 bf799b43 be636c83     ..y..\`.C.y..lc.
   15908:	bf796e4e be667c66 bf7940c0 be698bba     Nny.f|f..@y...i.
   15918:	bf791298 be6c9a7f bf78e3d6 be6fa8b2     ..y...l...x...o.
   15928:	bf78b47b be72b651 bf788486 be75c35a     {.x.Q.r...x.Z.u.
   15938:	bf7853f8 be78cfcc bf7822d1 be7bdba4     .Sx...x.."x...{.
   15948:	bf77f110 be7ee6e1 bf77beb7 be80f8c0     ..w...~...w.....
   15958:	bf778bc5 be827dc0 bf77583a be840270     ..w..}..:Xw.p...
   15968:	bf772417 be8586ce bf76ef5b be870ada     .$w.....[.v.....
   15978:	bf76ba07 be888e93 bf76841b be8a11f8     ..v.......v.....
   15988:	bf764d97 be8b9507 bf76167a be8d17c0     .Mv.....z.v.....
   15998:	bf75dec6 be8e9a22 bf75a67b be901c2c     ..u."...{.u.,...
   159a8:	bf756d97 be919ddd bf75341d be931f35     .mu......4u.5...
   159b8:	bf74fa0b be94a031 bf74bf62 be9620d2     ..t.1...b.t.. ..
   159c8:	bf748422 be97a117 bf74484b be9920fe     ".t.....KHt.. ..
   159d8:	bf740bdd be9aa086 bf73ced9 be9c1faf     ..t.......s.....
   159e8:	bf73913f be9d9e78 bf73530e be9f1cdf     ?.s.x....Ss.....
   159f8:	bf731447 bea09ae5 bf72d4eb bea21887     G.s.......r.....
   15a08:	bf7294f8 bea395c5 bf725470 bea5129f     ..r.....pTr.....
   15a18:	bf721352 bea68f12 bf71d19f bea80b1f     R.r.......q.....
   15a28:	bf718f57 bea986c4 bf714c7a beab0201     W.q.....zLq.....
   15a38:	bf710908 beac7cd4 bf70c502 beadf73c     ..q..|....p.<...
   15a48:	bf708066 beaf713a bf703b37 beb0eacb     f.p.:q..7;p.....
   15a58:	bf6ff573 beb263ef bf6faf1b beb3dca5     s.o..c....o.....
   15a68:	bf6f6830 beb554ec bf6f20b0 beb6ccc3     0ho..T... o.....
   15a78:	bf6ed89e beb8442a bf6e8ff8 beb9bb1e     ..n.*D....n.....
   15a88:	bf6e46be bebb31a0 bf6dfcf2 bebca7af     .Fn..1....m.....
   15a98:	bf6db293 bebe1d4a bf6d67a1 bebf926f     ..m.J....gm.o...
   15aa8:	bf6d1c1d bec1071e bf6cd007 bec27b55     ..m.......l.U{..
   15ab8:	bf6c835e bec3ef15 bf6c3624 bec5625c     ^.l.....$6l.\b..
   15ac8:	bf6be858 bec6d529 bf6b99fb bec8477c     X.k.).....k.|G..
   15ad8:	bf6b4b0c bec9b953 bf6afb8c becb2aae     .Kk.S.....j..*..
   15ae8:	bf6aab7b becc9b8b bf6a5ad9 bece0bea     {.j......Zj.....
   15af8:	bf6a09a7 becf7bca bf69b7e4 bed0eb2a     ..j..{....i.*...
   15b08:	bf696591 bed25a09 bf6912ae bed3c867     .ei..Z....i.g...
   15b18:	bf68bf3c bed53641 bf686b39 bed6a399     <.h.A6..9kh.....
   15b28:	bf6816a8 bed8106b bf67c187 bed97cb9     ..h.k.....g..|..
   15b38:	bf676bd8 bedae880 bf671599 bedc53c1     .kg.......g..S..
   15b48:	bf66becc beddbe79 bf666771 bedf28a9     ..f.y...qgf..(..
   15b58:	bf660f88 bee0924f bf65b710 bee1fb6a     ..f.O.....e.j...
   15b68:	bf655e0b bee363fa bf650479 bee4cbfe     .^e..c..y.e.....
   15b78:	bf64aa59 bee63375 bf644fac bee79a5d     Y.d.u3...Od.]...
   15b88:	bf63f473 bee900b7 bf6398ac beea6681     s.c.......c..f..
   15b98:	bf633c5a beebcbbb bf62df7b beed3063     Z<c.....{.b.c0..
   15ba8:	bf628210 beee9479 bf62241a beeff7fb     ..b.y....$b.....
   15bb8:	bf61c598 bef15aea bf61668a bef2bd43     ..a..Z...fa.C...
   15bc8:	bf6106f2 bef41f07 bf60a6cf bef58035     ..a.......`.5...
   15bd8:	bf604621 bef6e0cb bf5fe4e9 bef840c8     !F`......._..@..
   15be8:	bf5f8327 bef9a02d bf5f20db befafef7     '._.-.... _.....
   15bf8:	bf5ebe05 befc5d27 bf5e5aa6 befdbabb     ..^.']...Z^.....
   15c08:	bf5df6be beff17b2 bf5d924d bf003a06     ..].....M.]..:..
   15c18:	bf5d2d53 bf00e7e4 bf5cc7d1 bf019573     S-].......\.s...
   15c28:	bf5c61c7 bf0242b1 bf5bfb34 bf02ef9f     .a\..B..4.[.....
   15c38:	bf5b941a bf039c3d bf5b2c79 bf044889     ..[.=...y,[..H..
   15c48:	bf5ac450 bf04f484 bf5a5ba0 bf05a02c     P.Z......[Z.,...
   15c58:	bf59f26a bf064b82 bf5988ad bf06f686     j.Y..K....Y.....
   15c68:	bf591e6a bf07a136 bf58b3a1 bf084b92     j.Y.6.....X..K..
   15c78:	bf584853 bf08f59b bf57dc7f bf099f4e     SHX.......W.N...
   15c88:	bf577026 bf0a48ad bf570348 bf0af1b7     &pW..H..H.W.....
   15c98:	bf5695e5 bf0b9a6b bf5627fe bf0c42c9     ..V.k....'V..B..
   15ca8:	bf55b993 bf0cead0 bf554aa4 bf0d9281     ..U......JU.....
   15cb8:	bf54db31 bf0e39da bf546b3b bf0ee0db     1.T..9..;kT.....
   15cc8:	bf53fac3 bf0f8784 bf5389c7 bf102dd5     ..S.......S..-..
   15cd8:	bf531849 bf10d3cd bf52a649 bf11796b     I.S.....I.R.ky..
   15ce8:	bf5233c6 bf121eb0 bf51c0c2 bf12c39a     .3R.......Q.....
   15cf8:	bf514d3d bf13682a bf50d937 bf140c5f     =MQ.*h..7.P._...
   15d08:	bf5064af bf14b039 bf4fefa8 bf1553b7     .dP.9.....O..S..
   15d18:	bf4f7a1f bf15f6d9 bf4f0417 bf16999f     .zO.......O.....
   15d28:	bf4e8d90 bf173c07 bf4e1689 bf17de12     ..N..<....N.....
   15d38:	bf4d9f02 bf187fc0 bf4d26fd bf19210f     ..M......&M..!..
   15d48:	bf4cae79 bf19c200 bf4c3578 bf1a6293     y.L.....x5L..b..
   15d58:	bf4bbbf8 bf1b02c6 bf4b41fa bf1ba299     ..K......AK.....
   15d68:	bf4ac77f bf1c420c bf4a4c87 bf1ce11f     ..J..B...LJ.....
   15d78:	bf49d112 bf1d7fd1 bf495521 bf1e1e22     ..I.....!UI."...
   15d88:	bf48d8b3 bf1ebc12 bf485bca bf1f599f     ..H......[H..Y..
   15d98:	bf47de65 bf1ff6cb bf476085 bf209393     e.G......`G... .
   15da8:	bf46e22a bf212ff9 bf466354 bf21cbfb     *.F../!.TcF...!.
   15db8:	bf45e403 bf226799 bf456439 bf2302d3     ..E..g".9dE...#.
   15dc8:	bf44e3f5 bf239da9 bf446337 bf24381a     ..D...#.7cD..8$.
   15dd8:	bf43e200 bf24d225 bf436051 bf256bcb     ..C.%.$.Q`C..k%.
   15de8:	bf42de29 bf26050a bf425b89 bf269de3     ).B...&..[B...&.
   15df8:	bf41d870 bf273656 bf4154e1 bf27ce61     p.A.V6'..TA.a.'.
   15e08:	bf40d0da bf286605 bf404c5c bf28fd41     ..@..f(.\L@.A.(.
   15e18:	bf3fc767 bf299415 bf3f41fc bf2a2a80     g.?...)..A?..**.
   15e28:	bf3ebc1b bf2ac082 bf3e35c5 bf2b561b     ..>...*..5>..V+.
   15e38:	bf3daef9 bf2beb4a bf3d27b8 bf2c800f     ..=.J.+..'=...,.
   15e48:	bf3ca003 bf2d1469 bf3c17d9 bf2da859     ..<.i.-...<.Y.-.
   15e58:	bf3b8f3b bf2e3bde bf3b0629 bf2ecef7     ;.;..;..).;.....
   15e68:	bf3a7ca4 bf2f61a5 bf39f2ac bf2ff3e6     .|:..a/...9.../.
   15e78:	bf396842 bf3085bb bf38dd65 bf311722     Bh9...0.e.8.".1.
   15e88:	bf385216 bf31a81d bf37c655 bf3238aa     .R8...1.U.7..82.
   15e98:	bf373a23 bf32c8c9 bf36ad7f bf33587a     #:7...2...6.zX3.
   15ea8:	bf36206c bf33e7bc bf3592e7 bf34768f     l 6...3...5..v4.
   15eb8:	bf3504f3 bf3504f3 bf34768f bf3592e7     ..5...5..v4...5.
   15ec8:	bf33e7bc bf36206c bf33587a bf36ad7f     ..3.l 6.zX3...6.
   15ed8:	bf32c8c9 bf373a23 bf3238aa bf37c655     ..2.#:7..82.U.7.
   15ee8:	bf31a81d bf385216 bf311722 bf38dd65     ..1..R8.".1.e.8.
   15ef8:	bf3085bb bf396842 bf2ff3e6 bf39f2ac     ..0.Bh9.../...9.
   15f08:	bf2f61a5 bf3a7ca4 bf2ecef7 bf3b0629     .a/..|:.....).;.
   15f18:	bf2e3bde bf3b8f3b bf2da859 bf3c17d9     .;..;.;.Y.-...<.
   15f28:	bf2d1469 bf3ca003 bf2c800f bf3d27b8     i.-...<...,..'=.
   15f38:	bf2beb4a bf3daef9 bf2b561b bf3e35c5     J.+...=..V+..5>.
   15f48:	bf2ac082 bf3ebc1b bf2a2a80 bf3f41fc     ..*...>..**..A?.
   15f58:	bf299415 bf3fc767 bf28fd41 bf404c5c     ..).g.?.A.(.\L@.
   15f68:	bf286605 bf40d0da bf27ce61 bf4154e1     .f(...@.a.'..TA.
   15f78:	bf273656 bf41d870 bf269de3 bf425b89     V6'.p.A...&..[B.
   15f88:	bf26050a bf42de29 bf256bcb bf436051     ..&.).B..k%.Q`C.
   15f98:	bf24d225 bf43e200 bf24381a bf446337     %.$...C..8$.7cD.
   15fa8:	bf239da9 bf44e3f5 bf2302d3 bf456439     ..#...D...#.9dE.
   15fb8:	bf226799 bf45e403 bf21cbfb bf466354     .g"...E...!.TcF.
   15fc8:	bf212ff9 bf46e22a bf209393 bf476085     ./!.*.F... ..`G.
   15fd8:	bf1ff6cb bf47de65 bf1f599f bf485bca     ....e.G..Y...[H.
   15fe8:	bf1ebc12 bf48d8b3 bf1e1e22 bf495521     ......H."...!UI.
   15ff8:	bf1d7fd1 bf49d112 bf1ce11f bf4a4c87     ......I......LJ.
   16008:	bf1c420c bf4ac77f bf1ba299 bf4b41fa     .B....J......AK.
   16018:	bf1b02c6 bf4bbbf8 bf1a6293 bf4c3578     ......K..b..x5L.
   16028:	bf19c200 bf4cae79 bf19210f bf4d26fd     ....y.L..!...&M.
   16038:	bf187fc0 bf4d9f02 bf17de12 bf4e1689     ......M.......N.
   16048:	bf173c07 bf4e8d90 bf16999f bf4f0417     .<....N.......O.
   16058:	bf15f6d9 bf4f7a1f bf1553b7 bf4fefa8     .....zO..S....O.
   16068:	bf14b039 bf5064af bf140c5f bf50d937     9....dP._...7.P.
   16078:	bf13682a bf514d3d bf12c39a bf51c0c2     *h..=MQ.......Q.
   16088:	bf121eb0 bf5233c6 bf11796b bf52a649     .....3R.ky..I.R.
   16098:	bf10d3cd bf531849 bf102dd5 bf5389c7     ....I.S..-....S.
   160a8:	bf0f8784 bf53fac3 bf0ee0db bf546b3b     ......S.....;kT.
   160b8:	bf0e39da bf54db31 bf0d9281 bf554aa4     .9..1.T......JU.
   160c8:	bf0cead0 bf55b993 bf0c42c9 bf5627fe     ......U..B...'V.
   160d8:	bf0b9a6b bf5695e5 bf0af1b7 bf570348     k.....V.....H.W.
   160e8:	bf0a48ad bf577026 bf099f4e bf57dc7f     .H..&pW.N.....W.
   160f8:	bf08f59b bf584853 bf084b92 bf58b3a1     ....SHX..K....X.
   16108:	bf07a136 bf591e6a bf06f686 bf5988ad     6...j.Y.......Y.
   16118:	bf064b82 bf59f26a bf05a02c bf5a5ba0     .K..j.Y.,....[Z.
   16128:	bf04f484 bf5ac450 bf044889 bf5b2c79     ....P.Z..H..y,[.
   16138:	bf039c3d bf5b941a bf02ef9f bf5bfb34     =.....[.....4.[.
   16148:	bf0242b1 bf5c61c7 bf019573 bf5cc7d1     .B...a\.s.....\.
   16158:	bf00e7e4 bf5d2d53 bf003a06 bf5d924d     ....S-]..:..M.].
   16168:	beff17b2 bf5df6be befdbabb bf5e5aa6     ......]......Z^.
   16178:	befc5d27 bf5ebe05 befafef7 bf5f20db     ']....^...... _.
   16188:	bef9a02d bf5f8327 bef840c8 bf5fe4e9     -...'._..@...._.
   16198:	bef6e0cb bf604621 bef58035 bf60a6cf     ....!F`.5.....`.
   161a8:	bef41f07 bf6106f2 bef2bd43 bf61668a     ......a.C....fa.
   161b8:	bef15aea bf61c598 beeff7fb bf62241a     .Z....a......$b.
   161c8:	beee9479 bf628210 beed3063 bf62df7b     y.....b.c0..{.b.
   161d8:	beebcbbb bf633c5a beea6681 bf6398ac     ....Z<c..f....c.
   161e8:	bee900b7 bf63f473 bee79a5d bf644fac     ....s.c.]....Od.
   161f8:	bee63375 bf64aa59 bee4cbfe bf650479     u3..Y.d.....y.e.
   16208:	bee363fa bf655e0b bee1fb6a bf65b710     .c...^e.j.....e.
   16218:	bee0924f bf660f88 bedf28a9 bf666771     O.....f..(..qgf.
   16228:	beddbe79 bf66becc bedc53c1 bf671599     y.....f..S....g.
   16238:	bedae880 bf676bd8 bed97cb9 bf67c187     .....kg..|....g.
   16248:	bed8106b bf6816a8 bed6a399 bf686b39     k.....h.....9kh.
   16258:	bed53641 bf68bf3c bed3c867 bf6912ae     A6..<.h.g.....i.
   16268:	bed25a09 bf696591 bed0eb2a bf69b7e4     .Z...ei.*.....i.
   16278:	becf7bca bf6a09a7 bece0bea bf6a5ad9     .{....j......Zj.
   16288:	becc9b8b bf6aab7b becb2aae bf6afb8c     ....{.j..*....j.
   16298:	bec9b953 bf6b4b0c bec8477c bf6b99fb     S....Kk.|G....k.
   162a8:	bec6d529 bf6be858 bec5625c bf6c3624     )...X.k.\b..$6l.
   162b8:	bec3ef15 bf6c835e bec27b55 bf6cd007     ....^.l.U{....l.
   162c8:	bec1071e bf6d1c1d bebf926f bf6d67a1     ......m.o....gm.
   162d8:	bebe1d4a bf6db293 bebca7af bf6dfcf2     J.....m.......m.
   162e8:	bebb31a0 bf6e46be beb9bb1e bf6e8ff8     .1...Fn.......n.
   162f8:	beb8442a bf6ed89e beb6ccc3 bf6f20b0     *D....n...... o.
   16308:	beb554ec bf6f6830 beb3dca5 bf6faf1b     .T..0ho.......o.
   16318:	beb263ef bf6ff573 beb0eacb bf703b37     .c..s.o.....7;p.
   16328:	beaf713a bf708066 beadf73c bf70c502     :q..f.p.<.....p.
   16338:	beac7cd4 bf710908 beab0201 bf714c7a     .|....q.....zLq.
   16348:	bea986c4 bf718f57 bea80b1f bf71d19f     ....W.q.......q.
   16358:	bea68f12 bf721352 bea5129f bf725470     ....R.r.....pTr.
   16368:	bea395c5 bf7294f8 bea21887 bf72d4eb     ......r.......r.
   16378:	bea09ae5 bf731447 be9f1cdf bf73530e     ....G.s......Ss.
   16388:	be9d9e78 bf73913f be9c1faf bf73ced9     x...?.s.......s.
   16398:	be9aa086 bf740bdd be9920fe bf74484b     ......t.. ..KHt.
   163a8:	be97a117 bf748422 be9620d2 bf74bf62     ....".t.. ..b.t.
   163b8:	be94a031 bf74fa0b be931f35 bf75341d     1.....t.5....4u.
   163c8:	be919ddd bf756d97 be901c2c bf75a67b     .....mu.,...{.u.
   163d8:	be8e9a22 bf75dec6 be8d17c0 bf76167a     ".....u.....z.v.
   163e8:	be8b9507 bf764d97 be8a11f8 bf76841b     .....Mv.......v.
   163f8:	be888e93 bf76ba07 be870ada bf76ef5b     ......v.....[.v.
   16408:	be8586ce bf772417 be840270 bf77583a     .....$w.p...:Xw.
   16418:	be827dc0 bf778bc5 be80f8c0 bf77beb7     .}....w.......w.
   16428:	be7ee6e1 bf77f110 be7bdba4 bf7822d1     ..~...w...{.."x.
   16438:	be78cfcc bf7853f8 be75c35a bf788486     ..x..Sx.Z.u...x.
   16448:	be72b651 bf78b47b be6fa8b2 bf78e3d6     Q.r.{.x...o...x.
   16458:	be6c9a7f bf791298 be698bba bf7940c0     ..l...y...i..@y.
   16468:	be667c66 bf796e4e be636c83 bf799b43     f|f.Nny..lc.C.y.
   16478:	be605c13 bf79c79d be5d4b1a bf79f35e     .\`...y..K].^.y.
   16488:	be5a3997 bf7a1e84 be57278f bf7a4910     .9Z...z..'W..Iz.
   16498:	be541501 bf7a7302 be5101f1 bf7a9c59     ..T..sz...Q.Y.z.
   164a8:	be4dee60 bf7ac516 be4ada4f bf7aed37     `.M...z.O.J.7.z.
   164b8:	be47c5c2 bf7b14be be44b0b9 bf7b3bab     ..G...{...D..;{.
   164c8:	be419b37 bf7b61fc be3e853e bf7b87b2     7.A..a{.>.>...{.
   164d8:	be3b6ecf bf7baccd be3857ec bf7bd14d     .n;...{..W8.M.{.
   164e8:	be354098 bf7bf531 be3228d4 bf7c187a     .@5.1.{..(2.z.|.
   164f8:	be2f10a2 bf7c3b28 be2bf804 bf7c5d3a     ../.(;|...+.:]|.
   16508:	be28defc bf7c7eb0 be25c58c bf7c9f8a     ..(..~|...%...|.
   16518:	be22abb6 bf7cbfc9 be1f917b bf7cdf6c     .."...|.{...l.|.
   16528:	be1c76de bf7cfe73 be195be0 bf7d1cdd     .v..s.|..[....}.
   16538:	be164083 bf7d3aac be1324ca bf7d57de     .@...:}..$...W}.
   16548:	be1008b7 bf7d7474 be0cec4a bf7d906e     ....tt}.J...n.}.
   16558:	be09cf86 bf7dabcc be06b26e bf7dc68c     ......}.n.....}.
   16568:	be039502 bf7de0b1 be007745 bf7dfa38     ......}.Ew..8.}.
   16578:	bdfab273 bf7e1324 bdf475c0 bf7e2b72     s...$.~..u..r+~.
   16588:	bdee3876 bf7e4323 bde7fa9a bf7e5a38     v8..#C~.....8Z~.
   16598:	bde1bc2e bf7e70b0 bddb7d37 bf7e868b     .....p~.7}....~.
   165a8:	bdd53db9 bf7e9bc9 bdcefdb7 bf7eb069     .=....~.....i.~.
   165b8:	bdc8bd36 bf7ec46d bdc27c39 bf7ed7d4     6...m.~.9|....~.
   165c8:	bdbc3ac3 bf7eea9d bdb5f8da bf7efcc9     .:....~.......~.
   165d8:	bdafb680 bf7f0e58 bda973ba bf7f1f49     ....X....s..I...
   165e8:	bda3308c bf7f2f9d bd9cecf9 bf7f3f54     .0.../......T?..
   165f8:	bd96a905 bf7f4e6d bd9064b4 bf7f5ce9     ....mN...d...\..
   16608:	bd8a200a bf7f6ac7 bd83db0a bf7f7808     . ...j.......x..
   16618:	bd7b2b74 bf7f84ab bd6ea038 bf7f90b1     t+{.....8.n.....
   16628:	bd621468 bf7f9c18 bd55880e bf7fa6e3     h.b.......U.....
   16638:	bd48fb2f bf7fb10f bd3c6dd5 bf7fba9e     /.H......m<.....
   16648:	bd2fe007 bf7fc38f bd2351cc bf7fcbe2     ../......Q#.....
   16658:	bd16c32c bf7fd398 bd0a342f bf7fdaaf     ,......./4......
   16668:	bcfb49b9 bf7fe129 bce22a7b bf7fe705     .I..)...{*......
   16678:	bcc90ab0 bf7fec43 bcafea69 bf7ff0e3     ....C...i.......
   16688:	bc96c9b6 bf7ff4e6 bc7b514b bf7ff84a     ........KQ{.J...
   16698:	bc490e90 bf7ffb11 bc16cb59 bf7ffd39     ..I.....Y...9...
   166a8:	bbc90f89 bf7ffec4 bb490fc7 bf7fffb1     ..........I.....
   166b8:	80000000 bf800000 3b490fc7 bf7fffb1     ..........I;....
   166c8:	3bc90f89 bf7ffec4 3c16cb59 bf7ffd39     ...;....Y..<9...
   166d8:	3c490e90 bf7ffb11 3c7b514b bf7ff84a     ..I<....KQ{<J...
   166e8:	3c96c9b6 bf7ff4e6 3cafea69 bf7ff0e3     ...<....i..<....
   166f8:	3cc90ab0 bf7fec43 3ce22a7b bf7fe705     ...<C...{*.<....
   16708:	3cfb49b9 bf7fe129 3d0a342f bf7fdaaf     .I.<).../4.=....
   16718:	3d16c32c bf7fd398 3d2351cc bf7fcbe2     ,..=.....Q#=....
   16728:	3d2fe007 bf7fc38f 3d3c6dd5 bf7fba9e     ../=.....m<=....
   16738:	3d48fb2f bf7fb10f 3d55880e bf7fa6e3     /.H=......U=....
   16748:	3d621468 bf7f9c18 3d6ea038 bf7f90b1     h.b=....8.n=....
   16758:	3d7b2b74 bf7f84ab 3d83db0a bf7f7808     t+{=.......=.x..
   16768:	3d8a200a bf7f6ac7 3d9064b4 bf7f5ce9     . .=.j...d.=.\..
   16778:	3d96a905 bf7f4e6d 3d9cecf9 bf7f3f54     ...=mN.....=T?..
   16788:	3da3308c bf7f2f9d 3da973ba bf7f1f49     .0.=./...s.=I...
   16798:	3dafb680 bf7f0e58 3db5f8da bf7efcc9     ...=X......=..~.
   167a8:	3dbc3ac3 bf7eea9d 3dc27c39 bf7ed7d4     .:.=..~.9|.=..~.
   167b8:	3dc8bd36 bf7ec46d 3dcefdb7 bf7eb069     6..=m.~....=i.~.
   167c8:	3dd53db9 bf7e9bc9 3ddb7d37 bf7e868b     .=.=..~.7}.=..~.
   167d8:	3de1bc2e bf7e70b0 3de7fa9a bf7e5a38     ...=.p~....=8Z~.
   167e8:	3dee3876 bf7e4323 3df475c0 bf7e2b72     v8.=#C~..u.=r+~.
   167f8:	3dfab273 bf7e1324 3e007745 bf7dfa38     s..=$.~.Ew.>8.}.
   16808:	3e039502 bf7de0b1 3e06b26e bf7dc68c     ...>..}.n..>..}.
   16818:	3e09cf86 bf7dabcc 3e0cec4a bf7d906e     ...>..}.J..>n.}.
   16828:	3e1008b7 bf7d7474 3e1324ca bf7d57de     ...>tt}..$.>.W}.
   16838:	3e164083 bf7d3aac 3e195be0 bf7d1cdd     .@.>.:}..[.>..}.
   16848:	3e1c76de bf7cfe73 3e1f917b bf7cdf6c     .v.>s.|.{..>l.|.
   16858:	3e22abb6 bf7cbfc9 3e25c58c bf7c9f8a     ..">..|...%>..|.
   16868:	3e28defc bf7c7eb0 3e2bf804 bf7c5d3a     ..(>.~|...+>:]|.
   16878:	3e2f10a2 bf7c3b28 3e3228d4 bf7c187a     ../>(;|..(2>z.|.
   16888:	3e354098 bf7bf531 3e3857ec bf7bd14d     .@5>1.{..W8>M.{.
   16898:	3e3b6ecf bf7baccd 3e3e853e bf7b87b2     .n;>..{.>.>>..{.
   168a8:	3e419b37 bf7b61fc 3e44b0b9 bf7b3bab     7.A>.a{...D>.;{.
   168b8:	3e47c5c2 bf7b14be 3e4ada4f bf7aed37     ..G>..{.O.J>7.z.
   168c8:	3e4dee60 bf7ac516 3e5101f1 bf7a9c59     `.M>..z...Q>Y.z.
   168d8:	3e541501 bf7a7302 3e57278f bf7a4910     ..T>.sz..'W>.Iz.
   168e8:	3e5a3997 bf7a1e84 3e5d4b1a bf79f35e     .9Z>..z..K]>^.y.
   168f8:	3e605c13 bf79c79d 3e636c83 bf799b43     .\`>..y..lc>C.y.
   16908:	3e667c66 bf796e4e 3e698bba bf7940c0     f|f>Nny...i>.@y.
   16918:	3e6c9a7f bf791298 3e6fa8b2 bf78e3d6     ..l>..y...o>..x.
   16928:	3e72b651 bf78b47b 3e75c35a bf788486     Q.r>{.x.Z.u>..x.
   16938:	3e78cfcc bf7853f8 3e7bdba4 bf7822d1     ..x>.Sx...{>."x.
   16948:	3e7ee6e1 bf77f110 3e80f8c0 bf77beb7     ..~>..w....>..w.
   16958:	3e827dc0 bf778bc5 3e840270 bf77583a     .}.>..w.p..>:Xw.
   16968:	3e8586ce bf772417 3e870ada bf76ef5b     ...>.$w....>[.v.
   16978:	3e888e93 bf76ba07 3e8a11f8 bf76841b     ...>..v....>..v.
   16988:	3e8b9507 bf764d97 3e8d17c0 bf76167a     ...>.Mv....>z.v.
   16998:	3e8e9a22 bf75dec6 3e901c2c bf75a67b     "..>..u.,..>{.u.
   169a8:	3e919ddd bf756d97 3e931f35 bf75341d     ...>.mu.5..>.4u.
   169b8:	3e94a031 bf74fa0b 3e9620d2 bf74bf62     1..>..t.. .>b.t.
   169c8:	3e97a117 bf748422 3e9920fe bf74484b     ...>".t.. .>KHt.
   169d8:	3e9aa086 bf740bdd 3e9c1faf bf73ced9     ...>..t....>..s.
   169e8:	3e9d9e78 bf73913f 3e9f1cdf bf73530e     x..>?.s....>.Ss.
   169f8:	3ea09ae5 bf731447 3ea21887 bf72d4eb     ...>G.s....>..r.
   16a08:	3ea395c5 bf7294f8 3ea5129f bf725470     ...>..r....>pTr.
   16a18:	3ea68f12 bf721352 3ea80b1f bf71d19f     ...>R.r....>..q.
   16a28:	3ea986c4 bf718f57 3eab0201 bf714c7a     ...>W.q....>zLq.
   16a38:	3eac7cd4 bf710908 3eadf73c bf70c502     .|.>..q.<..>..p.
   16a48:	3eaf713a bf708066 3eb0eacb bf703b37     :q.>f.p....>7;p.
   16a58:	3eb263ef bf6ff573 3eb3dca5 bf6faf1b     .c.>s.o....>..o.
   16a68:	3eb554ec bf6f6830 3eb6ccc3 bf6f20b0     .T.>0ho....>. o.
   16a78:	3eb8442a bf6ed89e 3eb9bb1e bf6e8ff8     *D.>..n....>..n.
   16a88:	3ebb31a0 bf6e46be 3ebca7af bf6dfcf2     .1.>.Fn....>..m.
   16a98:	3ebe1d4a bf6db293 3ebf926f bf6d67a1     J..>..m.o..>.gm.
   16aa8:	3ec1071e bf6d1c1d 3ec27b55 bf6cd007     ...>..m.U{.>..l.
   16ab8:	3ec3ef15 bf6c835e 3ec5625c bf6c3624     ...>^.l.\b.>$6l.
   16ac8:	3ec6d529 bf6be858 3ec8477c bf6b99fb     )..>X.k.|G.>..k.
   16ad8:	3ec9b953 bf6b4b0c 3ecb2aae bf6afb8c     S..>.Kk..*.>..j.
   16ae8:	3ecc9b8b bf6aab7b 3ece0bea bf6a5ad9     ...>{.j....>.Zj.
   16af8:	3ecf7bca bf6a09a7 3ed0eb2a bf69b7e4     .{.>..j.*..>..i.
   16b08:	3ed25a09 bf696591 3ed3c867 bf6912ae     .Z.>.ei.g..>..i.
   16b18:	3ed53641 bf68bf3c 3ed6a399 bf686b39     A6.><.h....>9kh.
   16b28:	3ed8106b bf6816a8 3ed97cb9 bf67c187     k..>..h..|.>..g.
   16b38:	3edae880 bf676bd8 3edc53c1 bf671599     ...>.kg..S.>..g.
   16b48:	3eddbe79 bf66becc 3edf28a9 bf666771     y..>..f..(.>qgf.
   16b58:	3ee0924f bf660f88 3ee1fb6a bf65b710     O..>..f.j..>..e.
   16b68:	3ee363fa bf655e0b 3ee4cbfe bf650479     .c.>.^e....>y.e.
   16b78:	3ee63375 bf64aa59 3ee79a5d bf644fac     u3.>Y.d.]..>.Od.
   16b88:	3ee900b7 bf63f473 3eea6681 bf6398ac     ...>s.c..f.>..c.
   16b98:	3eebcbbb bf633c5a 3eed3063 bf62df7b     ...>Z<c.c0.>{.b.
   16ba8:	3eee9479 bf628210 3eeff7fb bf62241a     y..>..b....>.$b.
   16bb8:	3ef15aea bf61c598 3ef2bd43 bf61668a     .Z.>..a.C..>.fa.
   16bc8:	3ef41f07 bf6106f2 3ef58035 bf60a6cf     ...>..a.5..>..`.
   16bd8:	3ef6e0cb bf604621 3ef840c8 bf5fe4e9     ...>!F`..@.>.._.
   16be8:	3ef9a02d bf5f8327 3efafef7 bf5f20db     -..>'._....>. _.
   16bf8:	3efc5d27 bf5ebe05 3efdbabb bf5e5aa6     '].>..^....>.Z^.
   16c08:	3eff17b2 bf5df6be 3f003a06 bf5d924d     ...>..]..:.?M.].
   16c18:	3f00e7e4 bf5d2d53 3f019573 bf5cc7d1     ...?S-].s..?..\.
   16c28:	3f0242b1 bf5c61c7 3f02ef9f bf5bfb34     .B.?.a\....?4.[.
   16c38:	3f039c3d bf5b941a 3f044889 bf5b2c79     =..?..[..H.?y,[.
   16c48:	3f04f484 bf5ac450 3f05a02c bf5a5ba0     ...?P.Z.,..?.[Z.
   16c58:	3f064b82 bf59f26a 3f06f686 bf5988ad     .K.?j.Y....?..Y.
   16c68:	3f07a136 bf591e6a 3f084b92 bf58b3a1     6..?j.Y..K.?..X.
   16c78:	3f08f59b bf584853 3f099f4e bf57dc7f     ...?SHX.N..?..W.
   16c88:	3f0a48ad bf577026 3f0af1b7 bf570348     .H.?&pW....?H.W.
   16c98:	3f0b9a6b bf5695e5 3f0c42c9 bf5627fe     k..?..V..B.?.'V.
   16ca8:	3f0cead0 bf55b993 3f0d9281 bf554aa4     ...?..U....?.JU.
   16cb8:	3f0e39da bf54db31 3f0ee0db bf546b3b     .9.?1.T....?;kT.
   16cc8:	3f0f8784 bf53fac3 3f102dd5 bf5389c7     ...?..S..-.?..S.
   16cd8:	3f10d3cd bf531849 3f11796b bf52a649     ...?I.S.ky.?I.R.
   16ce8:	3f121eb0 bf5233c6 3f12c39a bf51c0c2     ...?.3R....?..Q.
   16cf8:	3f13682a bf514d3d 3f140c5f bf50d937     *h.?=MQ._..?7.P.
   16d08:	3f14b039 bf5064af 3f1553b7 bf4fefa8     9..?.dP..S.?..O.
   16d18:	3f15f6d9 bf4f7a1f 3f16999f bf4f0417     ...?.zO....?..O.
   16d28:	3f173c07 bf4e8d90 3f17de12 bf4e1689     .<.?..N....?..N.
   16d38:	3f187fc0 bf4d9f02 3f19210f bf4d26fd     ...?..M..!.?.&M.
   16d48:	3f19c200 bf4cae79 3f1a6293 bf4c3578     ...?y.L..b.?x5L.
   16d58:	3f1b02c6 bf4bbbf8 3f1ba299 bf4b41fa     ...?..K....?.AK.
   16d68:	3f1c420c bf4ac77f 3f1ce11f bf4a4c87     .B.?..J....?.LJ.
   16d78:	3f1d7fd1 bf49d112 3f1e1e22 bf495521     ...?..I."..?!UI.
   16d88:	3f1ebc12 bf48d8b3 3f1f599f bf485bca     ...?..H..Y.?.[H.
   16d98:	3f1ff6cb bf47de65 3f209393 bf476085     ...?e.G... ?.`G.
   16da8:	3f212ff9 bf46e22a 3f21cbfb bf466354     ./!?*.F...!?TcF.
   16db8:	3f226799 bf45e403 3f2302d3 bf456439     .g"?..E...#?9dE.
   16dc8:	3f239da9 bf44e3f5 3f24381a bf446337     ..#?..D..8$?7cD.
   16dd8:	3f24d225 bf43e200 3f256bcb bf436051     %.$?..C..k%?Q`C.
   16de8:	3f26050a bf42de29 3f269de3 bf425b89     ..&?).B...&?.[B.
   16df8:	3f273656 bf41d870 3f27ce61 bf4154e1     V6'?p.A.a.'?.TA.
   16e08:	3f286605 bf40d0da 3f28fd41 bf404c5c     .f(?..@.A.(?\L@.
   16e18:	3f299415 bf3fc767 3f2a2a80 bf3f41fc     ..)?g.?..**?.A?.
   16e28:	3f2ac082 bf3ebc1b 3f2b561b bf3e35c5     ..*?..>..V+?.5>.
   16e38:	3f2beb4a bf3daef9 3f2c800f bf3d27b8     J.+?..=...,?.'=.
   16e48:	3f2d1469 bf3ca003 3f2da859 bf3c17d9     i.-?..<.Y.-?..<.
   16e58:	3f2e3bde bf3b8f3b 3f2ecef7 bf3b0629     .;.?;.;....?).;.
   16e68:	3f2f61a5 bf3a7ca4 3f2ff3e6 bf39f2ac     .a/?.|:.../?..9.
   16e78:	3f3085bb bf396842 3f311722 bf38dd65     ..0?Bh9.".1?e.8.
   16e88:	3f31a81d bf385216 3f3238aa bf37c655     ..1?.R8..82?U.7.
   16e98:	3f32c8c9 bf373a23 3f33587a bf36ad7f     ..2?#:7.zX3?..6.
   16ea8:	3f33e7bc bf36206c 3f34768f bf3592e7     ..3?l 6..v4?..5.
   16eb8:	3f3504f3 bf3504f3 3f3592e7 bf34768f     ..5?..5...5?.v4.
   16ec8:	3f36206c bf33e7bc 3f36ad7f bf33587a     l 6?..3...6?zX3.
   16ed8:	3f373a23 bf32c8c9 3f37c655 bf3238aa     #:7?..2.U.7?.82.
   16ee8:	3f385216 bf31a81d 3f38dd65 bf311722     .R8?..1.e.8?".1.
   16ef8:	3f396842 bf3085bb 3f39f2ac bf2ff3e6     Bh9?..0...9?../.
   16f08:	3f3a7ca4 bf2f61a5 3f3b0629 bf2ecef7     .|:?.a/.).;?....
   16f18:	3f3b8f3b bf2e3bde 3f3c17d9 bf2da859     ;.;?.;....<?Y.-.
   16f28:	3f3ca003 bf2d1469 3f3d27b8 bf2c800f     ..<?i.-..'=?..,.
   16f38:	3f3daef9 bf2beb4a 3f3e35c5 bf2b561b     ..=?J.+..5>?.V+.
   16f48:	3f3ebc1b bf2ac082 3f3f41fc bf2a2a80     ..>?..*..A??.**.
   16f58:	3f3fc767 bf299415 3f404c5c bf28fd41     g.??..).\L@?A.(.
   16f68:	3f40d0da bf286605 3f4154e1 bf27ce61     ..@?.f(..TA?a.'.
   16f78:	3f41d870 bf273656 3f425b89 bf269de3     p.A?V6'..[B?..&.
   16f88:	3f42de29 bf26050a 3f436051 bf256bcb     ).B?..&.Q`C?.k%.
   16f98:	3f43e200 bf24d225 3f446337 bf24381a     ..C?%.$.7cD?.8$.
   16fa8:	3f44e3f5 bf239da9 3f456439 bf2302d3     ..D?..#.9dE?..#.
   16fb8:	3f45e403 bf226799 3f466354 bf21cbfb     ..E?.g".TcF?..!.
   16fc8:	3f46e22a bf212ff9 3f476085 bf209393     *.F?./!..`G?.. .
   16fd8:	3f47de65 bf1ff6cb 3f485bca bf1f599f     e.G?.....[H?.Y..
   16fe8:	3f48d8b3 bf1ebc12 3f495521 bf1e1e22     ..H?....!UI?"...
   16ff8:	3f49d112 bf1d7fd1 3f4a4c87 bf1ce11f     ..I?.....LJ?....
   17008:	3f4ac77f bf1c420c 3f4b41fa bf1ba299     ..J?.B...AK?....
   17018:	3f4bbbf8 bf1b02c6 3f4c3578 bf1a6293     ..K?....x5L?.b..
   17028:	3f4cae79 bf19c200 3f4d26fd bf19210f     y.L?.....&M?.!..
   17038:	3f4d9f02 bf187fc0 3f4e1689 bf17de12     ..M?......N?....
   17048:	3f4e8d90 bf173c07 3f4f0417 bf16999f     ..N?.<....O?....
   17058:	3f4f7a1f bf15f6d9 3f4fefa8 bf1553b7     .zO?......O?.S..
   17068:	3f5064af bf14b039 3f50d937 bf140c5f     .dP?9...7.P?_...
   17078:	3f514d3d bf13682a 3f51c0c2 bf12c39a     =MQ?*h....Q?....
   17088:	3f5233c6 bf121eb0 3f52a649 bf11796b     .3R?....I.R?ky..
   17098:	3f531849 bf10d3cd 3f5389c7 bf102dd5     I.S?......S?.-..
   170a8:	3f53fac3 bf0f8784 3f546b3b bf0ee0db     ..S?....;kT?....
   170b8:	3f54db31 bf0e39da 3f554aa4 bf0d9281     1.T?.9...JU?....
   170c8:	3f55b993 bf0cead0 3f5627fe bf0c42c9     ..U?.....'V?.B..
   170d8:	3f5695e5 bf0b9a6b 3f570348 bf0af1b7     ..V?k...H.W?....
   170e8:	3f577026 bf0a48ad 3f57dc7f bf099f4e     &pW?.H....W?N...
   170f8:	3f584853 bf08f59b 3f58b3a1 bf084b92     SHX?......X?.K..
   17108:	3f591e6a bf07a136 3f5988ad bf06f686     j.Y?6.....Y?....
   17118:	3f59f26a bf064b82 3f5a5ba0 bf05a02c     j.Y?.K...[Z?,...
   17128:	3f5ac450 bf04f484 3f5b2c79 bf044889     P.Z?....y,[?.H..
   17138:	3f5b941a bf039c3d 3f5bfb34 bf02ef9f     ..[?=...4.[?....
   17148:	3f5c61c7 bf0242b1 3f5cc7d1 bf019573     .a\?.B....\?s...
   17158:	3f5d2d53 bf00e7e4 3f5d924d bf003a06     S-]?....M.]?.:..
   17168:	3f5df6be beff17b2 3f5e5aa6 befdbabb     ..]?.....Z^?....
   17178:	3f5ebe05 befc5d27 3f5f20db befafef7     ..^?']... _?....
   17188:	3f5f8327 bef9a02d 3f5fe4e9 bef840c8     '._?-....._?.@..
   17198:	3f604621 bef6e0cb 3f60a6cf bef58035     !F`?......`?5...
   171a8:	3f6106f2 bef41f07 3f61668a bef2bd43     ..a?.....fa?C...
   171b8:	3f61c598 bef15aea 3f62241a beeff7fb     ..a?.Z...$b?....
   171c8:	3f628210 beee9479 3f62df7b beed3063     ..b?y...{.b?c0..
   171d8:	3f633c5a beebcbbb 3f6398ac beea6681     Z<c?......c?.f..
   171e8:	3f63f473 bee900b7 3f644fac bee79a5d     s.c?.....Od?]...
   171f8:	3f64aa59 bee63375 3f650479 bee4cbfe     Y.d?u3..y.e?....
   17208:	3f655e0b bee363fa 3f65b710 bee1fb6a     .^e?.c....e?j...
   17218:	3f660f88 bee0924f 3f666771 bedf28a9     ..f?O...qgf?.(..
   17228:	3f66becc beddbe79 3f671599 bedc53c1     ..f?y.....g?.S..
   17238:	3f676bd8 bedae880 3f67c187 bed97cb9     .kg?......g?.|..
   17248:	3f6816a8 bed8106b 3f686b39 bed6a399     ..h?k...9kh?....
   17258:	3f68bf3c bed53641 3f6912ae bed3c867     <.h?A6....i?g...
   17268:	3f696591 bed25a09 3f69b7e4 bed0eb2a     .ei?.Z....i?*...
   17278:	3f6a09a7 becf7bca 3f6a5ad9 bece0bea     ..j?.{...Zj?....
   17288:	3f6aab7b becc9b8b 3f6afb8c becb2aae     {.j?......j?.*..
   17298:	3f6b4b0c bec9b953 3f6b99fb bec8477c     .Kk?S.....k?|G..
   172a8:	3f6be858 bec6d529 3f6c3624 bec5625c     X.k?)...$6l?\b..
   172b8:	3f6c835e bec3ef15 3f6cd007 bec27b55     ^.l?......l?U{..
   172c8:	3f6d1c1d bec1071e 3f6d67a1 bebf926f     ..m?.....gm?o...
   172d8:	3f6db293 bebe1d4a 3f6dfcf2 bebca7af     ..m?J.....m?....
   172e8:	3f6e46be bebb31a0 3f6e8ff8 beb9bb1e     .Fn?.1....n?....
   172f8:	3f6ed89e beb8442a 3f6f20b0 beb6ccc3     ..n?*D... o?....
   17308:	3f6f6830 beb554ec 3f6faf1b beb3dca5     0ho?.T....o?....
   17318:	3f6ff573 beb263ef 3f703b37 beb0eacb     s.o?.c..7;p?....
   17328:	3f708066 beaf713a 3f70c502 beadf73c     f.p?:q....p?<...
   17338:	3f710908 beac7cd4 3f714c7a beab0201     ..q?.|..zLq?....
   17348:	3f718f57 bea986c4 3f71d19f bea80b1f     W.q?......q?....
   17358:	3f721352 bea68f12 3f725470 bea5129f     R.r?....pTr?....
   17368:	3f7294f8 bea395c5 3f72d4eb bea21887     ..r?......r?....
   17378:	3f731447 bea09ae5 3f73530e be9f1cdf     G.s?.....Ss?....
   17388:	3f73913f be9d9e78 3f73ced9 be9c1faf     ?.s?x.....s?....
   17398:	3f740bdd be9aa086 3f74484b be9920fe     ..t?....KHt?. ..
   173a8:	3f748422 be97a117 3f74bf62 be9620d2     ".t?....b.t?. ..
   173b8:	3f74fa0b be94a031 3f75341d be931f35     ..t?1....4u?5...
   173c8:	3f756d97 be919ddd 3f75a67b be901c2c     .mu?....{.u?,...
   173d8:	3f75dec6 be8e9a22 3f76167a be8d17c0     ..u?"...z.v?....
   173e8:	3f764d97 be8b9507 3f76841b be8a11f8     .Mv?......v?....
   173f8:	3f76ba07 be888e93 3f76ef5b be870ada     ..v?....[.v?....
   17408:	3f772417 be8586ce 3f77583a be840270     .$w?....:Xw?p...
   17418:	3f778bc5 be827dc0 3f77beb7 be80f8c0     ..w?.}....w?....
   17428:	3f77f110 be7ee6e1 3f7822d1 be7bdba4     ..w?..~.."x?..{.
   17438:	3f7853f8 be78cfcc 3f788486 be75c35a     .Sx?..x...x?Z.u.
   17448:	3f78b47b be72b651 3f78e3d6 be6fa8b2     {.x?Q.r...x?..o.
   17458:	3f791298 be6c9a7f 3f7940c0 be698bba     ..y?..l..@y?..i.
   17468:	3f796e4e be667c66 3f799b43 be636c83     Nny?f|f.C.y?.lc.
   17478:	3f79c79d be605c13 3f79f35e be5d4b1a     ..y?.\`.^.y?.K].
   17488:	3f7a1e84 be5a3997 3f7a4910 be57278f     ..z?.9Z..Iz?.'W.
   17498:	3f7a7302 be541501 3f7a9c59 be5101f1     .sz?..T.Y.z?..Q.
   174a8:	3f7ac516 be4dee60 3f7aed37 be4ada4f     ..z?`.M.7.z?O.J.
   174b8:	3f7b14be be47c5c2 3f7b3bab be44b0b9     ..{?..G..;{?..D.
   174c8:	3f7b61fc be419b37 3f7b87b2 be3e853e     .a{?7.A...{?>.>.
   174d8:	3f7baccd be3b6ecf 3f7bd14d be3857ec     ..{?.n;.M.{?.W8.
   174e8:	3f7bf531 be354098 3f7c187a be3228d4     1.{?.@5.z.|?.(2.
   174f8:	3f7c3b28 be2f10a2 3f7c5d3a be2bf804     (;|?../.:]|?..+.
   17508:	3f7c7eb0 be28defc 3f7c9f8a be25c58c     .~|?..(...|?..%.
   17518:	3f7cbfc9 be22abb6 3f7cdf6c be1f917b     ..|?..".l.|?{...
   17528:	3f7cfe73 be1c76de 3f7d1cdd be195be0     s.|?.v....}?.[..
   17538:	3f7d3aac be164083 3f7d57de be1324ca     .:}?.@...W}?.$..
   17548:	3f7d7474 be1008b7 3f7d906e be0cec4a     tt}?....n.}?J...
   17558:	3f7dabcc be09cf86 3f7dc68c be06b26e     ..}?......}?n...
   17568:	3f7de0b1 be039502 3f7dfa38 be007745     ..}?....8.}?Ew..
   17578:	3f7e1324 bdfab273 3f7e2b72 bdf475c0     $.~?s...r+~?.u..
   17588:	3f7e4323 bdee3876 3f7e5a38 bde7fa9a     #C~?v8..8Z~?....
   17598:	3f7e70b0 bde1bc2e 3f7e868b bddb7d37     .p~?......~?7}..
   175a8:	3f7e9bc9 bdd53db9 3f7eb069 bdcefdb7     ..~?.=..i.~?....
   175b8:	3f7ec46d bdc8bd36 3f7ed7d4 bdc27c39     m.~?6.....~?9|..
   175c8:	3f7eea9d bdbc3ac3 3f7efcc9 bdb5f8da     ..~?.:....~?....
   175d8:	3f7f0e58 bdafb680 3f7f1f49 bda973ba     X..?....I..?.s..
   175e8:	3f7f2f9d bda3308c 3f7f3f54 bd9cecf9     ./.?.0..T?.?....
   175f8:	3f7f4e6d bd96a905 3f7f5ce9 bd9064b4     mN.?.....\.?.d..
   17608:	3f7f6ac7 bd8a200a 3f7f7808 bd83db0a     .j.?. ...x.?....
   17618:	3f7f84ab bd7b2b74 3f7f90b1 bd6ea038     ...?t+{....?8.n.
   17628:	3f7f9c18 bd621468 3f7fa6e3 bd55880e     ...?h.b....?..U.
   17638:	3f7fb10f bd48fb2f 3f7fba9e bd3c6dd5     ...?/.H....?.m<.
   17648:	3f7fc38f bd2fe007 3f7fcbe2 bd2351cc     ...?../....?.Q#.
   17658:	3f7fd398 bd16c32c 3f7fdaaf bd0a342f     ...?,......?/4..
   17668:	3f7fe129 bcfb49b9 3f7fe705 bce22a7b     )..?.I.....?{*..
   17678:	3f7fec43 bcc90ab0 3f7ff0e3 bcafea69     C..?.......?i...
   17688:	3f7ff4e6 bc96c9b6 3f7ff84a bc7b514b     ...?....J..?KQ{.
   17698:	3f7ffb11 bc490e90 3f7ffd39 bc16cb59     ...?..I.9..?Y...
   176a8:	3f7ffec4 bbc90f89 3f7fffb1 bb490fc7     ...?.......?..I.

000176b8 <twiddleCoef_rfft_64>:
   176b8:	00000000 3f800000 3dc8bd36 3f7ec46d     .......?6..=m.~?
   176c8:	3e47c5c2 3f7b14be 3e94a031 3f74fa0b     ..G>..{?1..>..t?
   176d8:	3ec3ef15 3f6c835e 3ef15aea 3f61c598     ...>^.l?.Z.>..a?
   176e8:	3f0e39da 3f54db31 3f226799 3f45e403     .9.?1.T?.g"?..E?
   176f8:	3f3504f3 3f3504f3 3f45e403 3f226799     ..5?..5?..E?.g"?
   17708:	3f54db31 3f0e39da 3f61c598 3ef15aea     1.T?.9.?..a?.Z.>
   17718:	3f6c835e 3ec3ef15 3f74fa0b 3e94a031     ^.l?...>..t?1..>
   17728:	3f7b14be 3e47c5c2 3f7ec46d 3dc8bd36     ..{?..G>m.~?6..=
   17738:	3f800000 00000000 3f7ec46d bdc8bd36     ...?....m.~?6...
   17748:	3f7b14be be47c5c2 3f74fa0b be94a031     ..{?..G...t?1...
   17758:	3f6c835e bec3ef15 3f61c598 bef15aea     ^.l?......a?.Z..
   17768:	3f54db31 bf0e39da 3f45e403 bf226799     1.T?.9....E?.g".
   17778:	3f3504f3 bf3504f3 3f226799 bf45e403     ..5?..5..g"?..E.
   17788:	3f0e39da bf54db31 3ef15aea bf61c598     .9.?1.T..Z.>..a.
   17798:	3ec3ef15 bf6c835e 3e94a031 bf74fa0b     ...>^.l.1..>..t.
   177a8:	3e47c5c2 bf7b14be 3dc8bd36 bf7ec46d     ..G>..{.6..=m.~.

000177b8 <armBitRevIndexTable64>:
   177b8:	00400008 00800010 00c00018 01000020     ..@......... ...
   177c8:	01400028 01800030 01c00038 00880050     (.@.0...8...P...
   177d8:	00c80058 01080060 01480068 01880070     X...`...h.H.p...
   177e8:	01c80078 00d00098 011000a0 015000a8     x.............P.
   177f8:	019000b0 01d000b8 011800e0 015800e8     ..............X.
   17808:	019800f0 01d800f8 01600128 01a00130     ........(.`.0...
   17818:	01e00138 01a80170 01e80178 01f001b8     8...p...x.......

00017828 <twiddleCoef_rfft_2048>:
   17828:	00000000 3f800000 3b490fc7 3f7fffb1     .......?..I;...?
   17838:	3bc90f89 3f7ffec4 3c16cb59 3f7ffd39     ...;...?Y..<9..?
   17848:	3c490e90 3f7ffb11 3c7b514b 3f7ff84a     ..I<...?KQ{<J..?
   17858:	3c96c9b6 3f7ff4e6 3cafea69 3f7ff0e3     ...<...?i..<...?
   17868:	3cc90ab0 3f7fec43 3ce22a7b 3f7fe705     ...<C..?{*.<...?
   17878:	3cfb49b9 3f7fe129 3d0a342f 3f7fdaaf     .I.<)..?/4.=...?
   17888:	3d16c32c 3f7fd398 3d2351cc 3f7fcbe2     ,..=...?.Q#=...?
   17898:	3d2fe007 3f7fc38f 3d3c6dd5 3f7fba9e     ../=...?.m<=...?
   178a8:	3d48fb2f 3f7fb10f 3d55880e 3f7fa6e3     /.H=...?..U=...?
   178b8:	3d621468 3f7f9c18 3d6ea038 3f7f90b1     h.b=...?8.n=...?
   178c8:	3d7b2b74 3f7f84ab 3d83db0a 3f7f7808     t+{=...?...=.x.?
   178d8:	3d8a200a 3f7f6ac7 3d9064b4 3f7f5ce9     . .=.j.?.d.=.\.?
   178e8:	3d96a905 3f7f4e6d 3d9cecf9 3f7f3f54     ...=mN.?...=T?.?
   178f8:	3da3308c 3f7f2f9d 3da973ba 3f7f1f49     .0.=./.?.s.=I..?
   17908:	3dafb680 3f7f0e58 3db5f8da 3f7efcc9     ...=X..?...=..~?
   17918:	3dbc3ac3 3f7eea9d 3dc27c39 3f7ed7d4     .:.=..~?9|.=..~?
   17928:	3dc8bd36 3f7ec46d 3dcefdb7 3f7eb069     6..=m.~?...=i.~?
   17938:	3dd53db9 3f7e9bc9 3ddb7d37 3f7e868b     .=.=..~?7}.=..~?
   17948:	3de1bc2e 3f7e70b0 3de7fa9a 3f7e5a38     ...=.p~?...=8Z~?
   17958:	3dee3876 3f7e4323 3df475c0 3f7e2b72     v8.=#C~?.u.=r+~?
   17968:	3dfab273 3f7e1324 3e007745 3f7dfa38     s..=$.~?Ew.>8.}?
   17978:	3e039502 3f7de0b1 3e06b26e 3f7dc68c     ...>..}?n..>..}?
   17988:	3e09cf86 3f7dabcc 3e0cec4a 3f7d906e     ...>..}?J..>n.}?
   17998:	3e1008b7 3f7d7474 3e1324ca 3f7d57de     ...>tt}?.$.>.W}?
   179a8:	3e164083 3f7d3aac 3e195be0 3f7d1cdd     .@.>.:}?.[.>..}?
   179b8:	3e1c76de 3f7cfe73 3e1f917b 3f7cdf6c     .v.>s.|?{..>l.|?
   179c8:	3e22abb6 3f7cbfc9 3e25c58c 3f7c9f8a     ..">..|?..%>..|?
   179d8:	3e28defc 3f7c7eb0 3e2bf804 3f7c5d3a     ..(>.~|?..+>:]|?
   179e8:	3e2f10a2 3f7c3b28 3e3228d4 3f7c187a     ../>(;|?.(2>z.|?
   179f8:	3e354098 3f7bf531 3e3857ec 3f7bd14d     .@5>1.{?.W8>M.{?
   17a08:	3e3b6ecf 3f7baccd 3e3e853e 3f7b87b2     .n;>..{?>.>>..{?
   17a18:	3e419b37 3f7b61fc 3e44b0b9 3f7b3bab     7.A>.a{?..D>.;{?
   17a28:	3e47c5c2 3f7b14be 3e4ada4f 3f7aed37     ..G>..{?O.J>7.z?
   17a38:	3e4dee60 3f7ac516 3e5101f1 3f7a9c59     `.M>..z?..Q>Y.z?
   17a48:	3e541501 3f7a7302 3e57278f 3f7a4910     ..T>.sz?.'W>.Iz?
   17a58:	3e5a3997 3f7a1e84 3e5d4b1a 3f79f35e     .9Z>..z?.K]>^.y?
   17a68:	3e605c13 3f79c79d 3e636c83 3f799b43     .\`>..y?.lc>C.y?
   17a78:	3e667c66 3f796e4e 3e698bba 3f7940c0     f|f>Nny?..i>.@y?
   17a88:	3e6c9a7f 3f791298 3e6fa8b2 3f78e3d6     ..l>..y?..o>..x?
   17a98:	3e72b651 3f78b47b 3e75c35a 3f788486     Q.r>{.x?Z.u>..x?
   17aa8:	3e78cfcc 3f7853f8 3e7bdba4 3f7822d1     ..x>.Sx?..{>."x?
   17ab8:	3e7ee6e1 3f77f110 3e80f8c0 3f77beb7     ..~>..w?...>..w?
   17ac8:	3e827dc0 3f778bc5 3e840270 3f77583a     .}.>..w?p..>:Xw?
   17ad8:	3e8586ce 3f772417 3e870ada 3f76ef5b     ...>.$w?...>[.v?
   17ae8:	3e888e93 3f76ba07 3e8a11f8 3f76841b     ...>..v?...>..v?
   17af8:	3e8b9507 3f764d97 3e8d17c0 3f76167a     ...>.Mv?...>z.v?
   17b08:	3e8e9a22 3f75dec6 3e901c2c 3f75a67b     "..>..u?,..>{.u?
   17b18:	3e919ddd 3f756d97 3e931f35 3f75341d     ...>.mu?5..>.4u?
   17b28:	3e94a031 3f74fa0b 3e9620d2 3f74bf62     1..>..t?. .>b.t?
   17b38:	3e97a117 3f748422 3e9920fe 3f74484b     ...>".t?. .>KHt?
   17b48:	3e9aa086 3f740bdd 3e9c1faf 3f73ced9     ...>..t?...>..s?
   17b58:	3e9d9e78 3f73913f 3e9f1cdf 3f73530e     x..>?.s?...>.Ss?
   17b68:	3ea09ae5 3f731447 3ea21887 3f72d4eb     ...>G.s?...>..r?
   17b78:	3ea395c5 3f7294f8 3ea5129f 3f725470     ...>..r?...>pTr?
   17b88:	3ea68f12 3f721352 3ea80b1f 3f71d19f     ...>R.r?...>..q?
   17b98:	3ea986c4 3f718f57 3eab0201 3f714c7a     ...>W.q?...>zLq?
   17ba8:	3eac7cd4 3f710908 3eadf73c 3f70c502     .|.>..q?<..>..p?
   17bb8:	3eaf713a 3f708066 3eb0eacb 3f703b37     :q.>f.p?...>7;p?
   17bc8:	3eb263ef 3f6ff573 3eb3dca5 3f6faf1b     .c.>s.o?...>..o?
   17bd8:	3eb554ec 3f6f6830 3eb6ccc3 3f6f20b0     .T.>0ho?...>. o?
   17be8:	3eb8442a 3f6ed89e 3eb9bb1e 3f6e8ff8     *D.>..n?...>..n?
   17bf8:	3ebb31a0 3f6e46be 3ebca7af 3f6dfcf2     .1.>.Fn?...>..m?
   17c08:	3ebe1d4a 3f6db293 3ebf926f 3f6d67a1     J..>..m?o..>.gm?
   17c18:	3ec1071e 3f6d1c1d 3ec27b55 3f6cd007     ...>..m?U{.>..l?
   17c28:	3ec3ef15 3f6c835e 3ec5625c 3f6c3624     ...>^.l?\b.>$6l?
   17c38:	3ec6d529 3f6be858 3ec8477c 3f6b99fb     )..>X.k?|G.>..k?
   17c48:	3ec9b953 3f6b4b0c 3ecb2aae 3f6afb8c     S..>.Kk?.*.>..j?
   17c58:	3ecc9b8b 3f6aab7b 3ece0bea 3f6a5ad9     ...>{.j?...>.Zj?
   17c68:	3ecf7bca 3f6a09a7 3ed0eb2a 3f69b7e4     .{.>..j?*..>..i?
   17c78:	3ed25a09 3f696591 3ed3c867 3f6912ae     .Z.>.ei?g..>..i?
   17c88:	3ed53641 3f68bf3c 3ed6a399 3f686b39     A6.><.h?...>9kh?
   17c98:	3ed8106b 3f6816a8 3ed97cb9 3f67c187     k..>..h?.|.>..g?
   17ca8:	3edae880 3f676bd8 3edc53c1 3f671599     ...>.kg?.S.>..g?
   17cb8:	3eddbe79 3f66becc 3edf28a9 3f666771     y..>..f?.(.>qgf?
   17cc8:	3ee0924f 3f660f88 3ee1fb6a 3f65b710     O..>..f?j..>..e?
   17cd8:	3ee363fa 3f655e0b 3ee4cbfe 3f650479     .c.>.^e?...>y.e?
   17ce8:	3ee63375 3f64aa59 3ee79a5d 3f644fac     u3.>Y.d?]..>.Od?
   17cf8:	3ee900b7 3f63f473 3eea6681 3f6398ac     ...>s.c?.f.>..c?
   17d08:	3eebcbbb 3f633c5a 3eed3063 3f62df7b     ...>Z<c?c0.>{.b?
   17d18:	3eee9479 3f628210 3eeff7fb 3f62241a     y..>..b?...>.$b?
   17d28:	3ef15aea 3f61c598 3ef2bd43 3f61668a     .Z.>..a?C..>.fa?
   17d38:	3ef41f07 3f6106f2 3ef58035 3f60a6cf     ...>..a?5..>..`?
   17d48:	3ef6e0cb 3f604621 3ef840c8 3f5fe4e9     ...>!F`?.@.>.._?
   17d58:	3ef9a02d 3f5f8327 3efafef7 3f5f20db     -..>'._?...>. _?
   17d68:	3efc5d27 3f5ebe05 3efdbabb 3f5e5aa6     '].>..^?...>.Z^?
   17d78:	3eff17b2 3f5df6be 3f003a06 3f5d924d     ...>..]?.:.?M.]?
   17d88:	3f00e7e4 3f5d2d53 3f019573 3f5cc7d1     ...?S-]?s..?..\?
   17d98:	3f0242b1 3f5c61c7 3f02ef9f 3f5bfb34     .B.?.a\?...?4.[?
   17da8:	3f039c3d 3f5b941a 3f044889 3f5b2c79     =..?..[?.H.?y,[?
   17db8:	3f04f484 3f5ac450 3f05a02c 3f5a5ba0     ...?P.Z?,..?.[Z?
   17dc8:	3f064b82 3f59f26a 3f06f686 3f5988ad     .K.?j.Y?...?..Y?
   17dd8:	3f07a136 3f591e6a 3f084b92 3f58b3a1     6..?j.Y?.K.?..X?
   17de8:	3f08f59b 3f584853 3f099f4e 3f57dc7f     ...?SHX?N..?..W?
   17df8:	3f0a48ad 3f577026 3f0af1b7 3f570348     .H.?&pW?...?H.W?
   17e08:	3f0b9a6b 3f5695e5 3f0c42c9 3f5627fe     k..?..V?.B.?.'V?
   17e18:	3f0cead0 3f55b993 3f0d9281 3f554aa4     ...?..U?...?.JU?
   17e28:	3f0e39da 3f54db31 3f0ee0db 3f546b3b     .9.?1.T?...?;kT?
   17e38:	3f0f8784 3f53fac3 3f102dd5 3f5389c7     ...?..S?.-.?..S?
   17e48:	3f10d3cd 3f531849 3f11796b 3f52a649     ...?I.S?ky.?I.R?
   17e58:	3f121eb0 3f5233c6 3f12c39a 3f51c0c2     ...?.3R?...?..Q?
   17e68:	3f13682a 3f514d3d 3f140c5f 3f50d937     *h.?=MQ?_..?7.P?
   17e78:	3f14b039 3f5064af 3f1553b7 3f4fefa8     9..?.dP?.S.?..O?
   17e88:	3f15f6d9 3f4f7a1f 3f16999f 3f4f0417     ...?.zO?...?..O?
   17e98:	3f173c07 3f4e8d90 3f17de12 3f4e1689     .<.?..N?...?..N?
   17ea8:	3f187fc0 3f4d9f02 3f19210f 3f4d26fd     ...?..M?.!.?.&M?
   17eb8:	3f19c200 3f4cae79 3f1a6293 3f4c3578     ...?y.L?.b.?x5L?
   17ec8:	3f1b02c6 3f4bbbf8 3f1ba299 3f4b41fa     ...?..K?...?.AK?
   17ed8:	3f1c420c 3f4ac77f 3f1ce11f 3f4a4c87     .B.?..J?...?.LJ?
   17ee8:	3f1d7fd1 3f49d112 3f1e1e22 3f495521     ...?..I?"..?!UI?
   17ef8:	3f1ebc12 3f48d8b3 3f1f599f 3f485bca     ...?..H?.Y.?.[H?
   17f08:	3f1ff6cb 3f47de65 3f209393 3f476085     ...?e.G?.. ?.`G?
   17f18:	3f212ff9 3f46e22a 3f21cbfb 3f466354     ./!?*.F?..!?TcF?
   17f28:	3f226799 3f45e403 3f2302d3 3f456439     .g"?..E?..#?9dE?
   17f38:	3f239da9 3f44e3f5 3f24381a 3f446337     ..#?..D?.8$?7cD?
   17f48:	3f24d225 3f43e200 3f256bcb 3f436051     %.$?..C?.k%?Q`C?
   17f58:	3f26050a 3f42de29 3f269de3 3f425b89     ..&?).B?..&?.[B?
   17f68:	3f273656 3f41d870 3f27ce61 3f4154e1     V6'?p.A?a.'?.TA?
   17f78:	3f286605 3f40d0da 3f28fd41 3f404c5c     .f(?..@?A.(?\L@?
   17f88:	3f299415 3f3fc767 3f2a2a80 3f3f41fc     ..)?g.??.**?.A??
   17f98:	3f2ac082 3f3ebc1b 3f2b561b 3f3e35c5     ..*?..>?.V+?.5>?
   17fa8:	3f2beb4a 3f3daef9 3f2c800f 3f3d27b8     J.+?..=?..,?.'=?
   17fb8:	3f2d1469 3f3ca003 3f2da859 3f3c17d9     i.-?..<?Y.-?..<?
   17fc8:	3f2e3bde 3f3b8f3b 3f2ecef7 3f3b0629     .;.?;.;?...?).;?
   17fd8:	3f2f61a5 3f3a7ca4 3f2ff3e6 3f39f2ac     .a/?.|:?../?..9?
   17fe8:	3f3085bb 3f396842 3f311722 3f38dd65     ..0?Bh9?".1?e.8?
   17ff8:	3f31a81d 3f385216 3f3238aa 3f37c655     ..1?.R8?.82?U.7?
   18008:	3f32c8c9 3f373a23 3f33587a 3f36ad7f     ..2?#:7?zX3?..6?
   18018:	3f33e7bc 3f36206c 3f34768f 3f3592e7     ..3?l 6?.v4?..5?
   18028:	3f3504f3 3f3504f3 3f3592e7 3f34768f     ..5?..5?..5?.v4?
   18038:	3f36206c 3f33e7bc 3f36ad7f 3f33587a     l 6?..3?..6?zX3?
   18048:	3f373a23 3f32c8c9 3f37c655 3f3238aa     #:7?..2?U.7?.82?
   18058:	3f385216 3f31a81d 3f38dd65 3f311722     .R8?..1?e.8?".1?
   18068:	3f396842 3f3085bb 3f39f2ac 3f2ff3e6     Bh9?..0?..9?../?
   18078:	3f3a7ca4 3f2f61a5 3f3b0629 3f2ecef7     .|:?.a/?).;?...?
   18088:	3f3b8f3b 3f2e3bde 3f3c17d9 3f2da859     ;.;?.;.?..<?Y.-?
   18098:	3f3ca003 3f2d1469 3f3d27b8 3f2c800f     ..<?i.-?.'=?..,?
   180a8:	3f3daef9 3f2beb4a 3f3e35c5 3f2b561b     ..=?J.+?.5>?.V+?
   180b8:	3f3ebc1b 3f2ac082 3f3f41fc 3f2a2a80     ..>?..*?.A??.**?
   180c8:	3f3fc767 3f299415 3f404c5c 3f28fd41     g.??..)?\L@?A.(?
   180d8:	3f40d0da 3f286605 3f4154e1 3f27ce61     ..@?.f(?.TA?a.'?
   180e8:	3f41d870 3f273656 3f425b89 3f269de3     p.A?V6'?.[B?..&?
   180f8:	3f42de29 3f26050a 3f436051 3f256bcb     ).B?..&?Q`C?.k%?
   18108:	3f43e200 3f24d225 3f446337 3f24381a     ..C?%.$?7cD?.8$?
   18118:	3f44e3f5 3f239da9 3f456439 3f2302d3     ..D?..#?9dE?..#?
   18128:	3f45e403 3f226799 3f466354 3f21cbfb     ..E?.g"?TcF?..!?
   18138:	3f46e22a 3f212ff9 3f476085 3f209393     *.F?./!?.`G?.. ?
   18148:	3f47de65 3f1ff6cb 3f485bca 3f1f599f     e.G?...?.[H?.Y.?
   18158:	3f48d8b3 3f1ebc12 3f495521 3f1e1e22     ..H?...?!UI?"..?
   18168:	3f49d112 3f1d7fd1 3f4a4c87 3f1ce11f     ..I?...?.LJ?...?
   18178:	3f4ac77f 3f1c420c 3f4b41fa 3f1ba299     ..J?.B.?.AK?...?
   18188:	3f4bbbf8 3f1b02c6 3f4c3578 3f1a6293     ..K?...?x5L?.b.?
   18198:	3f4cae79 3f19c200 3f4d26fd 3f19210f     y.L?...?.&M?.!.?
   181a8:	3f4d9f02 3f187fc0 3f4e1689 3f17de12     ..M?...?..N?...?
   181b8:	3f4e8d90 3f173c07 3f4f0417 3f16999f     ..N?.<.?..O?...?
   181c8:	3f4f7a1f 3f15f6d9 3f4fefa8 3f1553b7     .zO?...?..O?.S.?
   181d8:	3f5064af 3f14b039 3f50d937 3f140c5f     .dP?9..?7.P?_..?
   181e8:	3f514d3d 3f13682a 3f51c0c2 3f12c39a     =MQ?*h.?..Q?...?
   181f8:	3f5233c6 3f121eb0 3f52a649 3f11796b     .3R?...?I.R?ky.?
   18208:	3f531849 3f10d3cd 3f5389c7 3f102dd5     I.S?...?..S?.-.?
   18218:	3f53fac3 3f0f8784 3f546b3b 3f0ee0db     ..S?...?;kT?...?
   18228:	3f54db31 3f0e39da 3f554aa4 3f0d9281     1.T?.9.?.JU?...?
   18238:	3f55b993 3f0cead0 3f5627fe 3f0c42c9     ..U?...?.'V?.B.?
   18248:	3f5695e5 3f0b9a6b 3f570348 3f0af1b7     ..V?k..?H.W?...?
   18258:	3f577026 3f0a48ad 3f57dc7f 3f099f4e     &pW?.H.?..W?N..?
   18268:	3f584853 3f08f59b 3f58b3a1 3f084b92     SHX?...?..X?.K.?
   18278:	3f591e6a 3f07a136 3f5988ad 3f06f686     j.Y?6..?..Y?...?
   18288:	3f59f26a 3f064b82 3f5a5ba0 3f05a02c     j.Y?.K.?.[Z?,..?
   18298:	3f5ac450 3f04f484 3f5b2c79 3f044889     P.Z?...?y,[?.H.?
   182a8:	3f5b941a 3f039c3d 3f5bfb34 3f02ef9f     ..[?=..?4.[?...?
   182b8:	3f5c61c7 3f0242b1 3f5cc7d1 3f019573     .a\?.B.?..\?s..?
   182c8:	3f5d2d53 3f00e7e4 3f5d924d 3f003a06     S-]?...?M.]?.:.?
   182d8:	3f5df6be 3eff17b2 3f5e5aa6 3efdbabb     ..]?...>.Z^?...>
   182e8:	3f5ebe05 3efc5d27 3f5f20db 3efafef7     ..^?'].>. _?...>
   182f8:	3f5f8327 3ef9a02d 3f5fe4e9 3ef840c8     '._?-..>.._?.@.>
   18308:	3f604621 3ef6e0cb 3f60a6cf 3ef58035     !F`?...>..`?5..>
   18318:	3f6106f2 3ef41f07 3f61668a 3ef2bd43     ..a?...>.fa?C..>
   18328:	3f61c598 3ef15aea 3f62241a 3eeff7fb     ..a?.Z.>.$b?...>
   18338:	3f628210 3eee9479 3f62df7b 3eed3063     ..b?y..>{.b?c0.>
   18348:	3f633c5a 3eebcbbb 3f6398ac 3eea6681     Z<c?...>..c?.f.>
   18358:	3f63f473 3ee900b7 3f644fac 3ee79a5d     s.c?...>.Od?]..>
   18368:	3f64aa59 3ee63375 3f650479 3ee4cbfe     Y.d?u3.>y.e?...>
   18378:	3f655e0b 3ee363fa 3f65b710 3ee1fb6a     .^e?.c.>..e?j..>
   18388:	3f660f88 3ee0924f 3f666771 3edf28a9     ..f?O..>qgf?.(.>
   18398:	3f66becc 3eddbe79 3f671599 3edc53c1     ..f?y..>..g?.S.>
   183a8:	3f676bd8 3edae880 3f67c187 3ed97cb9     .kg?...>..g?.|.>
   183b8:	3f6816a8 3ed8106b 3f686b39 3ed6a399     ..h?k..>9kh?...>
   183c8:	3f68bf3c 3ed53641 3f6912ae 3ed3c867     <.h?A6.>..i?g..>
   183d8:	3f696591 3ed25a09 3f69b7e4 3ed0eb2a     .ei?.Z.>..i?*..>
   183e8:	3f6a09a7 3ecf7bca 3f6a5ad9 3ece0bea     ..j?.{.>.Zj?...>
   183f8:	3f6aab7b 3ecc9b8b 3f6afb8c 3ecb2aae     {.j?...>..j?.*.>
   18408:	3f6b4b0c 3ec9b953 3f6b99fb 3ec8477c     .Kk?S..>..k?|G.>
   18418:	3f6be858 3ec6d529 3f6c3624 3ec5625c     X.k?)..>$6l?\b.>
   18428:	3f6c835e 3ec3ef15 3f6cd007 3ec27b55     ^.l?...>..l?U{.>
   18438:	3f6d1c1d 3ec1071e 3f6d67a1 3ebf926f     ..m?...>.gm?o..>
   18448:	3f6db293 3ebe1d4a 3f6dfcf2 3ebca7af     ..m?J..>..m?...>
   18458:	3f6e46be 3ebb31a0 3f6e8ff8 3eb9bb1e     .Fn?.1.>..n?...>
   18468:	3f6ed89e 3eb8442a 3f6f20b0 3eb6ccc3     ..n?*D.>. o?...>
   18478:	3f6f6830 3eb554ec 3f6faf1b 3eb3dca5     0ho?.T.>..o?...>
   18488:	3f6ff573 3eb263ef 3f703b37 3eb0eacb     s.o?.c.>7;p?...>
   18498:	3f708066 3eaf713a 3f70c502 3eadf73c     f.p?:q.>..p?<..>
   184a8:	3f710908 3eac7cd4 3f714c7a 3eab0201     ..q?.|.>zLq?...>
   184b8:	3f718f57 3ea986c4 3f71d19f 3ea80b1f     W.q?...>..q?...>
   184c8:	3f721352 3ea68f12 3f725470 3ea5129f     R.r?...>pTr?...>
   184d8:	3f7294f8 3ea395c5 3f72d4eb 3ea21887     ..r?...>..r?...>
   184e8:	3f731447 3ea09ae5 3f73530e 3e9f1cdf     G.s?...>.Ss?...>
   184f8:	3f73913f 3e9d9e78 3f73ced9 3e9c1faf     ?.s?x..>..s?...>
   18508:	3f740bdd 3e9aa086 3f74484b 3e9920fe     ..t?...>KHt?. .>
   18518:	3f748422 3e97a117 3f74bf62 3e9620d2     ".t?...>b.t?. .>
   18528:	3f74fa0b 3e94a031 3f75341d 3e931f35     ..t?1..>.4u?5..>
   18538:	3f756d97 3e919ddd 3f75a67b 3e901c2c     .mu?...>{.u?,..>
   18548:	3f75dec6 3e8e9a22 3f76167a 3e8d17c0     ..u?"..>z.v?...>
   18558:	3f764d97 3e8b9507 3f76841b 3e8a11f8     .Mv?...>..v?...>
   18568:	3f76ba07 3e888e93 3f76ef5b 3e870ada     ..v?...>[.v?...>
   18578:	3f772417 3e8586ce 3f77583a 3e840270     .$w?...>:Xw?p..>
   18588:	3f778bc5 3e827dc0 3f77beb7 3e80f8c0     ..w?.}.>..w?...>
   18598:	3f77f110 3e7ee6e1 3f7822d1 3e7bdba4     ..w?..~>."x?..{>
   185a8:	3f7853f8 3e78cfcc 3f788486 3e75c35a     .Sx?..x>..x?Z.u>
   185b8:	3f78b47b 3e72b651 3f78e3d6 3e6fa8b2     {.x?Q.r>..x?..o>
   185c8:	3f791298 3e6c9a7f 3f7940c0 3e698bba     ..y?..l>.@y?..i>
   185d8:	3f796e4e 3e667c66 3f799b43 3e636c83     Nny?f|f>C.y?.lc>
   185e8:	3f79c79d 3e605c13 3f79f35e 3e5d4b1a     ..y?.\`>^.y?.K]>
   185f8:	3f7a1e84 3e5a3997 3f7a4910 3e57278f     ..z?.9Z>.Iz?.'W>
   18608:	3f7a7302 3e541501 3f7a9c59 3e5101f1     .sz?..T>Y.z?..Q>
   18618:	3f7ac516 3e4dee60 3f7aed37 3e4ada4f     ..z?`.M>7.z?O.J>
   18628:	3f7b14be 3e47c5c2 3f7b3bab 3e44b0b9     ..{?..G>.;{?..D>
   18638:	3f7b61fc 3e419b37 3f7b87b2 3e3e853e     .a{?7.A>..{?>.>>
   18648:	3f7baccd 3e3b6ecf 3f7bd14d 3e3857ec     ..{?.n;>M.{?.W8>
   18658:	3f7bf531 3e354098 3f7c187a 3e3228d4     1.{?.@5>z.|?.(2>
   18668:	3f7c3b28 3e2f10a2 3f7c5d3a 3e2bf804     (;|?../>:]|?..+>
   18678:	3f7c7eb0 3e28defc 3f7c9f8a 3e25c58c     .~|?..(>..|?..%>
   18688:	3f7cbfc9 3e22abb6 3f7cdf6c 3e1f917b     ..|?..">l.|?{..>
   18698:	3f7cfe73 3e1c76de 3f7d1cdd 3e195be0     s.|?.v.>..}?.[.>
   186a8:	3f7d3aac 3e164083 3f7d57de 3e1324ca     .:}?.@.>.W}?.$.>
   186b8:	3f7d7474 3e1008b7 3f7d906e 3e0cec4a     tt}?...>n.}?J..>
   186c8:	3f7dabcc 3e09cf86 3f7dc68c 3e06b26e     ..}?...>..}?n..>
   186d8:	3f7de0b1 3e039502 3f7dfa38 3e007745     ..}?...>8.}?Ew.>
   186e8:	3f7e1324 3dfab273 3f7e2b72 3df475c0     $.~?s..=r+~?.u.=
   186f8:	3f7e4323 3dee3876 3f7e5a38 3de7fa9a     #C~?v8.=8Z~?...=
   18708:	3f7e70b0 3de1bc2e 3f7e868b 3ddb7d37     .p~?...=..~?7}.=
   18718:	3f7e9bc9 3dd53db9 3f7eb069 3dcefdb7     ..~?.=.=i.~?...=
   18728:	3f7ec46d 3dc8bd36 3f7ed7d4 3dc27c39     m.~?6..=..~?9|.=
   18738:	3f7eea9d 3dbc3ac3 3f7efcc9 3db5f8da     ..~?.:.=..~?...=
   18748:	3f7f0e58 3dafb680 3f7f1f49 3da973ba     X..?...=I..?.s.=
   18758:	3f7f2f9d 3da3308c 3f7f3f54 3d9cecf9     ./.?.0.=T?.?...=
   18768:	3f7f4e6d 3d96a905 3f7f5ce9 3d9064b4     mN.?...=.\.?.d.=
   18778:	3f7f6ac7 3d8a200a 3f7f7808 3d83db0a     .j.?. .=.x.?...=
   18788:	3f7f84ab 3d7b2b74 3f7f90b1 3d6ea038     ...?t+{=...?8.n=
   18798:	3f7f9c18 3d621468 3f7fa6e3 3d55880e     ...?h.b=...?..U=
   187a8:	3f7fb10f 3d48fb2f 3f7fba9e 3d3c6dd5     ...?/.H=...?.m<=
   187b8:	3f7fc38f 3d2fe007 3f7fcbe2 3d2351cc     ...?../=...?.Q#=
   187c8:	3f7fd398 3d16c32c 3f7fdaaf 3d0a342f     ...?,..=...?/4.=
   187d8:	3f7fe129 3cfb49b9 3f7fe705 3ce22a7b     )..?.I.<...?{*.<
   187e8:	3f7fec43 3cc90ab0 3f7ff0e3 3cafea69     C..?...<...?i..<
   187f8:	3f7ff4e6 3c96c9b6 3f7ff84a 3c7b514b     ...?...<J..?KQ{<
   18808:	3f7ffb11 3c490e90 3f7ffd39 3c16cb59     ...?..I<9..?Y..<
   18818:	3f7ffec4 3bc90f89 3f7fffb1 3b490fc7     ...?...;...?..I;
   18828:	3f800000 00000000 3f7fffb1 bb490fc7     ...?.......?..I.
   18838:	3f7ffec4 bbc90f89 3f7ffd39 bc16cb59     ...?....9..?Y...
   18848:	3f7ffb11 bc490e90 3f7ff84a bc7b514b     ...?..I.J..?KQ{.
   18858:	3f7ff4e6 bc96c9b6 3f7ff0e3 bcafea69     ...?.......?i...
   18868:	3f7fec43 bcc90ab0 3f7fe705 bce22a7b     C..?.......?{*..
   18878:	3f7fe129 bcfb49b9 3f7fdaaf bd0a342f     )..?.I.....?/4..
   18888:	3f7fd398 bd16c32c 3f7fcbe2 bd2351cc     ...?,......?.Q#.
   18898:	3f7fc38f bd2fe007 3f7fba9e bd3c6dd5     ...?../....?.m<.
   188a8:	3f7fb10f bd48fb2f 3f7fa6e3 bd55880e     ...?/.H....?..U.
   188b8:	3f7f9c18 bd621468 3f7f90b1 bd6ea038     ...?h.b....?8.n.
   188c8:	3f7f84ab bd7b2b74 3f7f7808 bd83db0a     ...?t+{..x.?....
   188d8:	3f7f6ac7 bd8a200a 3f7f5ce9 bd9064b4     .j.?. ...\.?.d..
   188e8:	3f7f4e6d bd96a905 3f7f3f54 bd9cecf9     mN.?....T?.?....
   188f8:	3f7f2f9d bda3308c 3f7f1f49 bda973ba     ./.?.0..I..?.s..
   18908:	3f7f0e58 bdafb680 3f7efcc9 bdb5f8da     X..?......~?....
   18918:	3f7eea9d bdbc3ac3 3f7ed7d4 bdc27c39     ..~?.:....~?9|..
   18928:	3f7ec46d bdc8bd36 3f7eb069 bdcefdb7     m.~?6...i.~?....
   18938:	3f7e9bc9 bdd53db9 3f7e868b bddb7d37     ..~?.=....~?7}..
   18948:	3f7e70b0 bde1bc2e 3f7e5a38 bde7fa9a     .p~?....8Z~?....
   18958:	3f7e4323 bdee3876 3f7e2b72 bdf475c0     #C~?v8..r+~?.u..
   18968:	3f7e1324 bdfab273 3f7dfa38 be007745     $.~?s...8.}?Ew..
   18978:	3f7de0b1 be039502 3f7dc68c be06b26e     ..}?......}?n...
   18988:	3f7dabcc be09cf86 3f7d906e be0cec4a     ..}?....n.}?J...
   18998:	3f7d7474 be1008b7 3f7d57de be1324ca     tt}?.....W}?.$..
   189a8:	3f7d3aac be164083 3f7d1cdd be195be0     .:}?.@....}?.[..
   189b8:	3f7cfe73 be1c76de 3f7cdf6c be1f917b     s.|?.v..l.|?{...
   189c8:	3f7cbfc9 be22abb6 3f7c9f8a be25c58c     ..|?.."...|?..%.
   189d8:	3f7c7eb0 be28defc 3f7c5d3a be2bf804     .~|?..(.:]|?..+.
   189e8:	3f7c3b28 be2f10a2 3f7c187a be3228d4     (;|?../.z.|?.(2.
   189f8:	3f7bf531 be354098 3f7bd14d be3857ec     1.{?.@5.M.{?.W8.
   18a08:	3f7baccd be3b6ecf 3f7b87b2 be3e853e     ..{?.n;...{?>.>.
   18a18:	3f7b61fc be419b37 3f7b3bab be44b0b9     .a{?7.A..;{?..D.
   18a28:	3f7b14be be47c5c2 3f7aed37 be4ada4f     ..{?..G.7.z?O.J.
   18a38:	3f7ac516 be4dee60 3f7a9c59 be5101f1     ..z?`.M.Y.z?..Q.
   18a48:	3f7a7302 be541501 3f7a4910 be57278f     .sz?..T..Iz?.'W.
   18a58:	3f7a1e84 be5a3997 3f79f35e be5d4b1a     ..z?.9Z.^.y?.K].
   18a68:	3f79c79d be605c13 3f799b43 be636c83     ..y?.\`.C.y?.lc.
   18a78:	3f796e4e be667c66 3f7940c0 be698bba     Nny?f|f..@y?..i.
   18a88:	3f791298 be6c9a7f 3f78e3d6 be6fa8b2     ..y?..l...x?..o.
   18a98:	3f78b47b be72b651 3f788486 be75c35a     {.x?Q.r...x?Z.u.
   18aa8:	3f7853f8 be78cfcc 3f7822d1 be7bdba4     .Sx?..x.."x?..{.
   18ab8:	3f77f110 be7ee6e1 3f77beb7 be80f8c0     ..w?..~...w?....
   18ac8:	3f778bc5 be827dc0 3f77583a be840270     ..w?.}..:Xw?p...
   18ad8:	3f772417 be8586ce 3f76ef5b be870ada     .$w?....[.v?....
   18ae8:	3f76ba07 be888e93 3f76841b be8a11f8     ..v?......v?....
   18af8:	3f764d97 be8b9507 3f76167a be8d17c0     .Mv?....z.v?....
   18b08:	3f75dec6 be8e9a22 3f75a67b be901c2c     ..u?"...{.u?,...
   18b18:	3f756d97 be919ddd 3f75341d be931f35     .mu?.....4u?5...
   18b28:	3f74fa0b be94a031 3f74bf62 be9620d2     ..t?1...b.t?. ..
   18b38:	3f748422 be97a117 3f74484b be9920fe     ".t?....KHt?. ..
   18b48:	3f740bdd be9aa086 3f73ced9 be9c1faf     ..t?......s?....
   18b58:	3f73913f be9d9e78 3f73530e be9f1cdf     ?.s?x....Ss?....
   18b68:	3f731447 bea09ae5 3f72d4eb bea21887     G.s?......r?....
   18b78:	3f7294f8 bea395c5 3f725470 bea5129f     ..r?....pTr?....
   18b88:	3f721352 bea68f12 3f71d19f bea80b1f     R.r?......q?....
   18b98:	3f718f57 bea986c4 3f714c7a beab0201     W.q?....zLq?....
   18ba8:	3f710908 beac7cd4 3f70c502 beadf73c     ..q?.|....p?<...
   18bb8:	3f708066 beaf713a 3f703b37 beb0eacb     f.p?:q..7;p?....
   18bc8:	3f6ff573 beb263ef 3f6faf1b beb3dca5     s.o?.c....o?....
   18bd8:	3f6f6830 beb554ec 3f6f20b0 beb6ccc3     0ho?.T... o?....
   18be8:	3f6ed89e beb8442a 3f6e8ff8 beb9bb1e     ..n?*D....n?....
   18bf8:	3f6e46be bebb31a0 3f6dfcf2 bebca7af     .Fn?.1....m?....
   18c08:	3f6db293 bebe1d4a 3f6d67a1 bebf926f     ..m?J....gm?o...
   18c18:	3f6d1c1d bec1071e 3f6cd007 bec27b55     ..m?......l?U{..
   18c28:	3f6c835e bec3ef15 3f6c3624 bec5625c     ^.l?....$6l?\b..
   18c38:	3f6be858 bec6d529 3f6b99fb bec8477c     X.k?).....k?|G..
   18c48:	3f6b4b0c bec9b953 3f6afb8c becb2aae     .Kk?S.....j?.*..
   18c58:	3f6aab7b becc9b8b 3f6a5ad9 bece0bea     {.j?.....Zj?....
   18c68:	3f6a09a7 becf7bca 3f69b7e4 bed0eb2a     ..j?.{....i?*...
   18c78:	3f696591 bed25a09 3f6912ae bed3c867     .ei?.Z....i?g...
   18c88:	3f68bf3c bed53641 3f686b39 bed6a399     <.h?A6..9kh?....
   18c98:	3f6816a8 bed8106b 3f67c187 bed97cb9     ..h?k.....g?.|..
   18ca8:	3f676bd8 bedae880 3f671599 bedc53c1     .kg?......g?.S..
   18cb8:	3f66becc beddbe79 3f666771 bedf28a9     ..f?y...qgf?.(..
   18cc8:	3f660f88 bee0924f 3f65b710 bee1fb6a     ..f?O.....e?j...
   18cd8:	3f655e0b bee363fa 3f650479 bee4cbfe     .^e?.c..y.e?....
   18ce8:	3f64aa59 bee63375 3f644fac bee79a5d     Y.d?u3...Od?]...
   18cf8:	3f63f473 bee900b7 3f6398ac beea6681     s.c?......c?.f..
   18d08:	3f633c5a beebcbbb 3f62df7b beed3063     Z<c?....{.b?c0..
   18d18:	3f628210 beee9479 3f62241a beeff7fb     ..b?y....$b?....
   18d28:	3f61c598 bef15aea 3f61668a bef2bd43     ..a?.Z...fa?C...
   18d38:	3f6106f2 bef41f07 3f60a6cf bef58035     ..a?......`?5...
   18d48:	3f604621 bef6e0cb 3f5fe4e9 bef840c8     !F`?......_?.@..
   18d58:	3f5f8327 bef9a02d 3f5f20db befafef7     '._?-.... _?....
   18d68:	3f5ebe05 befc5d27 3f5e5aa6 befdbabb     ..^?']...Z^?....
   18d78:	3f5df6be beff17b2 3f5d924d bf003a06     ..]?....M.]?.:..
   18d88:	3f5d2d53 bf00e7e4 3f5cc7d1 bf019573     S-]?......\?s...
   18d98:	3f5c61c7 bf0242b1 3f5bfb34 bf02ef9f     .a\?.B..4.[?....
   18da8:	3f5b941a bf039c3d 3f5b2c79 bf044889     ..[?=...y,[?.H..
   18db8:	3f5ac450 bf04f484 3f5a5ba0 bf05a02c     P.Z?.....[Z?,...
   18dc8:	3f59f26a bf064b82 3f5988ad bf06f686     j.Y?.K....Y?....
   18dd8:	3f591e6a bf07a136 3f58b3a1 bf084b92     j.Y?6.....X?.K..
   18de8:	3f584853 bf08f59b 3f57dc7f bf099f4e     SHX?......W?N...
   18df8:	3f577026 bf0a48ad 3f570348 bf0af1b7     &pW?.H..H.W?....
   18e08:	3f5695e5 bf0b9a6b 3f5627fe bf0c42c9     ..V?k....'V?.B..
   18e18:	3f55b993 bf0cead0 3f554aa4 bf0d9281     ..U?.....JU?....
   18e28:	3f54db31 bf0e39da 3f546b3b bf0ee0db     1.T?.9..;kT?....
   18e38:	3f53fac3 bf0f8784 3f5389c7 bf102dd5     ..S?......S?.-..
   18e48:	3f531849 bf10d3cd 3f52a649 bf11796b     I.S?....I.R?ky..
   18e58:	3f5233c6 bf121eb0 3f51c0c2 bf12c39a     .3R?......Q?....
   18e68:	3f514d3d bf13682a 3f50d937 bf140c5f     =MQ?*h..7.P?_...
   18e78:	3f5064af bf14b039 3f4fefa8 bf1553b7     .dP?9.....O?.S..
   18e88:	3f4f7a1f bf15f6d9 3f4f0417 bf16999f     .zO?......O?....
   18e98:	3f4e8d90 bf173c07 3f4e1689 bf17de12     ..N?.<....N?....
   18ea8:	3f4d9f02 bf187fc0 3f4d26fd bf19210f     ..M?.....&M?.!..
   18eb8:	3f4cae79 bf19c200 3f4c3578 bf1a6293     y.L?....x5L?.b..
   18ec8:	3f4bbbf8 bf1b02c6 3f4b41fa bf1ba299     ..K?.....AK?....
   18ed8:	3f4ac77f bf1c420c 3f4a4c87 bf1ce11f     ..J?.B...LJ?....
   18ee8:	3f49d112 bf1d7fd1 3f495521 bf1e1e22     ..I?....!UI?"...
   18ef8:	3f48d8b3 bf1ebc12 3f485bca bf1f599f     ..H?.....[H?.Y..
   18f08:	3f47de65 bf1ff6cb 3f476085 bf209393     e.G?.....`G?.. .
   18f18:	3f46e22a bf212ff9 3f466354 bf21cbfb     *.F?./!.TcF?..!.
   18f28:	3f45e403 bf226799 3f456439 bf2302d3     ..E?.g".9dE?..#.
   18f38:	3f44e3f5 bf239da9 3f446337 bf24381a     ..D?..#.7cD?.8$.
   18f48:	3f43e200 bf24d225 3f436051 bf256bcb     ..C?%.$.Q`C?.k%.
   18f58:	3f42de29 bf26050a 3f425b89 bf269de3     ).B?..&..[B?..&.
   18f68:	3f41d870 bf273656 3f4154e1 bf27ce61     p.A?V6'..TA?a.'.
   18f78:	3f40d0da bf286605 3f404c5c bf28fd41     ..@?.f(.\L@?A.(.
   18f88:	3f3fc767 bf299415 3f3f41fc bf2a2a80     g.??..)..A??.**.
   18f98:	3f3ebc1b bf2ac082 3f3e35c5 bf2b561b     ..>?..*..5>?.V+.
   18fa8:	3f3daef9 bf2beb4a 3f3d27b8 bf2c800f     ..=?J.+..'=?..,.
   18fb8:	3f3ca003 bf2d1469 3f3c17d9 bf2da859     ..<?i.-...<?Y.-.
   18fc8:	3f3b8f3b bf2e3bde 3f3b0629 bf2ecef7     ;.;?.;..).;?....
   18fd8:	3f3a7ca4 bf2f61a5 3f39f2ac bf2ff3e6     .|:?.a/...9?../.
   18fe8:	3f396842 bf3085bb 3f38dd65 bf311722     Bh9?..0.e.8?".1.
   18ff8:	3f385216 bf31a81d 3f37c655 bf3238aa     .R8?..1.U.7?.82.
   19008:	3f373a23 bf32c8c9 3f36ad7f bf33587a     #:7?..2...6?zX3.
   19018:	3f36206c bf33e7bc 3f3592e7 bf34768f     l 6?..3...5?.v4.
   19028:	3f3504f3 bf3504f3 3f34768f bf3592e7     ..5?..5..v4?..5.
   19038:	3f33e7bc bf36206c 3f33587a bf36ad7f     ..3?l 6.zX3?..6.
   19048:	3f32c8c9 bf373a23 3f3238aa bf37c655     ..2?#:7..82?U.7.
   19058:	3f31a81d bf385216 3f311722 bf38dd65     ..1?.R8.".1?e.8.
   19068:	3f3085bb bf396842 3f2ff3e6 bf39f2ac     ..0?Bh9.../?..9.
   19078:	3f2f61a5 bf3a7ca4 3f2ecef7 bf3b0629     .a/?.|:....?).;.
   19088:	3f2e3bde bf3b8f3b 3f2da859 bf3c17d9     .;.?;.;.Y.-?..<.
   19098:	3f2d1469 bf3ca003 3f2c800f bf3d27b8     i.-?..<...,?.'=.
   190a8:	3f2beb4a bf3daef9 3f2b561b bf3e35c5     J.+?..=..V+?.5>.
   190b8:	3f2ac082 bf3ebc1b 3f2a2a80 bf3f41fc     ..*?..>..**?.A?.
   190c8:	3f299415 bf3fc767 3f28fd41 bf404c5c     ..)?g.?.A.(?\L@.
   190d8:	3f286605 bf40d0da 3f27ce61 bf4154e1     .f(?..@.a.'?.TA.
   190e8:	3f273656 bf41d870 3f269de3 bf425b89     V6'?p.A...&?.[B.
   190f8:	3f26050a bf42de29 3f256bcb bf436051     ..&?).B..k%?Q`C.
   19108:	3f24d225 bf43e200 3f24381a bf446337     %.$?..C..8$?7cD.
   19118:	3f239da9 bf44e3f5 3f2302d3 bf456439     ..#?..D...#?9dE.
   19128:	3f226799 bf45e403 3f21cbfb bf466354     .g"?..E...!?TcF.
   19138:	3f212ff9 bf46e22a 3f209393 bf476085     ./!?*.F... ?.`G.
   19148:	3f1ff6cb bf47de65 3f1f599f bf485bca     ...?e.G..Y.?.[H.
   19158:	3f1ebc12 bf48d8b3 3f1e1e22 bf495521     ...?..H."..?!UI.
   19168:	3f1d7fd1 bf49d112 3f1ce11f bf4a4c87     ...?..I....?.LJ.
   19178:	3f1c420c bf4ac77f 3f1ba299 bf4b41fa     .B.?..J....?.AK.
   19188:	3f1b02c6 bf4bbbf8 3f1a6293 bf4c3578     ...?..K..b.?x5L.
   19198:	3f19c200 bf4cae79 3f19210f bf4d26fd     ...?y.L..!.?.&M.
   191a8:	3f187fc0 bf4d9f02 3f17de12 bf4e1689     ...?..M....?..N.
   191b8:	3f173c07 bf4e8d90 3f16999f bf4f0417     .<.?..N....?..O.
   191c8:	3f15f6d9 bf4f7a1f 3f1553b7 bf4fefa8     ...?.zO..S.?..O.
   191d8:	3f14b039 bf5064af 3f140c5f bf50d937     9..?.dP._..?7.P.
   191e8:	3f13682a bf514d3d 3f12c39a bf51c0c2     *h.?=MQ....?..Q.
   191f8:	3f121eb0 bf5233c6 3f11796b bf52a649     ...?.3R.ky.?I.R.
   19208:	3f10d3cd bf531849 3f102dd5 bf5389c7     ...?I.S..-.?..S.
   19218:	3f0f8784 bf53fac3 3f0ee0db bf546b3b     ...?..S....?;kT.
   19228:	3f0e39da bf54db31 3f0d9281 bf554aa4     .9.?1.T....?.JU.
   19238:	3f0cead0 bf55b993 3f0c42c9 bf5627fe     ...?..U..B.?.'V.
   19248:	3f0b9a6b bf5695e5 3f0af1b7 bf570348     k..?..V....?H.W.
   19258:	3f0a48ad bf577026 3f099f4e bf57dc7f     .H.?&pW.N..?..W.
   19268:	3f08f59b bf584853 3f084b92 bf58b3a1     ...?SHX..K.?..X.
   19278:	3f07a136 bf591e6a 3f06f686 bf5988ad     6..?j.Y....?..Y.
   19288:	3f064b82 bf59f26a 3f05a02c bf5a5ba0     .K.?j.Y.,..?.[Z.
   19298:	3f04f484 bf5ac450 3f044889 bf5b2c79     ...?P.Z..H.?y,[.
   192a8:	3f039c3d bf5b941a 3f02ef9f bf5bfb34     =..?..[....?4.[.
   192b8:	3f0242b1 bf5c61c7 3f019573 bf5cc7d1     .B.?.a\.s..?..\.
   192c8:	3f00e7e4 bf5d2d53 3f003a06 bf5d924d     ...?S-]..:.?M.].
   192d8:	3eff17b2 bf5df6be 3efdbabb bf5e5aa6     ...>..]....>.Z^.
   192e8:	3efc5d27 bf5ebe05 3efafef7 bf5f20db     '].>..^....>. _.
   192f8:	3ef9a02d bf5f8327 3ef840c8 bf5fe4e9     -..>'._..@.>.._.
   19308:	3ef6e0cb bf604621 3ef58035 bf60a6cf     ...>!F`.5..>..`.
   19318:	3ef41f07 bf6106f2 3ef2bd43 bf61668a     ...>..a.C..>.fa.
   19328:	3ef15aea bf61c598 3eeff7fb bf62241a     .Z.>..a....>.$b.
   19338:	3eee9479 bf628210 3eed3063 bf62df7b     y..>..b.c0.>{.b.
   19348:	3eebcbbb bf633c5a 3eea6681 bf6398ac     ...>Z<c..f.>..c.
   19358:	3ee900b7 bf63f473 3ee79a5d bf644fac     ...>s.c.]..>.Od.
   19368:	3ee63375 bf64aa59 3ee4cbfe bf650479     u3.>Y.d....>y.e.
   19378:	3ee363fa bf655e0b 3ee1fb6a bf65b710     .c.>.^e.j..>..e.
   19388:	3ee0924f bf660f88 3edf28a9 bf666771     O..>..f..(.>qgf.
   19398:	3eddbe79 bf66becc 3edc53c1 bf671599     y..>..f..S.>..g.
   193a8:	3edae880 bf676bd8 3ed97cb9 bf67c187     ...>.kg..|.>..g.
   193b8:	3ed8106b bf6816a8 3ed6a399 bf686b39     k..>..h....>9kh.
   193c8:	3ed53641 bf68bf3c 3ed3c867 bf6912ae     A6.><.h.g..>..i.
   193d8:	3ed25a09 bf696591 3ed0eb2a bf69b7e4     .Z.>.ei.*..>..i.
   193e8:	3ecf7bca bf6a09a7 3ece0bea bf6a5ad9     .{.>..j....>.Zj.
   193f8:	3ecc9b8b bf6aab7b 3ecb2aae bf6afb8c     ...>{.j..*.>..j.
   19408:	3ec9b953 bf6b4b0c 3ec8477c bf6b99fb     S..>.Kk.|G.>..k.
   19418:	3ec6d529 bf6be858 3ec5625c bf6c3624     )..>X.k.\b.>$6l.
   19428:	3ec3ef15 bf6c835e 3ec27b55 bf6cd007     ...>^.l.U{.>..l.
   19438:	3ec1071e bf6d1c1d 3ebf926f bf6d67a1     ...>..m.o..>.gm.
   19448:	3ebe1d4a bf6db293 3ebca7af bf6dfcf2     J..>..m....>..m.
   19458:	3ebb31a0 bf6e46be 3eb9bb1e bf6e8ff8     .1.>.Fn....>..n.
   19468:	3eb8442a bf6ed89e 3eb6ccc3 bf6f20b0     *D.>..n....>. o.
   19478:	3eb554ec bf6f6830 3eb3dca5 bf6faf1b     .T.>0ho....>..o.
   19488:	3eb263ef bf6ff573 3eb0eacb bf703b37     .c.>s.o....>7;p.
   19498:	3eaf713a bf708066 3eadf73c bf70c502     :q.>f.p.<..>..p.
   194a8:	3eac7cd4 bf710908 3eab0201 bf714c7a     .|.>..q....>zLq.
   194b8:	3ea986c4 bf718f57 3ea80b1f bf71d19f     ...>W.q....>..q.
   194c8:	3ea68f12 bf721352 3ea5129f bf725470     ...>R.r....>pTr.
   194d8:	3ea395c5 bf7294f8 3ea21887 bf72d4eb     ...>..r....>..r.
   194e8:	3ea09ae5 bf731447 3e9f1cdf bf73530e     ...>G.s....>.Ss.
   194f8:	3e9d9e78 bf73913f 3e9c1faf bf73ced9     x..>?.s....>..s.
   19508:	3e9aa086 bf740bdd 3e9920fe bf74484b     ...>..t.. .>KHt.
   19518:	3e97a117 bf748422 3e9620d2 bf74bf62     ...>".t.. .>b.t.
   19528:	3e94a031 bf74fa0b 3e931f35 bf75341d     1..>..t.5..>.4u.
   19538:	3e919ddd bf756d97 3e901c2c bf75a67b     ...>.mu.,..>{.u.
   19548:	3e8e9a22 bf75dec6 3e8d17c0 bf76167a     "..>..u....>z.v.
   19558:	3e8b9507 bf764d97 3e8a11f8 bf76841b     ...>.Mv....>..v.
   19568:	3e888e93 bf76ba07 3e870ada bf76ef5b     ...>..v....>[.v.
   19578:	3e8586ce bf772417 3e840270 bf77583a     ...>.$w.p..>:Xw.
   19588:	3e827dc0 bf778bc5 3e80f8c0 bf77beb7     .}.>..w....>..w.
   19598:	3e7ee6e1 bf77f110 3e7bdba4 bf7822d1     ..~>..w...{>."x.
   195a8:	3e78cfcc bf7853f8 3e75c35a bf788486     ..x>.Sx.Z.u>..x.
   195b8:	3e72b651 bf78b47b 3e6fa8b2 bf78e3d6     Q.r>{.x...o>..x.
   195c8:	3e6c9a7f bf791298 3e698bba bf7940c0     ..l>..y...i>.@y.
   195d8:	3e667c66 bf796e4e 3e636c83 bf799b43     f|f>Nny..lc>C.y.
   195e8:	3e605c13 bf79c79d 3e5d4b1a bf79f35e     .\`>..y..K]>^.y.
   195f8:	3e5a3997 bf7a1e84 3e57278f bf7a4910     .9Z>..z..'W>.Iz.
   19608:	3e541501 bf7a7302 3e5101f1 bf7a9c59     ..T>.sz...Q>Y.z.
   19618:	3e4dee60 bf7ac516 3e4ada4f bf7aed37     `.M>..z.O.J>7.z.
   19628:	3e47c5c2 bf7b14be 3e44b0b9 bf7b3bab     ..G>..{...D>.;{.
   19638:	3e419b37 bf7b61fc 3e3e853e bf7b87b2     7.A>.a{.>.>>..{.
   19648:	3e3b6ecf bf7baccd 3e3857ec bf7bd14d     .n;>..{..W8>M.{.
   19658:	3e354098 bf7bf531 3e3228d4 bf7c187a     .@5>1.{..(2>z.|.
   19668:	3e2f10a2 bf7c3b28 3e2bf804 bf7c5d3a     ../>(;|...+>:]|.
   19678:	3e28defc bf7c7eb0 3e25c58c bf7c9f8a     ..(>.~|...%>..|.
   19688:	3e22abb6 bf7cbfc9 3e1f917b bf7cdf6c     ..">..|.{..>l.|.
   19698:	3e1c76de bf7cfe73 3e195be0 bf7d1cdd     .v.>s.|..[.>..}.
   196a8:	3e164083 bf7d3aac 3e1324ca bf7d57de     .@.>.:}..$.>.W}.
   196b8:	3e1008b7 bf7d7474 3e0cec4a bf7d906e     ...>tt}.J..>n.}.
   196c8:	3e09cf86 bf7dabcc 3e06b26e bf7dc68c     ...>..}.n..>..}.
   196d8:	3e039502 bf7de0b1 3e007745 bf7dfa38     ...>..}.Ew.>8.}.
   196e8:	3dfab273 bf7e1324 3df475c0 bf7e2b72     s..=$.~..u.=r+~.
   196f8:	3dee3876 bf7e4323 3de7fa9a bf7e5a38     v8.=#C~....=8Z~.
   19708:	3de1bc2e bf7e70b0 3ddb7d37 bf7e868b     ...=.p~.7}.=..~.
   19718:	3dd53db9 bf7e9bc9 3dcefdb7 bf7eb069     .=.=..~....=i.~.
   19728:	3dc8bd36 bf7ec46d 3dc27c39 bf7ed7d4     6..=m.~.9|.=..~.
   19738:	3dbc3ac3 bf7eea9d 3db5f8da bf7efcc9     .:.=..~....=..~.
   19748:	3dafb680 bf7f0e58 3da973ba bf7f1f49     ...=X....s.=I...
   19758:	3da3308c bf7f2f9d 3d9cecf9 bf7f3f54     .0.=./.....=T?..
   19768:	3d96a905 bf7f4e6d 3d9064b4 bf7f5ce9     ...=mN...d.=.\..
   19778:	3d8a200a bf7f6ac7 3d83db0a bf7f7808     . .=.j.....=.x..
   19788:	3d7b2b74 bf7f84ab 3d6ea038 bf7f90b1     t+{=....8.n=....
   19798:	3d621468 bf7f9c18 3d55880e bf7fa6e3     h.b=......U=....
   197a8:	3d48fb2f bf7fb10f 3d3c6dd5 bf7fba9e     /.H=.....m<=....
   197b8:	3d2fe007 bf7fc38f 3d2351cc bf7fcbe2     ../=.....Q#=....
   197c8:	3d16c32c bf7fd398 3d0a342f bf7fdaaf     ,..=..../4.=....
   197d8:	3cfb49b9 bf7fe129 3ce22a7b bf7fe705     .I.<)...{*.<....
   197e8:	3cc90ab0 bf7fec43 3cafea69 bf7ff0e3     ...<C...i..<....
   197f8:	3c96c9b6 bf7ff4e6 3c7b514b bf7ff84a     ...<....KQ{<J...
   19808:	3c490e90 bf7ffb11 3c16cb59 bf7ffd39     ..I<....Y..<9...
   19818:	3bc90f89 bf7ffec4 3b490fc7 bf7fffb1     ...;......I;....

00019828 <twiddleCoef_rfft_4096>:
   19828:	00000000 3f800000 3ac90fd4 3f7fffec     .......?...:...?
   19838:	3b490fc7 3f7fffb1 3b96cbc1 3f7fff4e     ..I;...?...;N..?
   19848:	3bc90f89 3f7ffec4 3bfb5330 3f7ffe13     ...;...?0S.;...?
   19858:	3c16cb59 3f7ffd39 3c2fed02 3f7ffc39     Y..<9..?../<9..?
   19868:	3c490e90 3f7ffb11 3c623000 3f7ff9c1     ..I<...?.0b<...?
   19878:	3c7b514b 3f7ff84a 3c8a3938 3f7ff6ac     KQ{<J..?89.<...?
   19888:	3c96c9b6 3f7ff4e6 3ca35a1c 3f7ff2f8     ...<...?.Z.<...?
   19898:	3cafea69 3f7ff0e3 3cbc7a9b 3f7feea7     i..<...?.z.<...?
   198a8:	3cc90ab0 3f7fec43 3cd59aa6 3f7fe9b8     ...<C..?...<...?
   198b8:	3ce22a7b 3f7fe705 3ceeba2d 3f7fe42b     {*.<...?-..<+..?
   198c8:	3cfb49b9 3f7fe129 3d03ec90 3f7fde00     .I.<)..?...=...?
   198d8:	3d0a342f 3f7fdaaf 3d107bb8 3f7fd737     /4.=...?.{.=7..?
   198e8:	3d16c32c 3f7fd398 3d1d0a88 3f7fcfd1     ,..=...?...=...?
   198f8:	3d2351cc 3f7fcbe2 3d2998f6 3f7fc7cc     .Q#=...?..)=...?
   19908:	3d2fe007 3f7fc38f 3d3626fc 3f7fbf2a     ../=...?.&6=*..?
   19918:	3d3c6dd5 3f7fba9e 3d42b491 3f7fb5ea     .m<=...?..B=...?
   19928:	3d48fb2f 3f7fb10f 3d4f41af 3f7fac0d     /.H=...?.AO=...?
   19938:	3d55880e 3f7fa6e3 3d5bce4c 3f7fa191     ..U=...?L.[=...?
   19948:	3d621468 3f7f9c18 3d685a62 3f7f9678     h.b=...?bZh=x..?
   19958:	3d6ea038 3f7f90b1 3d74e5e9 3f7f8ac2     8.n=...?..t=...?
   19968:	3d7b2b74 3f7f84ab 3d80b86c 3f7f7e6d     t+{=...?l..=m~.?
   19978:	3d83db0a 3f7f7808 3d86fd94 3f7f717b     ...=.x.?...={q.?
   19988:	3d8a200a 3f7f6ac7 3d8d426a 3f7f63ec     . .=.j.?jB.=.c.?
   19998:	3d9064b4 3f7f5ce9 3d9386e7 3f7f55bf     .d.=.\.?...=.U.?
   199a8:	3d96a905 3f7f4e6d 3d99cb0a 3f7f46f4     ...=mN.?...=.F.?
   199b8:	3d9cecf9 3f7f3f54 3da00ecf 3f7f378d     ...=T?.?...=.7.?
   199c8:	3da3308c 3f7f2f9d 3da65230 3f7f2787     .0.=./.?0R.=.'.?
   199d8:	3da973ba 3f7f1f49 3dac952b 3f7f16e4     .s.=I..?+..=...?
   199e8:	3dafb680 3f7f0e58 3db2d7bb 3f7f05a4     ...=X..?...=...?
   199f8:	3db5f8da 3f7efcc9 3db919dd 3f7ef3c7     ...=..~?...=..~?
   19a08:	3dbc3ac3 3f7eea9d 3dbf5b8d 3f7ee14c     .:.=..~?.[.=L.~?
   19a18:	3dc27c39 3f7ed7d4 3dc59cc6 3f7ece34     9|.=..~?...=4.~?
   19a28:	3dc8bd36 3f7ec46d 3dcbdd86 3f7eba7f     6..=m.~?...=..~?
   19a38:	3dcefdb7 3f7eb069 3dd21dc8 3f7ea62d     ...=i.~?...=-.~?
   19a48:	3dd53db9 3f7e9bc9 3dd85d89 3f7e913d     .=.=..~?.].==.~?
   19a58:	3ddb7d37 3f7e868b 3dde9cc4 3f7e7bb1     7}.=..~?...=.{~?
   19a68:	3de1bc2e 3f7e70b0 3de4db76 3f7e6588     ...=.p~?v..=.e~?
   19a78:	3de7fa9a 3f7e5a38 3deb199a 3f7e4ec1     ...=8Z~?...=.N~?
   19a88:	3dee3876 3f7e4323 3df1572e 3f7e375e     v8.=#C~?.W.=^7~?
   19a98:	3df475c0 3f7e2b72 3df7942c 3f7e1f5e     .u.=r+~?,..=^.~?
   19aa8:	3dfab273 3f7e1324 3dfdd092 3f7e06c2     s..=$.~?...=..~?
   19ab8:	3e007745 3f7dfa38 3e02062e 3f7ded88     Ew.>8.}?...>..}?
   19ac8:	3e039502 3f7de0b1 3e0523c2 3f7dd3b2     ...>..}?.#.>..}?
   19ad8:	3e06b26e 3f7dc68c 3e084105 3f7db940     n..>..}?.A.>@.}?
   19ae8:	3e09cf86 3f7dabcc 3e0b5df3 3f7d9e30     ...>..}?.].>0.}?
   19af8:	3e0cec4a 3f7d906e 3e0e7a8b 3f7d8285     J..>n.}?.z.>..}?
   19b08:	3e1008b7 3f7d7474 3e1196cc 3f7d663d     ...>tt}?...>=f}?
   19b18:	3e1324ca 3f7d57de 3e14b2b2 3f7d4959     .$.>.W}?...>YI}?
   19b28:	3e164083 3f7d3aac 3e17ce3d 3f7d2bd8     .@.>.:}?=..>.+}?
   19b38:	3e195be0 3f7d1cdd 3e1ae96b 3f7d0dbc     .[.>..}?k..>..}?
   19b48:	3e1c76de 3f7cfe73 3e1e0438 3f7cef03     .v.>s.|?8..>..|?
   19b58:	3e1f917b 3f7cdf6c 3e211ea5 3f7ccfae     {..>l.|?..!>..|?
   19b68:	3e22abb6 3f7cbfc9 3e2438ad 3f7cafbd     ..">..|?.8$>..|?
   19b78:	3e25c58c 3f7c9f8a 3e275251 3f7c8f31     ..%>..|?QR'>1.|?
   19b88:	3e28defc 3f7c7eb0 3e2a6b8d 3f7c6e08     ..(>.~|?.k*>.n|?
   19b98:	3e2bf804 3f7c5d3a 3e2d8461 3f7c4c44     ..+>:]|?a.->DL|?
   19ba8:	3e2f10a2 3f7c3b28 3e309cc9 3f7c29e5     ../>(;|?..0>.)|?
   19bb8:	3e3228d4 3f7c187a 3e33b4c4 3f7c06e9     .(2>z.|?..3>..|?
   19bc8:	3e354098 3f7bf531 3e36cc50 3f7be353     .@5>1.{?P.6>S.{?
   19bd8:	3e3857ec 3f7bd14d 3e39e36c 3f7bbf20     .W8>M.{?l.9> .{?
   19be8:	3e3b6ecf 3f7baccd 3e3cfa15 3f7b9a53     .n;>..{?..<>S.{?
   19bf8:	3e3e853e 3f7b87b2 3e401049 3f7b74ea     >.>>..{?I.@>.t{?
   19c08:	3e419b37 3f7b61fc 3e432607 3f7b4ee7     7.A>.a{?.&C>.N{?
   19c18:	3e44b0b9 3f7b3bab 3e463b4d 3f7b2848     ..D>.;{?M;F>H({?
   19c28:	3e47c5c2 3f7b14be 3e495018 3f7b010e     ..G>..{?.PI>..{?
   19c38:	3e4ada4f 3f7aed37 3e4c6467 3f7ad93a     O.J>7.z?gdL>:.z?
   19c48:	3e4dee60 3f7ac516 3e4f7838 3f7ab0cb     `.M>..z?8xO>..z?
   19c58:	3e5101f1 3f7a9c59 3e528b89 3f7a87c1     ..Q>Y.z?..R>..z?
   19c68:	3e541501 3f7a7302 3e559e58 3f7a5e1c     ..T>.sz?X.U>.^z?
   19c78:	3e57278f 3f7a4910 3e58b0a4 3f7a33dd     .'W>.Iz?..X>.3z?
   19c88:	3e5a3997 3f7a1e84 3e5bc26a 3f7a0904     .9Z>..z?j.[>..z?
   19c98:	3e5d4b1a 3f79f35e 3e5ed3a8 3f79dd91     .K]>^.y?..^>..y?
   19ca8:	3e605c13 3f79c79d 3e61e45c 3f79b183     .\`>..y?\.a>..y?
   19cb8:	3e636c83 3f799b43 3e64f486 3f7984dc     .lc>C.y?..d>..y?
   19cc8:	3e667c66 3f796e4e 3e680422 3f79579a     f|f>Nny?".h>.Wy?
   19cd8:	3e698bba 3f7940c0 3e6b132f 3f7929bf     ..i>.@y?/.k>.)y?
   19ce8:	3e6c9a7f 3f791298 3e6e21ab 3f78fb4a     ..l>..y?.!n>J.x?
   19cf8:	3e6fa8b2 3f78e3d6 3e712f94 3f78cc3b     ..o>..x?./q>;.x?
   19d08:	3e72b651 3f78b47b 3e743ce8 3f789c93     Q.r>{.x?.<t>..x?
   19d18:	3e75c35a 3f788486 3e7749a6 3f786c52     Z.u>..x?.Iw>Rlx?
   19d28:	3e78cfcc 3f7853f8 3e7a55cb 3f783b77     ..x>.Sx?.Uz>w;x?
   19d38:	3e7bdba4 3f7822d1 3e7d6156 3f780a04     ..{>."x?Va}>..x?
   19d48:	3e7ee6e1 3f77f110 3e803622 3f77d7f7     ..~>..w?"6.>..w?
   19d58:	3e80f8c0 3f77beb7 3e81bb4a 3f77a551     ...>..w?J..>Q.w?
   19d68:	3e827dc0 3f778bc5 3e834022 3f777213     .}.>..w?"@.>.rw?
   19d78:	3e840270 3f77583a 3e84c4aa 3f773e3c     p..>:Xw?...><>w?
   19d88:	3e8586ce 3f772417 3e8648df 3f7709cc     ...>.$w?.H.>..w?
   19d98:	3e870ada 3f76ef5b 3e87ccc1 3f76d4c4     ...>[.v?...>..v?
   19da8:	3e888e93 3f76ba07 3e895050 3f769f24     ...>..v?PP.>$.v?
   19db8:	3e8a11f8 3f76841b 3e8ad38a 3f7668ec     ...>..v?...>.hv?
   19dc8:	3e8b9507 3f764d97 3e8c566e 3f76321b     ...>.Mv?nV.>.2v?
   19dd8:	3e8d17c0 3f76167a 3e8dd8fc 3f75fab3     ...>z.v?...>..u?
   19de8:	3e8e9a22 3f75dec6 3e8f5b32 3f75c2b3     "..>..u?2[.>..u?
   19df8:	3e901c2c 3f75a67b 3e90dd10 3f758a1c     ,..>{.u?...>..u?
   19e08:	3e919ddd 3f756d97 3e925e94 3f7550ed     ...>.mu?.^.>.Pu?
   19e18:	3e931f35 3f75341d 3e93dfbf 3f751727     5..>.4u?...>'.u?
   19e28:	3e94a031 3f74fa0b 3e95608d 3f74dcc9     1..>..t?.`.>..t?
   19e38:	3e9620d2 3f74bf62 3e96e100 3f74a1d5     . .>b.t?...>..t?
   19e48:	3e97a117 3f748422 3e986116 3f746649     ...>".t?.a.>Ift?
   19e58:	3e9920fe 3f74484b 3e99e0ce 3f742a27     . .>KHt?...>'*t?
   19e68:	3e9aa086 3f740bdd 3e9b6027 3f73ed6e     ...>..t?'`.>n.s?
   19e78:	3e9c1faf 3f73ced9 3e9cdf20 3f73b01f     ...>..s? ..>..s?
   19e88:	3e9d9e78 3f73913f 3e9e5db8 3f737239     x..>?.s?.].>9rs?
   19e98:	3e9f1cdf 3f73530e 3e9fdbee 3f7333be     ...>.Ss?...>.3s?
   19ea8:	3ea09ae5 3f731447 3ea159c2 3f72f4ac     ...>G.s?.Y.>..r?
   19eb8:	3ea21887 3f72d4eb 3ea2d733 3f72b504     ...>..r?3..>..r?
   19ec8:	3ea395c5 3f7294f8 3ea4543f 3f7274c7     ...>..r??T.>.tr?
   19ed8:	3ea5129f 3f725470 3ea5d0e5 3f7233f4     ...>pTr?...>.3r?
   19ee8:	3ea68f12 3f721352 3ea74d25 3f71f28c     ...>R.r?%M.>..q?
   19ef8:	3ea80b1f 3f71d19f 3ea8c8fe 3f71b08e     ...>..q?...>..q?
   19f08:	3ea986c4 3f718f57 3eaa446f 3f716dfb     ...>W.q?oD.>.mq?
   19f18:	3eab0201 3f714c7a 3eabbf77 3f712ad4     ...>zLq?w..>.*q?
   19f28:	3eac7cd4 3f710908 3ead3a15 3f70e717     .|.>..q?.:.>..p?
   19f38:	3eadf73c 3f70c502 3eaeb449 3f70a2c6     <..>..p?I..>..p?
   19f48:	3eaf713a 3f708066 3eb02e10 3f705de1     :q.>f.p?...>.]p?
   19f58:	3eb0eacb 3f703b37 3eb1a76b 3f701867     ...>7;p?k..>g.p?
   19f68:	3eb263ef 3f6ff573 3eb32058 3f6fd25a     .c.>s.o?X .>Z.o?
   19f78:	3eb3dca5 3f6faf1b 3eb498d6 3f6f8bb8     ...>..o?...>..o?
   19f88:	3eb554ec 3f6f6830 3eb610e6 3f6f4483     .T.>0ho?...>.Do?
   19f98:	3eb6ccc3 3f6f20b0 3eb78884 3f6efcba     ...>. o?...>..n?
   19fa8:	3eb8442a 3f6ed89e 3eb8ffb2 3f6eb45d     *D.>..n?...>].n?
   19fb8:	3eb9bb1e 3f6e8ff8 3eba766e 3f6e6b6d     ...>..n?nv.>mkn?
   19fc8:	3ebb31a0 3f6e46be 3ebbecb6 3f6e21eb     .1.>.Fn?...>.!n?
   19fd8:	3ebca7af 3f6dfcf2 3ebd628b 3f6dd7d5     ...>..m?.b.>..m?
   19fe8:	3ebe1d4a 3f6db293 3ebed7eb 3f6d8d2d     J..>..m?...>-.m?
   19ff8:	3ebf926f 3f6d67a1 3ec04cd5 3f6d41f2     o..>.gm?.L.>.Am?
   1a008:	3ec1071e 3f6d1c1d 3ec1c148 3f6cf624     ...>..m?H..>$.l?
   1a018:	3ec27b55 3f6cd007 3ec33544 3f6ca9c5     U{.>..l?D5.>..l?
   1a028:	3ec3ef15 3f6c835e 3ec4a8c8 3f6c5cd4     ...>^.l?...>.\l?
   1a038:	3ec5625c 3f6c3624 3ec61bd2 3f6c0f50     \b.>$6l?...>P.l?
   1a048:	3ec6d529 3f6be858 3ec78e62 3f6bc13b     )..>X.k?b..>;.k?
   1a058:	3ec8477c 3f6b99fb 3ec90077 3f6b7295     |G.>..k?w..>.rk?
   1a068:	3ec9b953 3f6b4b0c 3eca7210 3f6b235e     S..>.Kk?.r.>^#k?
   1a078:	3ecb2aae 3f6afb8c 3ecbe32c 3f6ad395     .*.>..j?,..>..j?
   1a088:	3ecc9b8b 3f6aab7b 3ecd53ca 3f6a833c     ...>{.j?.S.><.j?
   1a098:	3ece0bea 3f6a5ad9 3ecec3ea 3f6a3252     ...>.Zj?...>R2j?
   1a0a8:	3ecf7bca 3f6a09a7 3ed0338a 3f69e0d7     .{.>..j?.3.>..i?
   1a0b8:	3ed0eb2a 3f69b7e4 3ed1a2aa 3f698ecc     *..>..i?...>..i?
   1a0c8:	3ed25a09 3f696591 3ed31148 3f693c32     .Z.>.ei?H..>2<i?
   1a0d8:	3ed3c867 3f6912ae 3ed47f64 3f68e907     g..>..i?d..>..h?
   1a0e8:	3ed53641 3f68bf3c 3ed5ecfd 3f68954c     A6.><.h?...>L.h?
   1a0f8:	3ed6a399 3f686b39 3ed75a13 3f684103     ...>9kh?.Z.>.Ah?
   1a108:	3ed8106b 3f6816a8 3ed8c6a3 3f67ec2a     k..>..h?...>*.g?
   1a118:	3ed97cb9 3f67c187 3eda32ad 3f6796c1     .|.>..g?.2.>..g?
   1a128:	3edae880 3f676bd8 3edb9e31 3f6740ca     ...>.kg?1..>.@g?
   1a138:	3edc53c1 3f671599 3edd092e 3f66ea45     .S.>..g?...>E.f?
   1a148:	3eddbe79 3f66becc 3ede73a2 3f669330     y..>..f?.s.>0.f?
   1a158:	3edf28a9 3f666771 3edfdd8d 3f663b8e     .(.>qgf?...>.;f?
   1a168:	3ee0924f 3f660f88 3ee146ee 3f65e35e     O..>..f?.F.>^.e?
   1a178:	3ee1fb6a 3f65b710 3ee2afc4 3f658aa0     j..>..e?...>..e?
   1a188:	3ee363fa 3f655e0b 3ee4180e 3f653154     .c.>.^e?...>T1e?
   1a198:	3ee4cbfe 3f650479 3ee57fcb 3f64d77b     ...>y.e?...>{.d?
   1a1a8:	3ee63375 3f64aa59 3ee6e6fb 3f647d14     u3.>Y.d?...>.}d?
   1a1b8:	3ee79a5d 3f644fac 3ee84d9c 3f642221     ]..>.Od?.M.>!"d?
   1a1c8:	3ee900b7 3f63f473 3ee9b3ae 3f63c6a1     ...>s.c?...>..c?
   1a1d8:	3eea6681 3f6398ac 3eeb1930 3f636a95     .f.>..c?0..>.jc?
   1a1e8:	3eebcbbb 3f633c5a 3eec7e21 3f630dfc     ...>Z<c?!~.>..c?
   1a1f8:	3eed3063 3f62df7b 3eede280 3f62b0d7     c0.>{.b?...>..b?
   1a208:	3eee9479 3f628210 3eef464c 3f625326     y..>..b?LF.>&Sb?
   1a218:	3eeff7fb 3f62241a 3ef0a985 3f61f4ea     ...>.$b?...>..a?
   1a228:	3ef15aea 3f61c598 3ef20c29 3f619622     .Z.>..a?)..>".a?
   1a238:	3ef2bd43 3f61668a 3ef36e38 3f6136d0     C..>.fa?8n.>.6a?
   1a248:	3ef41f07 3f6106f2 3ef4cfb1 3f60d6f2     ...>..a?...>..`?
   1a258:	3ef58035 3f60a6cf 3ef63093 3f607689     5..>..`?.0.>.v`?
   1a268:	3ef6e0cb 3f604621 3ef790dc 3f601596     ...>!F`?...>..`?
   1a278:	3ef840c8 3f5fe4e9 3ef8f08e 3f5fb419     .@.>.._?...>.._?
   1a288:	3ef9a02d 3f5f8327 3efa4fa5 3f5f5212     -..>'._?.O.>.R_?
   1a298:	3efafef7 3f5f20db 3efbae22 3f5eef81     ...>. _?"..>..^?
   1a2a8:	3efc5d27 3f5ebe05 3efd0c04 3f5e8c67     '].>..^?...>g.^?
   1a2b8:	3efdbabb 3f5e5aa6 3efe694a 3f5e28c3     ...>.Z^?Ji.>.(^?
   1a2c8:	3eff17b2 3f5df6be 3effc5f3 3f5dc497     ...>..]?...>..]?
   1a2d8:	3f003a06 3f5d924d 3f0090ff 3f5d5fe1     .:.?M.]?...?._]?
   1a2e8:	3f00e7e4 3f5d2d53 3f013eb5 3f5cfaa3     ...?S-]?.>.?..\?
   1a2f8:	3f019573 3f5cc7d1 3f01ec1c 3f5c94dd     s..?..\?...?..\?
   1a308:	3f0242b1 3f5c61c7 3f029932 3f5c2e8e     .B.?.a\?2..?..\?
   1a318:	3f02ef9f 3f5bfb34 3f0345f8 3f5bc7b8     ...?4.[?.E.?..[?
   1a328:	3f039c3d 3f5b941a 3f03f26d 3f5b605a     =..?..[?m..?Z`[?
   1a338:	3f044889 3f5b2c79 3f049e91 3f5af875     .H.?y,[?...?u.Z?
   1a348:	3f04f484 3f5ac450 3f054a62 3f5a9009     ...?P.Z?bJ.?..Z?
   1a358:	3f05a02c 3f5a5ba0 3f05f5e2 3f5a2716     ,..?.[Z?...?.'Z?
   1a368:	3f064b82 3f59f26a 3f06a10e 3f59bd9c     .K.?j.Y?...?..Y?
   1a378:	3f06f686 3f5988ad 3f074be8 3f59539c     ...?..Y?.K.?.SY?
   1a388:	3f07a136 3f591e6a 3f07f66f 3f58e917     6..?j.Y?o..?..X?
   1a398:	3f084b92 3f58b3a1 3f08a0a1 3f587e0b     .K.?..X?...?.~X?
   1a3a8:	3f08f59b 3f584853 3f094a7f 3f581279     ...?SHX?.J.?y.X?
   1a3b8:	3f099f4e 3f57dc7f 3f09f409 3f57a663     N..?..W?...?c.W?
   1a3c8:	3f0a48ad 3f577026 3f0a9d3d 3f5739c7     .H.?&pW?=..?.9W?
   1a3d8:	3f0af1b7 3f570348 3f0b461c 3f56cca7     ...?H.W?.F.?..V?
   1a3e8:	3f0b9a6b 3f5695e5 3f0beea5 3f565f02     k..?..V?...?._V?
   1a3f8:	3f0c42c9 3f5627fe 3f0c96d7 3f55f0d9     .B.?.'V?...?..U?
   1a408:	3f0cead0 3f55b993 3f0d3eb3 3f55822c     ...?..U?.>.?,.U?
   1a418:	3f0d9281 3f554aa4 3f0de638 3f5512fb     ...?.JU?8..?..U?
   1a428:	3f0e39da 3f54db31 3f0e8d65 3f54a347     .9.?1.T?e..?G.T?
   1a438:	3f0ee0db 3f546b3b 3f0f343b 3f54330f     ...?;kT?;4.?.3T?
   1a448:	3f0f8784 3f53fac3 3f0fdab8 3f53c255     ...?..S?...?U.S?
   1a458:	3f102dd5 3f5389c7 3f1080dc 3f535118     .-.?..S?...?.QS?
   1a468:	3f10d3cd 3f531849 3f1126a7 3f52df59     ...?I.S?.&.?Y.R?
   1a478:	3f11796b 3f52a649 3f11cc19 3f526d18     ky.?I.R?...?.mR?
   1a488:	3f121eb0 3f5233c6 3f127130 3f51fa54     ...?.3R?0q.?T.Q?
   1a498:	3f12c39a 3f51c0c2 3f1315ee 3f518710     ...?..Q?...?..Q?
   1a4a8:	3f13682a 3f514d3d 3f13ba50 3f51134a     *h.?=MQ?P..?J.Q?
   1a4b8:	3f140c5f 3f50d937 3f145e58 3f509f03     _..?7.P?X^.?..P?
   1a4c8:	3f14b039 3f5064af 3f150204 3f502a3b     9..?.dP?...?;*P?
   1a4d8:	3f1553b7 3f4fefa8 3f15a554 3f4fb4f4     .S.?..O?T..?..O?
   1a4e8:	3f15f6d9 3f4f7a1f 3f164847 3f4f3f2b     ...?.zO?GH.?+?O?
   1a4f8:	3f16999f 3f4f0417 3f16eadf 3f4ec8e4     ...?..O?...?..N?
   1a508:	3f173c07 3f4e8d90 3f178d18 3f4e521c     .<.?..N?...?.RN?
   1a518:	3f17de12 3f4e1689 3f182ef5 3f4ddad5     ...?..N?...?..M?
   1a528:	3f187fc0 3f4d9f02 3f18d073 3f4d6310     ...?..M?s..?.cM?
   1a538:	3f19210f 3f4d26fd 3f197194 3f4ceacb     .!.?.&M?.q.?..L?
   1a548:	3f19c200 3f4cae79 3f1a1255 3f4c7208     ...?y.L?U..?.rL?
   1a558:	3f1a6293 3f4c3578 3f1ab2b8 3f4bf8c7     .b.?x5L?...?..K?
   1a568:	3f1b02c6 3f4bbbf8 3f1b52bb 3f4b7f09     ...?..K?.R.?..K?
   1a578:	3f1ba299 3f4b41fa 3f1bf25f 3f4b04cc     ...?.AK?_..?..K?
   1a588:	3f1c420c 3f4ac77f 3f1c91a2 3f4a8a13     .B.?..J?...?..J?
   1a598:	3f1ce11f 3f4a4c87 3f1d3084 3f4a0edc     ...?.LJ?.0.?..J?
   1a5a8:	3f1d7fd1 3f49d112 3f1dcf06 3f499329     ...?..I?...?).I?
   1a5b8:	3f1e1e22 3f495521 3f1e6d26 3f4916fa     "..?!UI?&m.?..I?
   1a5c8:	3f1ebc12 3f48d8b3 3f1f0ae5 3f489a4e     ...?..H?...?N.H?
   1a5d8:	3f1f599f 3f485bca 3f1fa841 3f481d27     .Y.?.[H?A..?'.H?
   1a5e8:	3f1ff6cb 3f47de65 3f20453b 3f479f84     ...?e.G?;E ?..G?
   1a5f8:	3f209393 3f476085 3f20e1d2 3f472167     .. ?.`G?.. ?g!G?
   1a608:	3f212ff9 3f46e22a 3f217e06 3f46a2ce     ./!?*.F?.~!?..F?
   1a618:	3f21cbfb 3f466354 3f2219d7 3f4623bb     ..!?TcF?.."?.#F?
   1a628:	3f226799 3f45e403 3f22b543 3f45a42d     .g"?..E?C."?-.E?
   1a638:	3f2302d3 3f456439 3f23504b 3f452426     ..#?9dE?KP#?&$E?
   1a648:	3f239da9 3f44e3f5 3f23eaee 3f44a3a5     ..#?..D?..#?..D?
   1a658:	3f24381a 3f446337 3f24852c 3f4422ab     .8$?7cD?,.$?."D?
   1a668:	3f24d225 3f43e200 3f251f04 3f43a138     %.$?..C?..%?8.C?
   1a678:	3f256bcb 3f436051 3f25b877 3f431f4c     .k%?Q`C?w.%?L.C?
   1a688:	3f26050a 3f42de29 3f265184 3f429ce8     ..&?).B?.Q&?..B?
   1a698:	3f269de3 3f425b89 3f26ea2a 3f421a0b     ..&?.[B?*.&?..B?
   1a6a8:	3f273656 3f41d870 3f278268 3f4196b7     V6'?p.A?h.'?..A?
   1a6b8:	3f27ce61 3f4154e1 3f281a40 3f4112ec     a.'?.TA?@.(?..A?
   1a6c8:	3f286605 3f40d0da 3f28b1b0 3f408ea9     .f(?..@?..(?..@?
   1a6d8:	3f28fd41 3f404c5c 3f2948b8 3f4009f0     A.(?\L@?.H)?..@?
   1a6e8:	3f299415 3f3fc767 3f29df57 3f3f84c0     ..)?g.??W.)?..??
   1a6f8:	3f2a2a80 3f3f41fc 3f2a758e 3f3eff1b     .**?.A??.u*?..>?
   1a708:	3f2ac082 3f3ebc1b 3f2b0b5b 3f3e78ff     ..*?..>?[.+?.x>?
   1a718:	3f2b561b 3f3e35c5 3f2ba0bf 3f3df26e     .V+?.5>?..+?n.=?
   1a728:	3f2beb4a 3f3daef9 3f2c35b9 3f3d6b67     J.+?..=?.5,?gk=?
   1a738:	3f2c800f 3f3d27b8 3f2cca49 3f3ce3ec     ..,?.'=?I.,?..<?
   1a748:	3f2d1469 3f3ca003 3f2d5e6f 3f3c5bfc     i.-?..<?o^-?.[<?
   1a758:	3f2da859 3f3c17d9 3f2df229 3f3bd398     Y.-?..<?).-?..;?
   1a768:	3f2e3bde 3f3b8f3b 3f2e8578 3f3b4ac1     .;.?;.;?x..?.J;?
   1a778:	3f2ecef7 3f3b0629 3f2f185b 3f3ac175     ...?).;?[./?u.:?
   1a788:	3f2f61a5 3f3a7ca4 3f2faad3 3f3a37b7     .a/?.|:?../?.7:?
   1a798:	3f2ff3e6 3f39f2ac 3f303cde 3f39ad85     ../?..9?.<0?..9?
   1a7a8:	3f3085bb 3f396842 3f30ce7c 3f3922e1     ..0?Bh9?|.0?."9?
   1a7b8:	3f311722 3f38dd65 3f315fad 3f3897cb     ".1?e.8?._1?..8?
   1a7c8:	3f31a81d 3f385216 3f31f071 3f380c43     ..1?.R8?q.1?C.8?
   1a7d8:	3f3238aa 3f37c655 3f3280c7 3f37804a     .82?U.7?..2?J.7?
   1a7e8:	3f32c8c9 3f373a23 3f3310af 3f36f3df     ..2?#:7?..3?..6?
   1a7f8:	3f33587a 3f36ad7f 3f33a029 3f366704     zX3?..6?).3?.g6?
   1a808:	3f33e7bc 3f36206c 3f342f34 3f35d9b8     ..3?l 6?4/4?..5?
   1a818:	3f34768f 3f3592e7 3f34bdcf 3f354bfb     .v4?..5?..4?.K5?
   1a828:	3f3504f3 3f3504f3 3f354bfb 3f34bdcf     ..5?..5?.K5?..4?
   1a838:	3f3592e7 3f34768f 3f35d9b8 3f342f34     ..5?.v4?..5?4/4?
   1a848:	3f36206c 3f33e7bc 3f366704 3f33a029     l 6?..3?.g6?).3?
   1a858:	3f36ad7f 3f33587a 3f36f3df 3f3310af     ..6?zX3?..6?..3?
   1a868:	3f373a23 3f32c8c9 3f37804a 3f3280c7     #:7?..2?J.7?..2?
   1a878:	3f37c655 3f3238aa 3f380c43 3f31f071     U.7?.82?C.8?q.1?
   1a888:	3f385216 3f31a81d 3f3897cb 3f315fad     .R8?..1?..8?._1?
   1a898:	3f38dd65 3f311722 3f3922e1 3f30ce7c     e.8?".1?."9?|.0?
   1a8a8:	3f396842 3f3085bb 3f39ad85 3f303cde     Bh9?..0?..9?.<0?
   1a8b8:	3f39f2ac 3f2ff3e6 3f3a37b7 3f2faad3     ..9?../?.7:?../?
   1a8c8:	3f3a7ca4 3f2f61a5 3f3ac175 3f2f185b     .|:?.a/?u.:?[./?
   1a8d8:	3f3b0629 3f2ecef7 3f3b4ac1 3f2e8578     ).;?...?.J;?x..?
   1a8e8:	3f3b8f3b 3f2e3bde 3f3bd398 3f2df229     ;.;?.;.?..;?).-?
   1a8f8:	3f3c17d9 3f2da859 3f3c5bfc 3f2d5e6f     ..<?Y.-?.[<?o^-?
   1a908:	3f3ca003 3f2d1469 3f3ce3ec 3f2cca49     ..<?i.-?..<?I.,?
   1a918:	3f3d27b8 3f2c800f 3f3d6b67 3f2c35b9     .'=?..,?gk=?.5,?
   1a928:	3f3daef9 3f2beb4a 3f3df26e 3f2ba0bf     ..=?J.+?n.=?..+?
   1a938:	3f3e35c5 3f2b561b 3f3e78ff 3f2b0b5b     .5>?.V+?.x>?[.+?
   1a948:	3f3ebc1b 3f2ac082 3f3eff1b 3f2a758e     ..>?..*?..>?.u*?
   1a958:	3f3f41fc 3f2a2a80 3f3f84c0 3f29df57     .A??.**?..??W.)?
   1a968:	3f3fc767 3f299415 3f4009f0 3f2948b8     g.??..)?..@?.H)?
   1a978:	3f404c5c 3f28fd41 3f408ea9 3f28b1b0     \L@?A.(?..@?..(?
   1a988:	3f40d0da 3f286605 3f4112ec 3f281a40     ..@?.f(?..A?@.(?
   1a998:	3f4154e1 3f27ce61 3f4196b7 3f278268     .TA?a.'?..A?h.'?
   1a9a8:	3f41d870 3f273656 3f421a0b 3f26ea2a     p.A?V6'?..B?*.&?
   1a9b8:	3f425b89 3f269de3 3f429ce8 3f265184     .[B?..&?..B?.Q&?
   1a9c8:	3f42de29 3f26050a 3f431f4c 3f25b877     ).B?..&?L.C?w.%?
   1a9d8:	3f436051 3f256bcb 3f43a138 3f251f04     Q`C?.k%?8.C?..%?
   1a9e8:	3f43e200 3f24d225 3f4422ab 3f24852c     ..C?%.$?."D?,.$?
   1a9f8:	3f446337 3f24381a 3f44a3a5 3f23eaee     7cD?.8$?..D?..#?
   1aa08:	3f44e3f5 3f239da9 3f452426 3f23504b     ..D?..#?&$E?KP#?
   1aa18:	3f456439 3f2302d3 3f45a42d 3f22b543     9dE?..#?-.E?C."?
   1aa28:	3f45e403 3f226799 3f4623bb 3f2219d7     ..E?.g"?.#F?.."?
   1aa38:	3f466354 3f21cbfb 3f46a2ce 3f217e06     TcF?..!?..F?.~!?
   1aa48:	3f46e22a 3f212ff9 3f472167 3f20e1d2     *.F?./!?g!G?.. ?
   1aa58:	3f476085 3f209393 3f479f84 3f20453b     .`G?.. ?..G?;E ?
   1aa68:	3f47de65 3f1ff6cb 3f481d27 3f1fa841     e.G?...?'.H?A..?
   1aa78:	3f485bca 3f1f599f 3f489a4e 3f1f0ae5     .[H?.Y.?N.H?...?
   1aa88:	3f48d8b3 3f1ebc12 3f4916fa 3f1e6d26     ..H?...?..I?&m.?
   1aa98:	3f495521 3f1e1e22 3f499329 3f1dcf06     !UI?"..?).I?...?
   1aaa8:	3f49d112 3f1d7fd1 3f4a0edc 3f1d3084     ..I?...?..J?.0.?
   1aab8:	3f4a4c87 3f1ce11f 3f4a8a13 3f1c91a2     .LJ?...?..J?...?
   1aac8:	3f4ac77f 3f1c420c 3f4b04cc 3f1bf25f     ..J?.B.?..K?_..?
   1aad8:	3f4b41fa 3f1ba299 3f4b7f09 3f1b52bb     .AK?...?..K?.R.?
   1aae8:	3f4bbbf8 3f1b02c6 3f4bf8c7 3f1ab2b8     ..K?...?..K?...?
   1aaf8:	3f4c3578 3f1a6293 3f4c7208 3f1a1255     x5L?.b.?.rL?U..?
   1ab08:	3f4cae79 3f19c200 3f4ceacb 3f197194     y.L?...?..L?.q.?
   1ab18:	3f4d26fd 3f19210f 3f4d6310 3f18d073     .&M?.!.?.cM?s..?
   1ab28:	3f4d9f02 3f187fc0 3f4ddad5 3f182ef5     ..M?...?..M?...?
   1ab38:	3f4e1689 3f17de12 3f4e521c 3f178d18     ..N?...?.RN?...?
   1ab48:	3f4e8d90 3f173c07 3f4ec8e4 3f16eadf     ..N?.<.?..N?...?
   1ab58:	3f4f0417 3f16999f 3f4f3f2b 3f164847     ..O?...?+?O?GH.?
   1ab68:	3f4f7a1f 3f15f6d9 3f4fb4f4 3f15a554     .zO?...?..O?T..?
   1ab78:	3f4fefa8 3f1553b7 3f502a3b 3f150204     ..O?.S.?;*P?...?
   1ab88:	3f5064af 3f14b039 3f509f03 3f145e58     .dP?9..?..P?X^.?
   1ab98:	3f50d937 3f140c5f 3f51134a 3f13ba50     7.P?_..?J.Q?P..?
   1aba8:	3f514d3d 3f13682a 3f518710 3f1315ee     =MQ?*h.?..Q?...?
   1abb8:	3f51c0c2 3f12c39a 3f51fa54 3f127130     ..Q?...?T.Q?0q.?
   1abc8:	3f5233c6 3f121eb0 3f526d18 3f11cc19     .3R?...?.mR?...?
   1abd8:	3f52a649 3f11796b 3f52df59 3f1126a7     I.R?ky.?Y.R?.&.?
   1abe8:	3f531849 3f10d3cd 3f535118 3f1080dc     I.S?...?.QS?...?
   1abf8:	3f5389c7 3f102dd5 3f53c255 3f0fdab8     ..S?.-.?U.S?...?
   1ac08:	3f53fac3 3f0f8784 3f54330f 3f0f343b     ..S?...?.3T?;4.?
   1ac18:	3f546b3b 3f0ee0db 3f54a347 3f0e8d65     ;kT?...?G.T?e..?
   1ac28:	3f54db31 3f0e39da 3f5512fb 3f0de638     1.T?.9.?..U?8..?
   1ac38:	3f554aa4 3f0d9281 3f55822c 3f0d3eb3     .JU?...?,.U?.>.?
   1ac48:	3f55b993 3f0cead0 3f55f0d9 3f0c96d7     ..U?...?..U?...?
   1ac58:	3f5627fe 3f0c42c9 3f565f02 3f0beea5     .'V?.B.?._V?...?
   1ac68:	3f5695e5 3f0b9a6b 3f56cca7 3f0b461c     ..V?k..?..V?.F.?
   1ac78:	3f570348 3f0af1b7 3f5739c7 3f0a9d3d     H.W?...?.9W?=..?
   1ac88:	3f577026 3f0a48ad 3f57a663 3f09f409     &pW?.H.?c.W?...?
   1ac98:	3f57dc7f 3f099f4e 3f581279 3f094a7f     ..W?N..?y.X?.J.?
   1aca8:	3f584853 3f08f59b 3f587e0b 3f08a0a1     SHX?...?.~X?...?
   1acb8:	3f58b3a1 3f084b92 3f58e917 3f07f66f     ..X?.K.?..X?o..?
   1acc8:	3f591e6a 3f07a136 3f59539c 3f074be8     j.Y?6..?.SY?.K.?
   1acd8:	3f5988ad 3f06f686 3f59bd9c 3f06a10e     ..Y?...?..Y?...?
   1ace8:	3f59f26a 3f064b82 3f5a2716 3f05f5e2     j.Y?.K.?.'Z?...?
   1acf8:	3f5a5ba0 3f05a02c 3f5a9009 3f054a62     .[Z?,..?..Z?bJ.?
   1ad08:	3f5ac450 3f04f484 3f5af875 3f049e91     P.Z?...?u.Z?...?
   1ad18:	3f5b2c79 3f044889 3f5b605a 3f03f26d     y,[?.H.?Z`[?m..?
   1ad28:	3f5b941a 3f039c3d 3f5bc7b8 3f0345f8     ..[?=..?..[?.E.?
   1ad38:	3f5bfb34 3f02ef9f 3f5c2e8e 3f029932     4.[?...?..\?2..?
   1ad48:	3f5c61c7 3f0242b1 3f5c94dd 3f01ec1c     .a\?.B.?..\?...?
   1ad58:	3f5cc7d1 3f019573 3f5cfaa3 3f013eb5     ..\?s..?..\?.>.?
   1ad68:	3f5d2d53 3f00e7e4 3f5d5fe1 3f0090ff     S-]?...?._]?...?
   1ad78:	3f5d924d 3f003a06 3f5dc497 3effc5f3     M.]?.:.?..]?...>
   1ad88:	3f5df6be 3eff17b2 3f5e28c3 3efe694a     ..]?...>.(^?Ji.>
   1ad98:	3f5e5aa6 3efdbabb 3f5e8c67 3efd0c04     .Z^?...>g.^?...>
   1ada8:	3f5ebe05 3efc5d27 3f5eef81 3efbae22     ..^?'].>..^?"..>
   1adb8:	3f5f20db 3efafef7 3f5f5212 3efa4fa5     . _?...>.R_?.O.>
   1adc8:	3f5f8327 3ef9a02d 3f5fb419 3ef8f08e     '._?-..>.._?...>
   1add8:	3f5fe4e9 3ef840c8 3f601596 3ef790dc     .._?.@.>..`?...>
   1ade8:	3f604621 3ef6e0cb 3f607689 3ef63093     !F`?...>.v`?.0.>
   1adf8:	3f60a6cf 3ef58035 3f60d6f2 3ef4cfb1     ..`?5..>..`?...>
   1ae08:	3f6106f2 3ef41f07 3f6136d0 3ef36e38     ..a?...>.6a?8n.>
   1ae18:	3f61668a 3ef2bd43 3f619622 3ef20c29     .fa?C..>".a?)..>
   1ae28:	3f61c598 3ef15aea 3f61f4ea 3ef0a985     ..a?.Z.>..a?...>
   1ae38:	3f62241a 3eeff7fb 3f625326 3eef464c     .$b?...>&Sb?LF.>
   1ae48:	3f628210 3eee9479 3f62b0d7 3eede280     ..b?y..>..b?...>
   1ae58:	3f62df7b 3eed3063 3f630dfc 3eec7e21     {.b?c0.>..c?!~.>
   1ae68:	3f633c5a 3eebcbbb 3f636a95 3eeb1930     Z<c?...>.jc?0..>
   1ae78:	3f6398ac 3eea6681 3f63c6a1 3ee9b3ae     ..c?.f.>..c?...>
   1ae88:	3f63f473 3ee900b7 3f642221 3ee84d9c     s.c?...>!"d?.M.>
   1ae98:	3f644fac 3ee79a5d 3f647d14 3ee6e6fb     .Od?]..>.}d?...>
   1aea8:	3f64aa59 3ee63375 3f64d77b 3ee57fcb     Y.d?u3.>{.d?...>
   1aeb8:	3f650479 3ee4cbfe 3f653154 3ee4180e     y.e?...>T1e?...>
   1aec8:	3f655e0b 3ee363fa 3f658aa0 3ee2afc4     .^e?.c.>..e?...>
   1aed8:	3f65b710 3ee1fb6a 3f65e35e 3ee146ee     ..e?j..>^.e?.F.>
   1aee8:	3f660f88 3ee0924f 3f663b8e 3edfdd8d     ..f?O..>.;f?...>
   1aef8:	3f666771 3edf28a9 3f669330 3ede73a2     qgf?.(.>0.f?.s.>
   1af08:	3f66becc 3eddbe79 3f66ea45 3edd092e     ..f?y..>E.f?...>
   1af18:	3f671599 3edc53c1 3f6740ca 3edb9e31     ..g?.S.>.@g?1..>
   1af28:	3f676bd8 3edae880 3f6796c1 3eda32ad     .kg?...>..g?.2.>
   1af38:	3f67c187 3ed97cb9 3f67ec2a 3ed8c6a3     ..g?.|.>*.g?...>
   1af48:	3f6816a8 3ed8106b 3f684103 3ed75a13     ..h?k..>.Ah?.Z.>
   1af58:	3f686b39 3ed6a399 3f68954c 3ed5ecfd     9kh?...>L.h?...>
   1af68:	3f68bf3c 3ed53641 3f68e907 3ed47f64     <.h?A6.>..h?d..>
   1af78:	3f6912ae 3ed3c867 3f693c32 3ed31148     ..i?g..>2<i?H..>
   1af88:	3f696591 3ed25a09 3f698ecc 3ed1a2aa     .ei?.Z.>..i?...>
   1af98:	3f69b7e4 3ed0eb2a 3f69e0d7 3ed0338a     ..i?*..>..i?.3.>
   1afa8:	3f6a09a7 3ecf7bca 3f6a3252 3ecec3ea     ..j?.{.>R2j?...>
   1afb8:	3f6a5ad9 3ece0bea 3f6a833c 3ecd53ca     .Zj?...><.j?.S.>
   1afc8:	3f6aab7b 3ecc9b8b 3f6ad395 3ecbe32c     {.j?...>..j?,..>
   1afd8:	3f6afb8c 3ecb2aae 3f6b235e 3eca7210     ..j?.*.>^#k?.r.>
   1afe8:	3f6b4b0c 3ec9b953 3f6b7295 3ec90077     .Kk?S..>.rk?w..>
   1aff8:	3f6b99fb 3ec8477c 3f6bc13b 3ec78e62     ..k?|G.>;.k?b..>
   1b008:	3f6be858 3ec6d529 3f6c0f50 3ec61bd2     X.k?)..>P.l?...>
   1b018:	3f6c3624 3ec5625c 3f6c5cd4 3ec4a8c8     $6l?\b.>.\l?...>
   1b028:	3f6c835e 3ec3ef15 3f6ca9c5 3ec33544     ^.l?...>..l?D5.>
   1b038:	3f6cd007 3ec27b55 3f6cf624 3ec1c148     ..l?U{.>$.l?H..>
   1b048:	3f6d1c1d 3ec1071e 3f6d41f2 3ec04cd5     ..m?...>.Am?.L.>
   1b058:	3f6d67a1 3ebf926f 3f6d8d2d 3ebed7eb     .gm?o..>-.m?...>
   1b068:	3f6db293 3ebe1d4a 3f6dd7d5 3ebd628b     ..m?J..>..m?.b.>
   1b078:	3f6dfcf2 3ebca7af 3f6e21eb 3ebbecb6     ..m?...>.!n?...>
   1b088:	3f6e46be 3ebb31a0 3f6e6b6d 3eba766e     .Fn?.1.>mkn?nv.>
   1b098:	3f6e8ff8 3eb9bb1e 3f6eb45d 3eb8ffb2     ..n?...>].n?...>
   1b0a8:	3f6ed89e 3eb8442a 3f6efcba 3eb78884     ..n?*D.>..n?...>
   1b0b8:	3f6f20b0 3eb6ccc3 3f6f4483 3eb610e6     . o?...>.Do?...>
   1b0c8:	3f6f6830 3eb554ec 3f6f8bb8 3eb498d6     0ho?.T.>..o?...>
   1b0d8:	3f6faf1b 3eb3dca5 3f6fd25a 3eb32058     ..o?...>Z.o?X .>
   1b0e8:	3f6ff573 3eb263ef 3f701867 3eb1a76b     s.o?.c.>g.p?k..>
   1b0f8:	3f703b37 3eb0eacb 3f705de1 3eb02e10     7;p?...>.]p?...>
   1b108:	3f708066 3eaf713a 3f70a2c6 3eaeb449     f.p?:q.>..p?I..>
   1b118:	3f70c502 3eadf73c 3f70e717 3ead3a15     ..p?<..>..p?.:.>
   1b128:	3f710908 3eac7cd4 3f712ad4 3eabbf77     ..q?.|.>.*q?w..>
   1b138:	3f714c7a 3eab0201 3f716dfb 3eaa446f     zLq?...>.mq?oD.>
   1b148:	3f718f57 3ea986c4 3f71b08e 3ea8c8fe     W.q?...>..q?...>
   1b158:	3f71d19f 3ea80b1f 3f71f28c 3ea74d25     ..q?...>..q?%M.>
   1b168:	3f721352 3ea68f12 3f7233f4 3ea5d0e5     R.r?...>.3r?...>
   1b178:	3f725470 3ea5129f 3f7274c7 3ea4543f     pTr?...>.tr??T.>
   1b188:	3f7294f8 3ea395c5 3f72b504 3ea2d733     ..r?...>..r?3..>
   1b198:	3f72d4eb 3ea21887 3f72f4ac 3ea159c2     ..r?...>..r?.Y.>
   1b1a8:	3f731447 3ea09ae5 3f7333be 3e9fdbee     G.s?...>.3s?...>
   1b1b8:	3f73530e 3e9f1cdf 3f737239 3e9e5db8     .Ss?...>9rs?.].>
   1b1c8:	3f73913f 3e9d9e78 3f73b01f 3e9cdf20     ?.s?x..>..s? ..>
   1b1d8:	3f73ced9 3e9c1faf 3f73ed6e 3e9b6027     ..s?...>n.s?'`.>
   1b1e8:	3f740bdd 3e9aa086 3f742a27 3e99e0ce     ..t?...>'*t?...>
   1b1f8:	3f74484b 3e9920fe 3f746649 3e986116     KHt?. .>Ift?.a.>
   1b208:	3f748422 3e97a117 3f74a1d5 3e96e100     ".t?...>..t?...>
   1b218:	3f74bf62 3e9620d2 3f74dcc9 3e95608d     b.t?. .>..t?.`.>
   1b228:	3f74fa0b 3e94a031 3f751727 3e93dfbf     ..t?1..>'.u?...>
   1b238:	3f75341d 3e931f35 3f7550ed 3e925e94     .4u?5..>.Pu?.^.>
   1b248:	3f756d97 3e919ddd 3f758a1c 3e90dd10     .mu?...>..u?...>
   1b258:	3f75a67b 3e901c2c 3f75c2b3 3e8f5b32     {.u?,..>..u?2[.>
   1b268:	3f75dec6 3e8e9a22 3f75fab3 3e8dd8fc     ..u?"..>..u?...>
   1b278:	3f76167a 3e8d17c0 3f76321b 3e8c566e     z.v?...>.2v?nV.>
   1b288:	3f764d97 3e8b9507 3f7668ec 3e8ad38a     .Mv?...>.hv?...>
   1b298:	3f76841b 3e8a11f8 3f769f24 3e895050     ..v?...>$.v?PP.>
   1b2a8:	3f76ba07 3e888e93 3f76d4c4 3e87ccc1     ..v?...>..v?...>
   1b2b8:	3f76ef5b 3e870ada 3f7709cc 3e8648df     [.v?...>..w?.H.>
   1b2c8:	3f772417 3e8586ce 3f773e3c 3e84c4aa     .$w?...><>w?...>
   1b2d8:	3f77583a 3e840270 3f777213 3e834022     :Xw?p..>.rw?"@.>
   1b2e8:	3f778bc5 3e827dc0 3f77a551 3e81bb4a     ..w?.}.>Q.w?J..>
   1b2f8:	3f77beb7 3e80f8c0 3f77d7f7 3e803622     ..w?...>..w?"6.>
   1b308:	3f77f110 3e7ee6e1 3f780a04 3e7d6156     ..w?..~>..x?Va}>
   1b318:	3f7822d1 3e7bdba4 3f783b77 3e7a55cb     ."x?..{>w;x?.Uz>
   1b328:	3f7853f8 3e78cfcc 3f786c52 3e7749a6     .Sx?..x>Rlx?.Iw>
   1b338:	3f788486 3e75c35a 3f789c93 3e743ce8     ..x?Z.u>..x?.<t>
   1b348:	3f78b47b 3e72b651 3f78cc3b 3e712f94     {.x?Q.r>;.x?./q>
   1b358:	3f78e3d6 3e6fa8b2 3f78fb4a 3e6e21ab     ..x?..o>J.x?.!n>
   1b368:	3f791298 3e6c9a7f 3f7929bf 3e6b132f     ..y?..l>.)y?/.k>
   1b378:	3f7940c0 3e698bba 3f79579a 3e680422     .@y?..i>.Wy?".h>
   1b388:	3f796e4e 3e667c66 3f7984dc 3e64f486     Nny?f|f>..y?..d>
   1b398:	3f799b43 3e636c83 3f79b183 3e61e45c     C.y?.lc>..y?\.a>
   1b3a8:	3f79c79d 3e605c13 3f79dd91 3e5ed3a8     ..y?.\`>..y?..^>
   1b3b8:	3f79f35e 3e5d4b1a 3f7a0904 3e5bc26a     ^.y?.K]>..z?j.[>
   1b3c8:	3f7a1e84 3e5a3997 3f7a33dd 3e58b0a4     ..z?.9Z>.3z?..X>
   1b3d8:	3f7a4910 3e57278f 3f7a5e1c 3e559e58     .Iz?.'W>.^z?X.U>
   1b3e8:	3f7a7302 3e541501 3f7a87c1 3e528b89     .sz?..T>..z?..R>
   1b3f8:	3f7a9c59 3e5101f1 3f7ab0cb 3e4f7838     Y.z?..Q>..z?8xO>
   1b408:	3f7ac516 3e4dee60 3f7ad93a 3e4c6467     ..z?`.M>:.z?gdL>
   1b418:	3f7aed37 3e4ada4f 3f7b010e 3e495018     7.z?O.J>..{?.PI>
   1b428:	3f7b14be 3e47c5c2 3f7b2848 3e463b4d     ..{?..G>H({?M;F>
   1b438:	3f7b3bab 3e44b0b9 3f7b4ee7 3e432607     .;{?..D>.N{?.&C>
   1b448:	3f7b61fc 3e419b37 3f7b74ea 3e401049     .a{?7.A>.t{?I.@>
   1b458:	3f7b87b2 3e3e853e 3f7b9a53 3e3cfa15     ..{?>.>>S.{?..<>
   1b468:	3f7baccd 3e3b6ecf 3f7bbf20 3e39e36c     ..{?.n;> .{?l.9>
   1b478:	3f7bd14d 3e3857ec 3f7be353 3e36cc50     M.{?.W8>S.{?P.6>
   1b488:	3f7bf531 3e354098 3f7c06e9 3e33b4c4     1.{?.@5>..|?..3>
   1b498:	3f7c187a 3e3228d4 3f7c29e5 3e309cc9     z.|?.(2>.)|?..0>
   1b4a8:	3f7c3b28 3e2f10a2 3f7c4c44 3e2d8461     (;|?../>DL|?a.->
   1b4b8:	3f7c5d3a 3e2bf804 3f7c6e08 3e2a6b8d     :]|?..+>.n|?.k*>
   1b4c8:	3f7c7eb0 3e28defc 3f7c8f31 3e275251     .~|?..(>1.|?QR'>
   1b4d8:	3f7c9f8a 3e25c58c 3f7cafbd 3e2438ad     ..|?..%>..|?.8$>
   1b4e8:	3f7cbfc9 3e22abb6 3f7ccfae 3e211ea5     ..|?..">..|?..!>
   1b4f8:	3f7cdf6c 3e1f917b 3f7cef03 3e1e0438     l.|?{..>..|?8..>
   1b508:	3f7cfe73 3e1c76de 3f7d0dbc 3e1ae96b     s.|?.v.>..}?k..>
   1b518:	3f7d1cdd 3e195be0 3f7d2bd8 3e17ce3d     ..}?.[.>.+}?=..>
   1b528:	3f7d3aac 3e164083 3f7d4959 3e14b2b2     .:}?.@.>YI}?...>
   1b538:	3f7d57de 3e1324ca 3f7d663d 3e1196cc     .W}?.$.>=f}?...>
   1b548:	3f7d7474 3e1008b7 3f7d8285 3e0e7a8b     tt}?...>..}?.z.>
   1b558:	3f7d906e 3e0cec4a 3f7d9e30 3e0b5df3     n.}?J..>0.}?.].>
   1b568:	3f7dabcc 3e09cf86 3f7db940 3e084105     ..}?...>@.}?.A.>
   1b578:	3f7dc68c 3e06b26e 3f7dd3b2 3e0523c2     ..}?n..>..}?.#.>
   1b588:	3f7de0b1 3e039502 3f7ded88 3e02062e     ..}?...>..}?...>
   1b598:	3f7dfa38 3e007745 3f7e06c2 3dfdd092     8.}?Ew.>..~?...=
   1b5a8:	3f7e1324 3dfab273 3f7e1f5e 3df7942c     $.~?s..=^.~?,..=
   1b5b8:	3f7e2b72 3df475c0 3f7e375e 3df1572e     r+~?.u.=^7~?.W.=
   1b5c8:	3f7e4323 3dee3876 3f7e4ec1 3deb199a     #C~?v8.=.N~?...=
   1b5d8:	3f7e5a38 3de7fa9a 3f7e6588 3de4db76     8Z~?...=.e~?v..=
   1b5e8:	3f7e70b0 3de1bc2e 3f7e7bb1 3dde9cc4     .p~?...=.{~?...=
   1b5f8:	3f7e868b 3ddb7d37 3f7e913d 3dd85d89     ..~?7}.==.~?.].=
   1b608:	3f7e9bc9 3dd53db9 3f7ea62d 3dd21dc8     ..~?.=.=-.~?...=
   1b618:	3f7eb069 3dcefdb7 3f7eba7f 3dcbdd86     i.~?...=..~?...=
   1b628:	3f7ec46d 3dc8bd36 3f7ece34 3dc59cc6     m.~?6..=4.~?...=
   1b638:	3f7ed7d4 3dc27c39 3f7ee14c 3dbf5b8d     ..~?9|.=L.~?.[.=
   1b648:	3f7eea9d 3dbc3ac3 3f7ef3c7 3db919dd     ..~?.:.=..~?...=
   1b658:	3f7efcc9 3db5f8da 3f7f05a4 3db2d7bb     ..~?...=...?...=
   1b668:	3f7f0e58 3dafb680 3f7f16e4 3dac952b     X..?...=...?+..=
   1b678:	3f7f1f49 3da973ba 3f7f2787 3da65230     I..?.s.=.'.?0R.=
   1b688:	3f7f2f9d 3da3308c 3f7f378d 3da00ecf     ./.?.0.=.7.?...=
   1b698:	3f7f3f54 3d9cecf9 3f7f46f4 3d99cb0a     T?.?...=.F.?...=
   1b6a8:	3f7f4e6d 3d96a905 3f7f55bf 3d9386e7     mN.?...=.U.?...=
   1b6b8:	3f7f5ce9 3d9064b4 3f7f63ec 3d8d426a     .\.?.d.=.c.?jB.=
   1b6c8:	3f7f6ac7 3d8a200a 3f7f717b 3d86fd94     .j.?. .={q.?...=
   1b6d8:	3f7f7808 3d83db0a 3f7f7e6d 3d80b86c     .x.?...=m~.?l..=
   1b6e8:	3f7f84ab 3d7b2b74 3f7f8ac2 3d74e5e9     ...?t+{=...?..t=
   1b6f8:	3f7f90b1 3d6ea038 3f7f9678 3d685a62     ...?8.n=x..?bZh=
   1b708:	3f7f9c18 3d621468 3f7fa191 3d5bce4c     ...?h.b=...?L.[=
   1b718:	3f7fa6e3 3d55880e 3f7fac0d 3d4f41af     ...?..U=...?.AO=
   1b728:	3f7fb10f 3d48fb2f 3f7fb5ea 3d42b491     ...?/.H=...?..B=
   1b738:	3f7fba9e 3d3c6dd5 3f7fbf2a 3d3626fc     ...?.m<=*..?.&6=
   1b748:	3f7fc38f 3d2fe007 3f7fc7cc 3d2998f6     ...?../=...?..)=
   1b758:	3f7fcbe2 3d2351cc 3f7fcfd1 3d1d0a88     ...?.Q#=...?...=
   1b768:	3f7fd398 3d16c32c 3f7fd737 3d107bb8     ...?,..=7..?.{.=
   1b778:	3f7fdaaf 3d0a342f 3f7fde00 3d03ec90     ...?/4.=...?...=
   1b788:	3f7fe129 3cfb49b9 3f7fe42b 3ceeba2d     )..?.I.<+..?-..<
   1b798:	3f7fe705 3ce22a7b 3f7fe9b8 3cd59aa6     ...?{*.<...?...<
   1b7a8:	3f7fec43 3cc90ab0 3f7feea7 3cbc7a9b     C..?...<...?.z.<
   1b7b8:	3f7ff0e3 3cafea69 3f7ff2f8 3ca35a1c     ...?i..<...?.Z.<
   1b7c8:	3f7ff4e6 3c96c9b6 3f7ff6ac 3c8a3938     ...?...<...?89.<
   1b7d8:	3f7ff84a 3c7b514b 3f7ff9c1 3c623000     J..?KQ{<...?.0b<
   1b7e8:	3f7ffb11 3c490e90 3f7ffc39 3c2fed02     ...?..I<9..?../<
   1b7f8:	3f7ffd39 3c16cb59 3f7ffe13 3bfb5330     9..?Y..<...?0S.;
   1b808:	3f7ffec4 3bc90f89 3f7fff4e 3b96cbc1     ...?...;N..?...;
   1b818:	3f7fffb1 3b490fc7 3f7fffec 3ac90fd4     ...?..I;...?...:
   1b828:	3f800000 00000000 3f7fffec bac90fd4     ...?.......?....
   1b838:	3f7fffb1 bb490fc7 3f7fff4e bb96cbc1     ...?..I.N..?....
   1b848:	3f7ffec4 bbc90f89 3f7ffe13 bbfb5330     ...?.......?0S..
   1b858:	3f7ffd39 bc16cb59 3f7ffc39 bc2fed02     9..?Y...9..?../.
   1b868:	3f7ffb11 bc490e90 3f7ff9c1 bc623000     ...?..I....?.0b.
   1b878:	3f7ff84a bc7b514b 3f7ff6ac bc8a3938     J..?KQ{....?89..
   1b888:	3f7ff4e6 bc96c9b6 3f7ff2f8 bca35a1c     ...?.......?.Z..
   1b898:	3f7ff0e3 bcafea69 3f7feea7 bcbc7a9b     ...?i......?.z..
   1b8a8:	3f7fec43 bcc90ab0 3f7fe9b8 bcd59aa6     C..?.......?....
   1b8b8:	3f7fe705 bce22a7b 3f7fe42b bceeba2d     ...?{*..+..?-...
   1b8c8:	3f7fe129 bcfb49b9 3f7fde00 bd03ec90     )..?.I.....?....
   1b8d8:	3f7fdaaf bd0a342f 3f7fd737 bd107bb8     ...?/4..7..?.{..
   1b8e8:	3f7fd398 bd16c32c 3f7fcfd1 bd1d0a88     ...?,......?....
   1b8f8:	3f7fcbe2 bd2351cc 3f7fc7cc bd2998f6     ...?.Q#....?..).
   1b908:	3f7fc38f bd2fe007 3f7fbf2a bd3626fc     ...?../.*..?.&6.
   1b918:	3f7fba9e bd3c6dd5 3f7fb5ea bd42b491     ...?.m<....?..B.
   1b928:	3f7fb10f bd48fb2f 3f7fac0d bd4f41af     ...?/.H....?.AO.
   1b938:	3f7fa6e3 bd55880e 3f7fa191 bd5bce4c     ...?..U....?L.[.
   1b948:	3f7f9c18 bd621468 3f7f9678 bd685a62     ...?h.b.x..?bZh.
   1b958:	3f7f90b1 bd6ea038 3f7f8ac2 bd74e5e9     ...?8.n....?..t.
   1b968:	3f7f84ab bd7b2b74 3f7f7e6d bd80b86c     ...?t+{.m~.?l...
   1b978:	3f7f7808 bd83db0a 3f7f717b bd86fd94     .x.?....{q.?....
   1b988:	3f7f6ac7 bd8a200a 3f7f63ec bd8d426a     .j.?. ...c.?jB..
   1b998:	3f7f5ce9 bd9064b4 3f7f55bf bd9386e7     .\.?.d...U.?....
   1b9a8:	3f7f4e6d bd96a905 3f7f46f4 bd99cb0a     mN.?.....F.?....
   1b9b8:	3f7f3f54 bd9cecf9 3f7f378d bda00ecf     T?.?.....7.?....
   1b9c8:	3f7f2f9d bda3308c 3f7f2787 bda65230     ./.?.0...'.?0R..
   1b9d8:	3f7f1f49 bda973ba 3f7f16e4 bdac952b     I..?.s.....?+...
   1b9e8:	3f7f0e58 bdafb680 3f7f05a4 bdb2d7bb     X..?.......?....
   1b9f8:	3f7efcc9 bdb5f8da 3f7ef3c7 bdb919dd     ..~?......~?....
   1ba08:	3f7eea9d bdbc3ac3 3f7ee14c bdbf5b8d     ..~?.:..L.~?.[..
   1ba18:	3f7ed7d4 bdc27c39 3f7ece34 bdc59cc6     ..~?9|..4.~?....
   1ba28:	3f7ec46d bdc8bd36 3f7eba7f bdcbdd86     m.~?6.....~?....
   1ba38:	3f7eb069 bdcefdb7 3f7ea62d bdd21dc8     i.~?....-.~?....
   1ba48:	3f7e9bc9 bdd53db9 3f7e913d bdd85d89     ..~?.=..=.~?.]..
   1ba58:	3f7e868b bddb7d37 3f7e7bb1 bdde9cc4     ..~?7}...{~?....
   1ba68:	3f7e70b0 bde1bc2e 3f7e6588 bde4db76     .p~?.....e~?v...
   1ba78:	3f7e5a38 bde7fa9a 3f7e4ec1 bdeb199a     8Z~?.....N~?....
   1ba88:	3f7e4323 bdee3876 3f7e375e bdf1572e     #C~?v8..^7~?.W..
   1ba98:	3f7e2b72 bdf475c0 3f7e1f5e bdf7942c     r+~?.u..^.~?,...
   1baa8:	3f7e1324 bdfab273 3f7e06c2 bdfdd092     $.~?s.....~?....
   1bab8:	3f7dfa38 be007745 3f7ded88 be02062e     8.}?Ew....}?....
   1bac8:	3f7de0b1 be039502 3f7dd3b2 be0523c2     ..}?......}?.#..
   1bad8:	3f7dc68c be06b26e 3f7db940 be084105     ..}?n...@.}?.A..
   1bae8:	3f7dabcc be09cf86 3f7d9e30 be0b5df3     ..}?....0.}?.]..
   1baf8:	3f7d906e be0cec4a 3f7d8285 be0e7a8b     n.}?J.....}?.z..
   1bb08:	3f7d7474 be1008b7 3f7d663d be1196cc     tt}?....=f}?....
   1bb18:	3f7d57de be1324ca 3f7d4959 be14b2b2     .W}?.$..YI}?....
   1bb28:	3f7d3aac be164083 3f7d2bd8 be17ce3d     .:}?.@...+}?=...
   1bb38:	3f7d1cdd be195be0 3f7d0dbc be1ae96b     ..}?.[....}?k...
   1bb48:	3f7cfe73 be1c76de 3f7cef03 be1e0438     s.|?.v....|?8...
   1bb58:	3f7cdf6c be1f917b 3f7ccfae be211ea5     l.|?{.....|?..!.
   1bb68:	3f7cbfc9 be22abb6 3f7cafbd be2438ad     ..|?.."...|?.8$.
   1bb78:	3f7c9f8a be25c58c 3f7c8f31 be275251     ..|?..%.1.|?QR'.
   1bb88:	3f7c7eb0 be28defc 3f7c6e08 be2a6b8d     .~|?..(..n|?.k*.
   1bb98:	3f7c5d3a be2bf804 3f7c4c44 be2d8461     :]|?..+.DL|?a.-.
   1bba8:	3f7c3b28 be2f10a2 3f7c29e5 be309cc9     (;|?../..)|?..0.
   1bbb8:	3f7c187a be3228d4 3f7c06e9 be33b4c4     z.|?.(2...|?..3.
   1bbc8:	3f7bf531 be354098 3f7be353 be36cc50     1.{?.@5.S.{?P.6.
   1bbd8:	3f7bd14d be3857ec 3f7bbf20 be39e36c     M.{?.W8. .{?l.9.
   1bbe8:	3f7baccd be3b6ecf 3f7b9a53 be3cfa15     ..{?.n;.S.{?..<.
   1bbf8:	3f7b87b2 be3e853e 3f7b74ea be401049     ..{?>.>..t{?I.@.
   1bc08:	3f7b61fc be419b37 3f7b4ee7 be432607     .a{?7.A..N{?.&C.
   1bc18:	3f7b3bab be44b0b9 3f7b2848 be463b4d     .;{?..D.H({?M;F.
   1bc28:	3f7b14be be47c5c2 3f7b010e be495018     ..{?..G...{?.PI.
   1bc38:	3f7aed37 be4ada4f 3f7ad93a be4c6467     7.z?O.J.:.z?gdL.
   1bc48:	3f7ac516 be4dee60 3f7ab0cb be4f7838     ..z?`.M...z?8xO.
   1bc58:	3f7a9c59 be5101f1 3f7a87c1 be528b89     Y.z?..Q...z?..R.
   1bc68:	3f7a7302 be541501 3f7a5e1c be559e58     .sz?..T..^z?X.U.
   1bc78:	3f7a4910 be57278f 3f7a33dd be58b0a4     .Iz?.'W..3z?..X.
   1bc88:	3f7a1e84 be5a3997 3f7a0904 be5bc26a     ..z?.9Z...z?j.[.
   1bc98:	3f79f35e be5d4b1a 3f79dd91 be5ed3a8     ^.y?.K]...y?..^.
   1bca8:	3f79c79d be605c13 3f79b183 be61e45c     ..y?.\`...y?\.a.
   1bcb8:	3f799b43 be636c83 3f7984dc be64f486     C.y?.lc...y?..d.
   1bcc8:	3f796e4e be667c66 3f79579a be680422     Nny?f|f..Wy?".h.
   1bcd8:	3f7940c0 be698bba 3f7929bf be6b132f     .@y?..i..)y?/.k.
   1bce8:	3f791298 be6c9a7f 3f78fb4a be6e21ab     ..y?..l.J.x?.!n.
   1bcf8:	3f78e3d6 be6fa8b2 3f78cc3b be712f94     ..x?..o.;.x?./q.
   1bd08:	3f78b47b be72b651 3f789c93 be743ce8     {.x?Q.r...x?.<t.
   1bd18:	3f788486 be75c35a 3f786c52 be7749a6     ..x?Z.u.Rlx?.Iw.
   1bd28:	3f7853f8 be78cfcc 3f783b77 be7a55cb     .Sx?..x.w;x?.Uz.
   1bd38:	3f7822d1 be7bdba4 3f780a04 be7d6156     ."x?..{...x?Va}.
   1bd48:	3f77f110 be7ee6e1 3f77d7f7 be803622     ..w?..~...w?"6..
   1bd58:	3f77beb7 be80f8c0 3f77a551 be81bb4a     ..w?....Q.w?J...
   1bd68:	3f778bc5 be827dc0 3f777213 be834022     ..w?.}...rw?"@..
   1bd78:	3f77583a be840270 3f773e3c be84c4aa     :Xw?p...<>w?....
   1bd88:	3f772417 be8586ce 3f7709cc be8648df     .$w?......w?.H..
   1bd98:	3f76ef5b be870ada 3f76d4c4 be87ccc1     [.v?......v?....
   1bda8:	3f76ba07 be888e93 3f769f24 be895050     ..v?....$.v?PP..
   1bdb8:	3f76841b be8a11f8 3f7668ec be8ad38a     ..v?.....hv?....
   1bdc8:	3f764d97 be8b9507 3f76321b be8c566e     .Mv?.....2v?nV..
   1bdd8:	3f76167a be8d17c0 3f75fab3 be8dd8fc     z.v?......u?....
   1bde8:	3f75dec6 be8e9a22 3f75c2b3 be8f5b32     ..u?".....u?2[..
   1bdf8:	3f75a67b be901c2c 3f758a1c be90dd10     {.u?,.....u?....
   1be08:	3f756d97 be919ddd 3f7550ed be925e94     .mu?.....Pu?.^..
   1be18:	3f75341d be931f35 3f751727 be93dfbf     .4u?5...'.u?....
   1be28:	3f74fa0b be94a031 3f74dcc9 be95608d     ..t?1.....t?.`..
   1be38:	3f74bf62 be9620d2 3f74a1d5 be96e100     b.t?. ....t?....
   1be48:	3f748422 be97a117 3f746649 be986116     ".t?....Ift?.a..
   1be58:	3f74484b be9920fe 3f742a27 be99e0ce     KHt?. ..'*t?....
   1be68:	3f740bdd be9aa086 3f73ed6e be9b6027     ..t?....n.s?'`..
   1be78:	3f73ced9 be9c1faf 3f73b01f be9cdf20     ..s?......s? ...
   1be88:	3f73913f be9d9e78 3f737239 be9e5db8     ?.s?x...9rs?.]..
   1be98:	3f73530e be9f1cdf 3f7333be be9fdbee     .Ss?.....3s?....
   1bea8:	3f731447 bea09ae5 3f72f4ac bea159c2     G.s?......r?.Y..
   1beb8:	3f72d4eb bea21887 3f72b504 bea2d733     ..r?......r?3...
   1bec8:	3f7294f8 bea395c5 3f7274c7 bea4543f     ..r?.....tr??T..
   1bed8:	3f725470 bea5129f 3f7233f4 bea5d0e5     pTr?.....3r?....
   1bee8:	3f721352 bea68f12 3f71f28c bea74d25     R.r?......q?%M..
   1bef8:	3f71d19f bea80b1f 3f71b08e bea8c8fe     ..q?......q?....
   1bf08:	3f718f57 bea986c4 3f716dfb beaa446f     W.q?.....mq?oD..
   1bf18:	3f714c7a beab0201 3f712ad4 beabbf77     zLq?.....*q?w...
   1bf28:	3f710908 beac7cd4 3f70e717 bead3a15     ..q?.|....p?.:..
   1bf38:	3f70c502 beadf73c 3f70a2c6 beaeb449     ..p?<.....p?I...
   1bf48:	3f708066 beaf713a 3f705de1 beb02e10     f.p?:q...]p?....
   1bf58:	3f703b37 beb0eacb 3f701867 beb1a76b     7;p?....g.p?k...
   1bf68:	3f6ff573 beb263ef 3f6fd25a beb32058     s.o?.c..Z.o?X ..
   1bf78:	3f6faf1b beb3dca5 3f6f8bb8 beb498d6     ..o?......o?....
   1bf88:	3f6f6830 beb554ec 3f6f4483 beb610e6     0ho?.T...Do?....
   1bf98:	3f6f20b0 beb6ccc3 3f6efcba beb78884     . o?......n?....
   1bfa8:	3f6ed89e beb8442a 3f6eb45d beb8ffb2     ..n?*D..].n?....
   1bfb8:	3f6e8ff8 beb9bb1e 3f6e6b6d beba766e     ..n?....mkn?nv..
   1bfc8:	3f6e46be bebb31a0 3f6e21eb bebbecb6     .Fn?.1...!n?....
   1bfd8:	3f6dfcf2 bebca7af 3f6dd7d5 bebd628b     ..m?......m?.b..
   1bfe8:	3f6db293 bebe1d4a 3f6d8d2d bebed7eb     ..m?J...-.m?....
   1bff8:	3f6d67a1 bebf926f 3f6d41f2 bec04cd5     .gm?o....Am?.L..
   1c008:	3f6d1c1d bec1071e 3f6cf624 bec1c148     ..m?....$.l?H...
   1c018:	3f6cd007 bec27b55 3f6ca9c5 bec33544     ..l?U{....l?D5..
   1c028:	3f6c835e bec3ef15 3f6c5cd4 bec4a8c8     ^.l?.....\l?....
   1c038:	3f6c3624 bec5625c 3f6c0f50 bec61bd2     $6l?\b..P.l?....
   1c048:	3f6be858 bec6d529 3f6bc13b bec78e62     X.k?)...;.k?b...
   1c058:	3f6b99fb bec8477c 3f6b7295 bec90077     ..k?|G...rk?w...
   1c068:	3f6b4b0c bec9b953 3f6b235e beca7210     .Kk?S...^#k?.r..
   1c078:	3f6afb8c becb2aae 3f6ad395 becbe32c     ..j?.*....j?,...
   1c088:	3f6aab7b becc9b8b 3f6a833c becd53ca     {.j?....<.j?.S..
   1c098:	3f6a5ad9 bece0bea 3f6a3252 becec3ea     .Zj?....R2j?....
   1c0a8:	3f6a09a7 becf7bca 3f69e0d7 bed0338a     ..j?.{....i?.3..
   1c0b8:	3f69b7e4 bed0eb2a 3f698ecc bed1a2aa     ..i?*.....i?....
   1c0c8:	3f696591 bed25a09 3f693c32 bed31148     .ei?.Z..2<i?H...
   1c0d8:	3f6912ae bed3c867 3f68e907 bed47f64     ..i?g.....h?d...
   1c0e8:	3f68bf3c bed53641 3f68954c bed5ecfd     <.h?A6..L.h?....
   1c0f8:	3f686b39 bed6a399 3f684103 bed75a13     9kh?.....Ah?.Z..
   1c108:	3f6816a8 bed8106b 3f67ec2a bed8c6a3     ..h?k...*.g?....
   1c118:	3f67c187 bed97cb9 3f6796c1 beda32ad     ..g?.|....g?.2..
   1c128:	3f676bd8 bedae880 3f6740ca bedb9e31     .kg?.....@g?1...
   1c138:	3f671599 bedc53c1 3f66ea45 bedd092e     ..g?.S..E.f?....
   1c148:	3f66becc beddbe79 3f669330 bede73a2     ..f?y...0.f?.s..
   1c158:	3f666771 bedf28a9 3f663b8e bedfdd8d     qgf?.(...;f?....
   1c168:	3f660f88 bee0924f 3f65e35e bee146ee     ..f?O...^.e?.F..
   1c178:	3f65b710 bee1fb6a 3f658aa0 bee2afc4     ..e?j.....e?....
   1c188:	3f655e0b bee363fa 3f653154 bee4180e     .^e?.c..T1e?....
   1c198:	3f650479 bee4cbfe 3f64d77b bee57fcb     y.e?....{.d?....
   1c1a8:	3f64aa59 bee63375 3f647d14 bee6e6fb     Y.d?u3...}d?....
   1c1b8:	3f644fac bee79a5d 3f642221 bee84d9c     .Od?]...!"d?.M..
   1c1c8:	3f63f473 bee900b7 3f63c6a1 bee9b3ae     s.c?......c?....
   1c1d8:	3f6398ac beea6681 3f636a95 beeb1930     ..c?.f...jc?0...
   1c1e8:	3f633c5a beebcbbb 3f630dfc beec7e21     Z<c?......c?!~..
   1c1f8:	3f62df7b beed3063 3f62b0d7 beede280     {.b?c0....b?....
   1c208:	3f628210 beee9479 3f625326 beef464c     ..b?y...&Sb?LF..
   1c218:	3f62241a beeff7fb 3f61f4ea bef0a985     .$b?......a?....
   1c228:	3f61c598 bef15aea 3f619622 bef20c29     ..a?.Z..".a?)...
   1c238:	3f61668a bef2bd43 3f6136d0 bef36e38     .fa?C....6a?8n..
   1c248:	3f6106f2 bef41f07 3f60d6f2 bef4cfb1     ..a?......`?....
   1c258:	3f60a6cf bef58035 3f607689 bef63093     ..`?5....v`?.0..
   1c268:	3f604621 bef6e0cb 3f601596 bef790dc     !F`?......`?....
   1c278:	3f5fe4e9 bef840c8 3f5fb419 bef8f08e     .._?.@...._?....
   1c288:	3f5f8327 bef9a02d 3f5f5212 befa4fa5     '._?-....R_?.O..
   1c298:	3f5f20db befafef7 3f5eef81 befbae22     . _?......^?"...
   1c2a8:	3f5ebe05 befc5d27 3f5e8c67 befd0c04     ..^?']..g.^?....
   1c2b8:	3f5e5aa6 befdbabb 3f5e28c3 befe694a     .Z^?.....(^?Ji..
   1c2c8:	3f5df6be beff17b2 3f5dc497 beffc5f3     ..]?......]?....
   1c2d8:	3f5d924d bf003a06 3f5d5fe1 bf0090ff     M.]?.:..._]?....
   1c2e8:	3f5d2d53 bf00e7e4 3f5cfaa3 bf013eb5     S-]?......\?.>..
   1c2f8:	3f5cc7d1 bf019573 3f5c94dd bf01ec1c     ..\?s.....\?....
   1c308:	3f5c61c7 bf0242b1 3f5c2e8e bf029932     .a\?.B....\?2...
   1c318:	3f5bfb34 bf02ef9f 3f5bc7b8 bf0345f8     4.[?......[?.E..
   1c328:	3f5b941a bf039c3d 3f5b605a bf03f26d     ..[?=...Z`[?m...
   1c338:	3f5b2c79 bf044889 3f5af875 bf049e91     y,[?.H..u.Z?....
   1c348:	3f5ac450 bf04f484 3f5a9009 bf054a62     P.Z?......Z?bJ..
   1c358:	3f5a5ba0 bf05a02c 3f5a2716 bf05f5e2     .[Z?,....'Z?....
   1c368:	3f59f26a bf064b82 3f59bd9c bf06a10e     j.Y?.K....Y?....
   1c378:	3f5988ad bf06f686 3f59539c bf074be8     ..Y?.....SY?.K..
   1c388:	3f591e6a bf07a136 3f58e917 bf07f66f     j.Y?6.....X?o...
   1c398:	3f58b3a1 bf084b92 3f587e0b bf08a0a1     ..X?.K...~X?....
   1c3a8:	3f584853 bf08f59b 3f581279 bf094a7f     SHX?....y.X?.J..
   1c3b8:	3f57dc7f bf099f4e 3f57a663 bf09f409     ..W?N...c.W?....
   1c3c8:	3f577026 bf0a48ad 3f5739c7 bf0a9d3d     &pW?.H...9W?=...
   1c3d8:	3f570348 bf0af1b7 3f56cca7 bf0b461c     H.W?......V?.F..
   1c3e8:	3f5695e5 bf0b9a6b 3f565f02 bf0beea5     ..V?k...._V?....
   1c3f8:	3f5627fe bf0c42c9 3f55f0d9 bf0c96d7     .'V?.B....U?....
   1c408:	3f55b993 bf0cead0 3f55822c bf0d3eb3     ..U?....,.U?.>..
   1c418:	3f554aa4 bf0d9281 3f5512fb bf0de638     .JU?......U?8...
   1c428:	3f54db31 bf0e39da 3f54a347 bf0e8d65     1.T?.9..G.T?e...
   1c438:	3f546b3b bf0ee0db 3f54330f bf0f343b     ;kT?.....3T?;4..
   1c448:	3f53fac3 bf0f8784 3f53c255 bf0fdab8     ..S?....U.S?....
   1c458:	3f5389c7 bf102dd5 3f535118 bf1080dc     ..S?.-...QS?....
   1c468:	3f531849 bf10d3cd 3f52df59 bf1126a7     I.S?....Y.R?.&..
   1c478:	3f52a649 bf11796b 3f526d18 bf11cc19     I.R?ky...mR?....
   1c488:	3f5233c6 bf121eb0 3f51fa54 bf127130     .3R?....T.Q?0q..
   1c498:	3f51c0c2 bf12c39a 3f518710 bf1315ee     ..Q?......Q?....
   1c4a8:	3f514d3d bf13682a 3f51134a bf13ba50     =MQ?*h..J.Q?P...
   1c4b8:	3f50d937 bf140c5f 3f509f03 bf145e58     7.P?_.....P?X^..
   1c4c8:	3f5064af bf14b039 3f502a3b bf150204     .dP?9...;*P?....
   1c4d8:	3f4fefa8 bf1553b7 3f4fb4f4 bf15a554     ..O?.S....O?T...
   1c4e8:	3f4f7a1f bf15f6d9 3f4f3f2b bf164847     .zO?....+?O?GH..
   1c4f8:	3f4f0417 bf16999f 3f4ec8e4 bf16eadf     ..O?......N?....
   1c508:	3f4e8d90 bf173c07 3f4e521c bf178d18     ..N?.<...RN?....
   1c518:	3f4e1689 bf17de12 3f4ddad5 bf182ef5     ..N?......M?....
   1c528:	3f4d9f02 bf187fc0 3f4d6310 bf18d073     ..M?.....cM?s...
   1c538:	3f4d26fd bf19210f 3f4ceacb bf197194     .&M?.!....L?.q..
   1c548:	3f4cae79 bf19c200 3f4c7208 bf1a1255     y.L?.....rL?U...
   1c558:	3f4c3578 bf1a6293 3f4bf8c7 bf1ab2b8     x5L?.b....K?....
   1c568:	3f4bbbf8 bf1b02c6 3f4b7f09 bf1b52bb     ..K?......K?.R..
   1c578:	3f4b41fa bf1ba299 3f4b04cc bf1bf25f     .AK?......K?_...
   1c588:	3f4ac77f bf1c420c 3f4a8a13 bf1c91a2     ..J?.B....J?....
   1c598:	3f4a4c87 bf1ce11f 3f4a0edc bf1d3084     .LJ?......J?.0..
   1c5a8:	3f49d112 bf1d7fd1 3f499329 bf1dcf06     ..I?....).I?....
   1c5b8:	3f495521 bf1e1e22 3f4916fa bf1e6d26     !UI?".....I?&m..
   1c5c8:	3f48d8b3 bf1ebc12 3f489a4e bf1f0ae5     ..H?....N.H?....
   1c5d8:	3f485bca bf1f599f 3f481d27 bf1fa841     .[H?.Y..'.H?A...
   1c5e8:	3f47de65 bf1ff6cb 3f479f84 bf20453b     e.G?......G?;E .
   1c5f8:	3f476085 bf209393 3f472167 bf20e1d2     .`G?.. .g!G?.. .
   1c608:	3f46e22a bf212ff9 3f46a2ce bf217e06     *.F?./!...F?.~!.
   1c618:	3f466354 bf21cbfb 3f4623bb bf2219d7     TcF?..!..#F?..".
   1c628:	3f45e403 bf226799 3f45a42d bf22b543     ..E?.g".-.E?C.".
   1c638:	3f456439 bf2302d3 3f452426 bf23504b     9dE?..#.&$E?KP#.
   1c648:	3f44e3f5 bf239da9 3f44a3a5 bf23eaee     ..D?..#...D?..#.
   1c658:	3f446337 bf24381a 3f4422ab bf24852c     7cD?.8$.."D?,.$.
   1c668:	3f43e200 bf24d225 3f43a138 bf251f04     ..C?%.$.8.C?..%.
   1c678:	3f436051 bf256bcb 3f431f4c bf25b877     Q`C?.k%.L.C?w.%.
   1c688:	3f42de29 bf26050a 3f429ce8 bf265184     ).B?..&...B?.Q&.
   1c698:	3f425b89 bf269de3 3f421a0b bf26ea2a     .[B?..&...B?*.&.
   1c6a8:	3f41d870 bf273656 3f4196b7 bf278268     p.A?V6'...A?h.'.
   1c6b8:	3f4154e1 bf27ce61 3f4112ec bf281a40     .TA?a.'...A?@.(.
   1c6c8:	3f40d0da bf286605 3f408ea9 bf28b1b0     ..@?.f(...@?..(.
   1c6d8:	3f404c5c bf28fd41 3f4009f0 bf2948b8     \L@?A.(...@?.H).
   1c6e8:	3f3fc767 bf299415 3f3f84c0 bf29df57     g.??..)...??W.).
   1c6f8:	3f3f41fc bf2a2a80 3f3eff1b bf2a758e     .A??.**...>?.u*.
   1c708:	3f3ebc1b bf2ac082 3f3e78ff bf2b0b5b     ..>?..*..x>?[.+.
   1c718:	3f3e35c5 bf2b561b 3f3df26e bf2ba0bf     .5>?.V+.n.=?..+.
   1c728:	3f3daef9 bf2beb4a 3f3d6b67 bf2c35b9     ..=?J.+.gk=?.5,.
   1c738:	3f3d27b8 bf2c800f 3f3ce3ec bf2cca49     .'=?..,...<?I.,.
   1c748:	3f3ca003 bf2d1469 3f3c5bfc bf2d5e6f     ..<?i.-..[<?o^-.
   1c758:	3f3c17d9 bf2da859 3f3bd398 bf2df229     ..<?Y.-...;?).-.
   1c768:	3f3b8f3b bf2e3bde 3f3b4ac1 bf2e8578     ;.;?.;...J;?x...
   1c778:	3f3b0629 bf2ecef7 3f3ac175 bf2f185b     ).;?....u.:?[./.
   1c788:	3f3a7ca4 bf2f61a5 3f3a37b7 bf2faad3     .|:?.a/..7:?../.
   1c798:	3f39f2ac bf2ff3e6 3f39ad85 bf303cde     ..9?../...9?.<0.
   1c7a8:	3f396842 bf3085bb 3f3922e1 bf30ce7c     Bh9?..0.."9?|.0.
   1c7b8:	3f38dd65 bf311722 3f3897cb bf315fad     e.8?".1...8?._1.
   1c7c8:	3f385216 bf31a81d 3f380c43 bf31f071     .R8?..1.C.8?q.1.
   1c7d8:	3f37c655 bf3238aa 3f37804a bf3280c7     U.7?.82.J.7?..2.
   1c7e8:	3f373a23 bf32c8c9 3f36f3df bf3310af     #:7?..2...6?..3.
   1c7f8:	3f36ad7f bf33587a 3f366704 bf33a029     ..6?zX3..g6?).3.
   1c808:	3f36206c bf33e7bc 3f35d9b8 bf342f34     l 6?..3...5?4/4.
   1c818:	3f3592e7 bf34768f 3f354bfb bf34bdcf     ..5?.v4..K5?..4.
   1c828:	3f3504f3 bf3504f3 3f34bdcf bf354bfb     ..5?..5...4?.K5.
   1c838:	3f34768f bf3592e7 3f342f34 bf35d9b8     .v4?..5.4/4?..5.
   1c848:	3f33e7bc bf36206c 3f33a029 bf366704     ..3?l 6.).3?.g6.
   1c858:	3f33587a bf36ad7f 3f3310af bf36f3df     zX3?..6...3?..6.
   1c868:	3f32c8c9 bf373a23 3f3280c7 bf37804a     ..2?#:7...2?J.7.
   1c878:	3f3238aa bf37c655 3f31f071 bf380c43     .82?U.7.q.1?C.8.
   1c888:	3f31a81d bf385216 3f315fad bf3897cb     ..1?.R8.._1?..8.
   1c898:	3f311722 bf38dd65 3f30ce7c bf3922e1     ".1?e.8.|.0?."9.
   1c8a8:	3f3085bb bf396842 3f303cde bf39ad85     ..0?Bh9..<0?..9.
   1c8b8:	3f2ff3e6 bf39f2ac 3f2faad3 bf3a37b7     ../?..9.../?.7:.
   1c8c8:	3f2f61a5 bf3a7ca4 3f2f185b bf3ac175     .a/?.|:.[./?u.:.
   1c8d8:	3f2ecef7 bf3b0629 3f2e8578 bf3b4ac1     ...?).;.x..?.J;.
   1c8e8:	3f2e3bde bf3b8f3b 3f2df229 bf3bd398     .;.?;.;.).-?..;.
   1c8f8:	3f2da859 bf3c17d9 3f2d5e6f bf3c5bfc     Y.-?..<.o^-?.[<.
   1c908:	3f2d1469 bf3ca003 3f2cca49 bf3ce3ec     i.-?..<.I.,?..<.
   1c918:	3f2c800f bf3d27b8 3f2c35b9 bf3d6b67     ..,?.'=..5,?gk=.
   1c928:	3f2beb4a bf3daef9 3f2ba0bf bf3df26e     J.+?..=...+?n.=.
   1c938:	3f2b561b bf3e35c5 3f2b0b5b bf3e78ff     .V+?.5>.[.+?.x>.
   1c948:	3f2ac082 bf3ebc1b 3f2a758e bf3eff1b     ..*?..>..u*?..>.
   1c958:	3f2a2a80 bf3f41fc 3f29df57 bf3f84c0     .**?.A?.W.)?..?.
   1c968:	3f299415 bf3fc767 3f2948b8 bf4009f0     ..)?g.?..H)?..@.
   1c978:	3f28fd41 bf404c5c 3f28b1b0 bf408ea9     A.(?\L@...(?..@.
   1c988:	3f286605 bf40d0da 3f281a40 bf4112ec     .f(?..@.@.(?..A.
   1c998:	3f27ce61 bf4154e1 3f278268 bf4196b7     a.'?.TA.h.'?..A.
   1c9a8:	3f273656 bf41d870 3f26ea2a bf421a0b     V6'?p.A.*.&?..B.
   1c9b8:	3f269de3 bf425b89 3f265184 bf429ce8     ..&?.[B..Q&?..B.
   1c9c8:	3f26050a bf42de29 3f25b877 bf431f4c     ..&?).B.w.%?L.C.
   1c9d8:	3f256bcb bf436051 3f251f04 bf43a138     .k%?Q`C...%?8.C.
   1c9e8:	3f24d225 bf43e200 3f24852c bf4422ab     %.$?..C.,.$?."D.
   1c9f8:	3f24381a bf446337 3f23eaee bf44a3a5     .8$?7cD...#?..D.
   1ca08:	3f239da9 bf44e3f5 3f23504b bf452426     ..#?..D.KP#?&$E.
   1ca18:	3f2302d3 bf456439 3f22b543 bf45a42d     ..#?9dE.C."?-.E.
   1ca28:	3f226799 bf45e403 3f2219d7 bf4623bb     .g"?..E..."?.#F.
   1ca38:	3f21cbfb bf466354 3f217e06 bf46a2ce     ..!?TcF..~!?..F.
   1ca48:	3f212ff9 bf46e22a 3f20e1d2 bf472167     ./!?*.F... ?g!G.
   1ca58:	3f209393 bf476085 3f20453b bf479f84     .. ?.`G.;E ?..G.
   1ca68:	3f1ff6cb bf47de65 3f1fa841 bf481d27     ...?e.G.A..?'.H.
   1ca78:	3f1f599f bf485bca 3f1f0ae5 bf489a4e     .Y.?.[H....?N.H.
   1ca88:	3f1ebc12 bf48d8b3 3f1e6d26 bf4916fa     ...?..H.&m.?..I.
   1ca98:	3f1e1e22 bf495521 3f1dcf06 bf499329     "..?!UI....?).I.
   1caa8:	3f1d7fd1 bf49d112 3f1d3084 bf4a0edc     ...?..I..0.?..J.
   1cab8:	3f1ce11f bf4a4c87 3f1c91a2 bf4a8a13     ...?.LJ....?..J.
   1cac8:	3f1c420c bf4ac77f 3f1bf25f bf4b04cc     .B.?..J._..?..K.
   1cad8:	3f1ba299 bf4b41fa 3f1b52bb bf4b7f09     ...?.AK..R.?..K.
   1cae8:	3f1b02c6 bf4bbbf8 3f1ab2b8 bf4bf8c7     ...?..K....?..K.
   1caf8:	3f1a6293 bf4c3578 3f1a1255 bf4c7208     .b.?x5L.U..?.rL.
   1cb08:	3f19c200 bf4cae79 3f197194 bf4ceacb     ...?y.L..q.?..L.
   1cb18:	3f19210f bf4d26fd 3f18d073 bf4d6310     .!.?.&M.s..?.cM.
   1cb28:	3f187fc0 bf4d9f02 3f182ef5 bf4ddad5     ...?..M....?..M.
   1cb38:	3f17de12 bf4e1689 3f178d18 bf4e521c     ...?..N....?.RN.
   1cb48:	3f173c07 bf4e8d90 3f16eadf bf4ec8e4     .<.?..N....?..N.
   1cb58:	3f16999f bf4f0417 3f164847 bf4f3f2b     ...?..O.GH.?+?O.
   1cb68:	3f15f6d9 bf4f7a1f 3f15a554 bf4fb4f4     ...?.zO.T..?..O.
   1cb78:	3f1553b7 bf4fefa8 3f150204 bf502a3b     .S.?..O....?;*P.
   1cb88:	3f14b039 bf5064af 3f145e58 bf509f03     9..?.dP.X^.?..P.
   1cb98:	3f140c5f bf50d937 3f13ba50 bf51134a     _..?7.P.P..?J.Q.
   1cba8:	3f13682a bf514d3d 3f1315ee bf518710     *h.?=MQ....?..Q.
   1cbb8:	3f12c39a bf51c0c2 3f127130 bf51fa54     ...?..Q.0q.?T.Q.
   1cbc8:	3f121eb0 bf5233c6 3f11cc19 bf526d18     ...?.3R....?.mR.
   1cbd8:	3f11796b bf52a649 3f1126a7 bf52df59     ky.?I.R..&.?Y.R.
   1cbe8:	3f10d3cd bf531849 3f1080dc bf535118     ...?I.S....?.QS.
   1cbf8:	3f102dd5 bf5389c7 3f0fdab8 bf53c255     .-.?..S....?U.S.
   1cc08:	3f0f8784 bf53fac3 3f0f343b bf54330f     ...?..S.;4.?.3T.
   1cc18:	3f0ee0db bf546b3b 3f0e8d65 bf54a347     ...?;kT.e..?G.T.
   1cc28:	3f0e39da bf54db31 3f0de638 bf5512fb     .9.?1.T.8..?..U.
   1cc38:	3f0d9281 bf554aa4 3f0d3eb3 bf55822c     ...?.JU..>.?,.U.
   1cc48:	3f0cead0 bf55b993 3f0c96d7 bf55f0d9     ...?..U....?..U.
   1cc58:	3f0c42c9 bf5627fe 3f0beea5 bf565f02     .B.?.'V....?._V.
   1cc68:	3f0b9a6b bf5695e5 3f0b461c bf56cca7     k..?..V..F.?..V.
   1cc78:	3f0af1b7 bf570348 3f0a9d3d bf5739c7     ...?H.W.=..?.9W.
   1cc88:	3f0a48ad bf577026 3f09f409 bf57a663     .H.?&pW....?c.W.
   1cc98:	3f099f4e bf57dc7f 3f094a7f bf581279     N..?..W..J.?y.X.
   1cca8:	3f08f59b bf584853 3f08a0a1 bf587e0b     ...?SHX....?.~X.
   1ccb8:	3f084b92 bf58b3a1 3f07f66f bf58e917     .K.?..X.o..?..X.
   1ccc8:	3f07a136 bf591e6a 3f074be8 bf59539c     6..?j.Y..K.?.SY.
   1ccd8:	3f06f686 bf5988ad 3f06a10e bf59bd9c     ...?..Y....?..Y.
   1cce8:	3f064b82 bf59f26a 3f05f5e2 bf5a2716     .K.?j.Y....?.'Z.
   1ccf8:	3f05a02c bf5a5ba0 3f054a62 bf5a9009     ,..?.[Z.bJ.?..Z.
   1cd08:	3f04f484 bf5ac450 3f049e91 bf5af875     ...?P.Z....?u.Z.
   1cd18:	3f044889 bf5b2c79 3f03f26d bf5b605a     .H.?y,[.m..?Z`[.
   1cd28:	3f039c3d bf5b941a 3f0345f8 bf5bc7b8     =..?..[..E.?..[.
   1cd38:	3f02ef9f bf5bfb34 3f029932 bf5c2e8e     ...?4.[.2..?..\.
   1cd48:	3f0242b1 bf5c61c7 3f01ec1c bf5c94dd     .B.?.a\....?..\.
   1cd58:	3f019573 bf5cc7d1 3f013eb5 bf5cfaa3     s..?..\..>.?..\.
   1cd68:	3f00e7e4 bf5d2d53 3f0090ff bf5d5fe1     ...?S-]....?._].
   1cd78:	3f003a06 bf5d924d 3effc5f3 bf5dc497     .:.?M.]....>..].
   1cd88:	3eff17b2 bf5df6be 3efe694a bf5e28c3     ...>..].Ji.>.(^.
   1cd98:	3efdbabb bf5e5aa6 3efd0c04 bf5e8c67     ...>.Z^....>g.^.
   1cda8:	3efc5d27 bf5ebe05 3efbae22 bf5eef81     '].>..^."..>..^.
   1cdb8:	3efafef7 bf5f20db 3efa4fa5 bf5f5212     ...>. _..O.>.R_.
   1cdc8:	3ef9a02d bf5f8327 3ef8f08e bf5fb419     -..>'._....>.._.
   1cdd8:	3ef840c8 bf5fe4e9 3ef790dc bf601596     .@.>.._....>..`.
   1cde8:	3ef6e0cb bf604621 3ef63093 bf607689     ...>!F`..0.>.v`.
   1cdf8:	3ef58035 bf60a6cf 3ef4cfb1 bf60d6f2     5..>..`....>..`.
   1ce08:	3ef41f07 bf6106f2 3ef36e38 bf6136d0     ...>..a.8n.>.6a.
   1ce18:	3ef2bd43 bf61668a 3ef20c29 bf619622     C..>.fa.)..>".a.
   1ce28:	3ef15aea bf61c598 3ef0a985 bf61f4ea     .Z.>..a....>..a.
   1ce38:	3eeff7fb bf62241a 3eef464c bf625326     ...>.$b.LF.>&Sb.
   1ce48:	3eee9479 bf628210 3eede280 bf62b0d7     y..>..b....>..b.
   1ce58:	3eed3063 bf62df7b 3eec7e21 bf630dfc     c0.>{.b.!~.>..c.
   1ce68:	3eebcbbb bf633c5a 3eeb1930 bf636a95     ...>Z<c.0..>.jc.
   1ce78:	3eea6681 bf6398ac 3ee9b3ae bf63c6a1     .f.>..c....>..c.
   1ce88:	3ee900b7 bf63f473 3ee84d9c bf642221     ...>s.c..M.>!"d.
   1ce98:	3ee79a5d bf644fac 3ee6e6fb bf647d14     ]..>.Od....>.}d.
   1cea8:	3ee63375 bf64aa59 3ee57fcb bf64d77b     u3.>Y.d....>{.d.
   1ceb8:	3ee4cbfe bf650479 3ee4180e bf653154     ...>y.e....>T1e.
   1cec8:	3ee363fa bf655e0b 3ee2afc4 bf658aa0     .c.>.^e....>..e.
   1ced8:	3ee1fb6a bf65b710 3ee146ee bf65e35e     j..>..e..F.>^.e.
   1cee8:	3ee0924f bf660f88 3edfdd8d bf663b8e     O..>..f....>.;f.
   1cef8:	3edf28a9 bf666771 3ede73a2 bf669330     .(.>qgf..s.>0.f.
   1cf08:	3eddbe79 bf66becc 3edd092e bf66ea45     y..>..f....>E.f.
   1cf18:	3edc53c1 bf671599 3edb9e31 bf6740ca     .S.>..g.1..>.@g.
   1cf28:	3edae880 bf676bd8 3eda32ad bf6796c1     ...>.kg..2.>..g.
   1cf38:	3ed97cb9 bf67c187 3ed8c6a3 bf67ec2a     .|.>..g....>*.g.
   1cf48:	3ed8106b bf6816a8 3ed75a13 bf684103     k..>..h..Z.>.Ah.
   1cf58:	3ed6a399 bf686b39 3ed5ecfd bf68954c     ...>9kh....>L.h.
   1cf68:	3ed53641 bf68bf3c 3ed47f64 bf68e907     A6.><.h.d..>..h.
   1cf78:	3ed3c867 bf6912ae 3ed31148 bf693c32     g..>..i.H..>2<i.
   1cf88:	3ed25a09 bf696591 3ed1a2aa bf698ecc     .Z.>.ei....>..i.
   1cf98:	3ed0eb2a bf69b7e4 3ed0338a bf69e0d7     *..>..i..3.>..i.
   1cfa8:	3ecf7bca bf6a09a7 3ecec3ea bf6a3252     .{.>..j....>R2j.
   1cfb8:	3ece0bea bf6a5ad9 3ecd53ca bf6a833c     ...>.Zj..S.><.j.
   1cfc8:	3ecc9b8b bf6aab7b 3ecbe32c bf6ad395     ...>{.j.,..>..j.
   1cfd8:	3ecb2aae bf6afb8c 3eca7210 bf6b235e     .*.>..j..r.>^#k.
   1cfe8:	3ec9b953 bf6b4b0c 3ec90077 bf6b7295     S..>.Kk.w..>.rk.
   1cff8:	3ec8477c bf6b99fb 3ec78e62 bf6bc13b     |G.>..k.b..>;.k.
   1d008:	3ec6d529 bf6be858 3ec61bd2 bf6c0f50     )..>X.k....>P.l.
   1d018:	3ec5625c bf6c3624 3ec4a8c8 bf6c5cd4     \b.>$6l....>.\l.
   1d028:	3ec3ef15 bf6c835e 3ec33544 bf6ca9c5     ...>^.l.D5.>..l.
   1d038:	3ec27b55 bf6cd007 3ec1c148 bf6cf624     U{.>..l.H..>$.l.
   1d048:	3ec1071e bf6d1c1d 3ec04cd5 bf6d41f2     ...>..m..L.>.Am.
   1d058:	3ebf926f bf6d67a1 3ebed7eb bf6d8d2d     o..>.gm....>-.m.
   1d068:	3ebe1d4a bf6db293 3ebd628b bf6dd7d5     J..>..m..b.>..m.
   1d078:	3ebca7af bf6dfcf2 3ebbecb6 bf6e21eb     ...>..m....>.!n.
   1d088:	3ebb31a0 bf6e46be 3eba766e bf6e6b6d     .1.>.Fn.nv.>mkn.
   1d098:	3eb9bb1e bf6e8ff8 3eb8ffb2 bf6eb45d     ...>..n....>].n.
   1d0a8:	3eb8442a bf6ed89e 3eb78884 bf6efcba     *D.>..n....>..n.
   1d0b8:	3eb6ccc3 bf6f20b0 3eb610e6 bf6f4483     ...>. o....>.Do.
   1d0c8:	3eb554ec bf6f6830 3eb498d6 bf6f8bb8     .T.>0ho....>..o.
   1d0d8:	3eb3dca5 bf6faf1b 3eb32058 bf6fd25a     ...>..o.X .>Z.o.
   1d0e8:	3eb263ef bf6ff573 3eb1a76b bf701867     .c.>s.o.k..>g.p.
   1d0f8:	3eb0eacb bf703b37 3eb02e10 bf705de1     ...>7;p....>.]p.
   1d108:	3eaf713a bf708066 3eaeb449 bf70a2c6     :q.>f.p.I..>..p.
   1d118:	3eadf73c bf70c502 3ead3a15 bf70e717     <..>..p..:.>..p.
   1d128:	3eac7cd4 bf710908 3eabbf77 bf712ad4     .|.>..q.w..>.*q.
   1d138:	3eab0201 bf714c7a 3eaa446f bf716dfb     ...>zLq.oD.>.mq.
   1d148:	3ea986c4 bf718f57 3ea8c8fe bf71b08e     ...>W.q....>..q.
   1d158:	3ea80b1f bf71d19f 3ea74d25 bf71f28c     ...>..q.%M.>..q.
   1d168:	3ea68f12 bf721352 3ea5d0e5 bf7233f4     ...>R.r....>.3r.
   1d178:	3ea5129f bf725470 3ea4543f bf7274c7     ...>pTr.?T.>.tr.
   1d188:	3ea395c5 bf7294f8 3ea2d733 bf72b504     ...>..r.3..>..r.
   1d198:	3ea21887 bf72d4eb 3ea159c2 bf72f4ac     ...>..r..Y.>..r.
   1d1a8:	3ea09ae5 bf731447 3e9fdbee bf7333be     ...>G.s....>.3s.
   1d1b8:	3e9f1cdf bf73530e 3e9e5db8 bf737239     ...>.Ss..].>9rs.
   1d1c8:	3e9d9e78 bf73913f 3e9cdf20 bf73b01f     x..>?.s. ..>..s.
   1d1d8:	3e9c1faf bf73ced9 3e9b6027 bf73ed6e     ...>..s.'`.>n.s.
   1d1e8:	3e9aa086 bf740bdd 3e99e0ce bf742a27     ...>..t....>'*t.
   1d1f8:	3e9920fe bf74484b 3e986116 bf746649     . .>KHt..a.>Ift.
   1d208:	3e97a117 bf748422 3e96e100 bf74a1d5     ...>".t....>..t.
   1d218:	3e9620d2 bf74bf62 3e95608d bf74dcc9     . .>b.t..`.>..t.
   1d228:	3e94a031 bf74fa0b 3e93dfbf bf751727     1..>..t....>'.u.
   1d238:	3e931f35 bf75341d 3e925e94 bf7550ed     5..>.4u..^.>.Pu.
   1d248:	3e919ddd bf756d97 3e90dd10 bf758a1c     ...>.mu....>..u.
   1d258:	3e901c2c bf75a67b 3e8f5b32 bf75c2b3     ,..>{.u.2[.>..u.
   1d268:	3e8e9a22 bf75dec6 3e8dd8fc bf75fab3     "..>..u....>..u.
   1d278:	3e8d17c0 bf76167a 3e8c566e bf76321b     ...>z.v.nV.>.2v.
   1d288:	3e8b9507 bf764d97 3e8ad38a bf7668ec     ...>.Mv....>.hv.
   1d298:	3e8a11f8 bf76841b 3e895050 bf769f24     ...>..v.PP.>$.v.
   1d2a8:	3e888e93 bf76ba07 3e87ccc1 bf76d4c4     ...>..v....>..v.
   1d2b8:	3e870ada bf76ef5b 3e8648df bf7709cc     ...>[.v..H.>..w.
   1d2c8:	3e8586ce bf772417 3e84c4aa bf773e3c     ...>.$w....><>w.
   1d2d8:	3e840270 bf77583a 3e834022 bf777213     p..>:Xw."@.>.rw.
   1d2e8:	3e827dc0 bf778bc5 3e81bb4a bf77a551     .}.>..w.J..>Q.w.
   1d2f8:	3e80f8c0 bf77beb7 3e803622 bf77d7f7     ...>..w."6.>..w.
   1d308:	3e7ee6e1 bf77f110 3e7d6156 bf780a04     ..~>..w.Va}>..x.
   1d318:	3e7bdba4 bf7822d1 3e7a55cb bf783b77     ..{>."x..Uz>w;x.
   1d328:	3e78cfcc bf7853f8 3e7749a6 bf786c52     ..x>.Sx..Iw>Rlx.
   1d338:	3e75c35a bf788486 3e743ce8 bf789c93     Z.u>..x..<t>..x.
   1d348:	3e72b651 bf78b47b 3e712f94 bf78cc3b     Q.r>{.x../q>;.x.
   1d358:	3e6fa8b2 bf78e3d6 3e6e21ab bf78fb4a     ..o>..x..!n>J.x.
   1d368:	3e6c9a7f bf791298 3e6b132f bf7929bf     ..l>..y./.k>.)y.
   1d378:	3e698bba bf7940c0 3e680422 bf79579a     ..i>.@y.".h>.Wy.
   1d388:	3e667c66 bf796e4e 3e64f486 bf7984dc     f|f>Nny...d>..y.
   1d398:	3e636c83 bf799b43 3e61e45c bf79b183     .lc>C.y.\.a>..y.
   1d3a8:	3e605c13 bf79c79d 3e5ed3a8 bf79dd91     .\`>..y...^>..y.
   1d3b8:	3e5d4b1a bf79f35e 3e5bc26a bf7a0904     .K]>^.y.j.[>..z.
   1d3c8:	3e5a3997 bf7a1e84 3e58b0a4 bf7a33dd     .9Z>..z...X>.3z.
   1d3d8:	3e57278f bf7a4910 3e559e58 bf7a5e1c     .'W>.Iz.X.U>.^z.
   1d3e8:	3e541501 bf7a7302 3e528b89 bf7a87c1     ..T>.sz...R>..z.
   1d3f8:	3e5101f1 bf7a9c59 3e4f7838 bf7ab0cb     ..Q>Y.z.8xO>..z.
   1d408:	3e4dee60 bf7ac516 3e4c6467 bf7ad93a     `.M>..z.gdL>:.z.
   1d418:	3e4ada4f bf7aed37 3e495018 bf7b010e     O.J>7.z..PI>..{.
   1d428:	3e47c5c2 bf7b14be 3e463b4d bf7b2848     ..G>..{.M;F>H({.
   1d438:	3e44b0b9 bf7b3bab 3e432607 bf7b4ee7     ..D>.;{..&C>.N{.
   1d448:	3e419b37 bf7b61fc 3e401049 bf7b74ea     7.A>.a{.I.@>.t{.
   1d458:	3e3e853e bf7b87b2 3e3cfa15 bf7b9a53     >.>>..{...<>S.{.
   1d468:	3e3b6ecf bf7baccd 3e39e36c bf7bbf20     .n;>..{.l.9> .{.
   1d478:	3e3857ec bf7bd14d 3e36cc50 bf7be353     .W8>M.{.P.6>S.{.
   1d488:	3e354098 bf7bf531 3e33b4c4 bf7c06e9     .@5>1.{...3>..|.
   1d498:	3e3228d4 bf7c187a 3e309cc9 bf7c29e5     .(2>z.|...0>.)|.
   1d4a8:	3e2f10a2 bf7c3b28 3e2d8461 bf7c4c44     ../>(;|.a.->DL|.
   1d4b8:	3e2bf804 bf7c5d3a 3e2a6b8d bf7c6e08     ..+>:]|..k*>.n|.
   1d4c8:	3e28defc bf7c7eb0 3e275251 bf7c8f31     ..(>.~|.QR'>1.|.
   1d4d8:	3e25c58c bf7c9f8a 3e2438ad bf7cafbd     ..%>..|..8$>..|.
   1d4e8:	3e22abb6 bf7cbfc9 3e211ea5 bf7ccfae     ..">..|...!>..|.
   1d4f8:	3e1f917b bf7cdf6c 3e1e0438 bf7cef03     {..>l.|.8..>..|.
   1d508:	3e1c76de bf7cfe73 3e1ae96b bf7d0dbc     .v.>s.|.k..>..}.
   1d518:	3e195be0 bf7d1cdd 3e17ce3d bf7d2bd8     .[.>..}.=..>.+}.
   1d528:	3e164083 bf7d3aac 3e14b2b2 bf7d4959     .@.>.:}....>YI}.
   1d538:	3e1324ca bf7d57de 3e1196cc bf7d663d     .$.>.W}....>=f}.
   1d548:	3e1008b7 bf7d7474 3e0e7a8b bf7d8285     ...>tt}..z.>..}.
   1d558:	3e0cec4a bf7d906e 3e0b5df3 bf7d9e30     J..>n.}..].>0.}.
   1d568:	3e09cf86 bf7dabcc 3e084105 bf7db940     ...>..}..A.>@.}.
   1d578:	3e06b26e bf7dc68c 3e0523c2 bf7dd3b2     n..>..}..#.>..}.
   1d588:	3e039502 bf7de0b1 3e02062e bf7ded88     ...>..}....>..}.
   1d598:	3e007745 bf7dfa38 3dfdd092 bf7e06c2     Ew.>8.}....=..~.
   1d5a8:	3dfab273 bf7e1324 3df7942c bf7e1f5e     s..=$.~.,..=^.~.
   1d5b8:	3df475c0 bf7e2b72 3df1572e bf7e375e     .u.=r+~..W.=^7~.
   1d5c8:	3dee3876 bf7e4323 3deb199a bf7e4ec1     v8.=#C~....=.N~.
   1d5d8:	3de7fa9a bf7e5a38 3de4db76 bf7e6588     ...=8Z~.v..=.e~.
   1d5e8:	3de1bc2e bf7e70b0 3dde9cc4 bf7e7bb1     ...=.p~....=.{~.
   1d5f8:	3ddb7d37 bf7e868b 3dd85d89 bf7e913d     7}.=..~..].==.~.
   1d608:	3dd53db9 bf7e9bc9 3dd21dc8 bf7ea62d     .=.=..~....=-.~.
   1d618:	3dcefdb7 bf7eb069 3dcbdd86 bf7eba7f     ...=i.~....=..~.
   1d628:	3dc8bd36 bf7ec46d 3dc59cc6 bf7ece34     6..=m.~....=4.~.
   1d638:	3dc27c39 bf7ed7d4 3dbf5b8d bf7ee14c     9|.=..~..[.=L.~.
   1d648:	3dbc3ac3 bf7eea9d 3db919dd bf7ef3c7     .:.=..~....=..~.
   1d658:	3db5f8da bf7efcc9 3db2d7bb bf7f05a4     ...=..~....=....
   1d668:	3dafb680 bf7f0e58 3dac952b bf7f16e4     ...=X...+..=....
   1d678:	3da973ba bf7f1f49 3da65230 bf7f2787     .s.=I...0R.=.'..
   1d688:	3da3308c bf7f2f9d 3da00ecf bf7f378d     .0.=./.....=.7..
   1d698:	3d9cecf9 bf7f3f54 3d99cb0a bf7f46f4     ...=T?.....=.F..
   1d6a8:	3d96a905 bf7f4e6d 3d9386e7 bf7f55bf     ...=mN.....=.U..
   1d6b8:	3d9064b4 bf7f5ce9 3d8d426a bf7f63ec     .d.=.\..jB.=.c..
   1d6c8:	3d8a200a bf7f6ac7 3d86fd94 bf7f717b     . .=.j.....={q..
   1d6d8:	3d83db0a bf7f7808 3d80b86c bf7f7e6d     ...=.x..l..=m~..
   1d6e8:	3d7b2b74 bf7f84ab 3d74e5e9 bf7f8ac2     t+{=......t=....
   1d6f8:	3d6ea038 bf7f90b1 3d685a62 bf7f9678     8.n=....bZh=x...
   1d708:	3d621468 bf7f9c18 3d5bce4c bf7fa191     h.b=....L.[=....
   1d718:	3d55880e bf7fa6e3 3d4f41af bf7fac0d     ..U=.....AO=....
   1d728:	3d48fb2f bf7fb10f 3d42b491 bf7fb5ea     /.H=......B=....
   1d738:	3d3c6dd5 bf7fba9e 3d3626fc bf7fbf2a     .m<=.....&6=*...
   1d748:	3d2fe007 bf7fc38f 3d2998f6 bf7fc7cc     ../=......)=....
   1d758:	3d2351cc bf7fcbe2 3d1d0a88 bf7fcfd1     .Q#=.......=....
   1d768:	3d16c32c bf7fd398 3d107bb8 bf7fd737     ,..=.....{.=7...
   1d778:	3d0a342f bf7fdaaf 3d03ec90 bf7fde00     /4.=.......=....
   1d788:	3cfb49b9 bf7fe129 3ceeba2d bf7fe42b     .I.<)...-..<+...
   1d798:	3ce22a7b bf7fe705 3cd59aa6 bf7fe9b8     {*.<.......<....
   1d7a8:	3cc90ab0 bf7fec43 3cbc7a9b bf7feea7     ...<C....z.<....
   1d7b8:	3cafea69 bf7ff0e3 3ca35a1c bf7ff2f8     i..<.....Z.<....
   1d7c8:	3c96c9b6 bf7ff4e6 3c8a3938 bf7ff6ac     ...<....89.<....
   1d7d8:	3c7b514b bf7ff84a 3c623000 bf7ff9c1     KQ{<J....0b<....
   1d7e8:	3c490e90 bf7ffb11 3c2fed02 bf7ffc39     ..I<....../<9...
   1d7f8:	3c16cb59 bf7ffd39 3bfb5330 bf7ffe13     Y..<9...0S.;....
   1d808:	3bc90f89 bf7ffec4 3b96cbc1 bf7fff4e     ...;.......;N...
   1d818:	3b490fc7 bf7fffb1 3ac90fd4 bf7fffec     ..I;.......:....

0001d828 <twiddleCoef_256>:
   1d828:	3f800000 00000000 3f7fec43 3cc90ab0     ...?....C..?...<
   1d838:	3f7fb10f 3d48fb2f 3f7f4e6d 3d96a905     ...?/.H=mN.?...=
   1d848:	3f7ec46d 3dc8bd36 3f7e1324 3dfab273     m.~?6..=$.~?s..=
   1d858:	3f7d3aac 3e164083 3f7c3b28 3e2f10a2     .:}?.@.>(;|?../>
   1d868:	3f7b14be 3e47c5c2 3f79c79d 3e605c13     ..{?..G>..y?.\`>
   1d878:	3f7853f8 3e78cfcc 3f76ba07 3e888e93     .Sx?..x>..v?...>
   1d888:	3f74fa0b 3e94a031 3f731447 3ea09ae5     ..t?1..>G.s?...>
   1d898:	3f710908 3eac7cd4 3f6ed89e 3eb8442a     ..q?.|.>..n?*D.>
   1d8a8:	3f6c835e 3ec3ef15 3f6a09a7 3ecf7bca     ^.l?...>..j?.{.>
   1d8b8:	3f676bd8 3edae880 3f64aa59 3ee63375     .kg?...>Y.d?u3.>
   1d8c8:	3f61c598 3ef15aea 3f5ebe05 3efc5d27     ..a?.Z.>..^?'].>
   1d8d8:	3f5b941a 3f039c3d 3f584853 3f08f59b     ..[?=..?SHX?...?
   1d8e8:	3f54db31 3f0e39da 3f514d3d 3f13682a     1.T?.9.?=MQ?*h.?
   1d8f8:	3f4d9f02 3f187fc0 3f49d112 3f1d7fd1     ..M?...?..I?...?
   1d908:	3f45e403 3f226799 3f41d870 3f273656     ..E?.g"?p.A?V6'?
   1d918:	3f3daef9 3f2beb4a 3f396842 3f3085bb     ..=?J.+?Bh9?..0?
   1d928:	3f3504f3 3f3504f3 3f3085bb 3f396842     ..5?..5?..0?Bh9?
   1d938:	3f2beb4a 3f3daef9 3f273656 3f41d870     J.+?..=?V6'?p.A?
   1d948:	3f226799 3f45e403 3f1d7fd1 3f49d112     .g"?..E?...?..I?
   1d958:	3f187fc0 3f4d9f02 3f13682a 3f514d3d     ...?..M?*h.?=MQ?
   1d968:	3f0e39da 3f54db31 3f08f59b 3f584853     .9.?1.T?...?SHX?
   1d978:	3f039c3d 3f5b941a 3efc5d27 3f5ebe05     =..?..[?'].>..^?
   1d988:	3ef15aea 3f61c598 3ee63375 3f64aa59     .Z.>..a?u3.>Y.d?
   1d998:	3edae880 3f676bd8 3ecf7bca 3f6a09a7     ...>.kg?.{.>..j?
   1d9a8:	3ec3ef15 3f6c835e 3eb8442a 3f6ed89e     ...>^.l?*D.>..n?
   1d9b8:	3eac7cd4 3f710908 3ea09ae5 3f731447     .|.>..q?...>G.s?
   1d9c8:	3e94a031 3f74fa0b 3e888e93 3f76ba07     1..>..t?...>..v?
   1d9d8:	3e78cfcc 3f7853f8 3e605c13 3f79c79d     ..x>.Sx?.\`>..y?
   1d9e8:	3e47c5c2 3f7b14be 3e2f10a2 3f7c3b28     ..G>..{?../>(;|?
   1d9f8:	3e164083 3f7d3aac 3dfab273 3f7e1324     .@.>.:}?s..=$.~?
   1da08:	3dc8bd36 3f7ec46d 3d96a905 3f7f4e6d     6..=m.~?...=mN.?
   1da18:	3d48fb2f 3f7fb10f 3cc90ab0 3f7fec43     /.H=...?...<C..?
   1da28:	00000000 3f800000 bcc90ab0 3f7fec43     .......?....C..?
   1da38:	bd48fb2f 3f7fb10f bd96a905 3f7f4e6d     /.H....?....mN.?
   1da48:	bdc8bd36 3f7ec46d bdfab273 3f7e1324     6...m.~?s...$.~?
   1da58:	be164083 3f7d3aac be2f10a2 3f7c3b28     .@...:}?../.(;|?
   1da68:	be47c5c2 3f7b14be be605c13 3f79c79d     ..G...{?.\`...y?
   1da78:	be78cfcc 3f7853f8 be888e93 3f76ba07     ..x..Sx?......v?
   1da88:	be94a031 3f74fa0b bea09ae5 3f731447     1.....t?....G.s?
   1da98:	beac7cd4 3f710908 beb8442a 3f6ed89e     .|....q?*D....n?
   1daa8:	bec3ef15 3f6c835e becf7bca 3f6a09a7     ....^.l?.{....j?
   1dab8:	bedae880 3f676bd8 bee63375 3f64aa59     .....kg?u3..Y.d?
   1dac8:	bef15aea 3f61c598 befc5d27 3f5ebe05     .Z....a?']....^?
   1dad8:	bf039c3d 3f5b941a bf08f59b 3f584853     =.....[?....SHX?
   1dae8:	bf0e39da 3f54db31 bf13682a 3f514d3d     .9..1.T?*h..=MQ?
   1daf8:	bf187fc0 3f4d9f02 bf1d7fd1 3f49d112     ......M?......I?
   1db08:	bf226799 3f45e403 bf273656 3f41d870     .g"...E?V6'.p.A?
   1db18:	bf2beb4a 3f3daef9 bf3085bb 3f396842     J.+...=?..0.Bh9?
   1db28:	bf3504f3 3f3504f3 bf396842 3f3085bb     ..5...5?Bh9...0?
   1db38:	bf3daef9 3f2beb4a bf41d870 3f273656     ..=.J.+?p.A.V6'?
   1db48:	bf45e403 3f226799 bf49d112 3f1d7fd1     ..E..g"?..I....?
   1db58:	bf4d9f02 3f187fc0 bf514d3d 3f13682a     ..M....?=MQ.*h.?
   1db68:	bf54db31 3f0e39da bf584853 3f08f59b     1.T..9.?SHX....?
   1db78:	bf5b941a 3f039c3d bf5ebe05 3efc5d27     ..[.=..?..^.'].>
   1db88:	bf61c598 3ef15aea bf64aa59 3ee63375     ..a..Z.>Y.d.u3.>
   1db98:	bf676bd8 3edae880 bf6a09a7 3ecf7bca     .kg....>..j..{.>
   1dba8:	bf6c835e 3ec3ef15 bf6ed89e 3eb8442a     ^.l....>..n.*D.>
   1dbb8:	bf710908 3eac7cd4 bf731447 3ea09ae5     ..q..|.>G.s....>
   1dbc8:	bf74fa0b 3e94a031 bf76ba07 3e888e93     ..t.1..>..v....>
   1dbd8:	bf7853f8 3e78cfcc bf79c79d 3e605c13     .Sx...x>..y..\`>
   1dbe8:	bf7b14be 3e47c5c2 bf7c3b28 3e2f10a2     ..{...G>(;|.../>
   1dbf8:	bf7d3aac 3e164083 bf7e1324 3dfab273     .:}..@.>$.~.s..=
   1dc08:	bf7ec46d 3dc8bd36 bf7f4e6d 3d96a905     m.~.6..=mN.....=
   1dc18:	bf7fb10f 3d48fb2f bf7fec43 3cc90ab0     ..../.H=C......<
   1dc28:	bf800000 00000000 bf7fec43 bcc90ab0     ........C.......
   1dc38:	bf7fb10f bd48fb2f bf7f4e6d bd96a905     ..../.H.mN......
   1dc48:	bf7ec46d bdc8bd36 bf7e1324 bdfab273     m.~.6...$.~.s...
   1dc58:	bf7d3aac be164083 bf7c3b28 be2f10a2     .:}..@..(;|.../.
   1dc68:	bf7b14be be47c5c2 bf79c79d be605c13     ..{...G...y..\`.
   1dc78:	bf7853f8 be78cfcc bf76ba07 be888e93     .Sx...x...v.....
   1dc88:	bf74fa0b be94a031 bf731447 bea09ae5     ..t.1...G.s.....
   1dc98:	bf710908 beac7cd4 bf6ed89e beb8442a     ..q..|....n.*D..
   1dca8:	bf6c835e bec3ef15 bf6a09a7 becf7bca     ^.l.......j..{..
   1dcb8:	bf676bd8 bedae880 bf64aa59 bee63375     .kg.....Y.d.u3..
   1dcc8:	bf61c598 bef15aea bf5ebe05 befc5d27     ..a..Z....^.']..
   1dcd8:	bf5b941a bf039c3d bf584853 bf08f59b     ..[.=...SHX.....
   1dce8:	bf54db31 bf0e39da bf514d3d bf13682a     1.T..9..=MQ.*h..
   1dcf8:	bf4d9f02 bf187fc0 bf49d112 bf1d7fd1     ..M.......I.....
   1dd08:	bf45e403 bf226799 bf41d870 bf273656     ..E..g".p.A.V6'.
   1dd18:	bf3daef9 bf2beb4a bf396842 bf3085bb     ..=.J.+.Bh9...0.
   1dd28:	bf3504f3 bf3504f3 bf3085bb bf396842     ..5...5...0.Bh9.
   1dd38:	bf2beb4a bf3daef9 bf273656 bf41d870     J.+...=.V6'.p.A.
   1dd48:	bf226799 bf45e403 bf1d7fd1 bf49d112     .g"...E.......I.
   1dd58:	bf187fc0 bf4d9f02 bf13682a bf514d3d     ......M.*h..=MQ.
   1dd68:	bf0e39da bf54db31 bf08f59b bf584853     .9..1.T.....SHX.
   1dd78:	bf039c3d bf5b941a befc5d27 bf5ebe05     =.....[.']....^.
   1dd88:	bef15aea bf61c598 bee63375 bf64aa59     .Z....a.u3..Y.d.
   1dd98:	bedae880 bf676bd8 becf7bca bf6a09a7     .....kg..{....j.
   1dda8:	bec3ef15 bf6c835e beb8442a bf6ed89e     ....^.l.*D....n.
   1ddb8:	beac7cd4 bf710908 bea09ae5 bf731447     .|....q.....G.s.
   1ddc8:	be94a031 bf74fa0b be888e93 bf76ba07     1.....t.......v.
   1ddd8:	be78cfcc bf7853f8 be605c13 bf79c79d     ..x..Sx..\`...y.
   1dde8:	be47c5c2 bf7b14be be2f10a2 bf7c3b28     ..G...{.../.(;|.
   1ddf8:	be164083 bf7d3aac bdfab273 bf7e1324     .@...:}.s...$.~.
   1de08:	bdc8bd36 bf7ec46d bd96a905 bf7f4e6d     6...m.~.....mN..
   1de18:	bd48fb2f bf7fb10f bcc90ab0 bf7fec43     /.H.........C...
   1de28:	80000000 bf800000 3cc90ab0 bf7fec43     ...........<C...
   1de38:	3d48fb2f bf7fb10f 3d96a905 bf7f4e6d     /.H=.......=mN..
   1de48:	3dc8bd36 bf7ec46d 3dfab273 bf7e1324     6..=m.~.s..=$.~.
   1de58:	3e164083 bf7d3aac 3e2f10a2 bf7c3b28     .@.>.:}.../>(;|.
   1de68:	3e47c5c2 bf7b14be 3e605c13 bf79c79d     ..G>..{..\`>..y.
   1de78:	3e78cfcc bf7853f8 3e888e93 bf76ba07     ..x>.Sx....>..v.
   1de88:	3e94a031 bf74fa0b 3ea09ae5 bf731447     1..>..t....>G.s.
   1de98:	3eac7cd4 bf710908 3eb8442a bf6ed89e     .|.>..q.*D.>..n.
   1dea8:	3ec3ef15 bf6c835e 3ecf7bca bf6a09a7     ...>^.l..{.>..j.
   1deb8:	3edae880 bf676bd8 3ee63375 bf64aa59     ...>.kg.u3.>Y.d.
   1dec8:	3ef15aea bf61c598 3efc5d27 bf5ebe05     .Z.>..a.'].>..^.
   1ded8:	3f039c3d bf5b941a 3f08f59b bf584853     =..?..[....?SHX.
   1dee8:	3f0e39da bf54db31 3f13682a bf514d3d     .9.?1.T.*h.?=MQ.
   1def8:	3f187fc0 bf4d9f02 3f1d7fd1 bf49d112     ...?..M....?..I.
   1df08:	3f226799 bf45e403 3f273656 bf41d870     .g"?..E.V6'?p.A.
   1df18:	3f2beb4a bf3daef9 3f3085bb bf396842     J.+?..=...0?Bh9.
   1df28:	3f3504f3 bf3504f3 3f396842 bf3085bb     ..5?..5.Bh9?..0.
   1df38:	3f3daef9 bf2beb4a 3f41d870 bf273656     ..=?J.+.p.A?V6'.
   1df48:	3f45e403 bf226799 3f49d112 bf1d7fd1     ..E?.g"...I?....
   1df58:	3f4d9f02 bf187fc0 3f514d3d bf13682a     ..M?....=MQ?*h..
   1df68:	3f54db31 bf0e39da 3f584853 bf08f59b     1.T?.9..SHX?....
   1df78:	3f5b941a bf039c3d 3f5ebe05 befc5d27     ..[?=.....^?']..
   1df88:	3f61c598 bef15aea 3f64aa59 bee63375     ..a?.Z..Y.d?u3..
   1df98:	3f676bd8 bedae880 3f6a09a7 becf7bca     .kg?......j?.{..
   1dfa8:	3f6c835e bec3ef15 3f6ed89e beb8442a     ^.l?......n?*D..
   1dfb8:	3f710908 beac7cd4 3f731447 bea09ae5     ..q?.|..G.s?....
   1dfc8:	3f74fa0b be94a031 3f76ba07 be888e93     ..t?1.....v?....
   1dfd8:	3f7853f8 be78cfcc 3f79c79d be605c13     .Sx?..x...y?.\`.
   1dfe8:	3f7b14be be47c5c2 3f7c3b28 be2f10a2     ..{?..G.(;|?../.
   1dff8:	3f7d3aac be164083 3f7e1324 bdfab273     .:}?.@..$.~?s...
   1e008:	3f7ec46d bdc8bd36 3f7f4e6d bd96a905     m.~?6...mN.?....
   1e018:	3f7fb10f bd48fb2f 3f7fec43 bcc90ab0     ...?/.H.C..?....

0001e028 <twiddleCoef_16>:
   1e028:	3f800000 00000000 3f6c835e 3ec3ef15     ...?....^.l?...>
   1e038:	3f3504f3 3f3504f3 3ec3ef15 3f6c835e     ..5?..5?...>^.l?
   1e048:	00000000 3f800000 bec3ef15 3f6c835e     .......?....^.l?
   1e058:	bf3504f3 3f3504f3 bf6c835e 3ec3ef15     ..5...5?^.l....>
   1e068:	bf800000 00000000 bf6c835e bec3ef15     ........^.l.....
   1e078:	bf3504f3 bf3504f3 bec3ef15 bf6c835e     ..5...5.....^.l.
   1e088:	80000000 bf800000 3ec3ef15 bf6c835e     ...........>^.l.
   1e098:	3f3504f3 bf3504f3 3f6c835e bec3ef15     ..5?..5.^.l?....

0001e0a8 <twiddleCoef_1024>:
   1e0a8:	3f800000 00000000 3f7ffec4 3bc90f89     ...?.......?...;
   1e0b8:	3f7ffb11 3c490e90 3f7ff4e6 3c96c9b6     ...?..I<...?...<
   1e0c8:	3f7fec43 3cc90ab0 3f7fe129 3cfb49b9     C..?...<)..?.I.<
   1e0d8:	3f7fd398 3d16c32c 3f7fc38f 3d2fe007     ...?,..=...?../=
   1e0e8:	3f7fb10f 3d48fb2f 3f7f9c18 3d621468     ...?/.H=...?h.b=
   1e0f8:	3f7f84ab 3d7b2b74 3f7f6ac7 3d8a200a     ...?t+{=.j.?. .=
   1e108:	3f7f4e6d 3d96a905 3f7f2f9d 3da3308c     mN.?...=./.?.0.=
   1e118:	3f7f0e58 3dafb680 3f7eea9d 3dbc3ac3     X..?...=..~?.:.=
   1e128:	3f7ec46d 3dc8bd36 3f7e9bc9 3dd53db9     m.~?6..=..~?.=.=
   1e138:	3f7e70b0 3de1bc2e 3f7e4323 3dee3876     .p~?...=#C~?v8.=
   1e148:	3f7e1324 3dfab273 3f7de0b1 3e039502     $.~?s..=..}?...>
   1e158:	3f7dabcc 3e09cf86 3f7d7474 3e1008b7     ..}?...>tt}?...>
   1e168:	3f7d3aac 3e164083 3f7cfe73 3e1c76de     .:}?.@.>s.|?.v.>
   1e178:	3f7cbfc9 3e22abb6 3f7c7eb0 3e28defc     ..|?..">.~|?..(>
   1e188:	3f7c3b28 3e2f10a2 3f7bf531 3e354098     (;|?../>1.{?.@5>
   1e198:	3f7baccd 3e3b6ecf 3f7b61fc 3e419b37     ..{?.n;>.a{?7.A>
   1e1a8:	3f7b14be 3e47c5c2 3f7ac516 3e4dee60     ..{?..G>..z?`.M>
   1e1b8:	3f7a7302 3e541501 3f7a1e84 3e5a3997     .sz?..T>..z?.9Z>
   1e1c8:	3f79c79d 3e605c13 3f796e4e 3e667c66     ..y?.\`>Nny?f|f>
   1e1d8:	3f791298 3e6c9a7f 3f78b47b 3e72b651     ..y?..l>{.x?Q.r>
   1e1e8:	3f7853f8 3e78cfcc 3f77f110 3e7ee6e1     .Sx?..x>..w?..~>
   1e1f8:	3f778bc5 3e827dc0 3f772417 3e8586ce     ..w?.}.>.$w?...>
   1e208:	3f76ba07 3e888e93 3f764d97 3e8b9507     ..v?...>.Mv?...>
   1e218:	3f75dec6 3e8e9a22 3f756d97 3e919ddd     ..u?"..>.mu?...>
   1e228:	3f74fa0b 3e94a031 3f748422 3e97a117     ..t?1..>".t?...>
   1e238:	3f740bdd 3e9aa086 3f73913f 3e9d9e78     ..t?...>?.s?x..>
   1e248:	3f731447 3ea09ae5 3f7294f8 3ea395c5     G.s?...>..r?...>
   1e258:	3f721352 3ea68f12 3f718f57 3ea986c4     R.r?...>W.q?...>
   1e268:	3f710908 3eac7cd4 3f708066 3eaf713a     ..q?.|.>f.p?:q.>
   1e278:	3f6ff573 3eb263ef 3f6f6830 3eb554ec     s.o?.c.>0ho?.T.>
   1e288:	3f6ed89e 3eb8442a 3f6e46be 3ebb31a0     ..n?*D.>.Fn?.1.>
   1e298:	3f6db293 3ebe1d4a 3f6d1c1d 3ec1071e     ..m?J..>..m?...>
   1e2a8:	3f6c835e 3ec3ef15 3f6be858 3ec6d529     ^.l?...>X.k?)..>
   1e2b8:	3f6b4b0c 3ec9b953 3f6aab7b 3ecc9b8b     .Kk?S..>{.j?...>
   1e2c8:	3f6a09a7 3ecf7bca 3f696591 3ed25a09     ..j?.{.>.ei?.Z.>
   1e2d8:	3f68bf3c 3ed53641 3f6816a8 3ed8106b     <.h?A6.>..h?k..>
   1e2e8:	3f676bd8 3edae880 3f66becc 3eddbe79     .kg?...>..f?y..>
   1e2f8:	3f660f88 3ee0924f 3f655e0b 3ee363fa     ..f?O..>.^e?.c.>
   1e308:	3f64aa59 3ee63375 3f63f473 3ee900b7     Y.d?u3.>s.c?...>
   1e318:	3f633c5a 3eebcbbb 3f628210 3eee9479     Z<c?...>..b?y..>
   1e328:	3f61c598 3ef15aea 3f6106f2 3ef41f07     ..a?.Z.>..a?...>
   1e338:	3f604621 3ef6e0cb 3f5f8327 3ef9a02d     !F`?...>'._?-..>
   1e348:	3f5ebe05 3efc5d27 3f5df6be 3eff17b2     ..^?'].>..]?...>
   1e358:	3f5d2d53 3f00e7e4 3f5c61c7 3f0242b1     S-]?...?.a\?.B.?
   1e368:	3f5b941a 3f039c3d 3f5ac450 3f04f484     ..[?=..?P.Z?...?
   1e378:	3f59f26a 3f064b82 3f591e6a 3f07a136     j.Y?.K.?j.Y?6..?
   1e388:	3f584853 3f08f59b 3f577026 3f0a48ad     SHX?...?&pW?.H.?
   1e398:	3f5695e5 3f0b9a6b 3f55b993 3f0cead0     ..V?k..?..U?...?
   1e3a8:	3f54db31 3f0e39da 3f53fac3 3f0f8784     1.T?.9.?..S?...?
   1e3b8:	3f531849 3f10d3cd 3f5233c6 3f121eb0     I.S?...?.3R?...?
   1e3c8:	3f514d3d 3f13682a 3f5064af 3f14b039     =MQ?*h.?.dP?9..?
   1e3d8:	3f4f7a1f 3f15f6d9 3f4e8d90 3f173c07     .zO?...?..N?.<.?
   1e3e8:	3f4d9f02 3f187fc0 3f4cae79 3f19c200     ..M?...?y.L?...?
   1e3f8:	3f4bbbf8 3f1b02c6 3f4ac77f 3f1c420c     ..K?...?..J?.B.?
   1e408:	3f49d112 3f1d7fd1 3f48d8b3 3f1ebc12     ..I?...?..H?...?
   1e418:	3f47de65 3f1ff6cb 3f46e22a 3f212ff9     e.G?...?*.F?./!?
   1e428:	3f45e403 3f226799 3f44e3f5 3f239da9     ..E?.g"?..D?..#?
   1e438:	3f43e200 3f24d225 3f42de29 3f26050a     ..C?%.$?).B?..&?
   1e448:	3f41d870 3f273656 3f40d0da 3f286605     p.A?V6'?..@?.f(?
   1e458:	3f3fc767 3f299415 3f3ebc1b 3f2ac082     g.??..)?..>?..*?
   1e468:	3f3daef9 3f2beb4a 3f3ca003 3f2d1469     ..=?J.+?..<?i.-?
   1e478:	3f3b8f3b 3f2e3bde 3f3a7ca4 3f2f61a5     ;.;?.;.?.|:?.a/?
   1e488:	3f396842 3f3085bb 3f385216 3f31a81d     Bh9?..0?.R8?..1?
   1e498:	3f373a23 3f32c8c9 3f36206c 3f33e7bc     #:7?..2?l 6?..3?
   1e4a8:	3f3504f3 3f3504f3 3f33e7bc 3f36206c     ..5?..5?..3?l 6?
   1e4b8:	3f32c8c9 3f373a23 3f31a81d 3f385216     ..2?#:7?..1?.R8?
   1e4c8:	3f3085bb 3f396842 3f2f61a5 3f3a7ca4     ..0?Bh9?.a/?.|:?
   1e4d8:	3f2e3bde 3f3b8f3b 3f2d1469 3f3ca003     .;.?;.;?i.-?..<?
   1e4e8:	3f2beb4a 3f3daef9 3f2ac082 3f3ebc1b     J.+?..=?..*?..>?
   1e4f8:	3f299415 3f3fc767 3f286605 3f40d0da     ..)?g.??.f(?..@?
   1e508:	3f273656 3f41d870 3f26050a 3f42de29     V6'?p.A?..&?).B?
   1e518:	3f24d225 3f43e200 3f239da9 3f44e3f5     %.$?..C?..#?..D?
   1e528:	3f226799 3f45e403 3f212ff9 3f46e22a     .g"?..E?./!?*.F?
   1e538:	3f1ff6cb 3f47de65 3f1ebc12 3f48d8b3     ...?e.G?...?..H?
   1e548:	3f1d7fd1 3f49d112 3f1c420c 3f4ac77f     ...?..I?.B.?..J?
   1e558:	3f1b02c6 3f4bbbf8 3f19c200 3f4cae79     ...?..K?...?y.L?
   1e568:	3f187fc0 3f4d9f02 3f173c07 3f4e8d90     ...?..M?.<.?..N?
   1e578:	3f15f6d9 3f4f7a1f 3f14b039 3f5064af     ...?.zO?9..?.dP?
   1e588:	3f13682a 3f514d3d 3f121eb0 3f5233c6     *h.?=MQ?...?.3R?
   1e598:	3f10d3cd 3f531849 3f0f8784 3f53fac3     ...?I.S?...?..S?
   1e5a8:	3f0e39da 3f54db31 3f0cead0 3f55b993     .9.?1.T?...?..U?
   1e5b8:	3f0b9a6b 3f5695e5 3f0a48ad 3f577026     k..?..V?.H.?&pW?
   1e5c8:	3f08f59b 3f584853 3f07a136 3f591e6a     ...?SHX?6..?j.Y?
   1e5d8:	3f064b82 3f59f26a 3f04f484 3f5ac450     .K.?j.Y?...?P.Z?
   1e5e8:	3f039c3d 3f5b941a 3f0242b1 3f5c61c7     =..?..[?.B.?.a\?
   1e5f8:	3f00e7e4 3f5d2d53 3eff17b2 3f5df6be     ...?S-]?...>..]?
   1e608:	3efc5d27 3f5ebe05 3ef9a02d 3f5f8327     '].>..^?-..>'._?
   1e618:	3ef6e0cb 3f604621 3ef41f07 3f6106f2     ...>!F`?...>..a?
   1e628:	3ef15aea 3f61c598 3eee9479 3f628210     .Z.>..a?y..>..b?
   1e638:	3eebcbbb 3f633c5a 3ee900b7 3f63f473     ...>Z<c?...>s.c?
   1e648:	3ee63375 3f64aa59 3ee363fa 3f655e0b     u3.>Y.d?.c.>.^e?
   1e658:	3ee0924f 3f660f88 3eddbe79 3f66becc     O..>..f?y..>..f?
   1e668:	3edae880 3f676bd8 3ed8106b 3f6816a8     ...>.kg?k..>..h?
   1e678:	3ed53641 3f68bf3c 3ed25a09 3f696591     A6.><.h?.Z.>.ei?
   1e688:	3ecf7bca 3f6a09a7 3ecc9b8b 3f6aab7b     .{.>..j?...>{.j?
   1e698:	3ec9b953 3f6b4b0c 3ec6d529 3f6be858     S..>.Kk?)..>X.k?
   1e6a8:	3ec3ef15 3f6c835e 3ec1071e 3f6d1c1d     ...>^.l?...>..m?
   1e6b8:	3ebe1d4a 3f6db293 3ebb31a0 3f6e46be     J..>..m?.1.>.Fn?
   1e6c8:	3eb8442a 3f6ed89e 3eb554ec 3f6f6830     *D.>..n?.T.>0ho?
   1e6d8:	3eb263ef 3f6ff573 3eaf713a 3f708066     .c.>s.o?:q.>f.p?
   1e6e8:	3eac7cd4 3f710908 3ea986c4 3f718f57     .|.>..q?...>W.q?
   1e6f8:	3ea68f12 3f721352 3ea395c5 3f7294f8     ...>R.r?...>..r?
   1e708:	3ea09ae5 3f731447 3e9d9e78 3f73913f     ...>G.s?x..>?.s?
   1e718:	3e9aa086 3f740bdd 3e97a117 3f748422     ...>..t?...>".t?
   1e728:	3e94a031 3f74fa0b 3e919ddd 3f756d97     1..>..t?...>.mu?
   1e738:	3e8e9a22 3f75dec6 3e8b9507 3f764d97     "..>..u?...>.Mv?
   1e748:	3e888e93 3f76ba07 3e8586ce 3f772417     ...>..v?...>.$w?
   1e758:	3e827dc0 3f778bc5 3e7ee6e1 3f77f110     .}.>..w?..~>..w?
   1e768:	3e78cfcc 3f7853f8 3e72b651 3f78b47b     ..x>.Sx?Q.r>{.x?
   1e778:	3e6c9a7f 3f791298 3e667c66 3f796e4e     ..l>..y?f|f>Nny?
   1e788:	3e605c13 3f79c79d 3e5a3997 3f7a1e84     .\`>..y?.9Z>..z?
   1e798:	3e541501 3f7a7302 3e4dee60 3f7ac516     ..T>.sz?`.M>..z?
   1e7a8:	3e47c5c2 3f7b14be 3e419b37 3f7b61fc     ..G>..{?7.A>.a{?
   1e7b8:	3e3b6ecf 3f7baccd 3e354098 3f7bf531     .n;>..{?.@5>1.{?
   1e7c8:	3e2f10a2 3f7c3b28 3e28defc 3f7c7eb0     ../>(;|?..(>.~|?
   1e7d8:	3e22abb6 3f7cbfc9 3e1c76de 3f7cfe73     ..">..|?.v.>s.|?
   1e7e8:	3e164083 3f7d3aac 3e1008b7 3f7d7474     .@.>.:}?...>tt}?
   1e7f8:	3e09cf86 3f7dabcc 3e039502 3f7de0b1     ...>..}?...>..}?
   1e808:	3dfab273 3f7e1324 3dee3876 3f7e4323     s..=$.~?v8.=#C~?
   1e818:	3de1bc2e 3f7e70b0 3dd53db9 3f7e9bc9     ...=.p~?.=.=..~?
   1e828:	3dc8bd36 3f7ec46d 3dbc3ac3 3f7eea9d     6..=m.~?.:.=..~?
   1e838:	3dafb680 3f7f0e58 3da3308c 3f7f2f9d     ...=X..?.0.=./.?
   1e848:	3d96a905 3f7f4e6d 3d8a200a 3f7f6ac7     ...=mN.?. .=.j.?
   1e858:	3d7b2b74 3f7f84ab 3d621468 3f7f9c18     t+{=...?h.b=...?
   1e868:	3d48fb2f 3f7fb10f 3d2fe007 3f7fc38f     /.H=...?../=...?
   1e878:	3d16c32c 3f7fd398 3cfb49b9 3f7fe129     ,..=...?.I.<)..?
   1e888:	3cc90ab0 3f7fec43 3c96c9b6 3f7ff4e6     ...<C..?...<...?
   1e898:	3c490e90 3f7ffb11 3bc90f89 3f7ffec4     ..I<...?...;...?
   1e8a8:	00000000 3f800000 bbc90f89 3f7ffec4     .......?.......?
   1e8b8:	bc490e90 3f7ffb11 bc96c9b6 3f7ff4e6     ..I....?.......?
   1e8c8:	bcc90ab0 3f7fec43 bcfb49b9 3f7fe129     ....C..?.I..)..?
   1e8d8:	bd16c32c 3f7fd398 bd2fe007 3f7fc38f     ,......?../....?
   1e8e8:	bd48fb2f 3f7fb10f bd621468 3f7f9c18     /.H....?h.b....?
   1e8f8:	bd7b2b74 3f7f84ab bd8a200a 3f7f6ac7     t+{....?. ...j.?
   1e908:	bd96a905 3f7f4e6d bda3308c 3f7f2f9d     ....mN.?.0.../.?
   1e918:	bdafb680 3f7f0e58 bdbc3ac3 3f7eea9d     ....X..?.:....~?
   1e928:	bdc8bd36 3f7ec46d bdd53db9 3f7e9bc9     6...m.~?.=....~?
   1e938:	bde1bc2e 3f7e70b0 bdee3876 3f7e4323     .....p~?v8..#C~?
   1e948:	bdfab273 3f7e1324 be039502 3f7de0b1     s...$.~?......}?
   1e958:	be09cf86 3f7dabcc be1008b7 3f7d7474     ......}?....tt}?
   1e968:	be164083 3f7d3aac be1c76de 3f7cfe73     .@...:}?.v..s.|?
   1e978:	be22abb6 3f7cbfc9 be28defc 3f7c7eb0     .."...|?..(..~|?
   1e988:	be2f10a2 3f7c3b28 be354098 3f7bf531     ../.(;|?.@5.1.{?
   1e998:	be3b6ecf 3f7baccd be419b37 3f7b61fc     .n;...{?7.A..a{?
   1e9a8:	be47c5c2 3f7b14be be4dee60 3f7ac516     ..G...{?`.M...z?
   1e9b8:	be541501 3f7a7302 be5a3997 3f7a1e84     ..T..sz?.9Z...z?
   1e9c8:	be605c13 3f79c79d be667c66 3f796e4e     .\`...y?f|f.Nny?
   1e9d8:	be6c9a7f 3f791298 be72b651 3f78b47b     ..l...y?Q.r.{.x?
   1e9e8:	be78cfcc 3f7853f8 be7ee6e1 3f77f110     ..x..Sx?..~...w?
   1e9f8:	be827dc0 3f778bc5 be8586ce 3f772417     .}....w?.....$w?
   1ea08:	be888e93 3f76ba07 be8b9507 3f764d97     ......v?.....Mv?
   1ea18:	be8e9a22 3f75dec6 be919ddd 3f756d97     ".....u?.....mu?
   1ea28:	be94a031 3f74fa0b be97a117 3f748422     1.....t?....".t?
   1ea38:	be9aa086 3f740bdd be9d9e78 3f73913f     ......t?x...?.s?
   1ea48:	bea09ae5 3f731447 bea395c5 3f7294f8     ....G.s?......r?
   1ea58:	bea68f12 3f721352 bea986c4 3f718f57     ....R.r?....W.q?
   1ea68:	beac7cd4 3f710908 beaf713a 3f708066     .|....q?:q..f.p?
   1ea78:	beb263ef 3f6ff573 beb554ec 3f6f6830     .c..s.o?.T..0ho?
   1ea88:	beb8442a 3f6ed89e bebb31a0 3f6e46be     *D....n?.1...Fn?
   1ea98:	bebe1d4a 3f6db293 bec1071e 3f6d1c1d     J.....m?......m?
   1eaa8:	bec3ef15 3f6c835e bec6d529 3f6be858     ....^.l?)...X.k?
   1eab8:	bec9b953 3f6b4b0c becc9b8b 3f6aab7b     S....Kk?....{.j?
   1eac8:	becf7bca 3f6a09a7 bed25a09 3f696591     .{....j?.Z...ei?
   1ead8:	bed53641 3f68bf3c bed8106b 3f6816a8     A6..<.h?k.....h?
   1eae8:	bedae880 3f676bd8 beddbe79 3f66becc     .....kg?y.....f?
   1eaf8:	bee0924f 3f660f88 bee363fa 3f655e0b     O.....f?.c...^e?
   1eb08:	bee63375 3f64aa59 bee900b7 3f63f473     u3..Y.d?....s.c?
   1eb18:	beebcbbb 3f633c5a beee9479 3f628210     ....Z<c?y.....b?
   1eb28:	bef15aea 3f61c598 bef41f07 3f6106f2     .Z....a?......a?
   1eb38:	bef6e0cb 3f604621 bef9a02d 3f5f8327     ....!F`?-...'._?
   1eb48:	befc5d27 3f5ebe05 beff17b2 3f5df6be     ']....^?......]?
   1eb58:	bf00e7e4 3f5d2d53 bf0242b1 3f5c61c7     ....S-]?.B...a\?
   1eb68:	bf039c3d 3f5b941a bf04f484 3f5ac450     =.....[?....P.Z?
   1eb78:	bf064b82 3f59f26a bf07a136 3f591e6a     .K..j.Y?6...j.Y?
   1eb88:	bf08f59b 3f584853 bf0a48ad 3f577026     ....SHX?.H..&pW?
   1eb98:	bf0b9a6b 3f5695e5 bf0cead0 3f55b993     k.....V?......U?
   1eba8:	bf0e39da 3f54db31 bf0f8784 3f53fac3     .9..1.T?......S?
   1ebb8:	bf10d3cd 3f531849 bf121eb0 3f5233c6     ....I.S?.....3R?
   1ebc8:	bf13682a 3f514d3d bf14b039 3f5064af     *h..=MQ?9....dP?
   1ebd8:	bf15f6d9 3f4f7a1f bf173c07 3f4e8d90     .....zO?.<....N?
   1ebe8:	bf187fc0 3f4d9f02 bf19c200 3f4cae79     ......M?....y.L?
   1ebf8:	bf1b02c6 3f4bbbf8 bf1c420c 3f4ac77f     ......K?.B....J?
   1ec08:	bf1d7fd1 3f49d112 bf1ebc12 3f48d8b3     ......I?......H?
   1ec18:	bf1ff6cb 3f47de65 bf212ff9 3f46e22a     ....e.G?./!.*.F?
   1ec28:	bf226799 3f45e403 bf239da9 3f44e3f5     .g"...E?..#...D?
   1ec38:	bf24d225 3f43e200 bf26050a 3f42de29     %.$...C?..&.).B?
   1ec48:	bf273656 3f41d870 bf286605 3f40d0da     V6'.p.A?.f(...@?
   1ec58:	bf299415 3f3fc767 bf2ac082 3f3ebc1b     ..).g.??..*...>?
   1ec68:	bf2beb4a 3f3daef9 bf2d1469 3f3ca003     J.+...=?i.-...<?
   1ec78:	bf2e3bde 3f3b8f3b bf2f61a5 3f3a7ca4     .;..;.;?.a/..|:?
   1ec88:	bf3085bb 3f396842 bf31a81d 3f385216     ..0.Bh9?..1..R8?
   1ec98:	bf32c8c9 3f373a23 bf33e7bc 3f36206c     ..2.#:7?..3.l 6?
   1eca8:	bf3504f3 3f3504f3 bf36206c 3f33e7bc     ..5...5?l 6...3?
   1ecb8:	bf373a23 3f32c8c9 bf385216 3f31a81d     #:7...2?.R8...1?
   1ecc8:	bf396842 3f3085bb bf3a7ca4 3f2f61a5     Bh9...0?.|:..a/?
   1ecd8:	bf3b8f3b 3f2e3bde bf3ca003 3f2d1469     ;.;..;.?..<.i.-?
   1ece8:	bf3daef9 3f2beb4a bf3ebc1b 3f2ac082     ..=.J.+?..>...*?
   1ecf8:	bf3fc767 3f299415 bf40d0da 3f286605     g.?...)?..@..f(?
   1ed08:	bf41d870 3f273656 bf42de29 3f26050a     p.A.V6'?).B...&?
   1ed18:	bf43e200 3f24d225 bf44e3f5 3f239da9     ..C.%.$?..D...#?
   1ed28:	bf45e403 3f226799 bf46e22a 3f212ff9     ..E..g"?*.F../!?
   1ed38:	bf47de65 3f1ff6cb bf48d8b3 3f1ebc12     e.G....?..H....?
   1ed48:	bf49d112 3f1d7fd1 bf4ac77f 3f1c420c     ..I....?..J..B.?
   1ed58:	bf4bbbf8 3f1b02c6 bf4cae79 3f19c200     ..K....?y.L....?
   1ed68:	bf4d9f02 3f187fc0 bf4e8d90 3f173c07     ..M....?..N..<.?
   1ed78:	bf4f7a1f 3f15f6d9 bf5064af 3f14b039     .zO....?.dP.9..?
   1ed88:	bf514d3d 3f13682a bf5233c6 3f121eb0     =MQ.*h.?.3R....?
   1ed98:	bf531849 3f10d3cd bf53fac3 3f0f8784     I.S....?..S....?
   1eda8:	bf54db31 3f0e39da bf55b993 3f0cead0     1.T..9.?..U....?
   1edb8:	bf5695e5 3f0b9a6b bf577026 3f0a48ad     ..V.k..?&pW..H.?
   1edc8:	bf584853 3f08f59b bf591e6a 3f07a136     SHX....?j.Y.6..?
   1edd8:	bf59f26a 3f064b82 bf5ac450 3f04f484     j.Y..K.?P.Z....?
   1ede8:	bf5b941a 3f039c3d bf5c61c7 3f0242b1     ..[.=..?.a\..B.?
   1edf8:	bf5d2d53 3f00e7e4 bf5df6be 3eff17b2     S-]....?..]....>
   1ee08:	bf5ebe05 3efc5d27 bf5f8327 3ef9a02d     ..^.'].>'._.-..>
   1ee18:	bf604621 3ef6e0cb bf6106f2 3ef41f07     !F`....>..a....>
   1ee28:	bf61c598 3ef15aea bf628210 3eee9479     ..a..Z.>..b.y..>
   1ee38:	bf633c5a 3eebcbbb bf63f473 3ee900b7     Z<c....>s.c....>
   1ee48:	bf64aa59 3ee63375 bf655e0b 3ee363fa     Y.d.u3.>.^e..c.>
   1ee58:	bf660f88 3ee0924f bf66becc 3eddbe79     ..f.O..>..f.y..>
   1ee68:	bf676bd8 3edae880 bf6816a8 3ed8106b     .kg....>..h.k..>
   1ee78:	bf68bf3c 3ed53641 bf696591 3ed25a09     <.h.A6.>.ei..Z.>
   1ee88:	bf6a09a7 3ecf7bca bf6aab7b 3ecc9b8b     ..j..{.>{.j....>
   1ee98:	bf6b4b0c 3ec9b953 bf6be858 3ec6d529     .Kk.S..>X.k.)..>
   1eea8:	bf6c835e 3ec3ef15 bf6d1c1d 3ec1071e     ^.l....>..m....>
   1eeb8:	bf6db293 3ebe1d4a bf6e46be 3ebb31a0     ..m.J..>.Fn..1.>
   1eec8:	bf6ed89e 3eb8442a bf6f6830 3eb554ec     ..n.*D.>0ho..T.>
   1eed8:	bf6ff573 3eb263ef bf708066 3eaf713a     s.o..c.>f.p.:q.>
   1eee8:	bf710908 3eac7cd4 bf718f57 3ea986c4     ..q..|.>W.q....>
   1eef8:	bf721352 3ea68f12 bf7294f8 3ea395c5     R.r....>..r....>
   1ef08:	bf731447 3ea09ae5 bf73913f 3e9d9e78     G.s....>?.s.x..>
   1ef18:	bf740bdd 3e9aa086 bf748422 3e97a117     ..t....>".t....>
   1ef28:	bf74fa0b 3e94a031 bf756d97 3e919ddd     ..t.1..>.mu....>
   1ef38:	bf75dec6 3e8e9a22 bf764d97 3e8b9507     ..u."..>.Mv....>
   1ef48:	bf76ba07 3e888e93 bf772417 3e8586ce     ..v....>.$w....>
   1ef58:	bf778bc5 3e827dc0 bf77f110 3e7ee6e1     ..w..}.>..w...~>
   1ef68:	bf7853f8 3e78cfcc bf78b47b 3e72b651     .Sx...x>{.x.Q.r>
   1ef78:	bf791298 3e6c9a7f bf796e4e 3e667c66     ..y...l>Nny.f|f>
   1ef88:	bf79c79d 3e605c13 bf7a1e84 3e5a3997     ..y..\`>..z..9Z>
   1ef98:	bf7a7302 3e541501 bf7ac516 3e4dee60     .sz...T>..z.`.M>
   1efa8:	bf7b14be 3e47c5c2 bf7b61fc 3e419b37     ..{...G>.a{.7.A>
   1efb8:	bf7baccd 3e3b6ecf bf7bf531 3e354098     ..{..n;>1.{..@5>
   1efc8:	bf7c3b28 3e2f10a2 bf7c7eb0 3e28defc     (;|.../>.~|...(>
   1efd8:	bf7cbfc9 3e22abb6 bf7cfe73 3e1c76de     ..|...">s.|..v.>
   1efe8:	bf7d3aac 3e164083 bf7d7474 3e1008b7     .:}..@.>tt}....>
   1eff8:	bf7dabcc 3e09cf86 bf7de0b1 3e039502     ..}....>..}....>
   1f008:	bf7e1324 3dfab273 bf7e4323 3dee3876     $.~.s..=#C~.v8.=
   1f018:	bf7e70b0 3de1bc2e bf7e9bc9 3dd53db9     .p~....=..~..=.=
   1f028:	bf7ec46d 3dc8bd36 bf7eea9d 3dbc3ac3     m.~.6..=..~..:.=
   1f038:	bf7f0e58 3dafb680 bf7f2f9d 3da3308c     X......=./...0.=
   1f048:	bf7f4e6d 3d96a905 bf7f6ac7 3d8a200a     mN.....=.j... .=
   1f058:	bf7f84ab 3d7b2b74 bf7f9c18 3d621468     ....t+{=....h.b=
   1f068:	bf7fb10f 3d48fb2f bf7fc38f 3d2fe007     ..../.H=....../=
   1f078:	bf7fd398 3d16c32c bf7fe129 3cfb49b9     ....,..=)....I.<
   1f088:	bf7fec43 3cc90ab0 bf7ff4e6 3c96c9b6     C......<.......<
   1f098:	bf7ffb11 3c490e90 bf7ffec4 3bc90f89     ......I<.......;
   1f0a8:	bf800000 00000000 bf7ffec4 bbc90f89     ................
   1f0b8:	bf7ffb11 bc490e90 bf7ff4e6 bc96c9b6     ......I.........
   1f0c8:	bf7fec43 bcc90ab0 bf7fe129 bcfb49b9     C.......)....I..
   1f0d8:	bf7fd398 bd16c32c bf7fc38f bd2fe007     ....,........./.
   1f0e8:	bf7fb10f bd48fb2f bf7f9c18 bd621468     ..../.H.....h.b.
   1f0f8:	bf7f84ab bd7b2b74 bf7f6ac7 bd8a200a     ....t+{..j... ..
   1f108:	bf7f4e6d bd96a905 bf7f2f9d bda3308c     mN......./...0..
   1f118:	bf7f0e58 bdafb680 bf7eea9d bdbc3ac3     X.........~..:..
   1f128:	bf7ec46d bdc8bd36 bf7e9bc9 bdd53db9     m.~.6.....~..=..
   1f138:	bf7e70b0 bde1bc2e bf7e4323 bdee3876     .p~.....#C~.v8..
   1f148:	bf7e1324 bdfab273 bf7de0b1 be039502     $.~.s.....}.....
   1f158:	bf7dabcc be09cf86 bf7d7474 be1008b7     ..}.....tt}.....
   1f168:	bf7d3aac be164083 bf7cfe73 be1c76de     .:}..@..s.|..v..
   1f178:	bf7cbfc9 be22abb6 bf7c7eb0 be28defc     ..|..."..~|...(.
   1f188:	bf7c3b28 be2f10a2 bf7bf531 be354098     (;|.../.1.{..@5.
   1f198:	bf7baccd be3b6ecf bf7b61fc be419b37     ..{..n;..a{.7.A.
   1f1a8:	bf7b14be be47c5c2 bf7ac516 be4dee60     ..{...G...z.`.M.
   1f1b8:	bf7a7302 be541501 bf7a1e84 be5a3997     .sz...T...z..9Z.
   1f1c8:	bf79c79d be605c13 bf796e4e be667c66     ..y..\`.Nny.f|f.
   1f1d8:	bf791298 be6c9a7f bf78b47b be72b651     ..y...l.{.x.Q.r.
   1f1e8:	bf7853f8 be78cfcc bf77f110 be7ee6e1     .Sx...x...w...~.
   1f1f8:	bf778bc5 be827dc0 bf772417 be8586ce     ..w..}...$w.....
   1f208:	bf76ba07 be888e93 bf764d97 be8b9507     ..v......Mv.....
   1f218:	bf75dec6 be8e9a22 bf756d97 be919ddd     ..u."....mu.....
   1f228:	bf74fa0b be94a031 bf748422 be97a117     ..t.1...".t.....
   1f238:	bf740bdd be9aa086 bf73913f be9d9e78     ..t.....?.s.x...
   1f248:	bf731447 bea09ae5 bf7294f8 bea395c5     G.s.......r.....
   1f258:	bf721352 bea68f12 bf718f57 bea986c4     R.r.....W.q.....
   1f268:	bf710908 beac7cd4 bf708066 beaf713a     ..q..|..f.p.:q..
   1f278:	bf6ff573 beb263ef bf6f6830 beb554ec     s.o..c..0ho..T..
   1f288:	bf6ed89e beb8442a bf6e46be bebb31a0     ..n.*D...Fn..1..
   1f298:	bf6db293 bebe1d4a bf6d1c1d bec1071e     ..m.J.....m.....
   1f2a8:	bf6c835e bec3ef15 bf6be858 bec6d529     ^.l.....X.k.)...
   1f2b8:	bf6b4b0c bec9b953 bf6aab7b becc9b8b     .Kk.S...{.j.....
   1f2c8:	bf6a09a7 becf7bca bf696591 bed25a09     ..j..{...ei..Z..
   1f2d8:	bf68bf3c bed53641 bf6816a8 bed8106b     <.h.A6....h.k...
   1f2e8:	bf676bd8 bedae880 bf66becc beddbe79     .kg.......f.y...
   1f2f8:	bf660f88 bee0924f bf655e0b bee363fa     ..f.O....^e..c..
   1f308:	bf64aa59 bee63375 bf63f473 bee900b7     Y.d.u3..s.c.....
   1f318:	bf633c5a beebcbbb bf628210 beee9479     Z<c.......b.y...
   1f328:	bf61c598 bef15aea bf6106f2 bef41f07     ..a..Z....a.....
   1f338:	bf604621 bef6e0cb bf5f8327 bef9a02d     !F`.....'._.-...
   1f348:	bf5ebe05 befc5d27 bf5df6be beff17b2     ..^.']....].....
   1f358:	bf5d2d53 bf00e7e4 bf5c61c7 bf0242b1     S-]......a\..B..
   1f368:	bf5b941a bf039c3d bf5ac450 bf04f484     ..[.=...P.Z.....
   1f378:	bf59f26a bf064b82 bf591e6a bf07a136     j.Y..K..j.Y.6...
   1f388:	bf584853 bf08f59b bf577026 bf0a48ad     SHX.....&pW..H..
   1f398:	bf5695e5 bf0b9a6b bf55b993 bf0cead0     ..V.k.....U.....
   1f3a8:	bf54db31 bf0e39da bf53fac3 bf0f8784     1.T..9....S.....
   1f3b8:	bf531849 bf10d3cd bf5233c6 bf121eb0     I.S......3R.....
   1f3c8:	bf514d3d bf13682a bf5064af bf14b039     =MQ.*h...dP.9...
   1f3d8:	bf4f7a1f bf15f6d9 bf4e8d90 bf173c07     .zO.......N..<..
   1f3e8:	bf4d9f02 bf187fc0 bf4cae79 bf19c200     ..M.....y.L.....
   1f3f8:	bf4bbbf8 bf1b02c6 bf4ac77f bf1c420c     ..K.......J..B..
   1f408:	bf49d112 bf1d7fd1 bf48d8b3 bf1ebc12     ..I.......H.....
   1f418:	bf47de65 bf1ff6cb bf46e22a bf212ff9     e.G.....*.F../!.
   1f428:	bf45e403 bf226799 bf44e3f5 bf239da9     ..E..g"...D...#.
   1f438:	bf43e200 bf24d225 bf42de29 bf26050a     ..C.%.$.).B...&.
   1f448:	bf41d870 bf273656 bf40d0da bf286605     p.A.V6'...@..f(.
   1f458:	bf3fc767 bf299415 bf3ebc1b bf2ac082     g.?...)...>...*.
   1f468:	bf3daef9 bf2beb4a bf3ca003 bf2d1469     ..=.J.+...<.i.-.
   1f478:	bf3b8f3b bf2e3bde bf3a7ca4 bf2f61a5     ;.;..;...|:..a/.
   1f488:	bf396842 bf3085bb bf385216 bf31a81d     Bh9...0..R8...1.
   1f498:	bf373a23 bf32c8c9 bf36206c bf33e7bc     #:7...2.l 6...3.
   1f4a8:	bf3504f3 bf3504f3 bf33e7bc bf36206c     ..5...5...3.l 6.
   1f4b8:	bf32c8c9 bf373a23 bf31a81d bf385216     ..2.#:7...1..R8.
   1f4c8:	bf3085bb bf396842 bf2f61a5 bf3a7ca4     ..0.Bh9..a/..|:.
   1f4d8:	bf2e3bde bf3b8f3b bf2d1469 bf3ca003     .;..;.;.i.-...<.
   1f4e8:	bf2beb4a bf3daef9 bf2ac082 bf3ebc1b     J.+...=...*...>.
   1f4f8:	bf299415 bf3fc767 bf286605 bf40d0da     ..).g.?..f(...@.
   1f508:	bf273656 bf41d870 bf26050a bf42de29     V6'.p.A...&.).B.
   1f518:	bf24d225 bf43e200 bf239da9 bf44e3f5     %.$...C...#...D.
   1f528:	bf226799 bf45e403 bf212ff9 bf46e22a     .g"...E../!.*.F.
   1f538:	bf1ff6cb bf47de65 bf1ebc12 bf48d8b3     ....e.G.......H.
   1f548:	bf1d7fd1 bf49d112 bf1c420c bf4ac77f     ......I..B....J.
   1f558:	bf1b02c6 bf4bbbf8 bf19c200 bf4cae79     ......K.....y.L.
   1f568:	bf187fc0 bf4d9f02 bf173c07 bf4e8d90     ......M..<....N.
   1f578:	bf15f6d9 bf4f7a1f bf14b039 bf5064af     .....zO.9....dP.
   1f588:	bf13682a bf514d3d bf121eb0 bf5233c6     *h..=MQ......3R.
   1f598:	bf10d3cd bf531849 bf0f8784 bf53fac3     ....I.S.......S.
   1f5a8:	bf0e39da bf54db31 bf0cead0 bf55b993     .9..1.T.......U.
   1f5b8:	bf0b9a6b bf5695e5 bf0a48ad bf577026     k.....V..H..&pW.
   1f5c8:	bf08f59b bf584853 bf07a136 bf591e6a     ....SHX.6...j.Y.
   1f5d8:	bf064b82 bf59f26a bf04f484 bf5ac450     .K..j.Y.....P.Z.
   1f5e8:	bf039c3d bf5b941a bf0242b1 bf5c61c7     =.....[..B...a\.
   1f5f8:	bf00e7e4 bf5d2d53 beff17b2 bf5df6be     ....S-].......].
   1f608:	befc5d27 bf5ebe05 bef9a02d bf5f8327     ']....^.-...'._.
   1f618:	bef6e0cb bf604621 bef41f07 bf6106f2     ....!F`.......a.
   1f628:	bef15aea bf61c598 beee9479 bf628210     .Z....a.y.....b.
   1f638:	beebcbbb bf633c5a bee900b7 bf63f473     ....Z<c.....s.c.
   1f648:	bee63375 bf64aa59 bee363fa bf655e0b     u3..Y.d..c...^e.
   1f658:	bee0924f bf660f88 beddbe79 bf66becc     O.....f.y.....f.
   1f668:	bedae880 bf676bd8 bed8106b bf6816a8     .....kg.k.....h.
   1f678:	bed53641 bf68bf3c bed25a09 bf696591     A6..<.h..Z...ei.
   1f688:	becf7bca bf6a09a7 becc9b8b bf6aab7b     .{....j.....{.j.
   1f698:	bec9b953 bf6b4b0c bec6d529 bf6be858     S....Kk.)...X.k.
   1f6a8:	bec3ef15 bf6c835e bec1071e bf6d1c1d     ....^.l.......m.
   1f6b8:	bebe1d4a bf6db293 bebb31a0 bf6e46be     J.....m..1...Fn.
   1f6c8:	beb8442a bf6ed89e beb554ec bf6f6830     *D....n..T..0ho.
   1f6d8:	beb263ef bf6ff573 beaf713a bf708066     .c..s.o.:q..f.p.
   1f6e8:	beac7cd4 bf710908 bea986c4 bf718f57     .|....q.....W.q.
   1f6f8:	bea68f12 bf721352 bea395c5 bf7294f8     ....R.r.......r.
   1f708:	bea09ae5 bf731447 be9d9e78 bf73913f     ....G.s.x...?.s.
   1f718:	be9aa086 bf740bdd be97a117 bf748422     ......t.....".t.
   1f728:	be94a031 bf74fa0b be919ddd bf756d97     1.....t......mu.
   1f738:	be8e9a22 bf75dec6 be8b9507 bf764d97     ".....u......Mv.
   1f748:	be888e93 bf76ba07 be8586ce bf772417     ......v......$w.
   1f758:	be827dc0 bf778bc5 be7ee6e1 bf77f110     .}....w...~...w.
   1f768:	be78cfcc bf7853f8 be72b651 bf78b47b     ..x..Sx.Q.r.{.x.
   1f778:	be6c9a7f bf791298 be667c66 bf796e4e     ..l...y.f|f.Nny.
   1f788:	be605c13 bf79c79d be5a3997 bf7a1e84     .\`...y..9Z...z.
   1f798:	be541501 bf7a7302 be4dee60 bf7ac516     ..T..sz.`.M...z.
   1f7a8:	be47c5c2 bf7b14be be419b37 bf7b61fc     ..G...{.7.A..a{.
   1f7b8:	be3b6ecf bf7baccd be354098 bf7bf531     .n;...{..@5.1.{.
   1f7c8:	be2f10a2 bf7c3b28 be28defc bf7c7eb0     ../.(;|...(..~|.
   1f7d8:	be22abb6 bf7cbfc9 be1c76de bf7cfe73     .."...|..v..s.|.
   1f7e8:	be164083 bf7d3aac be1008b7 bf7d7474     .@...:}.....tt}.
   1f7f8:	be09cf86 bf7dabcc be039502 bf7de0b1     ......}.......}.
   1f808:	bdfab273 bf7e1324 bdee3876 bf7e4323     s...$.~.v8..#C~.
   1f818:	bde1bc2e bf7e70b0 bdd53db9 bf7e9bc9     .....p~..=....~.
   1f828:	bdc8bd36 bf7ec46d bdbc3ac3 bf7eea9d     6...m.~..:....~.
   1f838:	bdafb680 bf7f0e58 bda3308c bf7f2f9d     ....X....0.../..
   1f848:	bd96a905 bf7f4e6d bd8a200a bf7f6ac7     ....mN... ...j..
   1f858:	bd7b2b74 bf7f84ab bd621468 bf7f9c18     t+{.....h.b.....
   1f868:	bd48fb2f bf7fb10f bd2fe007 bf7fc38f     /.H......./.....
   1f878:	bd16c32c bf7fd398 bcfb49b9 bf7fe129     ,........I..)...
   1f888:	bcc90ab0 bf7fec43 bc96c9b6 bf7ff4e6     ....C...........
   1f898:	bc490e90 bf7ffb11 bbc90f89 bf7ffec4     ..I.............
   1f8a8:	80000000 bf800000 3bc90f89 bf7ffec4     ...........;....
   1f8b8:	3c490e90 bf7ffb11 3c96c9b6 bf7ff4e6     ..I<.......<....
   1f8c8:	3cc90ab0 bf7fec43 3cfb49b9 bf7fe129     ...<C....I.<)...
   1f8d8:	3d16c32c bf7fd398 3d2fe007 bf7fc38f     ,..=....../=....
   1f8e8:	3d48fb2f bf7fb10f 3d621468 bf7f9c18     /.H=....h.b=....
   1f8f8:	3d7b2b74 bf7f84ab 3d8a200a bf7f6ac7     t+{=..... .=.j..
   1f908:	3d96a905 bf7f4e6d 3da3308c bf7f2f9d     ...=mN...0.=./..
   1f918:	3dafb680 bf7f0e58 3dbc3ac3 bf7eea9d     ...=X....:.=..~.
   1f928:	3dc8bd36 bf7ec46d 3dd53db9 bf7e9bc9     6..=m.~..=.=..~.
   1f938:	3de1bc2e bf7e70b0 3dee3876 bf7e4323     ...=.p~.v8.=#C~.
   1f948:	3dfab273 bf7e1324 3e039502 bf7de0b1     s..=$.~....>..}.
   1f958:	3e09cf86 bf7dabcc 3e1008b7 bf7d7474     ...>..}....>tt}.
   1f968:	3e164083 bf7d3aac 3e1c76de bf7cfe73     .@.>.:}..v.>s.|.
   1f978:	3e22abb6 bf7cbfc9 3e28defc bf7c7eb0     ..">..|...(>.~|.
   1f988:	3e2f10a2 bf7c3b28 3e354098 bf7bf531     ../>(;|..@5>1.{.
   1f998:	3e3b6ecf bf7baccd 3e419b37 bf7b61fc     .n;>..{.7.A>.a{.
   1f9a8:	3e47c5c2 bf7b14be 3e4dee60 bf7ac516     ..G>..{.`.M>..z.
   1f9b8:	3e541501 bf7a7302 3e5a3997 bf7a1e84     ..T>.sz..9Z>..z.
   1f9c8:	3e605c13 bf79c79d 3e667c66 bf796e4e     .\`>..y.f|f>Nny.
   1f9d8:	3e6c9a7f bf791298 3e72b651 bf78b47b     ..l>..y.Q.r>{.x.
   1f9e8:	3e78cfcc bf7853f8 3e7ee6e1 bf77f110     ..x>.Sx...~>..w.
   1f9f8:	3e827dc0 bf778bc5 3e8586ce bf772417     .}.>..w....>.$w.
   1fa08:	3e888e93 bf76ba07 3e8b9507 bf764d97     ...>..v....>.Mv.
   1fa18:	3e8e9a22 bf75dec6 3e919ddd bf756d97     "..>..u....>.mu.
   1fa28:	3e94a031 bf74fa0b 3e97a117 bf748422     1..>..t....>".t.
   1fa38:	3e9aa086 bf740bdd 3e9d9e78 bf73913f     ...>..t.x..>?.s.
   1fa48:	3ea09ae5 bf731447 3ea395c5 bf7294f8     ...>G.s....>..r.
   1fa58:	3ea68f12 bf721352 3ea986c4 bf718f57     ...>R.r....>W.q.
   1fa68:	3eac7cd4 bf710908 3eaf713a bf708066     .|.>..q.:q.>f.p.
   1fa78:	3eb263ef bf6ff573 3eb554ec bf6f6830     .c.>s.o..T.>0ho.
   1fa88:	3eb8442a bf6ed89e 3ebb31a0 bf6e46be     *D.>..n..1.>.Fn.
   1fa98:	3ebe1d4a bf6db293 3ec1071e bf6d1c1d     J..>..m....>..m.
   1faa8:	3ec3ef15 bf6c835e 3ec6d529 bf6be858     ...>^.l.)..>X.k.
   1fab8:	3ec9b953 bf6b4b0c 3ecc9b8b bf6aab7b     S..>.Kk....>{.j.
   1fac8:	3ecf7bca bf6a09a7 3ed25a09 bf696591     .{.>..j..Z.>.ei.
   1fad8:	3ed53641 bf68bf3c 3ed8106b bf6816a8     A6.><.h.k..>..h.
   1fae8:	3edae880 bf676bd8 3eddbe79 bf66becc     ...>.kg.y..>..f.
   1faf8:	3ee0924f bf660f88 3ee363fa bf655e0b     O..>..f..c.>.^e.
   1fb08:	3ee63375 bf64aa59 3ee900b7 bf63f473     u3.>Y.d....>s.c.
   1fb18:	3eebcbbb bf633c5a 3eee9479 bf628210     ...>Z<c.y..>..b.
   1fb28:	3ef15aea bf61c598 3ef41f07 bf6106f2     .Z.>..a....>..a.
   1fb38:	3ef6e0cb bf604621 3ef9a02d bf5f8327     ...>!F`.-..>'._.
   1fb48:	3efc5d27 bf5ebe05 3eff17b2 bf5df6be     '].>..^....>..].
   1fb58:	3f00e7e4 bf5d2d53 3f0242b1 bf5c61c7     ...?S-]..B.?.a\.
   1fb68:	3f039c3d bf5b941a 3f04f484 bf5ac450     =..?..[....?P.Z.
   1fb78:	3f064b82 bf59f26a 3f07a136 bf591e6a     .K.?j.Y.6..?j.Y.
   1fb88:	3f08f59b bf584853 3f0a48ad bf577026     ...?SHX..H.?&pW.
   1fb98:	3f0b9a6b bf5695e5 3f0cead0 bf55b993     k..?..V....?..U.
   1fba8:	3f0e39da bf54db31 3f0f8784 bf53fac3     .9.?1.T....?..S.
   1fbb8:	3f10d3cd bf531849 3f121eb0 bf5233c6     ...?I.S....?.3R.
   1fbc8:	3f13682a bf514d3d 3f14b039 bf5064af     *h.?=MQ.9..?.dP.
   1fbd8:	3f15f6d9 bf4f7a1f 3f173c07 bf4e8d90     ...?.zO..<.?..N.
   1fbe8:	3f187fc0 bf4d9f02 3f19c200 bf4cae79     ...?..M....?y.L.
   1fbf8:	3f1b02c6 bf4bbbf8 3f1c420c bf4ac77f     ...?..K..B.?..J.
   1fc08:	3f1d7fd1 bf49d112 3f1ebc12 bf48d8b3     ...?..I....?..H.
   1fc18:	3f1ff6cb bf47de65 3f212ff9 bf46e22a     ...?e.G../!?*.F.
   1fc28:	3f226799 bf45e403 3f239da9 bf44e3f5     .g"?..E...#?..D.
   1fc38:	3f24d225 bf43e200 3f26050a bf42de29     %.$?..C...&?).B.
   1fc48:	3f273656 bf41d870 3f286605 bf40d0da     V6'?p.A..f(?..@.
   1fc58:	3f299415 bf3fc767 3f2ac082 bf3ebc1b     ..)?g.?...*?..>.
   1fc68:	3f2beb4a bf3daef9 3f2d1469 bf3ca003     J.+?..=.i.-?..<.
   1fc78:	3f2e3bde bf3b8f3b 3f2f61a5 bf3a7ca4     .;.?;.;..a/?.|:.
   1fc88:	3f3085bb bf396842 3f31a81d bf385216     ..0?Bh9...1?.R8.
   1fc98:	3f32c8c9 bf373a23 3f33e7bc bf36206c     ..2?#:7...3?l 6.
   1fca8:	3f3504f3 bf3504f3 3f36206c bf33e7bc     ..5?..5.l 6?..3.
   1fcb8:	3f373a23 bf32c8c9 3f385216 bf31a81d     #:7?..2..R8?..1.
   1fcc8:	3f396842 bf3085bb 3f3a7ca4 bf2f61a5     Bh9?..0..|:?.a/.
   1fcd8:	3f3b8f3b bf2e3bde 3f3ca003 bf2d1469     ;.;?.;....<?i.-.
   1fce8:	3f3daef9 bf2beb4a 3f3ebc1b bf2ac082     ..=?J.+...>?..*.
   1fcf8:	3f3fc767 bf299415 3f40d0da bf286605     g.??..)...@?.f(.
   1fd08:	3f41d870 bf273656 3f42de29 bf26050a     p.A?V6'.).B?..&.
   1fd18:	3f43e200 bf24d225 3f44e3f5 bf239da9     ..C?%.$...D?..#.
   1fd28:	3f45e403 bf226799 3f46e22a bf212ff9     ..E?.g".*.F?./!.
   1fd38:	3f47de65 bf1ff6cb 3f48d8b3 bf1ebc12     e.G?......H?....
   1fd48:	3f49d112 bf1d7fd1 3f4ac77f bf1c420c     ..I?......J?.B..
   1fd58:	3f4bbbf8 bf1b02c6 3f4cae79 bf19c200     ..K?....y.L?....
   1fd68:	3f4d9f02 bf187fc0 3f4e8d90 bf173c07     ..M?......N?.<..
   1fd78:	3f4f7a1f bf15f6d9 3f5064af bf14b039     .zO?.....dP?9...
   1fd88:	3f514d3d bf13682a 3f5233c6 bf121eb0     =MQ?*h...3R?....
   1fd98:	3f531849 bf10d3cd 3f53fac3 bf0f8784     I.S?......S?....
   1fda8:	3f54db31 bf0e39da 3f55b993 bf0cead0     1.T?.9....U?....
   1fdb8:	3f5695e5 bf0b9a6b 3f577026 bf0a48ad     ..V?k...&pW?.H..
   1fdc8:	3f584853 bf08f59b 3f591e6a bf07a136     SHX?....j.Y?6...
   1fdd8:	3f59f26a bf064b82 3f5ac450 bf04f484     j.Y?.K..P.Z?....
   1fde8:	3f5b941a bf039c3d 3f5c61c7 bf0242b1     ..[?=....a\?.B..
   1fdf8:	3f5d2d53 bf00e7e4 3f5df6be beff17b2     S-]?......]?....
   1fe08:	3f5ebe05 befc5d27 3f5f8327 bef9a02d     ..^?']..'._?-...
   1fe18:	3f604621 bef6e0cb 3f6106f2 bef41f07     !F`?......a?....
   1fe28:	3f61c598 bef15aea 3f628210 beee9479     ..a?.Z....b?y...
   1fe38:	3f633c5a beebcbbb 3f63f473 bee900b7     Z<c?....s.c?....
   1fe48:	3f64aa59 bee63375 3f655e0b bee363fa     Y.d?u3...^e?.c..
   1fe58:	3f660f88 bee0924f 3f66becc beddbe79     ..f?O.....f?y...
   1fe68:	3f676bd8 bedae880 3f6816a8 bed8106b     .kg?......h?k...
   1fe78:	3f68bf3c bed53641 3f696591 bed25a09     <.h?A6...ei?.Z..
   1fe88:	3f6a09a7 becf7bca 3f6aab7b becc9b8b     ..j?.{..{.j?....
   1fe98:	3f6b4b0c bec9b953 3f6be858 bec6d529     .Kk?S...X.k?)...
   1fea8:	3f6c835e bec3ef15 3f6d1c1d bec1071e     ^.l?......m?....
   1feb8:	3f6db293 bebe1d4a 3f6e46be bebb31a0     ..m?J....Fn?.1..
   1fec8:	3f6ed89e beb8442a 3f6f6830 beb554ec     ..n?*D..0ho?.T..
   1fed8:	3f6ff573 beb263ef 3f708066 beaf713a     s.o?.c..f.p?:q..
   1fee8:	3f710908 beac7cd4 3f718f57 bea986c4     ..q?.|..W.q?....
   1fef8:	3f721352 bea68f12 3f7294f8 bea395c5     R.r?......r?....
   1ff08:	3f731447 bea09ae5 3f73913f be9d9e78     G.s?....?.s?x...
   1ff18:	3f740bdd be9aa086 3f748422 be97a117     ..t?....".t?....
   1ff28:	3f74fa0b be94a031 3f756d97 be919ddd     ..t?1....mu?....
   1ff38:	3f75dec6 be8e9a22 3f764d97 be8b9507     ..u?"....Mv?....
   1ff48:	3f76ba07 be888e93 3f772417 be8586ce     ..v?.....$w?....
   1ff58:	3f778bc5 be827dc0 3f77f110 be7ee6e1     ..w?.}....w?..~.
   1ff68:	3f7853f8 be78cfcc 3f78b47b be72b651     .Sx?..x.{.x?Q.r.
   1ff78:	3f791298 be6c9a7f 3f796e4e be667c66     ..y?..l.Nny?f|f.
   1ff88:	3f79c79d be605c13 3f7a1e84 be5a3997     ..y?.\`...z?.9Z.
   1ff98:	3f7a7302 be541501 3f7ac516 be4dee60     .sz?..T...z?`.M.
   1ffa8:	3f7b14be be47c5c2 3f7b61fc be419b37     ..{?..G..a{?7.A.
   1ffb8:	3f7baccd be3b6ecf 3f7bf531 be354098     ..{?.n;.1.{?.@5.
   1ffc8:	3f7c3b28 be2f10a2 3f7c7eb0 be28defc     (;|?../..~|?..(.
   1ffd8:	3f7cbfc9 be22abb6 3f7cfe73 be1c76de     ..|?..".s.|?.v..
   1ffe8:	3f7d3aac be164083 3f7d7474 be1008b7     .:}?.@..tt}?....
   1fff8:	3f7dabcc be09cf86 3f7de0b1 be039502     ..}?......}?....
   20008:	3f7e1324 bdfab273 3f7e4323 bdee3876     $.~?s...#C~?v8..
   20018:	3f7e70b0 bde1bc2e 3f7e9bc9 bdd53db9     .p~?......~?.=..
   20028:	3f7ec46d bdc8bd36 3f7eea9d bdbc3ac3     m.~?6.....~?.:..
   20038:	3f7f0e58 bdafb680 3f7f2f9d bda3308c     X..?...../.?.0..
   20048:	3f7f4e6d bd96a905 3f7f6ac7 bd8a200a     mN.?.....j.?. ..
   20058:	3f7f84ab bd7b2b74 3f7f9c18 bd621468     ...?t+{....?h.b.
   20068:	3f7fb10f bd48fb2f 3f7fc38f bd2fe007     ...?/.H....?../.
   20078:	3f7fd398 bd16c32c 3f7fe129 bcfb49b9     ...?,...)..?.I..
   20088:	3f7fec43 bcc90ab0 3f7ff4e6 bc96c9b6     C..?.......?....
   20098:	3f7ffb11 bc490e90 3f7ffec4 bbc90f89     ...?..I....?....

000200a8 <twiddleCoef_32>:
   200a8:	3f800000 00000000 3f7b14be 3e47c5c2     ...?......{?..G>
   200b8:	3f6c835e 3ec3ef15 3f54db31 3f0e39da     ^.l?...>1.T?.9.?
   200c8:	3f3504f3 3f3504f3 3f0e39da 3f54db31     ..5?..5?.9.?1.T?
   200d8:	3ec3ef15 3f6c835e 3e47c5c2 3f7b14be     ...>^.l?..G>..{?
   200e8:	00000000 3f800000 be47c5c2 3f7b14be     .......?..G...{?
   200f8:	bec3ef15 3f6c835e bf0e39da 3f54db31     ....^.l?.9..1.T?
   20108:	bf3504f3 3f3504f3 bf54db31 3f0e39da     ..5...5?1.T..9.?
   20118:	bf6c835e 3ec3ef15 bf7b14be 3e47c5c2     ^.l....>..{...G>
   20128:	bf800000 00000000 bf7b14be be47c5c2     ..........{...G.
   20138:	bf6c835e bec3ef15 bf54db31 bf0e39da     ^.l.....1.T..9..
   20148:	bf3504f3 bf3504f3 bf0e39da bf54db31     ..5...5..9..1.T.
   20158:	bec3ef15 bf6c835e be47c5c2 bf7b14be     ....^.l...G...{.
   20168:	80000000 bf800000 3e47c5c2 bf7b14be     ..........G>..{.
   20178:	3ec3ef15 bf6c835e 3f0e39da bf54db31     ...>^.l..9.?1.T.
   20188:	3f3504f3 bf3504f3 3f54db31 bf0e39da     ..5?..5.1.T?.9..
   20198:	3f6c835e bec3ef15 3f7b14be be47c5c2     ^.l?......{?..G.

000201a8 <armBitRevIndexTable1024>:
   201a8:	10000008 02000010 12000018 04000020     ............ ...
   201b8:	14000028 06000030 16000038 08000040     (...0...8...@...
   201c8:	18000048 0a000050 1a000058 0c000060     H...P...X...`...
   201d8:	1c000068 0e000070 1e000078 08000080     h...p...x.......
   201e8:	10400088 02400090 12400098 044000a0     ..@...@...@...@.
   201f8:	144000a8 064000b0 164000b8 084000c0     ..@...@...@...@.
   20208:	184000c8 0a4000d0 1a4000d8 0c4000e0     ..@...@...@...@.
   20218:	1c4000e8 0e4000f0 1e4000f8 08000100     ..@...@...@.....
   20228:	10800108 02800110 12800118 04800120     ............ ...
   20238:	14800128 06800130 16800138 08800140     (...0...8...@...
   20248:	18800148 0a800150 1a800158 0c800160     H...P...X...`...
   20258:	1c800168 0e800170 1e800178 08400180     h...p...x.....@.
   20268:	10c00188 02c00190 12c00198 04c001a0     ................
   20278:	14c001a8 06c001b0 16c001b8 08c001c0     ................
   20288:	18c001c8 0ac001d0 1ac001d8 0cc001e0     ................
   20298:	1cc001e8 0ec001f0 1ec001f8 08000200     ................
   202a8:	11000208 03000210 13000218 05000220     ............ ...
   202b8:	15000228 07000230 17000238 09000240     (...0...8...@...
   202c8:	19000248 0b000250 1b000258 0d000260     H...P...X...`...
   202d8:	1d000268 0f000270 1f000278 08800280     h...p...x.......
   202e8:	11400288 03400290 13400298 054002a0     ..@...@...@...@.
   202f8:	154002a8 074002b0 174002b8 094002c0     ..@...@...@...@.
   20308:	194002c8 0b4002d0 1b4002d8 0d4002e0     ..@...@...@...@.
   20318:	1d4002e8 0f4002f0 1f4002f8 08400300     ..@...@...@...@.
   20328:	11800308 03800310 13800318 05800320     ............ ...
   20338:	15800328 07800330 17800338 09800340     (...0...8...@...
   20348:	19800348 0b800350 1b800358 0d800360     H...P...X...`...
   20358:	1d800368 0f800370 1f800378 08c00380     h...p...x.......
   20368:	11c00388 03c00390 13c00398 05c003a0     ................
   20378:	15c003a8 07c003b0 17c003b8 09c003c0     ................
   20388:	19c003c8 0bc003d0 1bc003d8 0dc003e0     ................
   20398:	1dc003e8 0fc003f0 1fc003f8 10000400     ................
   203a8:	10080408 11000410 12080418 10080420     ............ ...
   203b8:	14080428 06080430 16080438 08080440     (...0...8...@...
   203c8:	18080448 0a080450 1a080458 0c080460     H...P...X...`...
   203d8:	1c080468 0e080470 1e080478 18000480     h...p...x.......
   203e8:	10480488 19000490 12480498 180804a0     ..H.......H.....
   203f8:	144804a8 064804b0 164804b8 084804c0     ..H...H...H...H.
   20408:	184804c8 0a4804d0 1a4804d8 0c4804e0     ..H...H...H...H.
   20418:	1c4804e8 0e4804f0 1e4804f8 10400500     ..H...H...H...@.
   20428:	10880508 11400510 12880518 10480520     ......@..... .H.
   20438:	14880528 06880530 16880538 08880540     (...0...8...@...
   20448:	18880548 0a880550 1a880558 0c880560     H...P...X...`...
   20458:	1c880568 0e880570 1e880578 18400580     h...p...x.....@.
   20468:	10c80588 19400590 12c80598 184805a0     ......@.......H.
   20478:	14c805a8 06c805b0 16c805b8 08c805c0     ................
   20488:	18c805c8 0ac805d0 1ac805d8 0cc805e0     ................
   20498:	1cc805e8 0ec805f0 1ec805f8 10800600     ................
   204a8:	11080608 11800610 13080618 10880620     ............ ...
   204b8:	15080628 07080630 17080638 09080640     (...0...8...@...
   204c8:	19080648 0b080650 1b080658 0d080660     H...P...X...`...
   204d8:	1d080668 0f080670 1f080678 18800680     h...p...x.......
   204e8:	11480688 19800690 13480698 188806a0     ..H.......H.....
   204f8:	154806a8 074806b0 174806b8 094806c0     ..H...H...H...H.
   20508:	194806c8 0b4806d0 1b4806d8 0d4806e0     ..H...H...H...H.
   20518:	1d4806e8 0f4806f0 1f4806f8 10c00700     ..H...H...H.....
   20528:	11880708 11c00710 13880718 10c80720     ............ ...
   20538:	15880728 07880730 17880738 09880740     (...0...8...@...
   20548:	19880748 0b880750 1b880758 0d880760     H...P...X...`...
   20558:	1d880768 0f880770 1f880778 18c00780     h...p...x.......
   20568:	11c80788 19c00790 13c80798 18c807a0     ................
   20578:	15c807a8 07c807b0 17c807b8 09c807c0     ................
   20588:	19c807c8 0bc807d0 1bc807d8 0dc807e0     ................
   20598:	1dc807e8 0fc807f0 1fc807f8 10100808     ................
   205a8:	08400810 12100818 11000820 14100828     ..@..... ...(...
   205b8:	11800830 16100838 18100848 0a100850     0...8...H...P...
   205c8:	1a100858 0c100860 1c100868 0e100870     X...`...h...p...
   205d8:	1e100878 0a000880 10500888 0b000890     x.........P.....
   205e8:	12500898 0a0808a0 145008a8 0b0808b0     ..P.......P.....
   205f8:	165008b8 0a1008c0 185008c8 0a5008d0     ..P.......P...P.
   20608:	1a5008d8 0c5008e0 1c5008e8 0e5008f0     ..P...P...P...P.
   20618:	1e5008f8 10900908 09800910 12900918     ..P.............
   20628:	19000920 14900928 19800930 16900938      ...(...0...8...
   20638:	0b000940 18900948 0a900950 1a900958     @...H...P...X...
   20648:	0c900960 1c900968 0e900970 1e900978     `...h...p...x...
   20658:	0a400980 10d00988 0b400990 12d00998     ..@.......@.....
   20668:	0a4809a0 14d009a8 0b4809b0 16d009b8     ..H.......H.....
   20678:	0a5009c0 18d009c8 0ad009d0 1ad009d8     ..P.............
   20688:	0cd009e0 1cd009e8 0ed009f0 1ed009f8     ................
   20698:	11100a08 13100a18 11400a20 15100a28     ........ .@.(...
   206a8:	11c00a30 17100a38 19100a48 0b100a50     0...8...H...P...
   206b8:	1b100a58 0d100a60 1d100a68 0f100a70     X...`...h...p...
   206c8:	1f100a78 11500a88 0b800a90 13500a98     x.....P.......P.
   206d8:	11500aa0 15500aa8 0b880ab0 17500ab8     ..P...P.......P.
   206e8:	0b800ac0 19500ac8 0b500ad0 1b500ad8     ......P...P...P.
   206f8:	0d500ae0 1d500ae8 0f500af0 1f500af8     ..P...P...P...P.
   20708:	11900b08 13900b18 19400b20 15900b28     ........ .@.(...
   20718:	19c00b30 17900b38 19900b48 0b900b50     0...8...H...P...
   20728:	1b900b58 0d900b60 1d900b68 0f900b70     X...`...h...p...
   20738:	1f900b78 11d00b88 0bc00b90 13d00b98     x...............
   20748:	19500ba0 15d00ba8 0bc80bb0 17d00bb8     ..P.............
   20758:	19d00bc8 1bd00bd8 0dd00be0 1dd00be8     ................
   20768:	0fd00bf0 1fd00bf8 12000c00 10180c08     ................
   20778:	13000c10 12180c18 12080c20 14180c28     ........ ...(...
   20788:	13080c30 16180c38 12100c40 18180c48     0...8...@...H...
   20798:	13100c50 1a180c58 12180c60 1c180c68     P...X...`...h...
   207a8:	0e180c70 1e180c78 1a000c80 10580c88     p...x.........X.
   207b8:	1b000c90 12580c98 1a080ca0 14580ca8     ......X.......X.
   207c8:	1b080cb0 16580cb8 1a100cc0 18580cc8     ......X.......X.
   207d8:	1b100cd0 1a580cd8 1a180ce0 1c580ce8     ......X.......X.
   207e8:	0e580cf0 1e580cf8 12400d00 10980d08     ..X...X...@.....
   207f8:	13400d10 12980d18 12480d20 14980d28     ..@..... .H.(...
   20808:	13480d30 16980d38 12500d40 18980d48     0.H.8...@.P.H...
   20818:	13500d50 1a980d58 12580d60 1c980d68     P.P.X...`.X.h...
   20828:	0e980d70 1e980d78 1a400d80 10d80d88     p...x.....@.....
   20838:	1b400d90 12d80d98 1a480da0 14d80da8     ..@.......H.....
   20848:	1b480db0 16d80db8 1a500dc0 18d80dc8     ..H.......P.....
   20858:	1b500dd0 1ad80dd8 1a580de0 1cd80de8     ..P.......X.....
   20868:	0ed80df0 1ed80df8 12800e00 11180e08     ................
   20878:	13800e10 13180e18 12880e20 15180e28     ........ ...(...
   20888:	13880e30 17180e38 12900e40 19180e48     0...8...@...H...
   20898:	13900e50 1b180e58 12980e60 1d180e68     P...X...`...h...
   208a8:	0f180e70 1f180e78 1a800e80 11580e88     p...x.........X.
   208b8:	1b800e90 13580e98 1a880ea0 15580ea8     ......X.......X.
   208c8:	1b880eb0 17580eb8 1a900ec0 19580ec8     ......X.......X.
   208d8:	1b900ed0 1b580ed8 1a980ee0 1d580ee8     ......X.......X.
   208e8:	0f580ef0 1f580ef8 12c00f00 11980f08     ..X...X.........
   208f8:	13c00f10 13980f18 12c80f20 15980f28     ........ ...(...
   20908:	13c80f30 17980f38 12d00f40 19980f48     0...8...@...H...
   20918:	13d00f50 1b980f58 12d80f60 1d980f68     P...X...`...h...
   20928:	0f980f70 1f980f78 1ac00f80 11d80f88     p...x...........
   20938:	1bc00f90 13d80f98 1ac80fa0 15d80fa8     ................
   20948:	1bc80fb0 17d80fb8 1ad00fc0 19d80fc8     ................
   20958:	1bd00fd0 1bd80fd8 1ad80fe0 1dd80fe8     ................
   20968:	1bd80ff0 1fd80ff8 10201008 10401010     .......... ...@.
   20978:	12201018 14201028 10881030 16201038     .. .(. .0...8. .
   20988:	11001040 18201048 11401050 1a201058     @...H. .P.@.X. .
   20998:	12081060 1c201068 12881070 1e201078     `...h. .p...x. .
   209a8:	12001080 12081088 12401090 12601098     ..........@...`.
   209b8:	122010a0 146010a8 126010b0 166010b8     .. ...`...`...`.
   209c8:	130010c0 186010c8 134010d0 1a6010d8     ......`...@...`.
   209d8:	121810e0 1c6010e8 129810f0 1e6010f8     ......`.......`.
   209e8:	12201108 11401110 12a01118 18081120     .. ...@..... ...
   209f8:	14a01128 18881130 16a01138 18a01148     (...0...8...H...
   20a08:	1aa01158 1a081160 1ca01168 1a881170     X...`...h...p...
   20a18:	1ea01178 12101180 12181188 12501190     x.............P.
   20a28:	12e01198 181811a0 14e011a8 189811b0     ................
   20a38:	16e011b8 131011c0 18e011c8 135011d0     ..............P.
   20a48:	1ae011d8 1a1811e0 1ce011e8 1a9811f0     ................
   20a58:	1ee011f8 18001200 18081208 18401210     ..............@.
   20a68:	13201218 18201220 15201228 18601230     .. . . .(. .0.`.
   20a78:	17201238 19001240 19201248 19401250     8. .@...H. .P.@.
   20a88:	1b201258 19201260 1d201268 12c81270     X. .`. .h. .p...
   20a98:	1f201278 1a001280 1a081288 1a401290     x. ...........@.
   20aa8:	13601298 1a2012a0 156012a8 1a6012b0     ..`... ...`...`.
   20ab8:	176012b8 1b0012c0 196012c8 1b4012d0     ..`.......`...@.
   20ac8:	1b6012d8 1b2012e0 1d6012e8 1b6012f0     ..`... ...`...`.
   20ad8:	1f6012f8 18101300 18181308 18501310     ..`...........P.
   20ae8:	13a01318 18481320 15a01328 18c81330     .... .H.(...0...
   20af8:	17a01338 19101340 19a01348 19501350     8...@...H...P.P.
   20b08:	1ba01358 1a481360 1da01368 1ac81370     X...`.H.h...p...
   20b18:	1fa01378 1a101380 1a181388 1a501390     x.............P.
   20b28:	13e01398 185813a0 15e013a8 18d813b0     ......X.........
   20b38:	17e013b8 1b1013c0 19e013c8 1b5013d0     ..............P.
   20b48:	1be013d8 1a5813e0 1de013e8 1ad813f0     ......X.........
   20b58:	1fe013f8 14201408 15001410 15201418     ...... ....... .
   20b68:	15081430 16281438 15001440 18281448     0...8.(.@...H.(.
   20b78:	15101450 1a281458 15201460 1c281468     P...X.(.`. .h.(.
   20b88:	15181470 1e281478 1c001480 1c201488     p...x.(....... .
   20b98:	1d001490 1d201498 1c0814a0 1c2814a8     ...... .......(.
   20ba8:	1d0814b0 166814b8 1c1014c0 186814c8     ......h.......h.
   20bb8:	1d1014d0 1a6814d8 1c1814e0 1c6814e8     ......h.......h.
   20bc8:	1d1814f0 1e6814f8 15201508 15401510     ......h... ...@.
   20bd8:	15601518 18281520 1c281528 15481530     ..`. .(.(.(.0.H.
   20be8:	16a81538 18a81548 1aa81558 1a281560     8...H...X...`.(.
   20bf8:	1ca81568 1aa81570 1ea81578 1c401580     h...p...x.....@.
   20c08:	1c601588 1d401590 1d601598 1c4815a0     ..`...@...`...H.
   20c18:	1c6815a8 1d4815b0 16e815b8 1c5015c0     ..h...H.......P.
   20c28:	18e815c8 1d5015d0 1ae815d8 1c5815e0     ......P.......X.
   20c38:	1ce815e8 1d5815f0 1ee815f8 1c001600     ......X.........
   20c48:	1c081608 1c401610 1c481618 1c201620     ......@...H. . .
   20c58:	1c281628 1c601630 17281638 1d001640     (.(.0.`.8.(.@...
   20c68:	19281648 1d401650 1b281658 1d201660     H.(.P.@.X.(.`. .
   20c78:	1d281668 1d601670 1f281678 1c801680     h.(.p.`.x.(.....
   20c88:	1ca01688 1d801690 1da01698 1c8816a0     ................
   20c98:	1ca816a8 1d8816b0 176816b8 1c9016c0     ..........h.....
   20ca8:	196816c8 1d9016d0 1b6816d8 1c9816e0     ..h.......h.....
   20cb8:	1d6816e8 1d9816f0 1f6816f8 1c101700     ..h.......h.....
   20cc8:	1c181708 1c501710 1c581718 18681720     ......P...X. .h.
   20cd8:	1c681728 18e81730 17a81738 1d101740     (.h.0...8...@...
   20ce8:	19a81748 1d501750 1ba81758 1a681760     H...P.P.X...`.h.
   20cf8:	1da81768 1ae81770 1fa81778 1cc01780     h...p...x.......
   20d08:	1ce01788 1dc01790 1de01798 1cc817a0     ................
   20d18:	1ce817a8 1dc817b0 17e817b8 1cd017c0     ................
   20d28:	19e817c8 1dd017d0 1be817d8 1cd817e0     ................
   20d38:	1de817e8 1dd817f0 1fe817f8 18601818     ..............`.
   20d48:	18481830 1c601838 1a301858 1c301868     0.H.8.`.X.0.h.0.
   20d58:	1a181870 1e301878 1a001880 1a081888     p...x.0.........
   20d68:	1b001890 19601898 1a2018a0 1a2818a8     ......`... ...(.
   20d78:	1b2018b0 1d6018b8 1a1018c0 1a1818c8     .. ...`.........
   20d88:	1b1018d0 1a7018d8 1a3018e0 1c7018e8     ......p...0...p.
   20d98:	1a5818f0 1e7018f8 19201908 1a601918     ..X...p... ...`.
   20da8:	1d081928 19881930 1d881938 1b201948     (...0...8...H. .
   20db8:	1ab01958 1b081960 1cb01968 1b881970     X...`...h...p...
   20dc8:	1eb01978 1a401980 1a481988 1b401990     x.....@...H...@.
   20dd8:	1b601998 1a6019a0 1d1819a8 1b6019b0     ..`...`.......`.
   20de8:	1d9819b8 1a5019c0 1a5819c8 1b5019d0     ......P...X...P.
   20df8:	1af019d8 1b1819e0 1cf019e8 1b9819f0     ................
   20e08:	1ef019f8 1c701a38 1b301a58 1d301a68     ....8.p.X.0.h.0.
   20e18:	1b181a70 1f301a78 1ac01a90 1ac81a98     p...x.0.........
   20e28:	1ae01ab0 1ae81ab8 1b801ac0 1b881ac8     ................
   20e38:	1bc01ad0 1b701ad8 1ba01ae0 1d701ae8     ......p.......p.
   20e48:	1be01af0 1f701af8 1d481b28 1dc81b38     ......p.(.H.8...
   20e58:	1b601b48 1bb01b58 1db01b68 1bc81b70     H.`.X...h...p...
   20e68:	1fb01b78 1bc01b90 1bc81b98 1d581ba8     x.............X.
   20e78:	1be01bb0 1dd81bb8 1bf01bd8 1df01be8     ................
   20e88:	1ff01bf8 1c201c08 1c301c18 1c681c38     ...... ...0.8.h.
   20e98:	1c601c48 1c701c58 1e381c78 1e001c80     H.`.X.p.x.8.....
   20ea8:	1e201c88 1f001c90 1f201c98 1e081ca0     .. ....... .....
   20eb8:	1e281ca8 1f081cb0 1f281cb8 1e101cc0     ..(.......(.....
   20ec8:	1e301cc8 1f101cd0 1f301cd8 1e181ce0     ..0.......0.....
   20ed8:	1e381ce8 1f181cf0 1e781cf8 1d201d08     ..8.......x... .
   20ee8:	1d301d18 1da81d38 1d601d48 1d701d58     ..0.8...H.`.X.p.
   20ef8:	1f281d68 1eb81d78 1e401d80 1e601d88     h.(.x.....@...`.
   20f08:	1f401d90 1f601d98 1e481da0 1e681da8     ..@...`...H...h.
   20f18:	1f481db0 1f681db8 1e501dc0 1e701dc8     ..H...h...P...p.
   20f28:	1f501dd0 1f701dd8 1e581de0 1e781de8     ..P...p...X...x.
   20f38:	1f581df0 1ef81df8 1e201e08 1e301e18     ..X....... ...0.
   20f48:	1e601e48 1e701e58 1f381e78 1ea01e88     H.`.X.p.x.8.....
   20f58:	1f801e90 1fa01e98 1f881eb0 1fa81eb8     ................
   20f68:	1f801ec0 1f881ec8 1f901ed0 1fb01ed8     ................
   20f78:	1fa01ee0 1fa81ee8 1f981ef0 1f781ef8     ..............x.
   20f88:	1f201f08 1f301f18 1f601f48 1f701f58     .. ...0.H.`.X.p.
   20f98:	1fb81f78 1fa01f88 1fc01f90 1fe01f98     x...............
   20fa8:	1fc81fb0 1fe81fb8 1fe01fc8 1ff01fd8     ................

00020fb8 <armBitRevIndexTable16>:
   20fb8:	00400008 00480018 00400010 00500028     ..@...H...@.(.P.
   20fc8:	00400020 00580038 00480030 00680058      .@.8.X.0.H.X.h.
   20fd8:	00600048 00700068                       H.`.h.p.

00020fe0 <twiddleCoef_rfft_32>:
   20fe0:	00000000 3f800000 3e47c5c2 3f7b14be     .......?..G>..{?
   20ff0:	3ec3ef15 3f6c835e 3f0e39da 3f54db31     ...>^.l?.9.?1.T?
   21000:	3f3504f3 3f3504f3 3f54db31 3f0e39da     ..5?..5?1.T?.9.?
   21010:	3f6c835e 3ec3ef15 3f7b14be 3e47c5c2     ^.l?...>..{?..G>
   21020:	3f800000 00000000 3f7b14be be47c5c2     ...?......{?..G.
   21030:	3f6c835e bec3ef15 3f54db31 bf0e39da     ^.l?....1.T?.9..
   21040:	3f3504f3 bf3504f3 3f0e39da bf54db31     ..5?..5..9.?1.T.
   21050:	3ec3ef15 bf6c835e 3e47c5c2 bf7b14be     ...>^.l...G>..{.

00021060 <armBitRevIndexTable32>:
   21060:	00400008 00800010 00c00018 00400020     ..@......... .@.
   21070:	00480028 00880030 00c80038 00800040     (.H.0...8...@...
   21080:	00500048 00d00058 00900050 00c00060     H.P.X...P...`...
   21090:	00d00068 00980070 00d80078 00c00088     h...p...x.......
   210a0:	00a00090 00d000a8 00e00098 00d000b0     ................
   210b0:	00e800b8 00f000d8 00e000c8 00f000e8     ................

000210c0 <twiddleCoef_128>:
   210c0:	3f800000 00000000 3f7fb10f 3d48fb2f     ...?.......?/.H=
   210d0:	3f7ec46d 3dc8bd36 3f7d3aac 3e164083     m.~?6..=.:}?.@.>
   210e0:	3f7b14be 3e47c5c2 3f7853f8 3e78cfcc     ..{?..G>.Sx?..x>
   210f0:	3f74fa0b 3e94a031 3f710908 3eac7cd4     ..t?1..>..q?.|.>
   21100:	3f6c835e 3ec3ef15 3f676bd8 3edae880     ^.l?...>.kg?...>
   21110:	3f61c598 3ef15aea 3f5b941a 3f039c3d     ..a?.Z.>..[?=..?
   21120:	3f54db31 3f0e39da 3f4d9f02 3f187fc0     1.T?.9.?..M?...?
   21130:	3f45e403 3f226799 3f3daef9 3f2beb4a     ..E?.g"?..=?J.+?
   21140:	3f3504f3 3f3504f3 3f2beb4a 3f3daef9     ..5?..5?J.+?..=?
   21150:	3f226799 3f45e403 3f187fc0 3f4d9f02     .g"?..E?...?..M?
   21160:	3f0e39da 3f54db31 3f039c3d 3f5b941a     .9.?1.T?=..?..[?
   21170:	3ef15aea 3f61c598 3edae880 3f676bd8     .Z.>..a?...>.kg?
   21180:	3ec3ef15 3f6c835e 3eac7cd4 3f710908     ...>^.l?.|.>..q?
   21190:	3e94a031 3f74fa0b 3e78cfcc 3f7853f8     1..>..t?..x>.Sx?
   211a0:	3e47c5c2 3f7b14be 3e164083 3f7d3aac     ..G>..{?.@.>.:}?
   211b0:	3dc8bd36 3f7ec46d 3d48fb2f 3f7fb10f     6..=m.~?/.H=...?
   211c0:	00000000 3f800000 bd48fb2f 3f7fb10f     .......?/.H....?
   211d0:	bdc8bd36 3f7ec46d be164083 3f7d3aac     6...m.~?.@...:}?
   211e0:	be47c5c2 3f7b14be be78cfcc 3f7853f8     ..G...{?..x..Sx?
   211f0:	be94a031 3f74fa0b beac7cd4 3f710908     1.....t?.|....q?
   21200:	bec3ef15 3f6c835e bedae880 3f676bd8     ....^.l?.....kg?
   21210:	bef15aea 3f61c598 bf039c3d 3f5b941a     .Z....a?=.....[?
   21220:	bf0e39da 3f54db31 bf187fc0 3f4d9f02     .9..1.T?......M?
   21230:	bf226799 3f45e403 bf2beb4a 3f3daef9     .g"...E?J.+...=?
   21240:	bf3504f3 3f3504f3 bf3daef9 3f2beb4a     ..5...5?..=.J.+?
   21250:	bf45e403 3f226799 bf4d9f02 3f187fc0     ..E..g"?..M....?
   21260:	bf54db31 3f0e39da bf5b941a 3f039c3d     1.T..9.?..[.=..?
   21270:	bf61c598 3ef15aea bf676bd8 3edae880     ..a..Z.>.kg....>
   21280:	bf6c835e 3ec3ef15 bf710908 3eac7cd4     ^.l....>..q..|.>
   21290:	bf74fa0b 3e94a031 bf7853f8 3e78cfcc     ..t.1..>.Sx...x>
   212a0:	bf7b14be 3e47c5c2 bf7d3aac 3e164083     ..{...G>.:}..@.>
   212b0:	bf7ec46d 3dc8bd36 bf7fb10f 3d48fb2f     m.~.6..=..../.H=
   212c0:	bf800000 00000000 bf7fb10f bd48fb2f     ............/.H.
   212d0:	bf7ec46d bdc8bd36 bf7d3aac be164083     m.~.6....:}..@..
   212e0:	bf7b14be be47c5c2 bf7853f8 be78cfcc     ..{...G..Sx...x.
   212f0:	bf74fa0b be94a031 bf710908 beac7cd4     ..t.1.....q..|..
   21300:	bf6c835e bec3ef15 bf676bd8 bedae880     ^.l......kg.....
   21310:	bf61c598 bef15aea bf5b941a bf039c3d     ..a..Z....[.=...
   21320:	bf54db31 bf0e39da bf4d9f02 bf187fc0     1.T..9....M.....
   21330:	bf45e403 bf226799 bf3daef9 bf2beb4a     ..E..g"...=.J.+.
   21340:	bf3504f3 bf3504f3 bf2beb4a bf3daef9     ..5...5.J.+...=.
   21350:	bf226799 bf45e403 bf187fc0 bf4d9f02     .g"...E.......M.
   21360:	bf0e39da bf54db31 bf039c3d bf5b941a     .9..1.T.=.....[.
   21370:	bef15aea bf61c598 bedae880 bf676bd8     .Z....a......kg.
   21380:	bec3ef15 bf6c835e beac7cd4 bf710908     ....^.l..|....q.
   21390:	be94a031 bf74fa0b be78cfcc bf7853f8     1.....t...x..Sx.
   213a0:	be47c5c2 bf7b14be be164083 bf7d3aac     ..G...{..@...:}.
   213b0:	bdc8bd36 bf7ec46d bd48fb2f bf7fb10f     6...m.~./.H.....
   213c0:	80000000 bf800000 3d48fb2f bf7fb10f     ......../.H=....
   213d0:	3dc8bd36 bf7ec46d 3e164083 bf7d3aac     6..=m.~..@.>.:}.
   213e0:	3e47c5c2 bf7b14be 3e78cfcc bf7853f8     ..G>..{...x>.Sx.
   213f0:	3e94a031 bf74fa0b 3eac7cd4 bf710908     1..>..t..|.>..q.
   21400:	3ec3ef15 bf6c835e 3edae880 bf676bd8     ...>^.l....>.kg.
   21410:	3ef15aea bf61c598 3f039c3d bf5b941a     .Z.>..a.=..?..[.
   21420:	3f0e39da bf54db31 3f187fc0 bf4d9f02     .9.?1.T....?..M.
   21430:	3f226799 bf45e403 3f2beb4a bf3daef9     .g"?..E.J.+?..=.
   21440:	3f3504f3 bf3504f3 3f3daef9 bf2beb4a     ..5?..5...=?J.+.
   21450:	3f45e403 bf226799 3f4d9f02 bf187fc0     ..E?.g"...M?....
   21460:	3f54db31 bf0e39da 3f5b941a bf039c3d     1.T?.9....[?=...
   21470:	3f61c598 bef15aea 3f676bd8 bedae880     ..a?.Z...kg?....
   21480:	3f6c835e bec3ef15 3f710908 beac7cd4     ^.l?......q?.|..
   21490:	3f74fa0b be94a031 3f7853f8 be78cfcc     ..t?1....Sx?..x.
   214a0:	3f7b14be be47c5c2 3f7d3aac be164083     ..{?..G..:}?.@..
   214b0:	3f7ec46d bdc8bd36 3f7fb10f bd48fb2f     m.~?6......?/.H.

000214c0 <twiddleCoef_512>:
   214c0:	3f800000 00000000 3f7ffb11 3c490e90     ...?.......?..I<
   214d0:	3f7fec43 3cc90ab0 3f7fd398 3d16c32c     C..?...<...?,..=
   214e0:	3f7fb10f 3d48fb2f 3f7f84ab 3d7b2b74     ...?/.H=...?t+{=
   214f0:	3f7f4e6d 3d96a905 3f7f0e58 3dafb680     mN.?...=X..?...=
   21500:	3f7ec46d 3dc8bd36 3f7e70b0 3de1bc2e     m.~?6..=.p~?...=
   21510:	3f7e1324 3dfab273 3f7dabcc 3e09cf86     $.~?s..=..}?...>
   21520:	3f7d3aac 3e164083 3f7cbfc9 3e22abb6     .:}?.@.>..|?..">
   21530:	3f7c3b28 3e2f10a2 3f7baccd 3e3b6ecf     (;|?../>..{?.n;>
   21540:	3f7b14be 3e47c5c2 3f7a7302 3e541501     ..{?..G>.sz?..T>
   21550:	3f79c79d 3e605c13 3f791298 3e6c9a7f     ..y?.\`>..y?..l>
   21560:	3f7853f8 3e78cfcc 3f778bc5 3e827dc0     .Sx?..x>..w?.}.>
   21570:	3f76ba07 3e888e93 3f75dec6 3e8e9a22     ..v?...>..u?"..>
   21580:	3f74fa0b 3e94a031 3f740bdd 3e9aa086     ..t?1..>..t?...>
   21590:	3f731447 3ea09ae5 3f721352 3ea68f12     G.s?...>R.r?...>
   215a0:	3f710908 3eac7cd4 3f6ff573 3eb263ef     ..q?.|.>s.o?.c.>
   215b0:	3f6ed89e 3eb8442a 3f6db293 3ebe1d4a     ..n?*D.>..m?J..>
   215c0:	3f6c835e 3ec3ef15 3f6b4b0c 3ec9b953     ^.l?...>.Kk?S..>
   215d0:	3f6a09a7 3ecf7bca 3f68bf3c 3ed53641     ..j?.{.><.h?A6.>
   215e0:	3f676bd8 3edae880 3f660f88 3ee0924f     .kg?...>..f?O..>
   215f0:	3f64aa59 3ee63375 3f633c5a 3eebcbbb     Y.d?u3.>Z<c?...>
   21600:	3f61c598 3ef15aea 3f604621 3ef6e0cb     ..a?.Z.>!F`?...>
   21610:	3f5ebe05 3efc5d27 3f5d2d53 3f00e7e4     ..^?'].>S-]?...?
   21620:	3f5b941a 3f039c3d 3f59f26a 3f064b82     ..[?=..?j.Y?.K.?
   21630:	3f584853 3f08f59b 3f5695e5 3f0b9a6b     SHX?...?..V?k..?
   21640:	3f54db31 3f0e39da 3f531849 3f10d3cd     1.T?.9.?I.S?...?
   21650:	3f514d3d 3f13682a 3f4f7a1f 3f15f6d9     =MQ?*h.?.zO?...?
   21660:	3f4d9f02 3f187fc0 3f4bbbf8 3f1b02c6     ..M?...?..K?...?
   21670:	3f49d112 3f1d7fd1 3f47de65 3f1ff6cb     ..I?...?e.G?...?
   21680:	3f45e403 3f226799 3f43e200 3f24d225     ..E?.g"?..C?%.$?
   21690:	3f41d870 3f273656 3f3fc767 3f299415     p.A?V6'?g.??..)?
   216a0:	3f3daef9 3f2beb4a 3f3b8f3b 3f2e3bde     ..=?J.+?;.;?.;.?
   216b0:	3f396842 3f3085bb 3f373a23 3f32c8c9     Bh9?..0?#:7?..2?
   216c0:	3f3504f3 3f3504f3 3f32c8c9 3f373a23     ..5?..5?..2?#:7?
   216d0:	3f3085bb 3f396842 3f2e3bde 3f3b8f3b     ..0?Bh9?.;.?;.;?
   216e0:	3f2beb4a 3f3daef9 3f299415 3f3fc767     J.+?..=?..)?g.??
   216f0:	3f273656 3f41d870 3f24d225 3f43e200     V6'?p.A?%.$?..C?
   21700:	3f226799 3f45e403 3f1ff6cb 3f47de65     .g"?..E?...?e.G?
   21710:	3f1d7fd1 3f49d112 3f1b02c6 3f4bbbf8     ...?..I?...?..K?
   21720:	3f187fc0 3f4d9f02 3f15f6d9 3f4f7a1f     ...?..M?...?.zO?
   21730:	3f13682a 3f514d3d 3f10d3cd 3f531849     *h.?=MQ?...?I.S?
   21740:	3f0e39da 3f54db31 3f0b9a6b 3f5695e5     .9.?1.T?k..?..V?
   21750:	3f08f59b 3f584853 3f064b82 3f59f26a     ...?SHX?.K.?j.Y?
   21760:	3f039c3d 3f5b941a 3f00e7e4 3f5d2d53     =..?..[?...?S-]?
   21770:	3efc5d27 3f5ebe05 3ef6e0cb 3f604621     '].>..^?...>!F`?
   21780:	3ef15aea 3f61c598 3eebcbbb 3f633c5a     .Z.>..a?...>Z<c?
   21790:	3ee63375 3f64aa59 3ee0924f 3f660f88     u3.>Y.d?O..>..f?
   217a0:	3edae880 3f676bd8 3ed53641 3f68bf3c     ...>.kg?A6.><.h?
   217b0:	3ecf7bca 3f6a09a7 3ec9b953 3f6b4b0c     .{.>..j?S..>.Kk?
   217c0:	3ec3ef15 3f6c835e 3ebe1d4a 3f6db293     ...>^.l?J..>..m?
   217d0:	3eb8442a 3f6ed89e 3eb263ef 3f6ff573     *D.>..n?.c.>s.o?
   217e0:	3eac7cd4 3f710908 3ea68f12 3f721352     .|.>..q?...>R.r?
   217f0:	3ea09ae5 3f731447 3e9aa086 3f740bdd     ...>G.s?...>..t?
   21800:	3e94a031 3f74fa0b 3e8e9a22 3f75dec6     1..>..t?"..>..u?
   21810:	3e888e93 3f76ba07 3e827dc0 3f778bc5     ...>..v?.}.>..w?
   21820:	3e78cfcc 3f7853f8 3e6c9a7f 3f791298     ..x>.Sx?..l>..y?
   21830:	3e605c13 3f79c79d 3e541501 3f7a7302     .\`>..y?..T>.sz?
   21840:	3e47c5c2 3f7b14be 3e3b6ecf 3f7baccd     ..G>..{?.n;>..{?
   21850:	3e2f10a2 3f7c3b28 3e22abb6 3f7cbfc9     ../>(;|?..">..|?
   21860:	3e164083 3f7d3aac 3e09cf86 3f7dabcc     .@.>.:}?...>..}?
   21870:	3dfab273 3f7e1324 3de1bc2e 3f7e70b0     s..=$.~?...=.p~?
   21880:	3dc8bd36 3f7ec46d 3dafb680 3f7f0e58     6..=m.~?...=X..?
   21890:	3d96a905 3f7f4e6d 3d7b2b74 3f7f84ab     ...=mN.?t+{=...?
   218a0:	3d48fb2f 3f7fb10f 3d16c32c 3f7fd398     /.H=...?,..=...?
   218b0:	3cc90ab0 3f7fec43 3c490e90 3f7ffb11     ...<C..?..I<...?
   218c0:	00000000 3f800000 bc490e90 3f7ffb11     .......?..I....?
   218d0:	bcc90ab0 3f7fec43 bd16c32c 3f7fd398     ....C..?,......?
   218e0:	bd48fb2f 3f7fb10f bd7b2b74 3f7f84ab     /.H....?t+{....?
   218f0:	bd96a905 3f7f4e6d bdafb680 3f7f0e58     ....mN.?....X..?
   21900:	bdc8bd36 3f7ec46d bde1bc2e 3f7e70b0     6...m.~?.....p~?
   21910:	bdfab273 3f7e1324 be09cf86 3f7dabcc     s...$.~?......}?
   21920:	be164083 3f7d3aac be22abb6 3f7cbfc9     .@...:}?.."...|?
   21930:	be2f10a2 3f7c3b28 be3b6ecf 3f7baccd     ../.(;|?.n;...{?
   21940:	be47c5c2 3f7b14be be541501 3f7a7302     ..G...{?..T..sz?
   21950:	be605c13 3f79c79d be6c9a7f 3f791298     .\`...y?..l...y?
   21960:	be78cfcc 3f7853f8 be827dc0 3f778bc5     ..x..Sx?.}....w?
   21970:	be888e93 3f76ba07 be8e9a22 3f75dec6     ......v?".....u?
   21980:	be94a031 3f74fa0b be9aa086 3f740bdd     1.....t?......t?
   21990:	bea09ae5 3f731447 bea68f12 3f721352     ....G.s?....R.r?
   219a0:	beac7cd4 3f710908 beb263ef 3f6ff573     .|....q?.c..s.o?
   219b0:	beb8442a 3f6ed89e bebe1d4a 3f6db293     *D....n?J.....m?
   219c0:	bec3ef15 3f6c835e bec9b953 3f6b4b0c     ....^.l?S....Kk?
   219d0:	becf7bca 3f6a09a7 bed53641 3f68bf3c     .{....j?A6..<.h?
   219e0:	bedae880 3f676bd8 bee0924f 3f660f88     .....kg?O.....f?
   219f0:	bee63375 3f64aa59 beebcbbb 3f633c5a     u3..Y.d?....Z<c?
   21a00:	bef15aea 3f61c598 bef6e0cb 3f604621     .Z....a?....!F`?
   21a10:	befc5d27 3f5ebe05 bf00e7e4 3f5d2d53     ']....^?....S-]?
   21a20:	bf039c3d 3f5b941a bf064b82 3f59f26a     =.....[?.K..j.Y?
   21a30:	bf08f59b 3f584853 bf0b9a6b 3f5695e5     ....SHX?k.....V?
   21a40:	bf0e39da 3f54db31 bf10d3cd 3f531849     .9..1.T?....I.S?
   21a50:	bf13682a 3f514d3d bf15f6d9 3f4f7a1f     *h..=MQ?.....zO?
   21a60:	bf187fc0 3f4d9f02 bf1b02c6 3f4bbbf8     ......M?......K?
   21a70:	bf1d7fd1 3f49d112 bf1ff6cb 3f47de65     ......I?....e.G?
   21a80:	bf226799 3f45e403 bf24d225 3f43e200     .g"...E?%.$...C?
   21a90:	bf273656 3f41d870 bf299415 3f3fc767     V6'.p.A?..).g.??
   21aa0:	bf2beb4a 3f3daef9 bf2e3bde 3f3b8f3b     J.+...=?.;..;.;?
   21ab0:	bf3085bb 3f396842 bf32c8c9 3f373a23     ..0.Bh9?..2.#:7?
   21ac0:	bf3504f3 3f3504f3 bf373a23 3f32c8c9     ..5...5?#:7...2?
   21ad0:	bf396842 3f3085bb bf3b8f3b 3f2e3bde     Bh9...0?;.;..;.?
   21ae0:	bf3daef9 3f2beb4a bf3fc767 3f299415     ..=.J.+?g.?...)?
   21af0:	bf41d870 3f273656 bf43e200 3f24d225     p.A.V6'?..C.%.$?
   21b00:	bf45e403 3f226799 bf47de65 3f1ff6cb     ..E..g"?e.G....?
   21b10:	bf49d112 3f1d7fd1 bf4bbbf8 3f1b02c6     ..I....?..K....?
   21b20:	bf4d9f02 3f187fc0 bf4f7a1f 3f15f6d9     ..M....?.zO....?
   21b30:	bf514d3d 3f13682a bf531849 3f10d3cd     =MQ.*h.?I.S....?
   21b40:	bf54db31 3f0e39da bf5695e5 3f0b9a6b     1.T..9.?..V.k..?
   21b50:	bf584853 3f08f59b bf59f26a 3f064b82     SHX....?j.Y..K.?
   21b60:	bf5b941a 3f039c3d bf5d2d53 3f00e7e4     ..[.=..?S-]....?
   21b70:	bf5ebe05 3efc5d27 bf604621 3ef6e0cb     ..^.'].>!F`....>
   21b80:	bf61c598 3ef15aea bf633c5a 3eebcbbb     ..a..Z.>Z<c....>
   21b90:	bf64aa59 3ee63375 bf660f88 3ee0924f     Y.d.u3.>..f.O..>
   21ba0:	bf676bd8 3edae880 bf68bf3c 3ed53641     .kg....><.h.A6.>
   21bb0:	bf6a09a7 3ecf7bca bf6b4b0c 3ec9b953     ..j..{.>.Kk.S..>
   21bc0:	bf6c835e 3ec3ef15 bf6db293 3ebe1d4a     ^.l....>..m.J..>
   21bd0:	bf6ed89e 3eb8442a bf6ff573 3eb263ef     ..n.*D.>s.o..c.>
   21be0:	bf710908 3eac7cd4 bf721352 3ea68f12     ..q..|.>R.r....>
   21bf0:	bf731447 3ea09ae5 bf740bdd 3e9aa086     G.s....>..t....>
   21c00:	bf74fa0b 3e94a031 bf75dec6 3e8e9a22     ..t.1..>..u."..>
   21c10:	bf76ba07 3e888e93 bf778bc5 3e827dc0     ..v....>..w..}.>
   21c20:	bf7853f8 3e78cfcc bf791298 3e6c9a7f     .Sx...x>..y...l>
   21c30:	bf79c79d 3e605c13 bf7a7302 3e541501     ..y..\`>.sz...T>
   21c40:	bf7b14be 3e47c5c2 bf7baccd 3e3b6ecf     ..{...G>..{..n;>
   21c50:	bf7c3b28 3e2f10a2 bf7cbfc9 3e22abb6     (;|.../>..|...">
   21c60:	bf7d3aac 3e164083 bf7dabcc 3e09cf86     .:}..@.>..}....>
   21c70:	bf7e1324 3dfab273 bf7e70b0 3de1bc2e     $.~.s..=.p~....=
   21c80:	bf7ec46d 3dc8bd36 bf7f0e58 3dafb680     m.~.6..=X......=
   21c90:	bf7f4e6d 3d96a905 bf7f84ab 3d7b2b74     mN.....=....t+{=
   21ca0:	bf7fb10f 3d48fb2f bf7fd398 3d16c32c     ..../.H=....,..=
   21cb0:	bf7fec43 3cc90ab0 bf7ffb11 3c490e90     C......<......I<
   21cc0:	bf800000 00000000 bf7ffb11 bc490e90     ..............I.
   21cd0:	bf7fec43 bcc90ab0 bf7fd398 bd16c32c     C...........,...
   21ce0:	bf7fb10f bd48fb2f bf7f84ab bd7b2b74     ..../.H.....t+{.
   21cf0:	bf7f4e6d bd96a905 bf7f0e58 bdafb680     mN......X.......
   21d00:	bf7ec46d bdc8bd36 bf7e70b0 bde1bc2e     m.~.6....p~.....
   21d10:	bf7e1324 bdfab273 bf7dabcc be09cf86     $.~.s.....}.....
   21d20:	bf7d3aac be164083 bf7cbfc9 be22abb6     .:}..@....|...".
   21d30:	bf7c3b28 be2f10a2 bf7baccd be3b6ecf     (;|.../...{..n;.
   21d40:	bf7b14be be47c5c2 bf7a7302 be541501     ..{...G..sz...T.
   21d50:	bf79c79d be605c13 bf791298 be6c9a7f     ..y..\`...y...l.
   21d60:	bf7853f8 be78cfcc bf778bc5 be827dc0     .Sx...x...w..}..
   21d70:	bf76ba07 be888e93 bf75dec6 be8e9a22     ..v.......u."...
   21d80:	bf74fa0b be94a031 bf740bdd be9aa086     ..t.1.....t.....
   21d90:	bf731447 bea09ae5 bf721352 bea68f12     G.s.....R.r.....
   21da0:	bf710908 beac7cd4 bf6ff573 beb263ef     ..q..|..s.o..c..
   21db0:	bf6ed89e beb8442a bf6db293 bebe1d4a     ..n.*D....m.J...
   21dc0:	bf6c835e bec3ef15 bf6b4b0c bec9b953     ^.l......Kk.S...
   21dd0:	bf6a09a7 becf7bca bf68bf3c bed53641     ..j..{..<.h.A6..
   21de0:	bf676bd8 bedae880 bf660f88 bee0924f     .kg.......f.O...
   21df0:	bf64aa59 bee63375 bf633c5a beebcbbb     Y.d.u3..Z<c.....
   21e00:	bf61c598 bef15aea bf604621 bef6e0cb     ..a..Z..!F`.....
   21e10:	bf5ebe05 befc5d27 bf5d2d53 bf00e7e4     ..^.']..S-].....
   21e20:	bf5b941a bf039c3d bf59f26a bf064b82     ..[.=...j.Y..K..
   21e30:	bf584853 bf08f59b bf5695e5 bf0b9a6b     SHX.......V.k...
   21e40:	bf54db31 bf0e39da bf531849 bf10d3cd     1.T..9..I.S.....
   21e50:	bf514d3d bf13682a bf4f7a1f bf15f6d9     =MQ.*h...zO.....
   21e60:	bf4d9f02 bf187fc0 bf4bbbf8 bf1b02c6     ..M.......K.....
   21e70:	bf49d112 bf1d7fd1 bf47de65 bf1ff6cb     ..I.....e.G.....
   21e80:	bf45e403 bf226799 bf43e200 bf24d225     ..E..g"...C.%.$.
   21e90:	bf41d870 bf273656 bf3fc767 bf299415     p.A.V6'.g.?...).
   21ea0:	bf3daef9 bf2beb4a bf3b8f3b bf2e3bde     ..=.J.+.;.;..;..
   21eb0:	bf396842 bf3085bb bf373a23 bf32c8c9     Bh9...0.#:7...2.
   21ec0:	bf3504f3 bf3504f3 bf32c8c9 bf373a23     ..5...5...2.#:7.
   21ed0:	bf3085bb bf396842 bf2e3bde bf3b8f3b     ..0.Bh9..;..;.;.
   21ee0:	bf2beb4a bf3daef9 bf299415 bf3fc767     J.+...=...).g.?.
   21ef0:	bf273656 bf41d870 bf24d225 bf43e200     V6'.p.A.%.$...C.
   21f00:	bf226799 bf45e403 bf1ff6cb bf47de65     .g"...E.....e.G.
   21f10:	bf1d7fd1 bf49d112 bf1b02c6 bf4bbbf8     ......I.......K.
   21f20:	bf187fc0 bf4d9f02 bf15f6d9 bf4f7a1f     ......M......zO.
   21f30:	bf13682a bf514d3d bf10d3cd bf531849     *h..=MQ.....I.S.
   21f40:	bf0e39da bf54db31 bf0b9a6b bf5695e5     .9..1.T.k.....V.
   21f50:	bf08f59b bf584853 bf064b82 bf59f26a     ....SHX..K..j.Y.
   21f60:	bf039c3d bf5b941a bf00e7e4 bf5d2d53     =.....[.....S-].
   21f70:	befc5d27 bf5ebe05 bef6e0cb bf604621     ']....^.....!F`.
   21f80:	bef15aea bf61c598 beebcbbb bf633c5a     .Z....a.....Z<c.
   21f90:	bee63375 bf64aa59 bee0924f bf660f88     u3..Y.d.O.....f.
   21fa0:	bedae880 bf676bd8 bed53641 bf68bf3c     .....kg.A6..<.h.
   21fb0:	becf7bca bf6a09a7 bec9b953 bf6b4b0c     .{....j.S....Kk.
   21fc0:	bec3ef15 bf6c835e bebe1d4a bf6db293     ....^.l.J.....m.
   21fd0:	beb8442a bf6ed89e beb263ef bf6ff573     *D....n..c..s.o.
   21fe0:	beac7cd4 bf710908 bea68f12 bf721352     .|....q.....R.r.
   21ff0:	bea09ae5 bf731447 be9aa086 bf740bdd     ....G.s.......t.
   22000:	be94a031 bf74fa0b be8e9a22 bf75dec6     1.....t.".....u.
   22010:	be888e93 bf76ba07 be827dc0 bf778bc5     ......v..}....w.
   22020:	be78cfcc bf7853f8 be6c9a7f bf791298     ..x..Sx...l...y.
   22030:	be605c13 bf79c79d be541501 bf7a7302     .\`...y...T..sz.
   22040:	be47c5c2 bf7b14be be3b6ecf bf7baccd     ..G...{..n;...{.
   22050:	be2f10a2 bf7c3b28 be22abb6 bf7cbfc9     ../.(;|..."...|.
   22060:	be164083 bf7d3aac be09cf86 bf7dabcc     .@...:}.......}.
   22070:	bdfab273 bf7e1324 bde1bc2e bf7e70b0     s...$.~......p~.
   22080:	bdc8bd36 bf7ec46d bdafb680 bf7f0e58     6...m.~.....X...
   22090:	bd96a905 bf7f4e6d bd7b2b74 bf7f84ab     ....mN..t+{.....
   220a0:	bd48fb2f bf7fb10f bd16c32c bf7fd398     /.H.....,.......
   220b0:	bcc90ab0 bf7fec43 bc490e90 bf7ffb11     ....C.....I.....
   220c0:	80000000 bf800000 3c490e90 bf7ffb11     ..........I<....
   220d0:	3cc90ab0 bf7fec43 3d16c32c bf7fd398     ...<C...,..=....
   220e0:	3d48fb2f bf7fb10f 3d7b2b74 bf7f84ab     /.H=....t+{=....
   220f0:	3d96a905 bf7f4e6d 3dafb680 bf7f0e58     ...=mN.....=X...
   22100:	3dc8bd36 bf7ec46d 3de1bc2e bf7e70b0     6..=m.~....=.p~.
   22110:	3dfab273 bf7e1324 3e09cf86 bf7dabcc     s..=$.~....>..}.
   22120:	3e164083 bf7d3aac 3e22abb6 bf7cbfc9     .@.>.:}...">..|.
   22130:	3e2f10a2 bf7c3b28 3e3b6ecf bf7baccd     ../>(;|..n;>..{.
   22140:	3e47c5c2 bf7b14be 3e541501 bf7a7302     ..G>..{...T>.sz.
   22150:	3e605c13 bf79c79d 3e6c9a7f bf791298     .\`>..y...l>..y.
   22160:	3e78cfcc bf7853f8 3e827dc0 bf778bc5     ..x>.Sx..}.>..w.
   22170:	3e888e93 bf76ba07 3e8e9a22 bf75dec6     ...>..v."..>..u.
   22180:	3e94a031 bf74fa0b 3e9aa086 bf740bdd     1..>..t....>..t.
   22190:	3ea09ae5 bf731447 3ea68f12 bf721352     ...>G.s....>R.r.
   221a0:	3eac7cd4 bf710908 3eb263ef bf6ff573     .|.>..q..c.>s.o.
   221b0:	3eb8442a bf6ed89e 3ebe1d4a bf6db293     *D.>..n.J..>..m.
   221c0:	3ec3ef15 bf6c835e 3ec9b953 bf6b4b0c     ...>^.l.S..>.Kk.
   221d0:	3ecf7bca bf6a09a7 3ed53641 bf68bf3c     .{.>..j.A6.><.h.
   221e0:	3edae880 bf676bd8 3ee0924f bf660f88     ...>.kg.O..>..f.
   221f0:	3ee63375 bf64aa59 3eebcbbb bf633c5a     u3.>Y.d....>Z<c.
   22200:	3ef15aea bf61c598 3ef6e0cb bf604621     .Z.>..a....>!F`.
   22210:	3efc5d27 bf5ebe05 3f00e7e4 bf5d2d53     '].>..^....?S-].
   22220:	3f039c3d bf5b941a 3f064b82 bf59f26a     =..?..[..K.?j.Y.
   22230:	3f08f59b bf584853 3f0b9a6b bf5695e5     ...?SHX.k..?..V.
   22240:	3f0e39da bf54db31 3f10d3cd bf531849     .9.?1.T....?I.S.
   22250:	3f13682a bf514d3d 3f15f6d9 bf4f7a1f     *h.?=MQ....?.zO.
   22260:	3f187fc0 bf4d9f02 3f1b02c6 bf4bbbf8     ...?..M....?..K.
   22270:	3f1d7fd1 bf49d112 3f1ff6cb bf47de65     ...?..I....?e.G.
   22280:	3f226799 bf45e403 3f24d225 bf43e200     .g"?..E.%.$?..C.
   22290:	3f273656 bf41d870 3f299415 bf3fc767     V6'?p.A...)?g.?.
   222a0:	3f2beb4a bf3daef9 3f2e3bde bf3b8f3b     J.+?..=..;.?;.;.
   222b0:	3f3085bb bf396842 3f32c8c9 bf373a23     ..0?Bh9...2?#:7.
   222c0:	3f3504f3 bf3504f3 3f373a23 bf32c8c9     ..5?..5.#:7?..2.
   222d0:	3f396842 bf3085bb 3f3b8f3b bf2e3bde     Bh9?..0.;.;?.;..
   222e0:	3f3daef9 bf2beb4a 3f3fc767 bf299415     ..=?J.+.g.??..).
   222f0:	3f41d870 bf273656 3f43e200 bf24d225     p.A?V6'...C?%.$.
   22300:	3f45e403 bf226799 3f47de65 bf1ff6cb     ..E?.g".e.G?....
   22310:	3f49d112 bf1d7fd1 3f4bbbf8 bf1b02c6     ..I?......K?....
   22320:	3f4d9f02 bf187fc0 3f4f7a1f bf15f6d9     ..M?.....zO?....
   22330:	3f514d3d bf13682a 3f531849 bf10d3cd     =MQ?*h..I.S?....
   22340:	3f54db31 bf0e39da 3f5695e5 bf0b9a6b     1.T?.9....V?k...
   22350:	3f584853 bf08f59b 3f59f26a bf064b82     SHX?....j.Y?.K..
   22360:	3f5b941a bf039c3d 3f5d2d53 bf00e7e4     ..[?=...S-]?....
   22370:	3f5ebe05 befc5d27 3f604621 bef6e0cb     ..^?']..!F`?....
   22380:	3f61c598 bef15aea 3f633c5a beebcbbb     ..a?.Z..Z<c?....
   22390:	3f64aa59 bee63375 3f660f88 bee0924f     Y.d?u3....f?O...
   223a0:	3f676bd8 bedae880 3f68bf3c bed53641     .kg?....<.h?A6..
   223b0:	3f6a09a7 becf7bca 3f6b4b0c bec9b953     ..j?.{...Kk?S...
   223c0:	3f6c835e bec3ef15 3f6db293 bebe1d4a     ^.l?......m?J...
   223d0:	3f6ed89e beb8442a 3f6ff573 beb263ef     ..n?*D..s.o?.c..
   223e0:	3f710908 beac7cd4 3f721352 bea68f12     ..q?.|..R.r?....
   223f0:	3f731447 bea09ae5 3f740bdd be9aa086     G.s?......t?....
   22400:	3f74fa0b be94a031 3f75dec6 be8e9a22     ..t?1.....u?"...
   22410:	3f76ba07 be888e93 3f778bc5 be827dc0     ..v?......w?.}..
   22420:	3f7853f8 be78cfcc 3f791298 be6c9a7f     .Sx?..x...y?..l.
   22430:	3f79c79d be605c13 3f7a7302 be541501     ..y?.\`..sz?..T.
   22440:	3f7b14be be47c5c2 3f7baccd be3b6ecf     ..{?..G...{?.n;.
   22450:	3f7c3b28 be2f10a2 3f7cbfc9 be22abb6     (;|?../...|?..".
   22460:	3f7d3aac be164083 3f7dabcc be09cf86     .:}?.@....}?....
   22470:	3f7e1324 bdfab273 3f7e70b0 bde1bc2e     $.~?s....p~?....
   22480:	3f7ec46d bdc8bd36 3f7f0e58 bdafb680     m.~?6...X..?....
   22490:	3f7f4e6d bd96a905 3f7f84ab bd7b2b74     mN.?.......?t+{.
   224a0:	3f7fb10f bd48fb2f 3f7fd398 bd16c32c     ...?/.H....?,...
   224b0:	3f7fec43 bcc90ab0 3f7ffb11 bc490e90     C..?.......?..I.

000224c0 <armBitRevIndexTable2048>:
   224c0:	10000008 20000010 30000018 02000020     ....... ...0 ...
   224d0:	12000028 22000030 32000038 04000040     (...0.."8..2@...
   224e0:	14000048 24000050 34000058 06000060     H...P..$X..4`...
   224f0:	16000068 26000070 36000078 08000080     h...p..&x..6....
   22500:	18000088 28000090 38000098 0a0000a0     .......(...8....
   22510:	1a0000a8 2a0000b0 3a0000b8 0c0000c0     .......*...:....
   22520:	1c0000c8 2c0000d0 3c0000d8 0e0000e0     .......,...<....
   22530:	1e0000e8 2e0000f0 3e0000f8 04000100     ...........>....
   22540:	10400108 20400110 30400118 02400120     ..@...@ ..@0 .@.
   22550:	12400128 22400130 32400138 04400140     (.@.0.@"8.@2@.@.
   22560:	14400148 24400150 34400158 06400160     H.@.P.@$X.@4`.@.
   22570:	16400168 26400170 36400178 08400180     h.@.p.@&x.@6..@.
   22580:	18400188 28400190 38400198 0a4001a0     ..@...@(..@8..@.
   22590:	1a4001a8 2a4001b0 3a4001b8 0c4001c0     ..@...@*..@:..@.
   225a0:	1c4001c8 2c4001d0 3c4001d8 0e4001e0     ..@...@,..@<..@.
   225b0:	1e4001e8 2e4001f0 3e4001f8 08000200     ..@...@...@>....
   225c0:	10800208 20800210 30800218 02800220     ....... ...0 ...
   225d0:	12800228 22800230 32800238 04800240     (...0.."8..2@...
   225e0:	14800248 24800250 34800258 06800260     H...P..$X..4`...
   225f0:	16800268 26800270 36800278 08800280     h...p..&x..6....
   22600:	18800288 28800290 38800298 0a8002a0     .......(...8....
   22610:	1a8002a8 2a8002b0 3a8002b8 0c8002c0     .......*...:....
   22620:	1c8002c8 2c8002d0 3c8002d8 0e8002e0     .......,...<....
   22630:	1e8002e8 2e8002f0 3e8002f8 0c000300     ...........>....
   22640:	10c00308 20c00310 30c00318 0c800320     ....... ...0 ...
   22650:	12c00328 22c00330 32c00338 04c00340     (...0.."8..2@...
   22660:	14c00348 24c00350 34c00358 06c00360     H...P..$X..4`...
   22670:	16c00368 26c00370 36c00378 08c00380     h...p..&x..6....
   22680:	18c00388 28c00390 38c00398 0ac003a0     .......(...8....
   22690:	1ac003a8 2ac003b0 3ac003b8 0cc003c0     .......*...:....
   226a0:	1cc003c8 2cc003d0 3cc003d8 0ec003e0     .......,...<....
   226b0:	1ec003e8 2ec003f0 3ec003f8 11000408     ...........>....
   226c0:	21000410 31000418 0c000420 13000428     ...!...1 ...(...
   226d0:	23000430 33000438 05000440 15000448     0..#8..3@...H...
   226e0:	25000450 35000458 07000460 17000468     P..%X..5`...h...
   226f0:	27000470 37000478 09000480 19000488     p..'x..7........
   22700:	29000490 39000498 0b0004a0 1b0004a8     ...)...9........
   22710:	2b0004b0 3b0004b8 0d0004c0 1d0004c8     ...+...;........
   22720:	2d0004d0 3d0004d8 0f0004e0 1f0004e8     ...-...=........
   22730:	2f0004f0 3f0004f8 11400508 21400510     .../...?..@...@!
   22740:	31400518 0d000520 13400528 23400530     ..@1 ...(.@.0.@#
   22750:	33400538 15400548 25400550 35400558     8.@3H.@.P.@%X.@5
   22760:	07400560 17400568 27400570 37400578     `.@.h.@.p.@'x.@7
   22770:	09400580 19400588 29400590 39400598     ..@...@...@)..@9
   22780:	0b4005a0 1b4005a8 2b4005b0 3b4005b8     ..@...@...@+..@;
   22790:	0d4005c0 1d4005c8 2d4005d0 3d4005d8     ..@...@...@-..@=
   227a0:	0f4005e0 1f4005e8 2f4005f0 3f4005f8     ..@...@...@/..@?
   227b0:	08400600 11800608 21800610 31800618     ..@........!...1
   227c0:	08c00620 13800628 23800630 33800638      ...(...0..#8..3
   227d0:	09400640 15800648 25800650 35800658     @.@.H...P..%X..5
   227e0:	07800660 17800668 27800670 37800678     `...h...p..'x..7
   227f0:	09800680 19800688 29800690 39800698     ...........)...9
   22800:	0b8006a0 1b8006a8 2b8006b0 3b8006b8     ...........+...;
   22810:	0d8006c0 1d8006c8 2d8006d0 3d8006d8     ...........-...=
   22820:	0f8006e0 1f8006e8 2f8006f0 3f8006f8     .........../...?
   22830:	0c400700 11c00708 21c00710 31c00718     ..@........!...1
   22840:	0cc00720 13c00728 23c00730 33c00738      ...(...0..#8..3
   22850:	0d400740 15c00748 25c00750 35c00758     @.@.H...P..%X..5
   22860:	07c00760 17c00768 27c00770 37c00778     `...h...p..'x..7
   22870:	09c00780 19c00788 29c00790 39c00798     ...........)...9
   22880:	0bc007a0 1bc007a8 2bc007b0 3bc007b8     ...........+...;
   22890:	0dc007c0 1dc007c8 2dc007d0 3dc007d8     ...........-...=
   228a0:	0fc007e0 1fc007e8 2fc007f0 3fc007f8     .........../...?
   228b0:	10000800 10080808 20080810 30080818     ........... ...0
   228c0:	10800820 12080828 22080830 32080838      ...(...0.."8..2
   228d0:	11000840 14080848 24080850 34080858     @...H...P..$X..4
   228e0:	11800860 16080868 26080870 36080878     `...h...p..&x..6
   228f0:	10080880 18080888 28080890 38080898     ...........(...8
   22900:	0a0808a0 1a0808a8 2a0808b0 3a0808b8     ...........*...:
   22910:	0c0808c0 1c0808c8 2c0808d0 3c0808d8     ...........,...<
   22920:	0e0808e0 1e0808e8 2e0808f0 3e0808f8     ...............>
   22930:	14000900 10480908 20480910 30480918     ......H...H ..H0
   22940:	14800920 12480928 22480930 32480938      ...(.H.0.H"8.H2
   22950:	15000940 14480948 24480950 34480958     @...H.H.P.H$X.H4
   22960:	15800960 16480968 26480970 36480978     `...h.H.p.H&x.H6
   22970:	14080980 18480988 28480990 38480998     ......H...H(..H8
   22980:	0a4809a0 1a4809a8 2a4809b0 3a4809b8     ..H...H...H*..H:
   22990:	0c4809c0 1c4809c8 2c4809d0 3c4809d8     ..H...H...H,..H<
   229a0:	0e4809e0 1e4809e8 2e4809f0 3e4809f8     ..H...H...H...H>
   229b0:	18000a00 10880a08 20880a10 30880a18     ........... ...0
   229c0:	18800a20 12880a28 22880a30 32880a38      ...(...0.."8..2
   229d0:	19000a40 14880a48 24880a50 34880a58     @...H...P..$X..4
   229e0:	19800a60 16880a68 26880a70 36880a78     `...h...p..&x..6
   229f0:	18080a80 18880a88 28880a90 38880a98     ...........(...8
   22a00:	18880aa0 1a880aa8 2a880ab0 3a880ab8     ...........*...:
   22a10:	0c880ac0 1c880ac8 2c880ad0 3c880ad8     ...........,...<
   22a20:	0e880ae0 1e880ae8 2e880af0 3e880af8     ...............>
   22a30:	1c000b00 10c80b08 20c80b10 30c80b18     ........... ...0
   22a40:	1c800b20 12c80b28 22c80b30 32c80b38      ...(...0.."8..2
   22a50:	1d000b40 14c80b48 24c80b50 34c80b58     @...H...P..$X..4
   22a60:	1d800b60 16c80b68 26c80b70 36c80b78     `...h...p..&x..6
   22a70:	1c080b80 18c80b88 28c80b90 38c80b98     ...........(...8
   22a80:	1c880ba0 1ac80ba8 2ac80bb0 3ac80bb8     ...........*...:
   22a90:	0cc80bc0 1cc80bc8 2cc80bd0 3cc80bd8     ...........,...<
   22aa0:	0ec80be0 1ec80be8 2ec80bf0 3ec80bf8     ...............>
   22ab0:	10400c00 11080c08 21080c10 31080c18     ..@........!...1
   22ac0:	10c00c20 13080c28 23080c30 33080c38      ...(...0..#8..3
   22ad0:	11400c40 15080c48 25080c50 35080c58     @.@.H...P..%X..5
   22ae0:	11c00c60 17080c68 27080c70 37080c78     `...h...p..'x..7
   22af0:	10480c80 19080c88 29080c90 39080c98     ..H........)...9
   22b00:	10c80ca0 1b080ca8 2b080cb0 3b080cb8     ...........+...;
   22b10:	0d080cc0 1d080cc8 2d080cd0 3d080cd8     ...........-...=
   22b20:	0f080ce0 1f080ce8 2f080cf0 3f080cf8     .........../...?
   22b30:	14400d00 11480d08 21480d10 31480d18     ..@...H...H!..H1
   22b40:	14c00d20 13480d28 23480d30 33480d38      ...(.H.0.H#8.H3
   22b50:	15400d40 15480d48 25480d50 35480d58     @.@.H.H.P.H%X.H5
   22b60:	15c00d60 17480d68 27480d70 37480d78     `...h.H.p.H'x.H7
   22b70:	14480d80 19480d88 29480d90 39480d98     ..H...H...H)..H9
   22b80:	14c80da0 1b480da8 2b480db0 3b480db8     ......H...H+..H;
   22b90:	15480dc0 1d480dc8 2d480dd0 3d480dd8     ..H...H...H-..H=
   22ba0:	0f480de0 1f480de8 2f480df0 3f480df8     ..H...H...H/..H?
   22bb0:	18400e00 11880e08 21880e10 31880e18     ..@........!...1
   22bc0:	18c00e20 13880e28 23880e30 33880e38      ...(...0..#8..3
   22bd0:	19400e40 15880e48 25880e50 35880e58     @.@.H...P..%X..5
   22be0:	19c00e60 17880e68 27880e70 37880e78     `...h...p..'x..7
   22bf0:	18480e80 19880e88 29880e90 39880e98     ..H........)...9
   22c00:	18c80ea0 1b880ea8 2b880eb0 3b880eb8     ...........+...;
   22c10:	19480ec0 1d880ec8 2d880ed0 3d880ed8     ..H........-...=
   22c20:	0f880ee0 1f880ee8 2f880ef0 3f880ef8     .........../...?
   22c30:	1c400f00 11c80f08 21c80f10 31c80f18     ..@........!...1
   22c40:	1cc00f20 13c80f28 23c80f30 33c80f38      ...(...0..#8..3
   22c50:	1d400f40 15c80f48 25c80f50 35c80f58     @.@.H...P..%X..5
   22c60:	1dc00f60 17c80f68 27c80f70 37c80f78     `...h...p..'x..7
   22c70:	1c480f80 19c80f88 29c80f90 39c80f98     ..H........)...9
   22c80:	1cc80fa0 1bc80fa8 2bc80fb0 3bc80fb8     ...........+...;
   22c90:	1d480fc0 1dc80fc8 2dc80fd0 3dc80fd8     ..H........-...=
   22ca0:	1dc80fe0 1fc80fe8 2fc80ff0 3fc80ff8     .........../...?
   22cb0:	20001000 10101008 20101010 30101018     ... ....... ...0
   22cc0:	20801020 12101028 22101030 32101038      .. (...0.."8..2
   22cd0:	21001040 14101048 24101050 34101058     @..!H...P..$X..4
   22ce0:	21801060 16101068 26101070 36101078     `..!h...p..&x..6
   22cf0:	20081080 18101088 28101090 38101098     ... .......(...8
   22d00:	208810a0 1a1010a8 2a1010b0 3a1010b8     ... .......*...:
   22d10:	210810c0 1c1010c8 2c1010d0 3c1010d8     ...!.......,...<
   22d20:	218810e0 1e1010e8 2e1010f0 3e1010f8     ...!...........>
   22d30:	24001100 24101108 20501110 30501118     ...$...$..P ..P0
   22d40:	24801120 12501128 22501130 32501138      ..$(.P.0.P"8.P2
   22d50:	25001140 14501148 24501150 34501158     @..%H.P.P.P$X.P4
   22d60:	25801160 16501168 26501170 36501178     `..%h.P.p.P&x.P6
   22d70:	24081180 18501188 28501190 38501198     ...$..P...P(..P8
   22d80:	248811a0 1a5011a8 2a5011b0 3a5011b8     ...$..P...P*..P:
   22d90:	250811c0 1c5011c8 2c5011d0 3c5011d8     ...%..P...P,..P<
   22da0:	258811e0 1e5011e8 2e5011f0 3e5011f8     ...%..P...P...P>
   22db0:	28001200 28101208 20901210 30901218     ...(...(... ...0
   22dc0:	28801220 12901228 22901230 32901238      ..((...0.."8..2
   22dd0:	29001240 14901248 24901250 34901258     @..)H...P..$X..4
   22de0:	29801260 16901268 26901270 36901278     `..)h...p..&x..6
   22df0:	28081280 18901288 28901290 38901298     ...(.......(...8
   22e00:	288812a0 1a9012a8 2a9012b0 3a9012b8     ...(.......*...:
   22e10:	290812c0 1c9012c8 2c9012d0 3c9012d8     ...).......,...<
   22e20:	298812e0 1e9012e8 2e9012f0 3e9012f8     ...)...........>
   22e30:	2c001300 2c101308 20d01310 30d01318     ...,...,... ...0
   22e40:	2c801320 2c901328 22d01330 32d01338      ..,(..,0.."8..2
   22e50:	2d001340 14d01348 24d01350 34d01358     @..-H...P..$X..4
   22e60:	2d801360 16d01368 26d01370 36d01378     `..-h...p..&x..6
   22e70:	2c081380 18d01388 28d01390 38d01398     ...,.......(...8
   22e80:	2c8813a0 1ad013a8 2ad013b0 3ad013b8     ...,.......*...:
   22e90:	2d0813c0 1cd013c8 2cd013d0 3cd013d8     ...-.......,...<
   22ea0:	2d8813e0 1ed013e8 2ed013f0 3ed013f8     ...-...........>
   22eb0:	20401400 20501408 21101410 31101418     ..@ ..P ...!...1
   22ec0:	20c01420 20d01428 23101430 33101438      .. (.. 0..#8..3
   22ed0:	21401440 15101448 25101450 35101458     @.@!H...P..%X..5
   22ee0:	21c01460 17101468 27101470 37101478     `..!h...p..'x..7
   22ef0:	20481480 19101488 29101490 39101498     ..H .......)...9
   22f00:	20c814a0 1b1014a8 2b1014b0 3b1014b8     ... .......+...;
   22f10:	214814c0 1d1014c8 2d1014d0 3d1014d8     ..H!.......-...=
   22f20:	21c814e0 1f1014e8 2f1014f0 3f1014f8     ...!......./...?
   22f30:	24401500 24501508 21501510 31501518     ..@$..P$..P!..P1
   22f40:	24c01520 24d01528 23501530 33501538      ..$(..$0.P#8.P3
   22f50:	25401540 15501548 25501550 35501558     @.@%H.P.P.P%X.P5
   22f60:	25c01560 17501568 27501570 37501578     `..%h.P.p.P'x.P7
   22f70:	24481580 19501588 29501590 39501598     ..H$..P...P)..P9
   22f80:	24c815a0 1b5015a8 2b5015b0 3b5015b8     ...$..P...P+..P;
   22f90:	254815c0 1d5015c8 2d5015d0 3d5015d8     ..H%..P...P-..P=
   22fa0:	25c815e0 1f5015e8 2f5015f0 3f5015f8     ...%..P...P/..P?
   22fb0:	28401600 28501608 21901610 31901618     ..@(..P(...!...1
   22fc0:	28c01620 28d01628 23901630 33901638      ..((..(0..#8..3
   22fd0:	29401640 29501648 25901650 35901658     @.@)H.P)P..%X..5
   22fe0:	29c01660 17901668 27901670 37901678     `..)h...p..'x..7
   22ff0:	28481680 19901688 29901690 39901698     ..H(.......)...9
   23000:	28c816a0 1b9016a8 2b9016b0 3b9016b8     ...(.......+...;
   23010:	294816c0 1d9016c8 2d9016d0 3d9016d8     ..H).......-...=
   23020:	29c816e0 1f9016e8 2f9016f0 3f9016f8     ...)......./...?
   23030:	2c401700 2c501708 21d01710 31d01718     ..@,..P,...!...1
   23040:	2cc01720 2cd01728 23d01730 33d01738      ..,(..,0..#8..3
   23050:	2d401740 2d501748 25d01750 35d01758     @.@-H.P-P..%X..5
   23060:	2dc01760 17d01768 27d01770 37d01778     `..-h...p..'x..7
   23070:	2c481780 19d01788 29d01790 39d01798     ..H,.......)...9
   23080:	2cc817a0 1bd017a8 2bd017b0 3bd017b8     ...,.......+...;
   23090:	2d4817c0 1dd017c8 2dd017d0 3dd017d8     ..H-.......-...=
   230a0:	2dc817e0 1fd017e8 2fd017f0 3fd017f8     ...-......./...?
   230b0:	30001800 30101808 20181810 30181818     ...0...0... ...0
   230c0:	30801820 30901828 22181830 32181838      ..0(..00.."8..2
   230d0:	31001840 31101848 24181850 34181858     @..1H..1P..$X..4
   230e0:	31801860 31901868 26181870 36181878     `..1h..1p..&x..6
   230f0:	30081880 30181888 28181890 38181898     ...0...0...(...8
   23100:	308818a0 1a1818a8 2a1818b0 3a1818b8     ...0.......*...:
   23110:	310818c0 1c1818c8 2c1818d0 3c1818d8     ...1.......,...<
   23120:	318818e0 1e1818e8 2e1818f0 3e1818f8     ...1...........>
   23130:	34001900 34101908 20581910 30581918     ...4...4..X ..X0
   23140:	34801920 34901928 22581930 32581938      ..4(..40.X"8.X2
   23150:	35001940 35101948 24581950 34581958     @..5H..5P.X$X.X4
   23160:	35801960 35901968 26581970 36581978     `..5h..5p.X&x.X6
   23170:	34081980 34181988 28581990 38581998     ...4...4..X(..X8
   23180:	348819a0 1a5819a8 2a5819b0 3a5819b8     ...4..X...X*..X:
   23190:	350819c0 1c5819c8 2c5819d0 3c5819d8     ...5..X...X,..X<
   231a0:	358819e0 1e5819e8 2e5819f0 3e5819f8     ...5..X...X...X>
   231b0:	38001a00 38101a08 20981a10 30981a18     ...8...8... ...0
   231c0:	38801a20 38901a28 22981a30 32981a38      ..8(..80.."8..2
   231d0:	39001a40 39101a48 24981a50 34981a58     @..9H..9P..$X..4
   231e0:	39801a60 39901a68 26981a70 36981a78     `..9h..9p..&x..6
   231f0:	38081a80 38181a88 28981a90 38981a98     ...8...8...(...8
   23200:	38881aa0 38981aa8 2a981ab0 3a981ab8     ...8...8...*...:
   23210:	39081ac0 1c981ac8 2c981ad0 3c981ad8     ...9.......,...<
   23220:	39881ae0 1e981ae8 2e981af0 3e981af8     ...9...........>
   23230:	3c001b00 3c101b08 20d81b10 30d81b18     ...<...<... ...0
   23240:	3c801b20 3c901b28 22d81b30 32d81b38      ..<(..<0.."8..2
   23250:	3d001b40 3d101b48 24d81b50 34d81b58     @..=H..=P..$X..4
   23260:	3d801b60 3d901b68 26d81b70 36d81b78     `..=h..=p..&x..6
   23270:	3c081b80 3c181b88 28d81b90 38d81b98     ...<...<...(...8
   23280:	3c881ba0 3c981ba8 2ad81bb0 3ad81bb8     ...<...<...*...:
   23290:	3d081bc0 1cd81bc8 2cd81bd0 3cd81bd8     ...=.......,...<
   232a0:	3d881be0 1ed81be8 2ed81bf0 3ed81bf8     ...=...........>
   232b0:	30401c00 30501c08 21181c10 31181c18     ..@0..P0...!...1
   232c0:	30c01c20 30d01c28 23181c30 33181c38      ..0(..00..#8..3
   232d0:	31401c40 31501c48 25181c50 35181c58     @.@1H.P1P..%X..5
   232e0:	31c01c60 31d01c68 27181c70 37181c78     `..1h..1p..'x..7
   232f0:	30481c80 30581c88 29181c90 39181c98     ..H0..X0...)...9
   23300:	30c81ca0 30d81ca8 2b181cb0 3b181cb8     ...0...0...+...;
   23310:	31481cc0 1d181cc8 2d181cd0 3d181cd8     ..H1.......-...=
   23320:	31c81ce0 1f181ce8 2f181cf0 3f181cf8     ...1......./...?
   23330:	34401d00 34501d08 21581d10 31581d18     ..@4..P4..X!..X1
   23340:	34c01d20 34d01d28 23581d30 33581d38      ..4(..40.X#8.X3
   23350:	35401d40 35501d48 25581d50 35581d58     @.@5H.P5P.X%X.X5
   23360:	35c01d60 35d01d68 27581d70 37581d78     `..5h..5p.X'x.X7
   23370:	34481d80 34581d88 29581d90 39581d98     ..H4..X4..X)..X9
   23380:	34c81da0 34d81da8 2b581db0 3b581db8     ...4...4..X+..X;
   23390:	35481dc0 35581dc8 2d581dd0 3d581dd8     ..H5..X5..X-..X=
   233a0:	35c81de0 1f581de8 2f581df0 3f581df8     ...5..X...X/..X?
   233b0:	38401e00 38501e08 21981e10 31981e18     ..@8..P8...!...1
   233c0:	38c01e20 38d01e28 23981e30 33981e38      ..8(..80..#8..3
   233d0:	39401e40 39501e48 25981e50 35981e58     @.@9H.P9P..%X..5
   233e0:	39c01e60 39d01e68 27981e70 37981e78     `..9h..9p..'x..7
   233f0:	38481e80 38581e88 29981e90 39981e98     ..H8..X8...)...9
   23400:	38c81ea0 38d81ea8 2b981eb0 3b981eb8     ...8...8...+...;
   23410:	39481ec0 39581ec8 2d981ed0 3d981ed8     ..H9..X9...-...=
   23420:	39c81ee0 1f981ee8 2f981ef0 3f981ef8     ...9......./...?
   23430:	3c401f00 3c501f08 21d81f10 31d81f18     ..@<..P<...!...1
   23440:	3cc01f20 3cd01f28 23d81f30 33d81f38      ..<(..<0..#8..3
   23450:	3d401f40 3d501f48 25d81f50 35d81f58     @.@=H.P=P..%X..5
   23460:	3dc01f60 3dd01f68 27d81f70 37d81f78     `..=h..=p..'x..7
   23470:	3c481f80 3c581f88 29d81f90 39d81f98     ..H<..X<...)...9
   23480:	3cc81fa0 3cd81fa8 2bd81fb0 3bd81fb8     ...<...<...+...;
   23490:	3d481fc0 3d581fc8 2dd81fd0 3dd81fd8     ..H=..X=...-...=
   234a0:	3dc81fe0 3dd81fe8 2fd81ff0 3fd81ff8     ...=...=.../...?
   234b0:	20802008 20202010 30202018 28802028     . . .   .  0( .(
   234c0:	22202030 32202038 21002040 20c02048     0  "8  2@ .!H . 
   234d0:	24202050 34202058 24102060 28c02068     P  $X  4` .$h .(
   234e0:	26202070 36202078 30802088 28202090     p  &x  6. .0.  (
   234f0:	38202098 300820a0 388020a8 2a2020b0     .  8. .0. .8.  *
   23500:	3a2020b8 210820c0 30c020c8 2c2020d0     .  :. .!. .0.  ,
   23510:	3c2020d8 310820e0 38c020e8 2e2020f0     .  <. .1. .8.  .
   23520:	3e2020f8 24002100 21802108 24102110     .  >.!.$.!.!.!.$
   23530:	30602118 24202120 29802128 22602130     .!`0 ! $(!.)0!`"
   23540:	32602138 25002140 21c02148 24602150     8!`2@!.%H!.!P!`$
   23550:	34602158 24502160 29c02168 26602170     X!`4`!P$h!.)p!`&
   23560:	36602178 24082180 31802188 28602190     x!`6.!.$.!.1.!`(
   23570:	38602198 340821a0 398021a8 2a6021b0     .!`8.!.4.!.9.!`*
   23580:	3a6021b8 250821c0 31c021c8 2c6021d0     .!`:.!.%.!.1.!`,
   23590:	3c6021d8 350821e0 39c021e8 2e6021f0     .!`<.!.5.!.9.!`.
   235a0:	3e6021f8 30002200 30802208 30082210     .!`>.".0.".0.".0
   235b0:	30a02218 30102220 28882228 22a02230     .".0 ".0(".(0"."
   235c0:	32a02238 30402240 30c02248 24a02250     8".2@"@0H".0P".$
   235d0:	34a02258 30502260 28c82268 26a02270     X".4`"P0h".(p".&
   235e0:	36a02278 30202280 30882288 28a02290     x".6." 0.".0.".(
   235f0:	38a02298 301822a0 388822a8 2aa022b0     .".8.".0.".8.".*
   23600:	3aa022b8 306022c0 30c822c8 2ca022d0     .".:."`0.".0.".,
   23610:	3ca022d8 311822e0 38c822e8 2ea022f0     .".<.".1.".8."..
   23620:	3ea022f8 31002300 31802308 31082310     .".>.#.1.#.1.#.1
   23630:	30e02318 31102320 29882328 31182330     .#.0 #.1(#.)0#.1
   23640:	32e02338 31402340 31c02348 24e02350     8#.2@#@1H#.1P#.$
   23650:	34e02358 31502360 29c82368 26e02370     X#.4`#P1h#.)p#.&
   23660:	36e02378 24182380 31882388 28e02390     x#.6.#.$.#.1.#.(
   23670:	38e02398 341823a0 398823a8 2ae023b0     .#.8.#.4.#.9.#.*
   23680:	3ae023b8 251823c0 31c823c8 2ce023d0     .#.:.#.%.#.1.#.,
   23690:	3ce023d8 351823e0 39c823e8 2ee023f0     .#.<.#.5.#.9.#..
   236a0:	3ee023f8 24802408 24202410 31202418     .#.>.$.$.$ $.$ 1
   236b0:	2c802428 31102430 33202438 25002440     ($.,0$.18$ 3@$.%
   236c0:	24c02448 25202450 35202458 25102460     H$.$P$ %X$ 5`$.%
   236d0:	2cc02468 27202470 37202478 34802488     h$.,p$ 'x$ 7.$.4
   236e0:	29202490 39202498 304824a0 3c8024a8     .$ ).$ 9.$H0.$.<
   236f0:	2b2024b0 3b2024b8 250824c0 34c024c8     .$ +.$ ;.$.%.$.4
   23700:	2d2024d0 3d2024d8 314824e0 3cc024e8     .$ -.$ =.$H1.$.<
   23710:	2f2024f0 3f2024f8 25802508 25202510     .$ /.$ ?.%.%.% %
   23720:	31602518 2d802528 31502530 33602538     .%`1(%.-0%P18%`3
   23730:	25c02548 25602550 35602558 2dc02568     H%.%P%`%X%`5h%.-
   23740:	27602570 37602578 35802588 29602590     p%`'x%`7.%.5.%`)
   23750:	39602598 344825a0 3d8025a8 2b6025b0     .%`9.%H4.%.=.%`+
   23760:	3b6025b8 35c025c8 2d6025d0 3d6025d8     .%`;.%.5.%`-.%`=
   23770:	354825e0 3dc025e8 2f6025f0 3f6025f8     .%H5.%.=.%`/.%`?
   23780:	34002600 34802608 34082610 31a02618     .&.4.&.4.&.4.&.1
   23790:	34102620 2c882628 34182630 33a02638      &.4(&.,0&.48&.3
   237a0:	34402640 34c02648 34482650 35a02658     @&@4H&.4P&H4X&.5
   237b0:	34502660 2cc82668 27a02670 37a02678     `&P4h&.,p&.'x&.7
   237c0:	34202680 34882688 29a02690 39a02698     .& 4.&.4.&.).&.9
   237d0:	305826a0 3c8826a8 2ba026b0 3ba026b8     .&X0.&.<.&.+.&.;
   237e0:	346026c0 34c826c8 2da026d0 3da026d8     .&`4.&.4.&.-.&.=
   237f0:	315826e0 3cc826e8 2fa026f0 3fa026f8     .&X1.&.<.&./.&.?
   23800:	35002700 35802708 35082710 31e02718     .'.5.'.5.'.5.'.1
   23810:	35102720 2d882728 35182730 33e02738      '.5('.-0'.58'.3
   23820:	35402740 35c02748 35482750 35e02758     @'@5H'.5P'H5X'.5
   23830:	35502760 2dc82768 27e02770 37e02778     `'P5h'.-p'.'x'.7
   23840:	35202780 35882788 29e02790 39e02798     .' 5.'.5.'.).'.9
   23850:	345827a0 3d8827a8 2be027b0 3be027b8     .'X4.'.=.'.+.'.;
   23860:	356027c0 35c827c8 2de027d0 3de027d8     .'`5.'.5.'.-.'.=
   23870:	355827e0 3dc827e8 2fe027f0 3fe027f8     .'X5.'.=.'./.'.?
   23880:	28202808 28802810 30282818 28902828     .( (.(.(.((0((.(
   23890:	28882830 32282838 2c002840 2c202848     0(.(8((2@(.,H( ,
   238a0:	2c802850 34282858 2c082860 28d02868     P(.,X((4`(.,h(.(
   238b0:	2c882870 36282878 30902888 38282898     p(.,x((6.(.0.((8
   238c0:	302828a0 389028a8 2a2828b0 3a2828b8     .((0.(.8.((*.((:
   238d0:	2c1028c0 30d028c8 2c2828d0 3c2828d8     .(.,.(.0.((,.((<
   238e0:	2c1828e0 38d028e8 2e2828f0 3e2828f8     .(.,.(.8.((..((>
   238f0:	2c002900 2c082908 2c102910 30682918     .).,.).,.).,.)h0
   23900:	2c202920 29902928 30d02930 32682938      ) ,().)0).08)h2
   23910:	2c402940 2c602948 2cc02950 34682958     @)@,H)`,P).,X)h4
   23920:	2c482960 29d02968 2cc82970 36682978     `)H,h).)p).,x)h6
   23930:	2c802980 31902988 2c282990 38682998     .).,.).1.)(,.)h8
   23940:	342829a0 399029a8 2a6829b0 3a6829b8     .)(4.).9.)h*.)h:
   23950:	2c5029c0 31d029c8 2c6829d0 3c6829d8     .)P,.).1.)h,.)h<
   23960:	2c5829e0 39d029e8 2e6829f0 3e6829f8     .)X,.).9.)h..)h>
   23970:	38002a00 38202a08 38802a10 30a82a18     .*.8.* 8.*.8.*.0
   23980:	38082a20 38282a28 38882a30 32a82a38      *.8(*(80*.88*.2
   23990:	3c002a40 3c202a48 3c802a50 34a82a58     @*.<H* <P*.<X*.4
   239a0:	3c082a60 3c282a68 3c882a70 36a82a78     `*.<h*(<p*.<x*.6
   239b0:	38102a80 30982a88 38902a90 38a82a98     .*.8.*.0.*.8.*.8
   239c0:	38182aa0 38982aa8 38982ab0 3aa82ab8     .*.8.*.8.*.8.*.:
   239d0:	3c102ac0 30d82ac8 2ca82ad0 3ca82ad8     .*.<.*.0.*.,.*.<
   239e0:	3c182ae0 38d82ae8 2ea82af0 3ea82af8     .*.<.*.8.*...*.>
   239f0:	38402b00 38602b08 38c02b10 30e82b18     .+@8.+`8.+.8.+.0
   23a00:	38482b20 38682b28 38c82b30 32e82b38      +H8(+h80+.88+.2
   23a10:	3c402b40 3c602b48 3cc02b50 34e82b58     @+@<H+`<P+.<X+.4
   23a20:	3c482b60 3c682b68 3cc82b70 36e82b78     `+H<h+h<p+.<x+.6
   23a30:	38502b80 31982b88 38d02b90 38e82b98     .+P8.+.1.+.8.+.8
   23a40:	38582ba0 39982ba8 38d82bb0 3ae82bb8     .+X8.+.9.+.8.+.:
   23a50:	3c502bc0 31d82bc8 2ce82bd0 3ce82bd8     .+P<.+.1.+.,.+.<
   23a60:	3c582be0 39d82be8 2ee82bf0 3ee82bf8     .+X<.+.9.+...+.>
   23a70:	2c202c08 2c802c10 31282c18 2c902c28     ., ,.,.,.,(1(,.,
   23a80:	31902c30 33282c38 2d002c40 2d202c48     0,.18,(3@,.-H, -
   23a90:	2d802c50 35282c58 2d082c60 2cd02c68     P,.-X,(5`,.-h,.,
   23aa0:	2d882c70 37282c78 34902c88 39282c98     p,.-x,(7.,.4.,(9
   23ab0:	30682ca0 3c902ca8 38682cb0 3b282cb8     .,h0.,.<.,h8.,(;
   23ac0:	2d102cc0 34d02cc8 2d282cd0 3d282cd8     .,.-.,.4.,(-.,(=
   23ad0:	2d182ce0 3cd02ce8 2f282cf0 3f282cf8     .,.-.,.<.,(/.,(?
   23ae0:	2d202d08 2d802d10 31682d18 2d902d28     .- -.-.-.-h1(-.-
   23af0:	31d02d30 33682d38 2d602d48 2dc02d50     0-.18-h3H-`-P-.-
   23b00:	35682d58 2dd02d68 2dc82d70 37682d78     X-h5h-.-p-.-x-h7
   23b10:	35902d88 39682d98 34682da0 3d902da8     .-.5.-h9.-h4.-.=
   23b20:	3c682db0 3b682db8 35d02dc8 3d682dd8     .-h<.-h;.-.5.-h=
   23b30:	35682de0 3dd02de8 2f682df0 3f682df8     .-h5.-.=.-h/.-h?
   23b40:	39002e00 39202e08 39802e10 31a82e18     ...9.. 9...9...1
   23b50:	39082e20 39282e28 39882e30 33a82e38      ..9(.(90..98..3
   23b60:	3d002e40 3d202e48 3d802e50 35a82e58     @..=H. =P..=X..5
   23b70:	3d082e60 3d282e68 3d882e70 37a82e78     `..=h.(=p..=x..7
   23b80:	39102e80 34982e88 39902e90 39a82e98     ...9...4...9...9
   23b90:	39182ea0 3c982ea8 39982eb0 3ba82eb8     ...9...<...9...;
   23ba0:	3d102ec0 34d82ec8 3d902ed0 3da82ed8     ...=...4...=...=
   23bb0:	3d182ee0 3cd82ee8 2fa82ef0 3fa82ef8     ...=...<.../...?
   23bc0:	39402f00 39602f08 39c02f10 31e82f18     ./@9./`9./.9./.1
   23bd0:	39482f20 39682f28 39c82f30 33e82f38      /H9(/h90/.98/.3
   23be0:	3d402f40 3d602f48 3dc02f50 35e82f58     @/@=H/`=P/.=X/.5
   23bf0:	3d482f60 3d682f68 3dc82f70 37e82f78     `/H=h/h=p/.=x/.7
   23c00:	39502f80 35982f88 39d02f90 39e82f98     ./P9./.5./.9./.9
   23c10:	39582fa0 3d982fa8 39d82fb0 3be82fb8     ./X9./.=./.9./.;
   23c20:	3d502fc0 35d82fc8 3dd02fd0 3de82fd8     ./P=./.5./.=./.=
   23c30:	3d582fe0 3dd82fe8 3dd82ff0 3fe82ff8     ./X=./.=./.=./.?
   23c40:	30303018 32303038 31003040 31083048     .0008002@0.1H0.1
   23c50:	31103050 34303058 31203060 31283068     P0.1X004`0 1h0(1
   23c60:	34183070 36303078 30a03088 38303098     p0.4x006.0.0.008
   23c70:	38a030a8 388830b0 3a3030b8 318030c0     .0.8.0.8.00:.0.1
   23c80:	30e030c8 319030d0 3c3030d8 318830e0     .0.0.0.1.00<.0.1
   23c90:	38e030e8 398830f0 3e3030f8 34003100     .0.8.0.9.00>.1.4
   23ca0:	34083108 34103110 34183118 34203120     .1.4.1.4.1.4 1 4
   23cb0:	34283128 34303130 32703138 35003140     (1(4010481p2@1.5
   23cc0:	35083148 35103150 34703158 35203160     H1.5P1.5X1p4`1 5
   23cd0:	35283168 34583170 36703178 34803180     h1(5p1X4x1p6.1.4
   23ce0:	31a03188 34903190 38703198 348831a0     .1.1.1.4.1p8.1.4
   23cf0:	39a031a8 3c8831b0 3a7031b8 358031c0     .1.9.1.<.1p:.1.5
   23d00:	31e031c8 359031d0 3c7031d8 358831e0     .1.1.1.5.1p<.1.5
   23d10:	39e031e8 3d8831f0 3e7031f8 38003200     .1.9.1.=.1p>.2.8
   23d20:	38803208 38083210 38883218 38103220     .2.8.2.8.2.8 2.8
   23d30:	38903228 38183230 32b03238 38403240     (2.802.882.2@2@8
   23d40:	38c03248 38483250 34b03258 38503260     H2.8P2H8X2.4`2P8
   23d50:	38d03268 38583270 36b03278 38203280     h2.8p2X8x2.6.2 8
   23d60:	38a03288 38283290 38b03298 383032a0     .2.8.2(8.2.8.208
   23d70:	38a832a8 389832b0 3ab032b8 386032c0     .2.8.2.8.2.:.2`8
   23d80:	38e032c8 386832d0 3cb032d8 387032e0     .2.8.2h8.2.<.2p8
   23d90:	38e832e8 399832f0 3eb032f8 39003300     .2.8.2.9.2.>.3.9
   23da0:	39803308 39083310 39883318 39103320     .3.9.3.9.3.9 3.9
   23db0:	39903328 39183330 39983338 39403340     (3.903.983.9@3@9
   23dc0:	39c03348 39483350 34f03358 39503360     H3.9P3H9X3.4`3P9
   23dd0:	39d03368 39583370 36f03378 39203380     h3.9p3X9x3.6.3 9
   23de0:	39a03388 39283390 38f03398 349833a0     .3.9.3(9.3.8.3.4
   23df0:	39a833a8 3c9833b0 3af033b8 396033c0     .3.9.3.<.3.:.3`9
   23e00:	39e033c8 396833d0 3cf033d8 359833e0     .3.9.3h9.3.<.3.5
   23e10:	39e833e8 3d9833f0 3ef033f8 34303418     .3.9.3.=.3.>.404
   23e20:	39183438 35003440 35083448 35103450     84.9@4.5H4.5P4.5
   23e30:	35303458 35203460 35283468 35183470     X405`4 5h4(5p4.5
   23e40:	37303478 34a03488 39303498 3ca034a8     x407.4.4.409.4.<
   23e50:	38c834b0 3b3034b8 358034c0 34e034c8     .4.8.40;.4.5.4.4
   23e60:	359034d0 3d3034d8 358834e0 3ce034e8     .4.5.40=.4.5.4.<
   23e70:	39c834f0 3f3034f8 35303518 39583538     .4.9.40?.50585X9
   23e80:	35703558 37703578 35a03588 39703598     X5p5x5p7.5.5.5p9
   23e90:	3da035a8 3cc835b0 3b7035b8 35e035c8     .5.=.5.<.5p;.5.5
   23ea0:	3d7035d8 3de035e8 3dc835f0 3f7035f8     .5p=.5.=.5.=.5p?
   23eb0:	3c003600 3c803608 3c083610 3c883618     .6.<.6.<.6.<.6.<
   23ec0:	3c103620 3c903628 3c183630 3c983638      6.<(6.<06.<86.<
   23ed0:	3c403640 3cc03648 3c483650 3cc83658     @6@<H6.<P6H<X6.<
   23ee0:	3c503660 3cd03668 3c583670 37b03678     `6P<h6.<p6X<x6.7
   23ef0:	3c203680 3ca03688 3c283690 39b03698     .6 <.6.<.6(<.6.9
   23f00:	3c3036a0 3ca836a8 38d836b0 3bb036b8     .60<.6.<.6.8.6.;
   23f10:	3c6036c0 3ce036c8 3c6836d0 3db036d8     .6`<.6.<.6h<.6.=
   23f20:	3c7036e0 3ce836e8 39d836f0 3fb036f8     .6p<.6.<.6.9.6.?
   23f30:	3d003700 3d803708 3d083710 3d883718     .7.=.7.=.7.=.7.=
   23f40:	3d103720 3d903728 3d183730 3d983738      7.=(7.=07.=87.=
   23f50:	3d403740 3dc03748 3d483750 3dc83758     @7@=H7.=P7H=X7.=
   23f60:	3d503760 3dd03768 3d583770 37f03778     `7P=h7.=p7X=x7.7
   23f70:	3d203780 3da03788 3d283790 39f03798     .7 =.7.=.7(=.7.9
   23f80:	3d3037a0 3da837a8 3cd837b0 3bf037b8     .70=.7.=.7.<.7.;
   23f90:	3d6037c0 3de037c8 3d6837d0 3df037d8     .7`=.7.=.7h=.7.=
   23fa0:	3d7037e0 3de837e8 3dd837f0 3ff037f8     .7p=.7.=.7.=.7.?
   23fb0:	38983838 39003840 39083848 39103850     88.8@8.9H8.9P8.9
   23fc0:	39183858 39203860 39283868 39303870     X8.9`8 9h8(9p809
   23fd0:	3c983878 38b038a8 3a3838b8 398038c0     x8.<.8.8.88:.8.9
   23fe0:	398838c8 399038d0 3c3838d8 39a038e0     .8.9.8.9.88<.8.9
   23ff0:	38f038e8 3e3838f8 39a838f0 3c003900     .8.8.88>.8.9.9.<
   24000:	3c083908 3c103910 3c183918 3c203920     .9.<.9.<.9.< 9 <
   24010:	3c283928 3c303930 3c383938 3d003940     (9(<090<898<@9.=
   24020:	3d083948 3d103950 3d183958 3d203960     H9.=P9.=X9.=`9 =
   24030:	3d283968 3d303970 3cd83978 3c803980     h9(=p90=x9.<.9.<
   24040:	3c883988 3c903990 3c983998 3ca039a0     .9.<.9.<.9.<.9.<
   24050:	39b039a8 3a7839b8 3ca839b0 3d8039c0     .9.9.9x:.9.<.9.=
   24060:	3d8839c8 3d9039d0 3c7839d8 3da039e0     .9.=.9.=.9x<.9.=
   24070:	39f039e8 3e7839f8 3da839f0 3a103a08     .9.9.9x>.9.=.:.:
   24080:	3a203a10 3a303a18 3a803a20 3a903a28     .: :.:0: :.:(:.:
   24090:	3aa03a30 3ab03a38 3b003a40 3b103a48     0:.:8:.:@:.;H:.;
   240a0:	3b203a50 3b303a58 3b803a60 3b903a68     P: ;X:0;`:.;h:.;
   240b0:	3ba03a70 3bb03a78 3aa03a88 3ab03a98     p:.;x:.;.:.:.:.:
   240c0:	3ab03aa8 3b083ac0 3b183ac8 3b283ad0     .:.:.:.;.:.;.:(;
   240d0:	3cb83ad8 3b883ae0 3b983ae8 3ba83af0     .:.<.:.;.:.;.:.;
   240e0:	3eb83af8 3e003b00 3e103b08 3e203b10     .:.>.;.>.;.>.; >
   240f0:	3e303b18 3e803b20 3e903b28 3ea03b30     .;0> ;.>(;.>0;.>
   24100:	3eb03b38 3f003b40 3f103b48 3f203b50     8;.>@;.?H;.?P; ?
   24110:	3f303b58 3f803b60 3f903b68 3fa03b70     X;0?`;.?h;.?p;.?
   24120:	3fb03b78 3e083b80 3e183b88 3e283b90     x;.?.;.>.;.>.;(>
   24130:	3e383b98 3e883ba0 3e983ba8 3ea83bb0     .;8>.;.>.;.>.;.>
   24140:	3eb83bb8 3f083bc0 3f183bc8 3f283bd0     .;.>.;.?.;.?.;(?
   24150:	3cf83bd8 3f883be0 3f983be8 3fa83bf0     .;.<.;.?.;.?.;.?
   24160:	3ef83bf8 3c983c38 3d003c40 3d083c48     .;.>8<.<@<.=H<.=
   24170:	3d103c50 3d183c58 3d203c60 3d283c68     P<.=X<.=`< =h<(=
   24180:	3d303c70 3d983c78 3cb03ca8 3eb03cb8     p<0=x<.=.<.<.<.>
   24190:	3d803cc0 3d883cc8 3d903cd0 3d383cd8     .<.=.<.=.<.=.<8=
   241a0:	3da03ce0 3cf03ce8 3da83cf0 3f383cf8     .<.=.<.<.<.=.<8?
   241b0:	3d983d38 3dd83d78 3db03da8 3fb03db8     8=.=x=.=.=.=.=.?
   241c0:	3df03de8 3e803e08 3f783df8 3e803e10     .=.=.>.>.=x?.>.>
   241d0:	3e883e18 3e803e20 3e903e28 3e883e30     .>.> >.>(>.>0>.>
   241e0:	3e983e38 3f003e40 3f203e48 3f803e50     8>.>@>.?H> ?P>.?
   241f0:	3fa03e58 3f083e60 3f283e68 3f883e70     X>.?`>.?h>(?p>.?
   24200:	3fa83e78 3ea03e88 3ea83e98 3f103ec0     x>.?.>.>.>.>.>.?
   24210:	3eb03ea8 3f303ec8 3f903ed0 3fb03ed8     .>.>.>0?.>.?.>.?
   24220:	3f183ee0 3f383ee8 3f983ef0 3f803f08     .>.?.>8?.>.?.?.?
   24230:	3fb83ef8 3f803f10 3f883f18 3f803f20     .>.?.?.?.?.? ?.?
   24240:	3f903f28 3f883f30 3f983f38 3f503f48     (?.?0?.?8?.?H?P?
   24250:	3f603f50 3f703f58 3fc03f60 3fd03f68     P?`?X?p?`?.?h?.?
   24260:	3fe03f70 3ff03f78 3fa03f88 3fa83f98     p?.?x?.?.?.?.?.?
   24270:	3fb03fa8 3ff03fd8 3fe03fc8 3ff03fe8     .?.?.?.?.?.?.?.?

00024280 <twiddleCoef_64>:
   24280:	3f800000 00000000 3f7ec46d 3dc8bd36     ...?....m.~?6..=
   24290:	3f7b14be 3e47c5c2 3f74fa0b 3e94a031     ..{?..G>..t?1..>
   242a0:	3f6c835e 3ec3ef15 3f61c598 3ef15aea     ^.l?...>..a?.Z.>
   242b0:	3f54db31 3f0e39da 3f45e403 3f226799     1.T?.9.?..E?.g"?
   242c0:	3f3504f3 3f3504f3 3f226799 3f45e403     ..5?..5?.g"?..E?
   242d0:	3f0e39da 3f54db31 3ef15aea 3f61c598     .9.?1.T?.Z.>..a?
   242e0:	3ec3ef15 3f6c835e 3e94a031 3f74fa0b     ...>^.l?1..>..t?
   242f0:	3e47c5c2 3f7b14be 3dc8bd36 3f7ec46d     ..G>..{?6..=m.~?
   24300:	00000000 3f800000 bdc8bd36 3f7ec46d     .......?6...m.~?
   24310:	be47c5c2 3f7b14be be94a031 3f74fa0b     ..G...{?1.....t?
   24320:	bec3ef15 3f6c835e bef15aea 3f61c598     ....^.l?.Z....a?
   24330:	bf0e39da 3f54db31 bf226799 3f45e403     .9..1.T?.g"...E?
   24340:	bf3504f3 3f3504f3 bf45e403 3f226799     ..5...5?..E..g"?
   24350:	bf54db31 3f0e39da bf61c598 3ef15aea     1.T..9.?..a..Z.>
   24360:	bf6c835e 3ec3ef15 bf74fa0b 3e94a031     ^.l....>..t.1..>
   24370:	bf7b14be 3e47c5c2 bf7ec46d 3dc8bd36     ..{...G>m.~.6..=
   24380:	bf800000 00000000 bf7ec46d bdc8bd36     ........m.~.6...
   24390:	bf7b14be be47c5c2 bf74fa0b be94a031     ..{...G...t.1...
   243a0:	bf6c835e bec3ef15 bf61c598 bef15aea     ^.l.......a..Z..
   243b0:	bf54db31 bf0e39da bf45e403 bf226799     1.T..9....E..g".
   243c0:	bf3504f3 bf3504f3 bf226799 bf45e403     ..5...5..g"...E.
   243d0:	bf0e39da bf54db31 bef15aea bf61c598     .9..1.T..Z....a.
   243e0:	bec3ef15 bf6c835e be94a031 bf74fa0b     ....^.l.1.....t.
   243f0:	be47c5c2 bf7b14be bdc8bd36 bf7ec46d     ..G...{.6...m.~.
   24400:	80000000 bf800000 3dc8bd36 bf7ec46d     ........6..=m.~.
   24410:	3e47c5c2 bf7b14be 3e94a031 bf74fa0b     ..G>..{.1..>..t.
   24420:	3ec3ef15 bf6c835e 3ef15aea bf61c598     ...>^.l..Z.>..a.
   24430:	3f0e39da bf54db31 3f226799 bf45e403     .9.?1.T..g"?..E.
   24440:	3f3504f3 bf3504f3 3f45e403 bf226799     ..5?..5...E?.g".
   24450:	3f54db31 bf0e39da 3f61c598 bef15aea     1.T?.9....a?.Z..
   24460:	3f6c835e bec3ef15 3f74fa0b be94a031     ^.l?......t?1...
   24470:	3f7b14be be47c5c2 3f7ec46d bdc8bd36     ..{?..G.m.~?6...

00024480 <twiddleCoef_rfft_512>:
   24480:	00000000 3f800000 3c490e90 3f7ffb11     .......?..I<...?
   24490:	3cc90ab0 3f7fec43 3d16c32c 3f7fd398     ...<C..?,..=...?
   244a0:	3d48fb2f 3f7fb10f 3d7b2b74 3f7f84ab     /.H=...?t+{=...?
   244b0:	3d96a905 3f7f4e6d 3dafb680 3f7f0e58     ...=mN.?...=X..?
   244c0:	3dc8bd36 3f7ec46d 3de1bc2e 3f7e70b0     6..=m.~?...=.p~?
   244d0:	3dfab273 3f7e1324 3e09cf86 3f7dabcc     s..=$.~?...>..}?
   244e0:	3e164083 3f7d3aac 3e22abb6 3f7cbfc9     .@.>.:}?..">..|?
   244f0:	3e2f10a2 3f7c3b28 3e3b6ecf 3f7baccd     ../>(;|?.n;>..{?
   24500:	3e47c5c2 3f7b14be 3e541501 3f7a7302     ..G>..{?..T>.sz?
   24510:	3e605c13 3f79c79d 3e6c9a7f 3f791298     .\`>..y?..l>..y?
   24520:	3e78cfcc 3f7853f8 3e827dc0 3f778bc5     ..x>.Sx?.}.>..w?
   24530:	3e888e93 3f76ba07 3e8e9a22 3f75dec6     ...>..v?"..>..u?
   24540:	3e94a031 3f74fa0b 3e9aa086 3f740bdd     1..>..t?...>..t?
   24550:	3ea09ae5 3f731447 3ea68f12 3f721352     ...>G.s?...>R.r?
   24560:	3eac7cd4 3f710908 3eb263ef 3f6ff573     .|.>..q?.c.>s.o?
   24570:	3eb8442a 3f6ed89e 3ebe1d4a 3f6db293     *D.>..n?J..>..m?
   24580:	3ec3ef15 3f6c835e 3ec9b953 3f6b4b0c     ...>^.l?S..>.Kk?
   24590:	3ecf7bca 3f6a09a7 3ed53641 3f68bf3c     .{.>..j?A6.><.h?
   245a0:	3edae880 3f676bd8 3ee0924f 3f660f88     ...>.kg?O..>..f?
   245b0:	3ee63375 3f64aa59 3eebcbbb 3f633c5a     u3.>Y.d?...>Z<c?
   245c0:	3ef15aea 3f61c598 3ef6e0cb 3f604621     .Z.>..a?...>!F`?
   245d0:	3efc5d27 3f5ebe05 3f00e7e4 3f5d2d53     '].>..^?...?S-]?
   245e0:	3f039c3d 3f5b941a 3f064b82 3f59f26a     =..?..[?.K.?j.Y?
   245f0:	3f08f59b 3f584853 3f0b9a6b 3f5695e5     ...?SHX?k..?..V?
   24600:	3f0e39da 3f54db31 3f10d3cd 3f531849     .9.?1.T?...?I.S?
   24610:	3f13682a 3f514d3d 3f15f6d9 3f4f7a1f     *h.?=MQ?...?.zO?
   24620:	3f187fc0 3f4d9f02 3f1b02c6 3f4bbbf8     ...?..M?...?..K?
   24630:	3f1d7fd1 3f49d112 3f1ff6cb 3f47de65     ...?..I?...?e.G?
   24640:	3f226799 3f45e403 3f24d225 3f43e200     .g"?..E?%.$?..C?
   24650:	3f273656 3f41d870 3f299415 3f3fc767     V6'?p.A?..)?g.??
   24660:	3f2beb4a 3f3daef9 3f2e3bde 3f3b8f3b     J.+?..=?.;.?;.;?
   24670:	3f3085bb 3f396842 3f32c8c9 3f373a23     ..0?Bh9?..2?#:7?
   24680:	3f3504f3 3f3504f3 3f373a23 3f32c8c9     ..5?..5?#:7?..2?
   24690:	3f396842 3f3085bb 3f3b8f3b 3f2e3bde     Bh9?..0?;.;?.;.?
   246a0:	3f3daef9 3f2beb4a 3f3fc767 3f299415     ..=?J.+?g.??..)?
   246b0:	3f41d870 3f273656 3f43e200 3f24d225     p.A?V6'?..C?%.$?
   246c0:	3f45e403 3f226799 3f47de65 3f1ff6cb     ..E?.g"?e.G?...?
   246d0:	3f49d112 3f1d7fd1 3f4bbbf8 3f1b02c6     ..I?...?..K?...?
   246e0:	3f4d9f02 3f187fc0 3f4f7a1f 3f15f6d9     ..M?...?.zO?...?
   246f0:	3f514d3d 3f13682a 3f531849 3f10d3cd     =MQ?*h.?I.S?...?
   24700:	3f54db31 3f0e39da 3f5695e5 3f0b9a6b     1.T?.9.?..V?k..?
   24710:	3f584853 3f08f59b 3f59f26a 3f064b82     SHX?...?j.Y?.K.?
   24720:	3f5b941a 3f039c3d 3f5d2d53 3f00e7e4     ..[?=..?S-]?...?
   24730:	3f5ebe05 3efc5d27 3f604621 3ef6e0cb     ..^?'].>!F`?...>
   24740:	3f61c598 3ef15aea 3f633c5a 3eebcbbb     ..a?.Z.>Z<c?...>
   24750:	3f64aa59 3ee63375 3f660f88 3ee0924f     Y.d?u3.>..f?O..>
   24760:	3f676bd8 3edae880 3f68bf3c 3ed53641     .kg?...><.h?A6.>
   24770:	3f6a09a7 3ecf7bca 3f6b4b0c 3ec9b953     ..j?.{.>.Kk?S..>
   24780:	3f6c835e 3ec3ef15 3f6db293 3ebe1d4a     ^.l?...>..m?J..>
   24790:	3f6ed89e 3eb8442a 3f6ff573 3eb263ef     ..n?*D.>s.o?.c.>
   247a0:	3f710908 3eac7cd4 3f721352 3ea68f12     ..q?.|.>R.r?...>
   247b0:	3f731447 3ea09ae5 3f740bdd 3e9aa086     G.s?...>..t?...>
   247c0:	3f74fa0b 3e94a031 3f75dec6 3e8e9a22     ..t?1..>..u?"..>
   247d0:	3f76ba07 3e888e93 3f778bc5 3e827dc0     ..v?...>..w?.}.>
   247e0:	3f7853f8 3e78cfcc 3f791298 3e6c9a7f     .Sx?..x>..y?..l>
   247f0:	3f79c79d 3e605c13 3f7a7302 3e541501     ..y?.\`>.sz?..T>
   24800:	3f7b14be 3e47c5c2 3f7baccd 3e3b6ecf     ..{?..G>..{?.n;>
   24810:	3f7c3b28 3e2f10a2 3f7cbfc9 3e22abb6     (;|?../>..|?..">
   24820:	3f7d3aac 3e164083 3f7dabcc 3e09cf86     .:}?.@.>..}?...>
   24830:	3f7e1324 3dfab273 3f7e70b0 3de1bc2e     $.~?s..=.p~?...=
   24840:	3f7ec46d 3dc8bd36 3f7f0e58 3dafb680     m.~?6..=X..?...=
   24850:	3f7f4e6d 3d96a905 3f7f84ab 3d7b2b74     mN.?...=...?t+{=
   24860:	3f7fb10f 3d48fb2f 3f7fd398 3d16c32c     ...?/.H=...?,..=
   24870:	3f7fec43 3cc90ab0 3f7ffb11 3c490e90     C..?...<...?..I<
   24880:	3f800000 00000000 3f7ffb11 bc490e90     ...?.......?..I.
   24890:	3f7fec43 bcc90ab0 3f7fd398 bd16c32c     C..?.......?,...
   248a0:	3f7fb10f bd48fb2f 3f7f84ab bd7b2b74     ...?/.H....?t+{.
   248b0:	3f7f4e6d bd96a905 3f7f0e58 bdafb680     mN.?....X..?....
   248c0:	3f7ec46d bdc8bd36 3f7e70b0 bde1bc2e     m.~?6....p~?....
   248d0:	3f7e1324 bdfab273 3f7dabcc be09cf86     $.~?s.....}?....
   248e0:	3f7d3aac be164083 3f7cbfc9 be22abb6     .:}?.@....|?..".
   248f0:	3f7c3b28 be2f10a2 3f7baccd be3b6ecf     (;|?../...{?.n;.
   24900:	3f7b14be be47c5c2 3f7a7302 be541501     ..{?..G..sz?..T.
   24910:	3f79c79d be605c13 3f791298 be6c9a7f     ..y?.\`...y?..l.
   24920:	3f7853f8 be78cfcc 3f778bc5 be827dc0     .Sx?..x...w?.}..
   24930:	3f76ba07 be888e93 3f75dec6 be8e9a22     ..v?......u?"...
   24940:	3f74fa0b be94a031 3f740bdd be9aa086     ..t?1.....t?....
   24950:	3f731447 bea09ae5 3f721352 bea68f12     G.s?....R.r?....
   24960:	3f710908 beac7cd4 3f6ff573 beb263ef     ..q?.|..s.o?.c..
   24970:	3f6ed89e beb8442a 3f6db293 bebe1d4a     ..n?*D....m?J...
   24980:	3f6c835e bec3ef15 3f6b4b0c bec9b953     ^.l?.....Kk?S...
   24990:	3f6a09a7 becf7bca 3f68bf3c bed53641     ..j?.{..<.h?A6..
   249a0:	3f676bd8 bedae880 3f660f88 bee0924f     .kg?......f?O...
   249b0:	3f64aa59 bee63375 3f633c5a beebcbbb     Y.d?u3..Z<c?....
   249c0:	3f61c598 bef15aea 3f604621 bef6e0cb     ..a?.Z..!F`?....
   249d0:	3f5ebe05 befc5d27 3f5d2d53 bf00e7e4     ..^?']..S-]?....
   249e0:	3f5b941a bf039c3d 3f59f26a bf064b82     ..[?=...j.Y?.K..
   249f0:	3f584853 bf08f59b 3f5695e5 bf0b9a6b     SHX?......V?k...
   24a00:	3f54db31 bf0e39da 3f531849 bf10d3cd     1.T?.9..I.S?....
   24a10:	3f514d3d bf13682a 3f4f7a1f bf15f6d9     =MQ?*h...zO?....
   24a20:	3f4d9f02 bf187fc0 3f4bbbf8 bf1b02c6     ..M?......K?....
   24a30:	3f49d112 bf1d7fd1 3f47de65 bf1ff6cb     ..I?....e.G?....
   24a40:	3f45e403 bf226799 3f43e200 bf24d225     ..E?.g"...C?%.$.
   24a50:	3f41d870 bf273656 3f3fc767 bf299415     p.A?V6'.g.??..).
   24a60:	3f3daef9 bf2beb4a 3f3b8f3b bf2e3bde     ..=?J.+.;.;?.;..
   24a70:	3f396842 bf3085bb 3f373a23 bf32c8c9     Bh9?..0.#:7?..2.
   24a80:	3f3504f3 bf3504f3 3f32c8c9 bf373a23     ..5?..5...2?#:7.
   24a90:	3f3085bb bf396842 3f2e3bde bf3b8f3b     ..0?Bh9..;.?;.;.
   24aa0:	3f2beb4a bf3daef9 3f299415 bf3fc767     J.+?..=...)?g.?.
   24ab0:	3f273656 bf41d870 3f24d225 bf43e200     V6'?p.A.%.$?..C.
   24ac0:	3f226799 bf45e403 3f1ff6cb bf47de65     .g"?..E....?e.G.
   24ad0:	3f1d7fd1 bf49d112 3f1b02c6 bf4bbbf8     ...?..I....?..K.
   24ae0:	3f187fc0 bf4d9f02 3f15f6d9 bf4f7a1f     ...?..M....?.zO.
   24af0:	3f13682a bf514d3d 3f10d3cd bf531849     *h.?=MQ....?I.S.
   24b00:	3f0e39da bf54db31 3f0b9a6b bf5695e5     .9.?1.T.k..?..V.
   24b10:	3f08f59b bf584853 3f064b82 bf59f26a     ...?SHX..K.?j.Y.
   24b20:	3f039c3d bf5b941a 3f00e7e4 bf5d2d53     =..?..[....?S-].
   24b30:	3efc5d27 bf5ebe05 3ef6e0cb bf604621     '].>..^....>!F`.
   24b40:	3ef15aea bf61c598 3eebcbbb bf633c5a     .Z.>..a....>Z<c.
   24b50:	3ee63375 bf64aa59 3ee0924f bf660f88     u3.>Y.d.O..>..f.
   24b60:	3edae880 bf676bd8 3ed53641 bf68bf3c     ...>.kg.A6.><.h.
   24b70:	3ecf7bca bf6a09a7 3ec9b953 bf6b4b0c     .{.>..j.S..>.Kk.
   24b80:	3ec3ef15 bf6c835e 3ebe1d4a bf6db293     ...>^.l.J..>..m.
   24b90:	3eb8442a bf6ed89e 3eb263ef bf6ff573     *D.>..n..c.>s.o.
   24ba0:	3eac7cd4 bf710908 3ea68f12 bf721352     .|.>..q....>R.r.
   24bb0:	3ea09ae5 bf731447 3e9aa086 bf740bdd     ...>G.s....>..t.
   24bc0:	3e94a031 bf74fa0b 3e8e9a22 bf75dec6     1..>..t."..>..u.
   24bd0:	3e888e93 bf76ba07 3e827dc0 bf778bc5     ...>..v..}.>..w.
   24be0:	3e78cfcc bf7853f8 3e6c9a7f bf791298     ..x>.Sx...l>..y.
   24bf0:	3e605c13 bf79c79d 3e541501 bf7a7302     .\`>..y...T>.sz.
   24c00:	3e47c5c2 bf7b14be 3e3b6ecf bf7baccd     ..G>..{..n;>..{.
   24c10:	3e2f10a2 bf7c3b28 3e22abb6 bf7cbfc9     ../>(;|...">..|.
   24c20:	3e164083 bf7d3aac 3e09cf86 bf7dabcc     .@.>.:}....>..}.
   24c30:	3dfab273 bf7e1324 3de1bc2e bf7e70b0     s..=$.~....=.p~.
   24c40:	3dc8bd36 bf7ec46d 3dafb680 bf7f0e58     6..=m.~....=X...
   24c50:	3d96a905 bf7f4e6d 3d7b2b74 bf7f84ab     ...=mN..t+{=....
   24c60:	3d48fb2f bf7fb10f 3d16c32c bf7fd398     /.H=....,..=....
   24c70:	3cc90ab0 bf7fec43 3c490e90 bf7ffb11     ...<C.....I<....

00024c80 <armBitRevIndexTable512>:
   24c80:	02000008 04000010 06000018 08000020     ............ ...
   24c90:	0a000028 0c000030 0e000038 02400048     (...0...8...H.@.
   24ca0:	04400050 06400058 08400060 0a400068     P.@.X.@.`.@.h.@.
   24cb0:	0c400070 0e400078 02800088 04800090     p.@.x.@.........
   24cc0:	06800098 088000a0 0a8000a8 0c8000b0     ................
   24cd0:	0e8000b8 02c000c8 04c000d0 06c000d8     ................
   24ce0:	08c000e0 0ac000e8 0cc000f0 0ec000f8     ................
   24cf0:	03000108 05000110 07000118 09000120     ............ ...
   24d00:	0b000128 0d000130 0f000138 03400148     (...0...8...H.@.
   24d10:	05400150 07400158 09400160 0b400168     P.@.X.@.`.@.h.@.
   24d20:	0d400170 0f400178 03800188 05800190     p.@.x.@.........
   24d30:	07800198 098001a0 0b8001a8 0d8001b0     ................
   24d40:	0f8001b8 03c001c8 05c001d0 07c001d8     ................
   24d50:	09c001e0 0bc001e8 0dc001f0 0fc001f8     ................
   24d60:	04080210 06080218 08080220 0a080228     ........ ...(...
   24d70:	0c080230 0e080238 04480250 06480258     0...8...P.H.X.H.
   24d80:	08480260 0a480268 0c480270 0e480278     `.H.h.H.p.H.x.H.
   24d90:	04880290 06880298 088802a0 0a8802a8     ................
   24da0:	0c8802b0 0e8802b8 04c802d0 06c802d8     ................
   24db0:	08c802e0 0ac802e8 0cc802f0 0ec802f8     ................
   24dc0:	05080310 07080318 09080320 0b080328     ........ ...(...
   24dd0:	0d080330 0f080338 05480350 07480358     0...8...P.H.X.H.
   24de0:	09480360 0b480368 0d480370 0f480378     `.H.h.H.p.H.x.H.
   24df0:	05880390 07880398 098803a0 0b8803a8     ................
   24e00:	0d8803b0 0f8803b8 05c803d0 07c803d8     ................
   24e10:	09c803e0 0bc803e8 0dc803f0 0fc803f8     ................
   24e20:	06100418 08100420 0a100428 0c100430     .... ...(...0...
   24e30:	0e100438 06500458 08500460 0a500468     8...X.P.`.P.h.P.
   24e40:	0c500470 0e500478 06900498 089004a0     p.P.x.P.........
   24e50:	0a9004a8 0c9004b0 0e9004b8 06d004d8     ................
   24e60:	08d004e0 0ad004e8 0cd004f0 0ed004f8     ................
   24e70:	07100518 09100520 0b100528 0d100530     .... ...(...0...
   24e80:	0f100538 07500558 09500560 0b500568     8...X.P.`.P.h.P.
   24e90:	0d500570 0f500578 07900598 099005a0     p.P.x.P.........
   24ea0:	0b9005a8 0d9005b0 0f9005b8 07d005d8     ................
   24eb0:	09d005e0 0bd005e8 0dd005f0 0fd005f8     ................
   24ec0:	08180620 0a180628 0c180630 0e180638      ...(...0...8...
   24ed0:	08580660 0a580668 0c580670 0e580678     `.X.h.X.p.X.x.X.
   24ee0:	089806a0 0a9806a8 0c9806b0 0e9806b8     ................
   24ef0:	08d806e0 0ad806e8 0cd806f0 0ed806f8     ................
   24f00:	09180720 0b180728 0d180730 0f180738      ...(...0...8...
   24f10:	09580760 0b580768 0d580770 0f580778     `.X.h.X.p.X.x.X.
   24f20:	099807a0 0b9807a8 0d9807b0 0f9807b8     ................
   24f30:	09d807e0 0bd807e8 0dd807f0 0fd807f8     ................
   24f40:	0a200828 0c200830 0e200838 0a600868     (. .0. .8. .h.`.
   24f50:	0c600870 0e600878 0aa008a8 0ca008b0     p.`.x.`.........
   24f60:	0ea008b8 0ae008e8 0ce008f0 0ee008f8     ................
   24f70:	0b200928 0d200930 0f200938 0b600968     (. .0. .8. .h.`.
   24f80:	0d600970 0f600978 0ba009a8 0da009b0     p.`.x.`.........
   24f90:	0fa009b8 0be009e8 0de009f0 0fe009f8     ................
   24fa0:	0c280a30 0e280a38 0c680a70 0e680a78     0.(.8.(.p.h.x.h.
   24fb0:	0ca80ab0 0ea80ab8 0ce80af0 0ee80af8     ................
   24fc0:	0d280b30 0f280b38 0d680b70 0f680b78     0.(.8.(.p.h.x.h.
   24fd0:	0da80bb0 0fa80bb8 0de80bf0 0fe80bf8     ................
   24fe0:	0e300c38 0e700c78 0eb00cb8 0ef00cf8     8.0.x.p.........
   24ff0:	0f300d38 0f700d78 0fb00db8 0ff00df8     8.0.x.p.........

00025000 <twiddleCoef_rfft_1024>:
   25000:	00000000 3f800000 3bc90f89 3f7ffec4     .......?...;...?
   25010:	3c490e90 3f7ffb11 3c96c9b6 3f7ff4e6     ..I<...?...<...?
   25020:	3cc90ab0 3f7fec43 3cfb49b9 3f7fe129     ...<C..?.I.<)..?
   25030:	3d16c32c 3f7fd398 3d2fe007 3f7fc38f     ,..=...?../=...?
   25040:	3d48fb2f 3f7fb10f 3d621468 3f7f9c18     /.H=...?h.b=...?
   25050:	3d7b2b74 3f7f84ab 3d8a200a 3f7f6ac7     t+{=...?. .=.j.?
   25060:	3d96a905 3f7f4e6d 3da3308c 3f7f2f9d     ...=mN.?.0.=./.?
   25070:	3dafb680 3f7f0e58 3dbc3ac3 3f7eea9d     ...=X..?.:.=..~?
   25080:	3dc8bd36 3f7ec46d 3dd53db9 3f7e9bc9     6..=m.~?.=.=..~?
   25090:	3de1bc2e 3f7e70b0 3dee3876 3f7e4323     ...=.p~?v8.=#C~?
   250a0:	3dfab273 3f7e1324 3e039502 3f7de0b1     s..=$.~?...>..}?
   250b0:	3e09cf86 3f7dabcc 3e1008b7 3f7d7474     ...>..}?...>tt}?
   250c0:	3e164083 3f7d3aac 3e1c76de 3f7cfe73     .@.>.:}?.v.>s.|?
   250d0:	3e22abb6 3f7cbfc9 3e28defc 3f7c7eb0     ..">..|?..(>.~|?
   250e0:	3e2f10a2 3f7c3b28 3e354098 3f7bf531     ../>(;|?.@5>1.{?
   250f0:	3e3b6ecf 3f7baccd 3e419b37 3f7b61fc     .n;>..{?7.A>.a{?
   25100:	3e47c5c2 3f7b14be 3e4dee60 3f7ac516     ..G>..{?`.M>..z?
   25110:	3e541501 3f7a7302 3e5a3997 3f7a1e84     ..T>.sz?.9Z>..z?
   25120:	3e605c13 3f79c79d 3e667c66 3f796e4e     .\`>..y?f|f>Nny?
   25130:	3e6c9a7f 3f791298 3e72b651 3f78b47b     ..l>..y?Q.r>{.x?
   25140:	3e78cfcc 3f7853f8 3e7ee6e1 3f77f110     ..x>.Sx?..~>..w?
   25150:	3e827dc0 3f778bc5 3e8586ce 3f772417     .}.>..w?...>.$w?
   25160:	3e888e93 3f76ba07 3e8b9507 3f764d97     ...>..v?...>.Mv?
   25170:	3e8e9a22 3f75dec6 3e919ddd 3f756d97     "..>..u?...>.mu?
   25180:	3e94a031 3f74fa0b 3e97a117 3f748422     1..>..t?...>".t?
   25190:	3e9aa086 3f740bdd 3e9d9e78 3f73913f     ...>..t?x..>?.s?
   251a0:	3ea09ae5 3f731447 3ea395c5 3f7294f8     ...>G.s?...>..r?
   251b0:	3ea68f12 3f721352 3ea986c4 3f718f57     ...>R.r?...>W.q?
   251c0:	3eac7cd4 3f710908 3eaf713a 3f708066     .|.>..q?:q.>f.p?
   251d0:	3eb263ef 3f6ff573 3eb554ec 3f6f6830     .c.>s.o?.T.>0ho?
   251e0:	3eb8442a 3f6ed89e 3ebb31a0 3f6e46be     *D.>..n?.1.>.Fn?
   251f0:	3ebe1d4a 3f6db293 3ec1071e 3f6d1c1d     J..>..m?...>..m?
   25200:	3ec3ef15 3f6c835e 3ec6d529 3f6be858     ...>^.l?)..>X.k?
   25210:	3ec9b953 3f6b4b0c 3ecc9b8b 3f6aab7b     S..>.Kk?...>{.j?
   25220:	3ecf7bca 3f6a09a7 3ed25a09 3f696591     .{.>..j?.Z.>.ei?
   25230:	3ed53641 3f68bf3c 3ed8106b 3f6816a8     A6.><.h?k..>..h?
   25240:	3edae880 3f676bd8 3eddbe79 3f66becc     ...>.kg?y..>..f?
   25250:	3ee0924f 3f660f88 3ee363fa 3f655e0b     O..>..f?.c.>.^e?
   25260:	3ee63375 3f64aa59 3ee900b7 3f63f473     u3.>Y.d?...>s.c?
   25270:	3eebcbbb 3f633c5a 3eee9479 3f628210     ...>Z<c?y..>..b?
   25280:	3ef15aea 3f61c598 3ef41f07 3f6106f2     .Z.>..a?...>..a?
   25290:	3ef6e0cb 3f604621 3ef9a02d 3f5f8327     ...>!F`?-..>'._?
   252a0:	3efc5d27 3f5ebe05 3eff17b2 3f5df6be     '].>..^?...>..]?
   252b0:	3f00e7e4 3f5d2d53 3f0242b1 3f5c61c7     ...?S-]?.B.?.a\?
   252c0:	3f039c3d 3f5b941a 3f04f484 3f5ac450     =..?..[?...?P.Z?
   252d0:	3f064b82 3f59f26a 3f07a136 3f591e6a     .K.?j.Y?6..?j.Y?
   252e0:	3f08f59b 3f584853 3f0a48ad 3f577026     ...?SHX?.H.?&pW?
   252f0:	3f0b9a6b 3f5695e5 3f0cead0 3f55b993     k..?..V?...?..U?
   25300:	3f0e39da 3f54db31 3f0f8784 3f53fac3     .9.?1.T?...?..S?
   25310:	3f10d3cd 3f531849 3f121eb0 3f5233c6     ...?I.S?...?.3R?
   25320:	3f13682a 3f514d3d 3f14b039 3f5064af     *h.?=MQ?9..?.dP?
   25330:	3f15f6d9 3f4f7a1f 3f173c07 3f4e8d90     ...?.zO?.<.?..N?
   25340:	3f187fc0 3f4d9f02 3f19c200 3f4cae79     ...?..M?...?y.L?
   25350:	3f1b02c6 3f4bbbf8 3f1c420c 3f4ac77f     ...?..K?.B.?..J?
   25360:	3f1d7fd1 3f49d112 3f1ebc12 3f48d8b3     ...?..I?...?..H?
   25370:	3f1ff6cb 3f47de65 3f212ff9 3f46e22a     ...?e.G?./!?*.F?
   25380:	3f226799 3f45e403 3f239da9 3f44e3f5     .g"?..E?..#?..D?
   25390:	3f24d225 3f43e200 3f26050a 3f42de29     %.$?..C?..&?).B?
   253a0:	3f273656 3f41d870 3f286605 3f40d0da     V6'?p.A?.f(?..@?
   253b0:	3f299415 3f3fc767 3f2ac082 3f3ebc1b     ..)?g.??..*?..>?
   253c0:	3f2beb4a 3f3daef9 3f2d1469 3f3ca003     J.+?..=?i.-?..<?
   253d0:	3f2e3bde 3f3b8f3b 3f2f61a5 3f3a7ca4     .;.?;.;?.a/?.|:?
   253e0:	3f3085bb 3f396842 3f31a81d 3f385216     ..0?Bh9?..1?.R8?
   253f0:	3f32c8c9 3f373a23 3f33e7bc 3f36206c     ..2?#:7?..3?l 6?
   25400:	3f3504f3 3f3504f3 3f36206c 3f33e7bc     ..5?..5?l 6?..3?
   25410:	3f373a23 3f32c8c9 3f385216 3f31a81d     #:7?..2?.R8?..1?
   25420:	3f396842 3f3085bb 3f3a7ca4 3f2f61a5     Bh9?..0?.|:?.a/?
   25430:	3f3b8f3b 3f2e3bde 3f3ca003 3f2d1469     ;.;?.;.?..<?i.-?
   25440:	3f3daef9 3f2beb4a 3f3ebc1b 3f2ac082     ..=?J.+?..>?..*?
   25450:	3f3fc767 3f299415 3f40d0da 3f286605     g.??..)?..@?.f(?
   25460:	3f41d870 3f273656 3f42de29 3f26050a     p.A?V6'?).B?..&?
   25470:	3f43e200 3f24d225 3f44e3f5 3f239da9     ..C?%.$?..D?..#?
   25480:	3f45e403 3f226799 3f46e22a 3f212ff9     ..E?.g"?*.F?./!?
   25490:	3f47de65 3f1ff6cb 3f48d8b3 3f1ebc12     e.G?...?..H?...?
   254a0:	3f49d112 3f1d7fd1 3f4ac77f 3f1c420c     ..I?...?..J?.B.?
   254b0:	3f4bbbf8 3f1b02c6 3f4cae79 3f19c200     ..K?...?y.L?...?
   254c0:	3f4d9f02 3f187fc0 3f4e8d90 3f173c07     ..M?...?..N?.<.?
   254d0:	3f4f7a1f 3f15f6d9 3f5064af 3f14b039     .zO?...?.dP?9..?
   254e0:	3f514d3d 3f13682a 3f5233c6 3f121eb0     =MQ?*h.?.3R?...?
   254f0:	3f531849 3f10d3cd 3f53fac3 3f0f8784     I.S?...?..S?...?
   25500:	3f54db31 3f0e39da 3f55b993 3f0cead0     1.T?.9.?..U?...?
   25510:	3f5695e5 3f0b9a6b 3f577026 3f0a48ad     ..V?k..?&pW?.H.?
   25520:	3f584853 3f08f59b 3f591e6a 3f07a136     SHX?...?j.Y?6..?
   25530:	3f59f26a 3f064b82 3f5ac450 3f04f484     j.Y?.K.?P.Z?...?
   25540:	3f5b941a 3f039c3d 3f5c61c7 3f0242b1     ..[?=..?.a\?.B.?
   25550:	3f5d2d53 3f00e7e4 3f5df6be 3eff17b2     S-]?...?..]?...>
   25560:	3f5ebe05 3efc5d27 3f5f8327 3ef9a02d     ..^?'].>'._?-..>
   25570:	3f604621 3ef6e0cb 3f6106f2 3ef41f07     !F`?...>..a?...>
   25580:	3f61c598 3ef15aea 3f628210 3eee9479     ..a?.Z.>..b?y..>
   25590:	3f633c5a 3eebcbbb 3f63f473 3ee900b7     Z<c?...>s.c?...>
   255a0:	3f64aa59 3ee63375 3f655e0b 3ee363fa     Y.d?u3.>.^e?.c.>
   255b0:	3f660f88 3ee0924f 3f66becc 3eddbe79     ..f?O..>..f?y..>
   255c0:	3f676bd8 3edae880 3f6816a8 3ed8106b     .kg?...>..h?k..>
   255d0:	3f68bf3c 3ed53641 3f696591 3ed25a09     <.h?A6.>.ei?.Z.>
   255e0:	3f6a09a7 3ecf7bca 3f6aab7b 3ecc9b8b     ..j?.{.>{.j?...>
   255f0:	3f6b4b0c 3ec9b953 3f6be858 3ec6d529     .Kk?S..>X.k?)..>
   25600:	3f6c835e 3ec3ef15 3f6d1c1d 3ec1071e     ^.l?...>..m?...>
   25610:	3f6db293 3ebe1d4a 3f6e46be 3ebb31a0     ..m?J..>.Fn?.1.>
   25620:	3f6ed89e 3eb8442a 3f6f6830 3eb554ec     ..n?*D.>0ho?.T.>
   25630:	3f6ff573 3eb263ef 3f708066 3eaf713a     s.o?.c.>f.p?:q.>
   25640:	3f710908 3eac7cd4 3f718f57 3ea986c4     ..q?.|.>W.q?...>
   25650:	3f721352 3ea68f12 3f7294f8 3ea395c5     R.r?...>..r?...>
   25660:	3f731447 3ea09ae5 3f73913f 3e9d9e78     G.s?...>?.s?x..>
   25670:	3f740bdd 3e9aa086 3f748422 3e97a117     ..t?...>".t?...>
   25680:	3f74fa0b 3e94a031 3f756d97 3e919ddd     ..t?1..>.mu?...>
   25690:	3f75dec6 3e8e9a22 3f764d97 3e8b9507     ..u?"..>.Mv?...>
   256a0:	3f76ba07 3e888e93 3f772417 3e8586ce     ..v?...>.$w?...>
   256b0:	3f778bc5 3e827dc0 3f77f110 3e7ee6e1     ..w?.}.>..w?..~>
   256c0:	3f7853f8 3e78cfcc 3f78b47b 3e72b651     .Sx?..x>{.x?Q.r>
   256d0:	3f791298 3e6c9a7f 3f796e4e 3e667c66     ..y?..l>Nny?f|f>
   256e0:	3f79c79d 3e605c13 3f7a1e84 3e5a3997     ..y?.\`>..z?.9Z>
   256f0:	3f7a7302 3e541501 3f7ac516 3e4dee60     .sz?..T>..z?`.M>
   25700:	3f7b14be 3e47c5c2 3f7b61fc 3e419b37     ..{?..G>.a{?7.A>
   25710:	3f7baccd 3e3b6ecf 3f7bf531 3e354098     ..{?.n;>1.{?.@5>
   25720:	3f7c3b28 3e2f10a2 3f7c7eb0 3e28defc     (;|?../>.~|?..(>
   25730:	3f7cbfc9 3e22abb6 3f7cfe73 3e1c76de     ..|?..">s.|?.v.>
   25740:	3f7d3aac 3e164083 3f7d7474 3e1008b7     .:}?.@.>tt}?...>
   25750:	3f7dabcc 3e09cf86 3f7de0b1 3e039502     ..}?...>..}?...>
   25760:	3f7e1324 3dfab273 3f7e4323 3dee3876     $.~?s..=#C~?v8.=
   25770:	3f7e70b0 3de1bc2e 3f7e9bc9 3dd53db9     .p~?...=..~?.=.=
   25780:	3f7ec46d 3dc8bd36 3f7eea9d 3dbc3ac3     m.~?6..=..~?.:.=
   25790:	3f7f0e58 3dafb680 3f7f2f9d 3da3308c     X..?...=./.?.0.=
   257a0:	3f7f4e6d 3d96a905 3f7f6ac7 3d8a200a     mN.?...=.j.?. .=
   257b0:	3f7f84ab 3d7b2b74 3f7f9c18 3d621468     ...?t+{=...?h.b=
   257c0:	3f7fb10f 3d48fb2f 3f7fc38f 3d2fe007     ...?/.H=...?../=
   257d0:	3f7fd398 3d16c32c 3f7fe129 3cfb49b9     ...?,..=)..?.I.<
   257e0:	3f7fec43 3cc90ab0 3f7ff4e6 3c96c9b6     C..?...<...?...<
   257f0:	3f7ffb11 3c490e90 3f7ffec4 3bc90f89     ...?..I<...?...;
   25800:	3f800000 00000000 3f7ffec4 bbc90f89     ...?.......?....
   25810:	3f7ffb11 bc490e90 3f7ff4e6 bc96c9b6     ...?..I....?....
   25820:	3f7fec43 bcc90ab0 3f7fe129 bcfb49b9     C..?....)..?.I..
   25830:	3f7fd398 bd16c32c 3f7fc38f bd2fe007     ...?,......?../.
   25840:	3f7fb10f bd48fb2f 3f7f9c18 bd621468     ...?/.H....?h.b.
   25850:	3f7f84ab bd7b2b74 3f7f6ac7 bd8a200a     ...?t+{..j.?. ..
   25860:	3f7f4e6d bd96a905 3f7f2f9d bda3308c     mN.?...../.?.0..
   25870:	3f7f0e58 bdafb680 3f7eea9d bdbc3ac3     X..?......~?.:..
   25880:	3f7ec46d bdc8bd36 3f7e9bc9 bdd53db9     m.~?6.....~?.=..
   25890:	3f7e70b0 bde1bc2e 3f7e4323 bdee3876     .p~?....#C~?v8..
   258a0:	3f7e1324 bdfab273 3f7de0b1 be039502     $.~?s.....}?....
   258b0:	3f7dabcc be09cf86 3f7d7474 be1008b7     ..}?....tt}?....
   258c0:	3f7d3aac be164083 3f7cfe73 be1c76de     .:}?.@..s.|?.v..
   258d0:	3f7cbfc9 be22abb6 3f7c7eb0 be28defc     ..|?.."..~|?..(.
   258e0:	3f7c3b28 be2f10a2 3f7bf531 be354098     (;|?../.1.{?.@5.
   258f0:	3f7baccd be3b6ecf 3f7b61fc be419b37     ..{?.n;..a{?7.A.
   25900:	3f7b14be be47c5c2 3f7ac516 be4dee60     ..{?..G...z?`.M.
   25910:	3f7a7302 be541501 3f7a1e84 be5a3997     .sz?..T...z?.9Z.
   25920:	3f79c79d be605c13 3f796e4e be667c66     ..y?.\`.Nny?f|f.
   25930:	3f791298 be6c9a7f 3f78b47b be72b651     ..y?..l.{.x?Q.r.
   25940:	3f7853f8 be78cfcc 3f77f110 be7ee6e1     .Sx?..x...w?..~.
   25950:	3f778bc5 be827dc0 3f772417 be8586ce     ..w?.}...$w?....
   25960:	3f76ba07 be888e93 3f764d97 be8b9507     ..v?.....Mv?....
   25970:	3f75dec6 be8e9a22 3f756d97 be919ddd     ..u?"....mu?....
   25980:	3f74fa0b be94a031 3f748422 be97a117     ..t?1...".t?....
   25990:	3f740bdd be9aa086 3f73913f be9d9e78     ..t?....?.s?x...
   259a0:	3f731447 bea09ae5 3f7294f8 bea395c5     G.s?......r?....
   259b0:	3f721352 bea68f12 3f718f57 bea986c4     R.r?....W.q?....
   259c0:	3f710908 beac7cd4 3f708066 beaf713a     ..q?.|..f.p?:q..
   259d0:	3f6ff573 beb263ef 3f6f6830 beb554ec     s.o?.c..0ho?.T..
   259e0:	3f6ed89e beb8442a 3f6e46be bebb31a0     ..n?*D...Fn?.1..
   259f0:	3f6db293 bebe1d4a 3f6d1c1d bec1071e     ..m?J.....m?....
   25a00:	3f6c835e bec3ef15 3f6be858 bec6d529     ^.l?....X.k?)...
   25a10:	3f6b4b0c bec9b953 3f6aab7b becc9b8b     .Kk?S...{.j?....
   25a20:	3f6a09a7 becf7bca 3f696591 bed25a09     ..j?.{...ei?.Z..
   25a30:	3f68bf3c bed53641 3f6816a8 bed8106b     <.h?A6....h?k...
   25a40:	3f676bd8 bedae880 3f66becc beddbe79     .kg?......f?y...
   25a50:	3f660f88 bee0924f 3f655e0b bee363fa     ..f?O....^e?.c..
   25a60:	3f64aa59 bee63375 3f63f473 bee900b7     Y.d?u3..s.c?....
   25a70:	3f633c5a beebcbbb 3f628210 beee9479     Z<c?......b?y...
   25a80:	3f61c598 bef15aea 3f6106f2 bef41f07     ..a?.Z....a?....
   25a90:	3f604621 bef6e0cb 3f5f8327 bef9a02d     !F`?....'._?-...
   25aa0:	3f5ebe05 befc5d27 3f5df6be beff17b2     ..^?']....]?....
   25ab0:	3f5d2d53 bf00e7e4 3f5c61c7 bf0242b1     S-]?.....a\?.B..
   25ac0:	3f5b941a bf039c3d 3f5ac450 bf04f484     ..[?=...P.Z?....
   25ad0:	3f59f26a bf064b82 3f591e6a bf07a136     j.Y?.K..j.Y?6...
   25ae0:	3f584853 bf08f59b 3f577026 bf0a48ad     SHX?....&pW?.H..
   25af0:	3f5695e5 bf0b9a6b 3f55b993 bf0cead0     ..V?k.....U?....
   25b00:	3f54db31 bf0e39da 3f53fac3 bf0f8784     1.T?.9....S?....
   25b10:	3f531849 bf10d3cd 3f5233c6 bf121eb0     I.S?.....3R?....
   25b20:	3f514d3d bf13682a 3f5064af bf14b039     =MQ?*h...dP?9...
   25b30:	3f4f7a1f bf15f6d9 3f4e8d90 bf173c07     .zO?......N?.<..
   25b40:	3f4d9f02 bf187fc0 3f4cae79 bf19c200     ..M?....y.L?....
   25b50:	3f4bbbf8 bf1b02c6 3f4ac77f bf1c420c     ..K?......J?.B..
   25b60:	3f49d112 bf1d7fd1 3f48d8b3 bf1ebc12     ..I?......H?....
   25b70:	3f47de65 bf1ff6cb 3f46e22a bf212ff9     e.G?....*.F?./!.
   25b80:	3f45e403 bf226799 3f44e3f5 bf239da9     ..E?.g"...D?..#.
   25b90:	3f43e200 bf24d225 3f42de29 bf26050a     ..C?%.$.).B?..&.
   25ba0:	3f41d870 bf273656 3f40d0da bf286605     p.A?V6'...@?.f(.
   25bb0:	3f3fc767 bf299415 3f3ebc1b bf2ac082     g.??..)...>?..*.
   25bc0:	3f3daef9 bf2beb4a 3f3ca003 bf2d1469     ..=?J.+...<?i.-.
   25bd0:	3f3b8f3b bf2e3bde 3f3a7ca4 bf2f61a5     ;.;?.;...|:?.a/.
   25be0:	3f396842 bf3085bb 3f385216 bf31a81d     Bh9?..0..R8?..1.
   25bf0:	3f373a23 bf32c8c9 3f36206c bf33e7bc     #:7?..2.l 6?..3.
   25c00:	3f3504f3 bf3504f3 3f33e7bc bf36206c     ..5?..5...3?l 6.
   25c10:	3f32c8c9 bf373a23 3f31a81d bf385216     ..2?#:7...1?.R8.
   25c20:	3f3085bb bf396842 3f2f61a5 bf3a7ca4     ..0?Bh9..a/?.|:.
   25c30:	3f2e3bde bf3b8f3b 3f2d1469 bf3ca003     .;.?;.;.i.-?..<.
   25c40:	3f2beb4a bf3daef9 3f2ac082 bf3ebc1b     J.+?..=...*?..>.
   25c50:	3f299415 bf3fc767 3f286605 bf40d0da     ..)?g.?..f(?..@.
   25c60:	3f273656 bf41d870 3f26050a bf42de29     V6'?p.A...&?).B.
   25c70:	3f24d225 bf43e200 3f239da9 bf44e3f5     %.$?..C...#?..D.
   25c80:	3f226799 bf45e403 3f212ff9 bf46e22a     .g"?..E../!?*.F.
   25c90:	3f1ff6cb bf47de65 3f1ebc12 bf48d8b3     ...?e.G....?..H.
   25ca0:	3f1d7fd1 bf49d112 3f1c420c bf4ac77f     ...?..I..B.?..J.
   25cb0:	3f1b02c6 bf4bbbf8 3f19c200 bf4cae79     ...?..K....?y.L.
   25cc0:	3f187fc0 bf4d9f02 3f173c07 bf4e8d90     ...?..M..<.?..N.
   25cd0:	3f15f6d9 bf4f7a1f 3f14b039 bf5064af     ...?.zO.9..?.dP.
   25ce0:	3f13682a bf514d3d 3f121eb0 bf5233c6     *h.?=MQ....?.3R.
   25cf0:	3f10d3cd bf531849 3f0f8784 bf53fac3     ...?I.S....?..S.
   25d00:	3f0e39da bf54db31 3f0cead0 bf55b993     .9.?1.T....?..U.
   25d10:	3f0b9a6b bf5695e5 3f0a48ad bf577026     k..?..V..H.?&pW.
   25d20:	3f08f59b bf584853 3f07a136 bf591e6a     ...?SHX.6..?j.Y.
   25d30:	3f064b82 bf59f26a 3f04f484 bf5ac450     .K.?j.Y....?P.Z.
   25d40:	3f039c3d bf5b941a 3f0242b1 bf5c61c7     =..?..[..B.?.a\.
   25d50:	3f00e7e4 bf5d2d53 3eff17b2 bf5df6be     ...?S-]....>..].
   25d60:	3efc5d27 bf5ebe05 3ef9a02d bf5f8327     '].>..^.-..>'._.
   25d70:	3ef6e0cb bf604621 3ef41f07 bf6106f2     ...>!F`....>..a.
   25d80:	3ef15aea bf61c598 3eee9479 bf628210     .Z.>..a.y..>..b.
   25d90:	3eebcbbb bf633c5a 3ee900b7 bf63f473     ...>Z<c....>s.c.
   25da0:	3ee63375 bf64aa59 3ee363fa bf655e0b     u3.>Y.d..c.>.^e.
   25db0:	3ee0924f bf660f88 3eddbe79 bf66becc     O..>..f.y..>..f.
   25dc0:	3edae880 bf676bd8 3ed8106b bf6816a8     ...>.kg.k..>..h.
   25dd0:	3ed53641 bf68bf3c 3ed25a09 bf696591     A6.><.h..Z.>.ei.
   25de0:	3ecf7bca bf6a09a7 3ecc9b8b bf6aab7b     .{.>..j....>{.j.
   25df0:	3ec9b953 bf6b4b0c 3ec6d529 bf6be858     S..>.Kk.)..>X.k.
   25e00:	3ec3ef15 bf6c835e 3ec1071e bf6d1c1d     ...>^.l....>..m.
   25e10:	3ebe1d4a bf6db293 3ebb31a0 bf6e46be     J..>..m..1.>.Fn.
   25e20:	3eb8442a bf6ed89e 3eb554ec bf6f6830     *D.>..n..T.>0ho.
   25e30:	3eb263ef bf6ff573 3eaf713a bf708066     .c.>s.o.:q.>f.p.
   25e40:	3eac7cd4 bf710908 3ea986c4 bf718f57     .|.>..q....>W.q.
   25e50:	3ea68f12 bf721352 3ea395c5 bf7294f8     ...>R.r....>..r.
   25e60:	3ea09ae5 bf731447 3e9d9e78 bf73913f     ...>G.s.x..>?.s.
   25e70:	3e9aa086 bf740bdd 3e97a117 bf748422     ...>..t....>".t.
   25e80:	3e94a031 bf74fa0b 3e919ddd bf756d97     1..>..t....>.mu.
   25e90:	3e8e9a22 bf75dec6 3e8b9507 bf764d97     "..>..u....>.Mv.
   25ea0:	3e888e93 bf76ba07 3e8586ce bf772417     ...>..v....>.$w.
   25eb0:	3e827dc0 bf778bc5 3e7ee6e1 bf77f110     .}.>..w...~>..w.
   25ec0:	3e78cfcc bf7853f8 3e72b651 bf78b47b     ..x>.Sx.Q.r>{.x.
   25ed0:	3e6c9a7f bf791298 3e667c66 bf796e4e     ..l>..y.f|f>Nny.
   25ee0:	3e605c13 bf79c79d 3e5a3997 bf7a1e84     .\`>..y..9Z>..z.
   25ef0:	3e541501 bf7a7302 3e4dee60 bf7ac516     ..T>.sz.`.M>..z.
   25f00:	3e47c5c2 bf7b14be 3e419b37 bf7b61fc     ..G>..{.7.A>.a{.
   25f10:	3e3b6ecf bf7baccd 3e354098 bf7bf531     .n;>..{..@5>1.{.
   25f20:	3e2f10a2 bf7c3b28 3e28defc bf7c7eb0     ../>(;|...(>.~|.
   25f30:	3e22abb6 bf7cbfc9 3e1c76de bf7cfe73     ..">..|..v.>s.|.
   25f40:	3e164083 bf7d3aac 3e1008b7 bf7d7474     .@.>.:}....>tt}.
   25f50:	3e09cf86 bf7dabcc 3e039502 bf7de0b1     ...>..}....>..}.
   25f60:	3dfab273 bf7e1324 3dee3876 bf7e4323     s..=$.~.v8.=#C~.
   25f70:	3de1bc2e bf7e70b0 3dd53db9 bf7e9bc9     ...=.p~..=.=..~.
   25f80:	3dc8bd36 bf7ec46d 3dbc3ac3 bf7eea9d     6..=m.~..:.=..~.
   25f90:	3dafb680 bf7f0e58 3da3308c bf7f2f9d     ...=X....0.=./..
   25fa0:	3d96a905 bf7f4e6d 3d8a200a bf7f6ac7     ...=mN... .=.j..
   25fb0:	3d7b2b74 bf7f84ab 3d621468 bf7f9c18     t+{=....h.b=....
   25fc0:	3d48fb2f bf7fb10f 3d2fe007 bf7fc38f     /.H=....../=....
   25fd0:	3d16c32c bf7fd398 3cfb49b9 bf7fe129     ,..=.....I.<)...
   25fe0:	3cc90ab0 bf7fec43 3c96c9b6 bf7ff4e6     ...<C......<....
   25ff0:	3c490e90 bf7ffb11 3bc90f89 bf7ffec4     ..I<.......;....

00026000 <twiddleCoef_rfft_256>:
   26000:	00000000 3f800000 3cc90ab0 3f7fec43     .......?...<C..?
   26010:	3d48fb2f 3f7fb10f 3d96a905 3f7f4e6d     /.H=...?...=mN.?
   26020:	3dc8bd36 3f7ec46d 3dfab273 3f7e1324     6..=m.~?s..=$.~?
   26030:	3e164083 3f7d3aac 3e2f10a2 3f7c3b28     .@.>.:}?../>(;|?
   26040:	3e47c5c2 3f7b14be 3e605c13 3f79c79d     ..G>..{?.\`>..y?
   26050:	3e78cfcc 3f7853f8 3e888e93 3f76ba07     ..x>.Sx?...>..v?
   26060:	3e94a031 3f74fa0b 3ea09ae5 3f731447     1..>..t?...>G.s?
   26070:	3eac7cd4 3f710908 3eb8442a 3f6ed89e     .|.>..q?*D.>..n?
   26080:	3ec3ef15 3f6c835e 3ecf7bca 3f6a09a7     ...>^.l?.{.>..j?
   26090:	3edae880 3f676bd8 3ee63375 3f64aa59     ...>.kg?u3.>Y.d?
   260a0:	3ef15aea 3f61c598 3efc5d27 3f5ebe05     .Z.>..a?'].>..^?
   260b0:	3f039c3d 3f5b941a 3f08f59b 3f584853     =..?..[?...?SHX?
   260c0:	3f0e39da 3f54db31 3f13682a 3f514d3d     .9.?1.T?*h.?=MQ?
   260d0:	3f187fc0 3f4d9f02 3f1d7fd1 3f49d112     ...?..M?...?..I?
   260e0:	3f226799 3f45e403 3f273656 3f41d870     .g"?..E?V6'?p.A?
   260f0:	3f2beb4a 3f3daef9 3f3085bb 3f396842     J.+?..=?..0?Bh9?
   26100:	3f3504f3 3f3504f3 3f396842 3f3085bb     ..5?..5?Bh9?..0?
   26110:	3f3daef9 3f2beb4a 3f41d870 3f273656     ..=?J.+?p.A?V6'?
   26120:	3f45e403 3f226799 3f49d112 3f1d7fd1     ..E?.g"?..I?...?
   26130:	3f4d9f02 3f187fc0 3f514d3d 3f13682a     ..M?...?=MQ?*h.?
   26140:	3f54db31 3f0e39da 3f584853 3f08f59b     1.T?.9.?SHX?...?
   26150:	3f5b941a 3f039c3d 3f5ebe05 3efc5d27     ..[?=..?..^?'].>
   26160:	3f61c598 3ef15aea 3f64aa59 3ee63375     ..a?.Z.>Y.d?u3.>
   26170:	3f676bd8 3edae880 3f6a09a7 3ecf7bca     .kg?...>..j?.{.>
   26180:	3f6c835e 3ec3ef15 3f6ed89e 3eb8442a     ^.l?...>..n?*D.>
   26190:	3f710908 3eac7cd4 3f731447 3ea09ae5     ..q?.|.>G.s?...>
   261a0:	3f74fa0b 3e94a031 3f76ba07 3e888e93     ..t?1..>..v?...>
   261b0:	3f7853f8 3e78cfcc 3f79c79d 3e605c13     .Sx?..x>..y?.\`>
   261c0:	3f7b14be 3e47c5c2 3f7c3b28 3e2f10a2     ..{?..G>(;|?../>
   261d0:	3f7d3aac 3e164083 3f7e1324 3dfab273     .:}?.@.>$.~?s..=
   261e0:	3f7ec46d 3dc8bd36 3f7f4e6d 3d96a905     m.~?6..=mN.?...=
   261f0:	3f7fb10f 3d48fb2f 3f7fec43 3cc90ab0     ...?/.H=C..?...<
   26200:	3f800000 00000000 3f7fec43 bcc90ab0     ...?....C..?....
   26210:	3f7fb10f bd48fb2f 3f7f4e6d bd96a905     ...?/.H.mN.?....
   26220:	3f7ec46d bdc8bd36 3f7e1324 bdfab273     m.~?6...$.~?s...
   26230:	3f7d3aac be164083 3f7c3b28 be2f10a2     .:}?.@..(;|?../.
   26240:	3f7b14be be47c5c2 3f79c79d be605c13     ..{?..G...y?.\`.
   26250:	3f7853f8 be78cfcc 3f76ba07 be888e93     .Sx?..x...v?....
   26260:	3f74fa0b be94a031 3f731447 bea09ae5     ..t?1...G.s?....
   26270:	3f710908 beac7cd4 3f6ed89e beb8442a     ..q?.|....n?*D..
   26280:	3f6c835e bec3ef15 3f6a09a7 becf7bca     ^.l?......j?.{..
   26290:	3f676bd8 bedae880 3f64aa59 bee63375     .kg?....Y.d?u3..
   262a0:	3f61c598 bef15aea 3f5ebe05 befc5d27     ..a?.Z....^?']..
   262b0:	3f5b941a bf039c3d 3f584853 bf08f59b     ..[?=...SHX?....
   262c0:	3f54db31 bf0e39da 3f514d3d bf13682a     1.T?.9..=MQ?*h..
   262d0:	3f4d9f02 bf187fc0 3f49d112 bf1d7fd1     ..M?......I?....
   262e0:	3f45e403 bf226799 3f41d870 bf273656     ..E?.g".p.A?V6'.
   262f0:	3f3daef9 bf2beb4a 3f396842 bf3085bb     ..=?J.+.Bh9?..0.
   26300:	3f3504f3 bf3504f3 3f3085bb bf396842     ..5?..5...0?Bh9.
   26310:	3f2beb4a bf3daef9 3f273656 bf41d870     J.+?..=.V6'?p.A.
   26320:	3f226799 bf45e403 3f1d7fd1 bf49d112     .g"?..E....?..I.
   26330:	3f187fc0 bf4d9f02 3f13682a bf514d3d     ...?..M.*h.?=MQ.
   26340:	3f0e39da bf54db31 3f08f59b bf584853     .9.?1.T....?SHX.
   26350:	3f039c3d bf5b941a 3efc5d27 bf5ebe05     =..?..[.'].>..^.
   26360:	3ef15aea bf61c598 3ee63375 bf64aa59     .Z.>..a.u3.>Y.d.
   26370:	3edae880 bf676bd8 3ecf7bca bf6a09a7     ...>.kg..{.>..j.
   26380:	3ec3ef15 bf6c835e 3eb8442a bf6ed89e     ...>^.l.*D.>..n.
   26390:	3eac7cd4 bf710908 3ea09ae5 bf731447     .|.>..q....>G.s.
   263a0:	3e94a031 bf74fa0b 3e888e93 bf76ba07     1..>..t....>..v.
   263b0:	3e78cfcc bf7853f8 3e605c13 bf79c79d     ..x>.Sx..\`>..y.
   263c0:	3e47c5c2 bf7b14be 3e2f10a2 bf7c3b28     ..G>..{.../>(;|.
   263d0:	3e164083 bf7d3aac 3dfab273 bf7e1324     .@.>.:}.s..=$.~.
   263e0:	3dc8bd36 bf7ec46d 3d96a905 bf7f4e6d     6..=m.~....=mN..
   263f0:	3d48fb2f bf7fb10f 3cc90ab0 bf7fec43     /.H=.......<C...

00026400 <armBitRevIndexTable256>:
   26400:	02000008 04000010 06000018 00400020     ............ .@.
   26410:	02400028 04400030 06400038 00800040     (.@.0.@.8.@.@...
   26420:	02800048 04800050 06800058 00c00060     H...P...X...`...
   26430:	02c00068 04c00070 06c00078 01000080     h...p...x.......
   26440:	03000088 05000090 07000098 014000a0     ..............@.
   26450:	034000a8 054000b0 074000b8 018000c0     ..@...@...@.....
   26460:	038000c8 058000d0 078000d8 01c000e0     ................
   26470:	03c000e8 05c000f0 07c000f8 02000100     ................
   26480:	02080108 04080110 06080118 02800120     ............ ...
   26490:	02480128 04480130 06480138 03000140     (.H.0.H.8.H.@...
   264a0:	02880148 04880150 06880158 03800160     H...P...X...`...
   264b0:	02c80168 04c80170 06c80178 02080180     h...p...x.......
   264c0:	03080188 05080190 07080198 028801a0     ................
   264d0:	034801a8 054801b0 074801b8 030801c0     ..H...H...H.....
   264e0:	038801c8 058801d0 078801d8 038801e0     ................
   264f0:	03c801e8 05c801f0 07c801f8 02100208     ................
   26500:	04000200 04100210 06100218 04800220     ............ ...
   26510:	02500228 04500230 06500238 05000240     (.P.0.P.8.P.@...
   26520:	02900248 04900250 06900258 05800260     H...P...X...`...
   26530:	02d00268 04d00270 06d00278 04080280     h...p...x.......
   26540:	03100288 05100290 07100298 048802a0     ................
   26550:	035002a8 055002b0 075002b8 050802c0     ..P...P...P.....
   26560:	039002c8 059002d0 079002d8 058802e0     ................
   26570:	03d002e8 05d002f0 07d002f8 06000300     ................
   26580:	06100308 04180310 06180318 06800320     ............ ...
   26590:	06900328 04580330 06580338 07000340     (...0.X.8.X.@...
   265a0:	07100348 04980350 06980358 07800360     H...P...X...`...
   265b0:	07900368 04d80370 06d80378 06080380     h...p...x.......
   265c0:	06180388 05180390 07180398 068803a0     ................
   265d0:	069803a8 055803b0 075803b8 070803c0     ......X...X.....
   265e0:	071803c8 059803d0 079803d8 078803e0     ................
   265f0:	079803e8 05d803f0 07d803f8 04800408     ................
   26600:	04200410 06200418 05800428 04600430     .. ... .(...0.`.
   26610:	06600438 06000440 04880448 04a00450     8.`.@...H...P...
   26620:	06a00458 06100460 05880468 04e00470     X...`...h...p...
   26630:	06e00478 06800488 05200490 07200498     x......... ... .
   26640:	060804a0 078004a8 056004b0 076004b8     ..........`...`.
   26650:	062004c0 068804c8 05a004d0 07a004d8     .. .............
   26660:	061804e0 078804e8 05e004f0 07e004f8     ................
   26670:	05200508 05800510 06280518 05900528     .. .......(.(...
   26680:	05880530 06680538 07000540 07200548     0...8.h.@...H. .
   26690:	07800550 06a80558 07080560 05980568     P...X...`...h...
   266a0:	07880570 06e80578 06900588 07280598     p...x.........(.
   266b0:	062805a0 079005a8 072805b0 076805b8     ..(.......(...h.
   266c0:	071005c0 069805c8 079005d0 07a805d8     ................
   266d0:	071805e0 079805e8 079805f0 07e805f8     ................
   266e0:	06300618 06700638 07000640 07800648     ..0.8.p.@...H...
   266f0:	07080650 06b00658 07100660 07900668     P...X...`...h...
   26700:	07180670 06f00678 06a00688 07300698     p...x.........0.
   26710:	07a006a8 078806b0 077006b8 072006c0     ..........p... .
   26720:	07a006c8 072806d0 07b006d8 073006e0     ......(.......0.
   26730:	07a806e8 079806f0 07f006f8 07500748     ............H.P.
   26740:	07980738 07600750 07700758 07c00760     8...P.`.X.p.`...
   26750:	07d00768 07f00778 07e00770 07f007b8     h...x...p.......
   26760:	07b007a8 07f007d8 07e007c8 07f007e8     ................

00026770 <twiddleCoef_rfft_128>:
   26770:	00000000 3f800000 3d48fb2f 3f7fb10f     .......?/.H=...?
   26780:	3dc8bd36 3f7ec46d 3e164083 3f7d3aac     6..=m.~?.@.>.:}?
   26790:	3e47c5c2 3f7b14be 3e78cfcc 3f7853f8     ..G>..{?..x>.Sx?
   267a0:	3e94a031 3f74fa0b 3eac7cd4 3f710908     1..>..t?.|.>..q?
   267b0:	3ec3ef15 3f6c835e 3edae880 3f676bd8     ...>^.l?...>.kg?
   267c0:	3ef15aea 3f61c598 3f039c3d 3f5b941a     .Z.>..a?=..?..[?
   267d0:	3f0e39da 3f54db31 3f187fc0 3f4d9f02     .9.?1.T?...?..M?
   267e0:	3f226799 3f45e403 3f2beb4a 3f3daef9     .g"?..E?J.+?..=?
   267f0:	3f3504f3 3f3504f3 3f3daef9 3f2beb4a     ..5?..5?..=?J.+?
   26800:	3f45e403 3f226799 3f4d9f02 3f187fc0     ..E?.g"?..M?...?
   26810:	3f54db31 3f0e39da 3f5b941a 3f039c3d     1.T?.9.?..[?=..?
   26820:	3f61c598 3ef15aea 3f676bd8 3edae880     ..a?.Z.>.kg?...>
   26830:	3f6c835e 3ec3ef15 3f710908 3eac7cd4     ^.l?...>..q?.|.>
   26840:	3f74fa0b 3e94a031 3f7853f8 3e78cfcc     ..t?1..>.Sx?..x>
   26850:	3f7b14be 3e47c5c2 3f7d3aac 3e164083     ..{?..G>.:}?.@.>
   26860:	3f7ec46d 3dc8bd36 3f7fb10f 3d48fb2f     m.~?6..=...?/.H=
   26870:	3f800000 00000000 3f7fb10f bd48fb2f     ...?.......?/.H.
   26880:	3f7ec46d bdc8bd36 3f7d3aac be164083     m.~?6....:}?.@..
   26890:	3f7b14be be47c5c2 3f7853f8 be78cfcc     ..{?..G..Sx?..x.
   268a0:	3f74fa0b be94a031 3f710908 beac7cd4     ..t?1.....q?.|..
   268b0:	3f6c835e bec3ef15 3f676bd8 bedae880     ^.l?.....kg?....
   268c0:	3f61c598 bef15aea 3f5b941a bf039c3d     ..a?.Z....[?=...
   268d0:	3f54db31 bf0e39da 3f4d9f02 bf187fc0     1.T?.9....M?....
   268e0:	3f45e403 bf226799 3f3daef9 bf2beb4a     ..E?.g"...=?J.+.
   268f0:	3f3504f3 bf3504f3 3f2beb4a bf3daef9     ..5?..5.J.+?..=.
   26900:	3f226799 bf45e403 3f187fc0 bf4d9f02     .g"?..E....?..M.
   26910:	3f0e39da bf54db31 3f039c3d bf5b941a     .9.?1.T.=..?..[.
   26920:	3ef15aea bf61c598 3edae880 bf676bd8     .Z.>..a....>.kg.
   26930:	3ec3ef15 bf6c835e 3eac7cd4 bf710908     ...>^.l..|.>..q.
   26940:	3e94a031 bf74fa0b 3e78cfcc bf7853f8     1..>..t...x>.Sx.
   26950:	3e47c5c2 bf7b14be 3e164083 bf7d3aac     ..G>..{..@.>.:}.
   26960:	3dc8bd36 bf7ec46d 3d48fb2f bf7fb10f     6..=m.~./.H=....

00026970 <armBitRevIndexTable128>:
   26970:	02000008 00400010 02400018 00800020     ......@...@. ...
   26980:	02800028 00c00030 02c00038 01000040     (...0...8...@...
   26990:	03000048 01400050 03400058 01800060     H...P.@.X.@.`...
   269a0:	03800068 01c00070 03c00078 02000080     h...p...x.......
   269b0:	02080088 03000090 02480098 020800a0     ..........H.....
   269c0:	028800a8 00c800b0 02c800b8 010800c0     ................
   269d0:	030800c8 014800d0 034800d8 018800e0     ......H...H.....
   269e0:	038800e8 01c800f0 03c800f8 02100108     ................
   269f0:	01400110 02500118 03000120 02900128     ..@...P. ...(...
   26a00:	01480130 02d00138 03100148 03500158     0.H.8...H...X.P.
   26a10:	01900160 03900168 01d00170 03d00178     `...h...p...x...
   26a20:	02400180 02180188 03400190 02580198     ..@.......@...X.
   26a30:	024801a0 029801a8 034801b0 02d801b8     ..H.......H.....
   26a40:	025001c0 031801c8 035001d0 035801d8     ..P.......P...X.
   26a50:	025801e0 039801e8 035801f0 03d801f8     ..X.......X.....
   26a60:	02200208 02400210 02600218 02a00228     .. ...@...`.(...
   26a70:	02600230 02e00238 03000240 03200248     0.`.8...@...H. .
   26a80:	03400250 03600258 03200260 03a00268     P.@.X.`.`. .h...
   26a90:	03600270 03e00278 02a00288 03800290     p.`.x...........
   26aa0:	03a00298 038802b0 02e802b8 038002c0     ................
   26ab0:	032802c8 039002d0 036802d8 03a002e0     ..(.......h.....
   26ac0:	03a802e8 039802f0 03e802f8 03200308     .............. .
   26ad0:	03400310 03600318 03880328 03600330     ..@...`.(...0.`.
   26ae0:	03980338 03600348 03700358 03b00368     8...H.`.X.p.h...
   26af0:	03f00378 03a00388 03c00390 03e00398     x...............
   26b00:	03c803b0 03e803b8 03e003c8 03f003d8     ................
   26b10:	00776f70 00000000                       pow.....

00026b18 <TWO52>:
   26b18:	00000000 43300000 00000000 c3300000     ......0C......0.
