
bin/audio_experiment.axf:     file format elf32-littlearm


Disassembly of section .text:

0000c000 <g_am_pfnVectors>:
    c000:	00 c0 00 10 91 da 00 00 f9 da 00 00 55 c9 00 00     ............U...
    c010:	55 c9 00 00 55 c9 00 00 55 c9 00 00 00 00 00 00     U...U...U.......
	...
    c02c:	ff da 00 00 ff da 00 00 00 00 00 00 ff da 00 00     ................
    c03c:	ff da 00 00 ff da 00 00 ff da 00 00 ff da 00 00     ................
    c04c:	ff da 00 00 ff da 00 00 ff da 00 00 ff da 00 00     ................
    c05c:	ff da 00 00 ff da 00 00 ff da 00 00 ff da 00 00     ................
    c06c:	ff da 00 00 ff da 00 00 41 dd 00 00 ed dc 00 00     ........A.......
    c07c:	ff da 00 00 ff da 00 00 ff da 00 00 ff da 00 00     ................
    c08c:	fd de 00 00 ff da 00 00 ff da 00 00 ff da 00 00     ................
    c09c:	ff da 00 00 ff da 00 00 ff da 00 00 ff da 00 00     ................
    c0ac:	ff da 00 00 ff da 00 00 ff da 00 00 ff da 00 00     ................
    c0bc:	ff da 00 00                                         ....

0000c0c0 <__Patchable>:
	...

0000c100 <arm_bitreversal_32>:
    c100:	1c4b      	adds	r3, r1, #1
    c102:	2b01      	cmp	r3, #1
    c104:	bf98      	it	ls
    c106:	4770      	bxls	lr
    c108:	e92d 03f0 	stmdb	sp!, {r4, r5, r6, r7, r8, r9}
    c10c:	1c91      	adds	r1, r2, #2
    c10e:	089b      	lsrs	r3, r3, #2

0000c110 <arm_bitreversal_32_0>:
    c110:	f8b1 8004 	ldrh.w	r8, [r1, #4]
    c114:	f8b1 9002 	ldrh.w	r9, [r1, #2]
    c118:	880a      	ldrh	r2, [r1, #0]
    c11a:	f831 cc02 	ldrh.w	ip, [r1, #-2]
    c11e:	4480      	add	r8, r0
    c120:	4481      	add	r9, r0
    c122:	4402      	add	r2, r0
    c124:	4484      	add	ip, r0
    c126:	f8d9 7000 	ldr.w	r7, [r9]
    c12a:	f8d8 6000 	ldr.w	r6, [r8]
    c12e:	6815      	ldr	r5, [r2, #0]
    c130:	f8dc 4000 	ldr.w	r4, [ip]
    c134:	f8c9 6000 	str.w	r6, [r9]
    c138:	f8c8 7000 	str.w	r7, [r8]
    c13c:	f8cc 5000 	str.w	r5, [ip]
    c140:	6014      	str	r4, [r2, #0]
    c142:	f8d9 7004 	ldr.w	r7, [r9, #4]
    c146:	f8d8 6004 	ldr.w	r6, [r8, #4]
    c14a:	6855      	ldr	r5, [r2, #4]
    c14c:	f8dc 4004 	ldr.w	r4, [ip, #4]
    c150:	f8c9 6004 	str.w	r6, [r9, #4]
    c154:	f8c8 7004 	str.w	r7, [r8, #4]
    c158:	f8cc 5004 	str.w	r5, [ip, #4]
    c15c:	6054      	str	r4, [r2, #4]
    c15e:	3108      	adds	r1, #8
    c160:	3b01      	subs	r3, #1
    c162:	d1d5      	bne.n	c110 <arm_bitreversal_32_0>
    c164:	e8bd 03f0 	ldmia.w	sp!, {r4, r5, r6, r7, r8, r9}
    c168:	4770      	bx	lr

0000c16a <arm_bitreversal_16>:
    c16a:	1c4b      	adds	r3, r1, #1
    c16c:	2b01      	cmp	r3, #1
    c16e:	bf98      	it	ls
    c170:	4770      	bxls	lr
    c172:	e92d 03f0 	stmdb	sp!, {r4, r5, r6, r7, r8, r9}
    c176:	1c91      	adds	r1, r2, #2
    c178:	089b      	lsrs	r3, r3, #2

0000c17a <arm_bitreversal_16_0>:
    c17a:	f8b1 8004 	ldrh.w	r8, [r1, #4]
    c17e:	f8b1 9002 	ldrh.w	r9, [r1, #2]
    c182:	880a      	ldrh	r2, [r1, #0]
    c184:	f831 cc02 	ldrh.w	ip, [r1, #-2]
    c188:	eb00 0858 	add.w	r8, r0, r8, lsr #1
    c18c:	eb00 0959 	add.w	r9, r0, r9, lsr #1
    c190:	eb00 0252 	add.w	r2, r0, r2, lsr #1
    c194:	eb00 0c5c 	add.w	ip, r0, ip, lsr #1
    c198:	f8d9 7000 	ldr.w	r7, [r9]
    c19c:	f8d8 6000 	ldr.w	r6, [r8]
    c1a0:	6815      	ldr	r5, [r2, #0]
    c1a2:	f8dc 4000 	ldr.w	r4, [ip]
    c1a6:	f8c9 6000 	str.w	r6, [r9]
    c1aa:	f8c8 7000 	str.w	r7, [r8]
    c1ae:	f8cc 5000 	str.w	r5, [ip]
    c1b2:	6014      	str	r4, [r2, #0]
    c1b4:	3108      	adds	r1, #8
    c1b6:	3b01      	subs	r3, #1
    c1b8:	d1df      	bne.n	c17a <arm_bitreversal_16_0>
    c1ba:	e8bd 03f0 	ldmia.w	sp!, {r4, r5, r6, r7, r8, r9}
    c1be:	4770      	bx	lr

0000c1c0 <memcpy>:
    c1c0:	4684      	mov	ip, r0
    c1c2:	ea41 0300 	orr.w	r3, r1, r0
    c1c6:	f013 0303 	ands.w	r3, r3, #3
    c1ca:	d16d      	bne.n	c2a8 <memcpy+0xe8>
    c1cc:	3a40      	subs	r2, #64	; 0x40
    c1ce:	d341      	bcc.n	c254 <memcpy+0x94>
    c1d0:	f851 3b04 	ldr.w	r3, [r1], #4
    c1d4:	f840 3b04 	str.w	r3, [r0], #4
    c1d8:	f851 3b04 	ldr.w	r3, [r1], #4
    c1dc:	f840 3b04 	str.w	r3, [r0], #4
    c1e0:	f851 3b04 	ldr.w	r3, [r1], #4
    c1e4:	f840 3b04 	str.w	r3, [r0], #4
    c1e8:	f851 3b04 	ldr.w	r3, [r1], #4
    c1ec:	f840 3b04 	str.w	r3, [r0], #4
    c1f0:	f851 3b04 	ldr.w	r3, [r1], #4
    c1f4:	f840 3b04 	str.w	r3, [r0], #4
    c1f8:	f851 3b04 	ldr.w	r3, [r1], #4
    c1fc:	f840 3b04 	str.w	r3, [r0], #4
    c200:	f851 3b04 	ldr.w	r3, [r1], #4
    c204:	f840 3b04 	str.w	r3, [r0], #4
    c208:	f851 3b04 	ldr.w	r3, [r1], #4
    c20c:	f840 3b04 	str.w	r3, [r0], #4
    c210:	f851 3b04 	ldr.w	r3, [r1], #4
    c214:	f840 3b04 	str.w	r3, [r0], #4
    c218:	f851 3b04 	ldr.w	r3, [r1], #4
    c21c:	f840 3b04 	str.w	r3, [r0], #4
    c220:	f851 3b04 	ldr.w	r3, [r1], #4
    c224:	f840 3b04 	str.w	r3, [r0], #4
    c228:	f851 3b04 	ldr.w	r3, [r1], #4
    c22c:	f840 3b04 	str.w	r3, [r0], #4
    c230:	f851 3b04 	ldr.w	r3, [r1], #4
    c234:	f840 3b04 	str.w	r3, [r0], #4
    c238:	f851 3b04 	ldr.w	r3, [r1], #4
    c23c:	f840 3b04 	str.w	r3, [r0], #4
    c240:	f851 3b04 	ldr.w	r3, [r1], #4
    c244:	f840 3b04 	str.w	r3, [r0], #4
    c248:	f851 3b04 	ldr.w	r3, [r1], #4
    c24c:	f840 3b04 	str.w	r3, [r0], #4
    c250:	3a40      	subs	r2, #64	; 0x40
    c252:	d2bd      	bcs.n	c1d0 <memcpy+0x10>
    c254:	3230      	adds	r2, #48	; 0x30
    c256:	d311      	bcc.n	c27c <memcpy+0xbc>
    c258:	f851 3b04 	ldr.w	r3, [r1], #4
    c25c:	f840 3b04 	str.w	r3, [r0], #4
    c260:	f851 3b04 	ldr.w	r3, [r1], #4
    c264:	f840 3b04 	str.w	r3, [r0], #4
    c268:	f851 3b04 	ldr.w	r3, [r1], #4
    c26c:	f840 3b04 	str.w	r3, [r0], #4
    c270:	f851 3b04 	ldr.w	r3, [r1], #4
    c274:	f840 3b04 	str.w	r3, [r0], #4
    c278:	3a10      	subs	r2, #16
    c27a:	d2ed      	bcs.n	c258 <memcpy+0x98>
    c27c:	320c      	adds	r2, #12
    c27e:	d305      	bcc.n	c28c <memcpy+0xcc>
    c280:	f851 3b04 	ldr.w	r3, [r1], #4
    c284:	f840 3b04 	str.w	r3, [r0], #4
    c288:	3a04      	subs	r2, #4
    c28a:	d2f9      	bcs.n	c280 <memcpy+0xc0>
    c28c:	3204      	adds	r2, #4
    c28e:	d008      	beq.n	c2a2 <memcpy+0xe2>
    c290:	07d2      	lsls	r2, r2, #31
    c292:	bf1c      	itt	ne
    c294:	f811 3b01 	ldrbne.w	r3, [r1], #1
    c298:	f800 3b01 	strbne.w	r3, [r0], #1
    c29c:	d301      	bcc.n	c2a2 <memcpy+0xe2>
    c29e:	880b      	ldrh	r3, [r1, #0]
    c2a0:	8003      	strh	r3, [r0, #0]
    c2a2:	4660      	mov	r0, ip
    c2a4:	4770      	bx	lr
    c2a6:	bf00      	nop
    c2a8:	2a08      	cmp	r2, #8
    c2aa:	d313      	bcc.n	c2d4 <memcpy+0x114>
    c2ac:	078b      	lsls	r3, r1, #30
    c2ae:	d08d      	beq.n	c1cc <memcpy+0xc>
    c2b0:	f010 0303 	ands.w	r3, r0, #3
    c2b4:	d08a      	beq.n	c1cc <memcpy+0xc>
    c2b6:	f1c3 0304 	rsb	r3, r3, #4
    c2ba:	1ad2      	subs	r2, r2, r3
    c2bc:	07db      	lsls	r3, r3, #31
    c2be:	bf1c      	itt	ne
    c2c0:	f811 3b01 	ldrbne.w	r3, [r1], #1
    c2c4:	f800 3b01 	strbne.w	r3, [r0], #1
    c2c8:	d380      	bcc.n	c1cc <memcpy+0xc>
    c2ca:	f831 3b02 	ldrh.w	r3, [r1], #2
    c2ce:	f820 3b02 	strh.w	r3, [r0], #2
    c2d2:	e77b      	b.n	c1cc <memcpy+0xc>
    c2d4:	3a04      	subs	r2, #4
    c2d6:	d3d9      	bcc.n	c28c <memcpy+0xcc>
    c2d8:	3a01      	subs	r2, #1
    c2da:	f811 3b01 	ldrb.w	r3, [r1], #1
    c2de:	f800 3b01 	strb.w	r3, [r0], #1
    c2e2:	d2f9      	bcs.n	c2d8 <memcpy+0x118>
    c2e4:	780b      	ldrb	r3, [r1, #0]
    c2e6:	7003      	strb	r3, [r0, #0]
    c2e8:	784b      	ldrb	r3, [r1, #1]
    c2ea:	7043      	strb	r3, [r0, #1]
    c2ec:	788b      	ldrb	r3, [r1, #2]
    c2ee:	7083      	strb	r3, [r0, #2]
    c2f0:	4660      	mov	r0, ip
    c2f2:	4770      	bx	lr

0000c2f4 <__aeabi_drsub>:
    c2f4:	f081 4100 	eor.w	r1, r1, #2147483648	; 0x80000000
    c2f8:	e002      	b.n	c300 <__adddf3>
    c2fa:	bf00      	nop

0000c2fc <__aeabi_dsub>:
    c2fc:	f083 4300 	eor.w	r3, r3, #2147483648	; 0x80000000

0000c300 <__adddf3>:
    c300:	b530      	push	{r4, r5, lr}
    c302:	ea4f 0441 	mov.w	r4, r1, lsl #1
    c306:	ea4f 0543 	mov.w	r5, r3, lsl #1
    c30a:	ea94 0f05 	teq	r4, r5
    c30e:	bf08      	it	eq
    c310:	ea90 0f02 	teqeq	r0, r2
    c314:	bf1f      	itttt	ne
    c316:	ea54 0c00 	orrsne.w	ip, r4, r0
    c31a:	ea55 0c02 	orrsne.w	ip, r5, r2
    c31e:	ea7f 5c64 	mvnsne.w	ip, r4, asr #21
    c322:	ea7f 5c65 	mvnsne.w	ip, r5, asr #21
    c326:	f000 80e2 	beq.w	c4ee <__adddf3+0x1ee>
    c32a:	ea4f 5454 	mov.w	r4, r4, lsr #21
    c32e:	ebd4 5555 	rsbs	r5, r4, r5, lsr #21
    c332:	bfb8      	it	lt
    c334:	426d      	neglt	r5, r5
    c336:	dd0c      	ble.n	c352 <__adddf3+0x52>
    c338:	442c      	add	r4, r5
    c33a:	ea80 0202 	eor.w	r2, r0, r2
    c33e:	ea81 0303 	eor.w	r3, r1, r3
    c342:	ea82 0000 	eor.w	r0, r2, r0
    c346:	ea83 0101 	eor.w	r1, r3, r1
    c34a:	ea80 0202 	eor.w	r2, r0, r2
    c34e:	ea81 0303 	eor.w	r3, r1, r3
    c352:	2d36      	cmp	r5, #54	; 0x36
    c354:	bf88      	it	hi
    c356:	bd30      	pophi	{r4, r5, pc}
    c358:	f011 4f00 	tst.w	r1, #2147483648	; 0x80000000
    c35c:	ea4f 3101 	mov.w	r1, r1, lsl #12
    c360:	f44f 1c80 	mov.w	ip, #1048576	; 0x100000
    c364:	ea4c 3111 	orr.w	r1, ip, r1, lsr #12
    c368:	d002      	beq.n	c370 <__adddf3+0x70>
    c36a:	4240      	negs	r0, r0
    c36c:	eb61 0141 	sbc.w	r1, r1, r1, lsl #1
    c370:	f013 4f00 	tst.w	r3, #2147483648	; 0x80000000
    c374:	ea4f 3303 	mov.w	r3, r3, lsl #12
    c378:	ea4c 3313 	orr.w	r3, ip, r3, lsr #12
    c37c:	d002      	beq.n	c384 <__adddf3+0x84>
    c37e:	4252      	negs	r2, r2
    c380:	eb63 0343 	sbc.w	r3, r3, r3, lsl #1
    c384:	ea94 0f05 	teq	r4, r5
    c388:	f000 80a7 	beq.w	c4da <__adddf3+0x1da>
    c38c:	f1a4 0401 	sub.w	r4, r4, #1
    c390:	f1d5 0e20 	rsbs	lr, r5, #32
    c394:	db0d      	blt.n	c3b2 <__adddf3+0xb2>
    c396:	fa02 fc0e 	lsl.w	ip, r2, lr
    c39a:	fa22 f205 	lsr.w	r2, r2, r5
    c39e:	1880      	adds	r0, r0, r2
    c3a0:	f141 0100 	adc.w	r1, r1, #0
    c3a4:	fa03 f20e 	lsl.w	r2, r3, lr
    c3a8:	1880      	adds	r0, r0, r2
    c3aa:	fa43 f305 	asr.w	r3, r3, r5
    c3ae:	4159      	adcs	r1, r3
    c3b0:	e00e      	b.n	c3d0 <__adddf3+0xd0>
    c3b2:	f1a5 0520 	sub.w	r5, r5, #32
    c3b6:	f10e 0e20 	add.w	lr, lr, #32
    c3ba:	2a01      	cmp	r2, #1
    c3bc:	fa03 fc0e 	lsl.w	ip, r3, lr
    c3c0:	bf28      	it	cs
    c3c2:	f04c 0c02 	orrcs.w	ip, ip, #2
    c3c6:	fa43 f305 	asr.w	r3, r3, r5
    c3ca:	18c0      	adds	r0, r0, r3
    c3cc:	eb51 71e3 	adcs.w	r1, r1, r3, asr #31
    c3d0:	f001 4500 	and.w	r5, r1, #2147483648	; 0x80000000
    c3d4:	d507      	bpl.n	c3e6 <__adddf3+0xe6>
    c3d6:	f04f 0e00 	mov.w	lr, #0
    c3da:	f1dc 0c00 	rsbs	ip, ip, #0
    c3de:	eb7e 0000 	sbcs.w	r0, lr, r0
    c3e2:	eb6e 0101 	sbc.w	r1, lr, r1
    c3e6:	f5b1 1f80 	cmp.w	r1, #1048576	; 0x100000
    c3ea:	d31b      	bcc.n	c424 <__adddf3+0x124>
    c3ec:	f5b1 1f00 	cmp.w	r1, #2097152	; 0x200000
    c3f0:	d30c      	bcc.n	c40c <__adddf3+0x10c>
    c3f2:	0849      	lsrs	r1, r1, #1
    c3f4:	ea5f 0030 	movs.w	r0, r0, rrx
    c3f8:	ea4f 0c3c 	mov.w	ip, ip, rrx
    c3fc:	f104 0401 	add.w	r4, r4, #1
    c400:	ea4f 5244 	mov.w	r2, r4, lsl #21
    c404:	f512 0f80 	cmn.w	r2, #4194304	; 0x400000
    c408:	f080 809a 	bcs.w	c540 <__adddf3+0x240>
    c40c:	f1bc 4f00 	cmp.w	ip, #2147483648	; 0x80000000
    c410:	bf08      	it	eq
    c412:	ea5f 0c50 	movseq.w	ip, r0, lsr #1
    c416:	f150 0000 	adcs.w	r0, r0, #0
    c41a:	eb41 5104 	adc.w	r1, r1, r4, lsl #20
    c41e:	ea41 0105 	orr.w	r1, r1, r5
    c422:	bd30      	pop	{r4, r5, pc}
    c424:	ea5f 0c4c 	movs.w	ip, ip, lsl #1
    c428:	4140      	adcs	r0, r0
    c42a:	eb41 0101 	adc.w	r1, r1, r1
    c42e:	f411 1f80 	tst.w	r1, #1048576	; 0x100000
    c432:	f1a4 0401 	sub.w	r4, r4, #1
    c436:	d1e9      	bne.n	c40c <__adddf3+0x10c>
    c438:	f091 0f00 	teq	r1, #0
    c43c:	bf04      	itt	eq
    c43e:	4601      	moveq	r1, r0
    c440:	2000      	moveq	r0, #0
    c442:	fab1 f381 	clz	r3, r1
    c446:	bf08      	it	eq
    c448:	3320      	addeq	r3, #32
    c44a:	f1a3 030b 	sub.w	r3, r3, #11
    c44e:	f1b3 0220 	subs.w	r2, r3, #32
    c452:	da0c      	bge.n	c46e <__adddf3+0x16e>
    c454:	320c      	adds	r2, #12
    c456:	dd08      	ble.n	c46a <__adddf3+0x16a>
    c458:	f102 0c14 	add.w	ip, r2, #20
    c45c:	f1c2 020c 	rsb	r2, r2, #12
    c460:	fa01 f00c 	lsl.w	r0, r1, ip
    c464:	fa21 f102 	lsr.w	r1, r1, r2
    c468:	e00c      	b.n	c484 <__adddf3+0x184>
    c46a:	f102 0214 	add.w	r2, r2, #20
    c46e:	bfd8      	it	le
    c470:	f1c2 0c20 	rsble	ip, r2, #32
    c474:	fa01 f102 	lsl.w	r1, r1, r2
    c478:	fa20 fc0c 	lsr.w	ip, r0, ip
    c47c:	bfdc      	itt	le
    c47e:	ea41 010c 	orrle.w	r1, r1, ip
    c482:	4090      	lslle	r0, r2
    c484:	1ae4      	subs	r4, r4, r3
    c486:	bfa2      	ittt	ge
    c488:	eb01 5104 	addge.w	r1, r1, r4, lsl #20
    c48c:	4329      	orrge	r1, r5
    c48e:	bd30      	popge	{r4, r5, pc}
    c490:	ea6f 0404 	mvn.w	r4, r4
    c494:	3c1f      	subs	r4, #31
    c496:	da1c      	bge.n	c4d2 <__adddf3+0x1d2>
    c498:	340c      	adds	r4, #12
    c49a:	dc0e      	bgt.n	c4ba <__adddf3+0x1ba>
    c49c:	f104 0414 	add.w	r4, r4, #20
    c4a0:	f1c4 0220 	rsb	r2, r4, #32
    c4a4:	fa20 f004 	lsr.w	r0, r0, r4
    c4a8:	fa01 f302 	lsl.w	r3, r1, r2
    c4ac:	ea40 0003 	orr.w	r0, r0, r3
    c4b0:	fa21 f304 	lsr.w	r3, r1, r4
    c4b4:	ea45 0103 	orr.w	r1, r5, r3
    c4b8:	bd30      	pop	{r4, r5, pc}
    c4ba:	f1c4 040c 	rsb	r4, r4, #12
    c4be:	f1c4 0220 	rsb	r2, r4, #32
    c4c2:	fa20 f002 	lsr.w	r0, r0, r2
    c4c6:	fa01 f304 	lsl.w	r3, r1, r4
    c4ca:	ea40 0003 	orr.w	r0, r0, r3
    c4ce:	4629      	mov	r1, r5
    c4d0:	bd30      	pop	{r4, r5, pc}
    c4d2:	fa21 f004 	lsr.w	r0, r1, r4
    c4d6:	4629      	mov	r1, r5
    c4d8:	bd30      	pop	{r4, r5, pc}
    c4da:	f094 0f00 	teq	r4, #0
    c4de:	f483 1380 	eor.w	r3, r3, #1048576	; 0x100000
    c4e2:	bf06      	itte	eq
    c4e4:	f481 1180 	eoreq.w	r1, r1, #1048576	; 0x100000
    c4e8:	3401      	addeq	r4, #1
    c4ea:	3d01      	subne	r5, #1
    c4ec:	e74e      	b.n	c38c <__adddf3+0x8c>
    c4ee:	ea7f 5c64 	mvns.w	ip, r4, asr #21
    c4f2:	bf18      	it	ne
    c4f4:	ea7f 5c65 	mvnsne.w	ip, r5, asr #21
    c4f8:	d029      	beq.n	c54e <__adddf3+0x24e>
    c4fa:	ea94 0f05 	teq	r4, r5
    c4fe:	bf08      	it	eq
    c500:	ea90 0f02 	teqeq	r0, r2
    c504:	d005      	beq.n	c512 <__adddf3+0x212>
    c506:	ea54 0c00 	orrs.w	ip, r4, r0
    c50a:	bf04      	itt	eq
    c50c:	4619      	moveq	r1, r3
    c50e:	4610      	moveq	r0, r2
    c510:	bd30      	pop	{r4, r5, pc}
    c512:	ea91 0f03 	teq	r1, r3
    c516:	bf1e      	ittt	ne
    c518:	2100      	movne	r1, #0
    c51a:	2000      	movne	r0, #0
    c51c:	bd30      	popne	{r4, r5, pc}
    c51e:	ea5f 5c54 	movs.w	ip, r4, lsr #21
    c522:	d105      	bne.n	c530 <__adddf3+0x230>
    c524:	0040      	lsls	r0, r0, #1
    c526:	4149      	adcs	r1, r1
    c528:	bf28      	it	cs
    c52a:	f041 4100 	orrcs.w	r1, r1, #2147483648	; 0x80000000
    c52e:	bd30      	pop	{r4, r5, pc}
    c530:	f514 0480 	adds.w	r4, r4, #4194304	; 0x400000
    c534:	bf3c      	itt	cc
    c536:	f501 1180 	addcc.w	r1, r1, #1048576	; 0x100000
    c53a:	bd30      	popcc	{r4, r5, pc}
    c53c:	f001 4500 	and.w	r5, r1, #2147483648	; 0x80000000
    c540:	f045 41fe 	orr.w	r1, r5, #2130706432	; 0x7f000000
    c544:	f441 0170 	orr.w	r1, r1, #15728640	; 0xf00000
    c548:	f04f 0000 	mov.w	r0, #0
    c54c:	bd30      	pop	{r4, r5, pc}
    c54e:	ea7f 5c64 	mvns.w	ip, r4, asr #21
    c552:	bf1a      	itte	ne
    c554:	4619      	movne	r1, r3
    c556:	4610      	movne	r0, r2
    c558:	ea7f 5c65 	mvnseq.w	ip, r5, asr #21
    c55c:	bf1c      	itt	ne
    c55e:	460b      	movne	r3, r1
    c560:	4602      	movne	r2, r0
    c562:	ea50 3401 	orrs.w	r4, r0, r1, lsl #12
    c566:	bf06      	itte	eq
    c568:	ea52 3503 	orrseq.w	r5, r2, r3, lsl #12
    c56c:	ea91 0f03 	teqeq	r1, r3
    c570:	f441 2100 	orrne.w	r1, r1, #524288	; 0x80000
    c574:	bd30      	pop	{r4, r5, pc}
    c576:	bf00      	nop

0000c578 <__aeabi_ui2d>:
    c578:	f090 0f00 	teq	r0, #0
    c57c:	bf04      	itt	eq
    c57e:	2100      	moveq	r1, #0
    c580:	4770      	bxeq	lr
    c582:	b530      	push	{r4, r5, lr}
    c584:	f44f 6480 	mov.w	r4, #1024	; 0x400
    c588:	f104 0432 	add.w	r4, r4, #50	; 0x32
    c58c:	f04f 0500 	mov.w	r5, #0
    c590:	f04f 0100 	mov.w	r1, #0
    c594:	e750      	b.n	c438 <__adddf3+0x138>
    c596:	bf00      	nop

0000c598 <__aeabi_i2d>:
    c598:	f090 0f00 	teq	r0, #0
    c59c:	bf04      	itt	eq
    c59e:	2100      	moveq	r1, #0
    c5a0:	4770      	bxeq	lr
    c5a2:	b530      	push	{r4, r5, lr}
    c5a4:	f44f 6480 	mov.w	r4, #1024	; 0x400
    c5a8:	f104 0432 	add.w	r4, r4, #50	; 0x32
    c5ac:	f010 4500 	ands.w	r5, r0, #2147483648	; 0x80000000
    c5b0:	bf48      	it	mi
    c5b2:	4240      	negmi	r0, r0
    c5b4:	f04f 0100 	mov.w	r1, #0
    c5b8:	e73e      	b.n	c438 <__adddf3+0x138>
    c5ba:	bf00      	nop

0000c5bc <__aeabi_f2d>:
    c5bc:	0042      	lsls	r2, r0, #1
    c5be:	ea4f 01e2 	mov.w	r1, r2, asr #3
    c5c2:	ea4f 0131 	mov.w	r1, r1, rrx
    c5c6:	ea4f 7002 	mov.w	r0, r2, lsl #28
    c5ca:	bf1f      	itttt	ne
    c5cc:	f012 437f 	andsne.w	r3, r2, #4278190080	; 0xff000000
    c5d0:	f093 4f7f 	teqne	r3, #4278190080	; 0xff000000
    c5d4:	f081 5160 	eorne.w	r1, r1, #939524096	; 0x38000000
    c5d8:	4770      	bxne	lr
    c5da:	f032 427f 	bics.w	r2, r2, #4278190080	; 0xff000000
    c5de:	bf08      	it	eq
    c5e0:	4770      	bxeq	lr
    c5e2:	f093 4f7f 	teq	r3, #4278190080	; 0xff000000
    c5e6:	bf04      	itt	eq
    c5e8:	f441 2100 	orreq.w	r1, r1, #524288	; 0x80000
    c5ec:	4770      	bxeq	lr
    c5ee:	b530      	push	{r4, r5, lr}
    c5f0:	f44f 7460 	mov.w	r4, #896	; 0x380
    c5f4:	f001 4500 	and.w	r5, r1, #2147483648	; 0x80000000
    c5f8:	f021 4100 	bic.w	r1, r1, #2147483648	; 0x80000000
    c5fc:	e71c      	b.n	c438 <__adddf3+0x138>
    c5fe:	bf00      	nop

0000c600 <__aeabi_ul2d>:
    c600:	ea50 0201 	orrs.w	r2, r0, r1
    c604:	bf08      	it	eq
    c606:	4770      	bxeq	lr
    c608:	b530      	push	{r4, r5, lr}
    c60a:	f04f 0500 	mov.w	r5, #0
    c60e:	e00a      	b.n	c626 <__aeabi_l2d+0x16>

0000c610 <__aeabi_l2d>:
    c610:	ea50 0201 	orrs.w	r2, r0, r1
    c614:	bf08      	it	eq
    c616:	4770      	bxeq	lr
    c618:	b530      	push	{r4, r5, lr}
    c61a:	f011 4500 	ands.w	r5, r1, #2147483648	; 0x80000000
    c61e:	d502      	bpl.n	c626 <__aeabi_l2d+0x16>
    c620:	4240      	negs	r0, r0
    c622:	eb61 0141 	sbc.w	r1, r1, r1, lsl #1
    c626:	f44f 6480 	mov.w	r4, #1024	; 0x400
    c62a:	f104 0432 	add.w	r4, r4, #50	; 0x32
    c62e:	ea5f 5c91 	movs.w	ip, r1, lsr #22
    c632:	f43f aed8 	beq.w	c3e6 <__adddf3+0xe6>
    c636:	f04f 0203 	mov.w	r2, #3
    c63a:	ea5f 0cdc 	movs.w	ip, ip, lsr #3
    c63e:	bf18      	it	ne
    c640:	3203      	addne	r2, #3
    c642:	ea5f 0cdc 	movs.w	ip, ip, lsr #3
    c646:	bf18      	it	ne
    c648:	3203      	addne	r2, #3
    c64a:	eb02 02dc 	add.w	r2, r2, ip, lsr #3
    c64e:	f1c2 0320 	rsb	r3, r2, #32
    c652:	fa00 fc03 	lsl.w	ip, r0, r3
    c656:	fa20 f002 	lsr.w	r0, r0, r2
    c65a:	fa01 fe03 	lsl.w	lr, r1, r3
    c65e:	ea40 000e 	orr.w	r0, r0, lr
    c662:	fa21 f102 	lsr.w	r1, r1, r2
    c666:	4414      	add	r4, r2
    c668:	e6bd      	b.n	c3e6 <__adddf3+0xe6>
    c66a:	bf00      	nop

0000c66c <__aeabi_d2f>:
    c66c:	ea4f 0241 	mov.w	r2, r1, lsl #1
    c670:	f1b2 43e0 	subs.w	r3, r2, #1879048192	; 0x70000000
    c674:	bf24      	itt	cs
    c676:	f5b3 1c00 	subscs.w	ip, r3, #2097152	; 0x200000
    c67a:	f1dc 5cfe 	rsbscs	ip, ip, #532676608	; 0x1fc00000
    c67e:	d90d      	bls.n	c69c <__aeabi_d2f+0x30>
    c680:	f001 4c00 	and.w	ip, r1, #2147483648	; 0x80000000
    c684:	ea4f 02c0 	mov.w	r2, r0, lsl #3
    c688:	ea4c 7050 	orr.w	r0, ip, r0, lsr #29
    c68c:	f1b2 4f00 	cmp.w	r2, #2147483648	; 0x80000000
    c690:	eb40 0083 	adc.w	r0, r0, r3, lsl #2
    c694:	bf08      	it	eq
    c696:	f020 0001 	biceq.w	r0, r0, #1
    c69a:	4770      	bx	lr
    c69c:	f011 4f80 	tst.w	r1, #1073741824	; 0x40000000
    c6a0:	d121      	bne.n	c6e6 <__aeabi_d2f+0x7a>
    c6a2:	f113 7238 	adds.w	r2, r3, #48234496	; 0x2e00000
    c6a6:	bfbc      	itt	lt
    c6a8:	f001 4000 	andlt.w	r0, r1, #2147483648	; 0x80000000
    c6ac:	4770      	bxlt	lr
    c6ae:	f441 1180 	orr.w	r1, r1, #1048576	; 0x100000
    c6b2:	ea4f 5252 	mov.w	r2, r2, lsr #21
    c6b6:	f1c2 0218 	rsb	r2, r2, #24
    c6ba:	f1c2 0c20 	rsb	ip, r2, #32
    c6be:	fa10 f30c 	lsls.w	r3, r0, ip
    c6c2:	fa20 f002 	lsr.w	r0, r0, r2
    c6c6:	bf18      	it	ne
    c6c8:	f040 0001 	orrne.w	r0, r0, #1
    c6cc:	ea4f 23c1 	mov.w	r3, r1, lsl #11
    c6d0:	ea4f 23d3 	mov.w	r3, r3, lsr #11
    c6d4:	fa03 fc0c 	lsl.w	ip, r3, ip
    c6d8:	ea40 000c 	orr.w	r0, r0, ip
    c6dc:	fa23 f302 	lsr.w	r3, r3, r2
    c6e0:	ea4f 0343 	mov.w	r3, r3, lsl #1
    c6e4:	e7cc      	b.n	c680 <__aeabi_d2f+0x14>
    c6e6:	ea7f 5362 	mvns.w	r3, r2, asr #21
    c6ea:	d107      	bne.n	c6fc <__aeabi_d2f+0x90>
    c6ec:	ea50 3301 	orrs.w	r3, r0, r1, lsl #12
    c6f0:	bf1e      	ittt	ne
    c6f2:	f04f 40fe 	movne.w	r0, #2130706432	; 0x7f000000
    c6f6:	f440 0040 	orrne.w	r0, r0, #12582912	; 0xc00000
    c6fa:	4770      	bxne	lr
    c6fc:	f001 4000 	and.w	r0, r1, #2147483648	; 0x80000000
    c700:	f040 40fe 	orr.w	r0, r0, #2130706432	; 0x7f000000
    c704:	f440 0000 	orr.w	r0, r0, #8388608	; 0x800000
    c708:	4770      	bx	lr
    c70a:	bf00      	nop

0000c70c <main>:
#include "am_AEP_local_test_data.h"
#endif // AM_AEP_DIGITAL_FILTER_TEST


int main(void)
{
    c70c:	b580      	push	{r7, lr}
    c70e:	f5ad 5da2 	sub.w	sp, sp, #5184	; 0x1440
    c712:	b082      	sub	sp, #8
    c714:	af02      	add	r7, sp, #8
    am_app_AEP_sys_init();
    c716:	f001 fa5b 	bl	dbd0 <am_app_AEP_sys_init>
#endif // AM_AEP_DIGITAL_FILTER_TEST

    //
    // Print the banner.
    //
    DebugLog("Audio test starts!\r\n\n");
    c71a:	4883      	ldr	r0, [pc, #524]	; (c928 <main+0x21c>)
    c71c:	f001 fa10 	bl	db40 <DebugLog>

#if AM_AEP_STFT_TEST
    uint32_t indx = 0;
    c720:	2300      	movs	r3, #0
    c722:	f507 52a1 	add.w	r2, r7, #5152	; 0x1420
    c726:	f102 021c 	add.w	r2, r2, #28
    c72a:	6013      	str	r3, [r2, #0]
    uint32_t k = 0;
    c72c:	2300      	movs	r3, #0
    c72e:	f507 52a1 	add.w	r2, r7, #5152	; 0x1420
    c732:	f102 0218 	add.w	r2, r2, #24
    c736:	6013      	str	r3, [r2, #0]
    float fMaxValue;
    uint32_t ui32MaxIndex;
    uint32_t ui32LoudestFrequency;
    uint32_t g_ui32SampleFreq = 16000;
    c738:	f44f 537a 	mov.w	r3, #16000	; 0x3e80
    c73c:	f507 52a1 	add.w	r2, r7, #5152	; 0x1420
    c740:	f102 0214 	add.w	r2, r2, #20
    c744:	6013      	str	r3, [r2, #0]
    if(LOCAL_DATA_TEST)
    {
        DebugLog("Using local data to test STFT...\n\r");
    c746:	4879      	ldr	r0, [pc, #484]	; (c92c <main+0x220>)
    c748:	f001 f9fa 	bl	db40 <DebugLog>
        for(indx=0; indx<AUDIO_BUFF_LENGTH;indx++)
    c74c:	2300      	movs	r3, #0
    c74e:	f507 52a1 	add.w	r2, r7, #5152	; 0x1420
    c752:	f102 021c 	add.w	r2, r2, #28
    c756:	6013      	str	r3, [r2, #0]
    c758:	e01d      	b.n	c796 <main+0x8a>
        {
            g_pin16PCMDataBuffer[indx] = g_in16TestInput_2KHZ_SR16K[indx]; 
    c75a:	4a75      	ldr	r2, [pc, #468]	; (c930 <main+0x224>)
    c75c:	f507 53a1 	add.w	r3, r7, #5152	; 0x1420
    c760:	f103 031c 	add.w	r3, r3, #28
    c764:	681b      	ldr	r3, [r3, #0]
    c766:	f932 1013 	ldrsh.w	r1, [r2, r3, lsl #1]
    c76a:	f507 538f 	add.w	r3, r7, #4576	; 0x11e0
    c76e:	f103 0314 	add.w	r3, r3, #20
    c772:	f507 52a1 	add.w	r2, r7, #5152	; 0x1420
    c776:	f102 021c 	add.w	r2, r2, #28
    c77a:	6812      	ldr	r2, [r2, #0]
    c77c:	f823 1012 	strh.w	r1, [r3, r2, lsl #1]
        for(indx=0; indx<AUDIO_BUFF_LENGTH;indx++)
    c780:	f507 53a1 	add.w	r3, r7, #5152	; 0x1420
    c784:	f103 031c 	add.w	r3, r3, #28
    c788:	681b      	ldr	r3, [r3, #0]
    c78a:	3301      	adds	r3, #1
    c78c:	f507 52a1 	add.w	r2, r7, #5152	; 0x1420
    c790:	f102 021c 	add.w	r2, r2, #28
    c794:	6013      	str	r3, [r2, #0]
    c796:	f507 53a1 	add.w	r3, r7, #5152	; 0x1420
    c79a:	f103 031c 	add.w	r3, r3, #28
    c79e:	681b      	ldr	r3, [r3, #0]
    c7a0:	f5b3 7f90 	cmp.w	r3, #288	; 0x120
    c7a4:	d3d9      	bcc.n	c75a <main+0x4e>
//
// rfft only calculate one side
//
    arm_rfft_fast_instance_f32 S_arm_fft;

    stft_init_f32(&Sf, &S_arm_fft, AUDIO_PREPROCESS_FFT_SIZE, AUDIO_HOP_SIZE, AUDIO_ROLLING_FRAMES, g_f32HanningWindow);
    c7a6:	4639      	mov	r1, r7
    c7a8:	f107 0020 	add.w	r0, r7, #32
    c7ac:	3808      	subs	r0, #8
    c7ae:	4b61      	ldr	r3, [pc, #388]	; (c934 <main+0x228>)
    c7b0:	9301      	str	r3, [sp, #4]
    c7b2:	2303      	movs	r3, #3
    c7b4:	9300      	str	r3, [sp, #0]
    c7b6:	2350      	movs	r3, #80	; 0x50
    c7b8:	2280      	movs	r2, #128	; 0x80
    c7ba:	f001 fbcd 	bl	df58 <stft_init_f32>

    for(indx=0; indx<AUDIO_ROLLING_FRAMES; indx++)
    c7be:	2300      	movs	r3, #0
    c7c0:	f507 52a1 	add.w	r2, r7, #5152	; 0x1420
    c7c4:	f102 021c 	add.w	r2, r2, #28
    c7c8:	6013      	str	r3, [r2, #0]
    c7ca:	e045      	b.n	c858 <main+0x14c>
    {
        stft_window_apply_f32(&g_pin16PCMDataBuffer[indx*AUDIO_HOP_SIZE], &g_pfWindowedPcmDataBuff[indx*AUDIO_PREPROCESS_FFT_SIZE], &Sf);
    c7cc:	f507 53a1 	add.w	r3, r7, #5152	; 0x1420
    c7d0:	f103 031c 	add.w	r3, r3, #28
    c7d4:	681a      	ldr	r2, [r3, #0]
    c7d6:	4613      	mov	r3, r2
    c7d8:	009b      	lsls	r3, r3, #2
    c7da:	4413      	add	r3, r2
    c7dc:	011b      	lsls	r3, r3, #4
    c7de:	f507 528f 	add.w	r2, r7, #4576	; 0x11e0
    c7e2:	f102 0214 	add.w	r2, r2, #20
    c7e6:	005b      	lsls	r3, r3, #1
    c7e8:	18d0      	adds	r0, r2, r3
    c7ea:	f507 53a1 	add.w	r3, r7, #5152	; 0x1420
    c7ee:	f103 031c 	add.w	r3, r3, #28
    c7f2:	681b      	ldr	r3, [r3, #0]
    c7f4:	01db      	lsls	r3, r3, #7
    c7f6:	f607 32f4 	addw	r2, r7, #3060	; 0xbf4
    c7fa:	009b      	lsls	r3, r3, #2
    c7fc:	18d1      	adds	r1, r2, r3
    c7fe:	f107 0320 	add.w	r3, r7, #32
    c802:	3b08      	subs	r3, #8
    c804:	461a      	mov	r2, r3
    c806:	f001 fbd2 	bl	dfae <stft_window_apply_f32>
        stft_f32(&Sf, &g_pfWindowedPcmDataBuff[indx*AUDIO_PREPROCESS_FFT_SIZE], &g_fFftOutBuff[indx*(AUDIO_PREPROCESS_FFT_SIZE/2+1)]);
    c80a:	f507 53a1 	add.w	r3, r7, #5152	; 0x1420
    c80e:	f103 031c 	add.w	r3, r3, #28
    c812:	681b      	ldr	r3, [r3, #0]
    c814:	01db      	lsls	r3, r3, #7
    c816:	f607 32f4 	addw	r2, r7, #3060	; 0xbf4
    c81a:	009b      	lsls	r3, r3, #2
    c81c:	18d1      	adds	r1, r2, r3
    c81e:	f507 53a1 	add.w	r3, r7, #5152	; 0x1420
    c822:	f103 031c 	add.w	r3, r3, #28
    c826:	681a      	ldr	r2, [r3, #0]
    c828:	4613      	mov	r3, r2
    c82a:	019b      	lsls	r3, r3, #6
    c82c:	4413      	add	r3, r2
    c82e:	f607 02e8 	addw	r2, r7, #2280	; 0x8e8
    c832:	009b      	lsls	r3, r3, #2
    c834:	441a      	add	r2, r3
    c836:	f107 0320 	add.w	r3, r7, #32
    c83a:	3b08      	subs	r3, #8
    c83c:	4618      	mov	r0, r3
    c83e:	f001 fbe8 	bl	e012 <stft_f32>
    for(indx=0; indx<AUDIO_ROLLING_FRAMES; indx++)
    c842:	f507 53a1 	add.w	r3, r7, #5152	; 0x1420
    c846:	f103 031c 	add.w	r3, r3, #28
    c84a:	681b      	ldr	r3, [r3, #0]
    c84c:	3301      	adds	r3, #1
    c84e:	f507 52a1 	add.w	r2, r7, #5152	; 0x1420
    c852:	f102 021c 	add.w	r2, r2, #28
    c856:	6013      	str	r3, [r2, #0]
    c858:	f507 53a1 	add.w	r3, r7, #5152	; 0x1420
    c85c:	f103 031c 	add.w	r3, r3, #28
    c860:	681b      	ldr	r3, [r3, #0]
    c862:	2b02      	cmp	r3, #2
    c864:	d9b2      	bls.n	c7cc <main+0xc0>
//            DebugLogFloat(Sf.pfStftBuffer[indx]);
//            DebugLog(", ");
//        }
//        DebugLog("The End...\n\r");
//    }
   istft_f32(&Sf, AUDIO_ROLLING_FRAMES, g_fFftOutBuff, g_pin16SynPCMOutput); 
    c866:	f107 0340 	add.w	r3, r7, #64	; 0x40
    c86a:	3b18      	subs	r3, #24
    c86c:	f607 02e8 	addw	r2, r7, #2280	; 0x8e8
    c870:	f107 0020 	add.w	r0, r7, #32
    c874:	3808      	subs	r0, #8
    c876:	2103      	movs	r1, #3
    c878:	f001 fbdc 	bl	e034 <istft_f32>
    if(PRINT_ISTFT_DATA)
    {
        DebugLog("ISTFT result of 1 local frame:\r\n");
    c87c:	482e      	ldr	r0, [pc, #184]	; (c938 <main+0x22c>)
    c87e:	f001 f95f 	bl	db40 <DebugLog>
        for(indx =0; indx<AUDIO_BUFF_LENGTH; indx++)
    c882:	2300      	movs	r3, #0
    c884:	f507 52a1 	add.w	r2, r7, #5152	; 0x1420
    c888:	f102 021c 	add.w	r2, r2, #28
    c88c:	6013      	str	r3, [r2, #0]
    c88e:	e02b      	b.n	c8e8 <main+0x1dc>
        {
            if((indx%4)==0)
    c890:	f507 53a1 	add.w	r3, r7, #5152	; 0x1420
    c894:	f103 031c 	add.w	r3, r3, #28
    c898:	681b      	ldr	r3, [r3, #0]
    c89a:	f003 0303 	and.w	r3, r3, #3
    c89e:	2b00      	cmp	r3, #0
    c8a0:	d102      	bne.n	c8a8 <main+0x19c>
                DebugLog("\n\r");
    c8a2:	4826      	ldr	r0, [pc, #152]	; (c93c <main+0x230>)
    c8a4:	f001 f94c 	bl	db40 <DebugLog>
            DebugLogFloat(g_pin16SynPCMOutput[indx]);
    c8a8:	f107 0340 	add.w	r3, r7, #64	; 0x40
    c8ac:	3b18      	subs	r3, #24
    c8ae:	f507 52a1 	add.w	r2, r7, #5152	; 0x1420
    c8b2:	f102 021c 	add.w	r2, r2, #28
    c8b6:	6812      	ldr	r2, [r2, #0]
    c8b8:	f933 3012 	ldrsh.w	r3, [r3, r2, lsl #1]
    c8bc:	ee07 3a90 	vmov	s15, r3
    c8c0:	eef8 7ae7 	vcvt.f32.s32	s15, s15
    c8c4:	eeb0 0a67 	vmov.f32	s0, s15
    c8c8:	f001 f948 	bl	db5c <DebugLogFloat>
            DebugLog(", ");
    c8cc:	481c      	ldr	r0, [pc, #112]	; (c940 <main+0x234>)
    c8ce:	f001 f937 	bl	db40 <DebugLog>
        for(indx =0; indx<AUDIO_BUFF_LENGTH; indx++)
    c8d2:	f507 53a1 	add.w	r3, r7, #5152	; 0x1420
    c8d6:	f103 031c 	add.w	r3, r3, #28
    c8da:	681b      	ldr	r3, [r3, #0]
    c8dc:	3301      	adds	r3, #1
    c8de:	f507 52a1 	add.w	r2, r7, #5152	; 0x1420
    c8e2:	f102 021c 	add.w	r2, r2, #28
    c8e6:	6013      	str	r3, [r2, #0]
    c8e8:	f507 53a1 	add.w	r3, r7, #5152	; 0x1420
    c8ec:	f103 031c 	add.w	r3, r3, #28
    c8f0:	681b      	ldr	r3, [r3, #0]
    c8f2:	f5b3 7f90 	cmp.w	r3, #288	; 0x120
    c8f6:	d3cb      	bcc.n	c890 <main+0x184>
        }
        DebugLog("The End...\n\r");
    c8f8:	4812      	ldr	r0, [pc, #72]	; (c944 <main+0x238>)
    c8fa:	f001 f921 	bl	db40 <DebugLog>
#endif // AM_AEP_DIGITAL_FILTER_TEST

    while (1)
    {
        /* breathing LED */
        if (g_ui32TimerCount >=1000)
    c8fe:	4b12      	ldr	r3, [pc, #72]	; (c948 <main+0x23c>)
    c900:	681b      	ldr	r3, [r3, #0]
    c902:	f5b3 7f7a 	cmp.w	r3, #1000	; 0x3e8
    c906:	d306      	bcc.n	c916 <main+0x20a>
        {
            g_ui32TimerCount = 0;
    c908:	4b0f      	ldr	r3, [pc, #60]	; (c948 <main+0x23c>)
    c90a:	2200      	movs	r2, #0
    c90c:	601a      	str	r2, [r3, #0]
            am_devices_led_toggle(am_bsp_psLEDs, 0);
    c90e:	2100      	movs	r1, #0
    c910:	480e      	ldr	r0, [pc, #56]	; (c94c <main+0x240>)
    c912:	f001 f86e 	bl	d9f2 <am_devices_led_toggle>
#endif // AM_AEP_MIKRO_THD_CALC
//
// Board key interface for debug using
//

        if(g_sysKeyValue == AM_APP_KEY_0)
    c916:	4b0e      	ldr	r3, [pc, #56]	; (c950 <main+0x244>)
    c918:	781b      	ldrb	r3, [r3, #0]
    c91a:	b2db      	uxtb	r3, r3
    c91c:	2b01      	cmp	r3, #1
    c91e:	d1ee      	bne.n	c8fe <main+0x1f2>
        {
            g_sysKeyValue = AM_APP_KEY_NONE;
    c920:	4b0b      	ldr	r3, [pc, #44]	; (c950 <main+0x244>)
    c922:	2200      	movs	r2, #0
    c924:	701a      	strb	r2, [r3, #0]
        if (g_ui32TimerCount >=1000)
    c926:	e7ea      	b.n	c8fe <main+0x1f2>
    c928:	00010f58 	.word	0x00010f58
    c92c:	00010f70 	.word	0x00010f70
    c930:	000110d0 	.word	0x000110d0
    c934:	000118d0 	.word	0x000118d0
    c938:	00010f94 	.word	0x00010f94
    c93c:	00010fb8 	.word	0x00010fb8
    c940:	00010fbc 	.word	0x00010fbc
    c944:	00010fc0 	.word	0x00010fc0
    c948:	1000c154 	.word	0x1000c154
    c94c:	1000c00c 	.word	0x1000c00c
    c950:	1000c160 	.word	0x1000c160

0000c954 <HardFault_Handler>:
HardFault_Handler(void)
#else // AM_CMSIS_REGS
am_fault_isr(void)
#endif // AM_CMSIS_REGS
{
    __asm("    push    {r0,lr}");       // Always pushes to MSP stack
    c954:	b501      	push	{r0, lr}
    __asm("    tst     lr, #4");        // Check if we should use MSP or PSP
    c956:	f01e 0f04 	tst.w	lr, #4
    __asm("    itet    eq");            // Instrs executed when: eq,ne,eq
    c95a:	bf0a      	itet	eq
    __asm("    mrseq   r0, msp");       //    bit2=0 indicating MSP stack
    c95c:	f3ef 8008 	mrseq	r0, MSP
    __asm("    mrsne   r0, psp");       // e: bit2=1 indicating PSP stack
    c960:	f3ef 8009 	mrsne	r0, PSP
    __asm("    addseq  r0, r0, #8");    // t: bit2=0, adjust for pushes to MSP stack
    c964:	f110 0008 	addseq.w	r0, r0, #8
    __asm("    bl      am_util_faultisr_collect_data");
    c968:	f000 f80a 	bl	c980 <am_util_faultisr_collect_data>
    __asm("    pop     {r0,pc}");       // Restore from MSP stack
    c96c:	bd01      	pop	{r0, pc}
}
    c96e:	bf00      	nop
    c970:	4618      	mov	r0, r3

0000c972 <getStackedReg>:

uint32_t __attribute__((naked))
getStackedReg(uint32_t regnum, uint32_t u32SP)
{
    __asm("    lsls    r0, r0, #2");
    c972:	0080      	lsls	r0, r0, #2
    __asm("    adds    r0, r1");
    c974:	1840      	adds	r0, r0, r1
    __asm("    ldr     r0, [r0]");
    c976:	6800      	ldr	r0, [r0, #0]
    __asm("    bx      lr");
    c978:	4770      	bx	lr
}
    c97a:	bf00      	nop
    c97c:	4618      	mov	r0, r3
	...

0000c980 <am_util_faultisr_collect_data>:
// HardFault_Handler() was called.
//
//*****************************************************************************
void
am_util_faultisr_collect_data(uint32_t u32IsrSP)
{
    c980:	b580      	push	{r7, lr}
    c982:	b096      	sub	sp, #88	; 0x58
    c984:	af00      	add	r7, sp, #0
    c986:	6078      	str	r0, [r7, #4]
    volatile am_fault_t sFaultData;
    am_hal_mcuctrl_fault_t sHalFaultData = {0};
    c988:	f107 030c 	add.w	r3, r7, #12
    c98c:	2200      	movs	r2, #0
    c98e:	601a      	str	r2, [r3, #0]
    c990:	605a      	str	r2, [r3, #4]
    c992:	609a      	str	r2, [r3, #8]
    c994:	60da      	str	r2, [r3, #12]
    c996:	611a      	str	r2, [r3, #16]
    c998:	615a      	str	r2, [r3, #20]

    uint32_t u32Mask = 0;
    c99a:	2300      	movs	r3, #0
    c99c:	657b      	str	r3, [r7, #84]	; 0x54
    // u32Mask is used for 2 things: 1) in the print loop, 2) as a spot to set
    // a breakpoint at the end of the routine.  If the printing is not used,
    // we'll get a compiler warning; so to avoid that warning, we'll use it
    // in a dummy assignment here.
    //
    sFaultData.u32CFSR = u32Mask;       // Avoid compiler warning
    c99e:	6d7b      	ldr	r3, [r7, #84]	; 0x54
    c9a0:	64fb      	str	r3, [r7, #76]	; 0x4c
    sFaultData.u32CFSR = AM_REGVAL(AM_REG_SYSCTRL_CFSR_O);
    c9a2:	4b2e      	ldr	r3, [pc, #184]	; (ca5c <am_util_faultisr_collect_data+0xdc>)
    c9a4:	681b      	ldr	r3, [r3, #0]
    c9a6:	64fb      	str	r3, [r7, #76]	; 0x4c
    sFaultData.u8MMSR  = (sFaultData.u32CFSR >> 0)  & 0xff;
    c9a8:	6cfb      	ldr	r3, [r7, #76]	; 0x4c
    c9aa:	b2db      	uxtb	r3, r3
    c9ac:	f887 3050 	strb.w	r3, [r7, #80]	; 0x50
    sFaultData.u8BFSR  = (sFaultData.u32CFSR >> 8)  & 0xff;
    c9b0:	6cfb      	ldr	r3, [r7, #76]	; 0x4c
    c9b2:	0a1b      	lsrs	r3, r3, #8
    c9b4:	b2db      	uxtb	r3, r3
    c9b6:	f887 3051 	strb.w	r3, [r7, #81]	; 0x51
    sFaultData.u16UFSR = (sFaultData.u32CFSR >> 16) & 0xffff;
    c9ba:	6cfb      	ldr	r3, [r7, #76]	; 0x4c
    c9bc:	0c1b      	lsrs	r3, r3, #16
    c9be:	b29b      	uxth	r3, r3
    c9c0:	f8a7 3052 	strh.w	r3, [r7, #82]	; 0x52

    //
    // The address of the location that caused the fault.  e.g. if accessing an
    // invalid data location caused the fault, that address will appear here.
    //
    sFaultData.u32BFAR = AM_REGVAL(AM_REG_SYSCTRL_BFAR_O);
    c9c4:	4b26      	ldr	r3, [pc, #152]	; (ca60 <am_util_faultisr_collect_data+0xe0>)
    c9c6:	681b      	ldr	r3, [r3, #0]
    c9c8:	64bb      	str	r3, [r7, #72]	; 0x48

    //
    // The address of the instruction that caused the fault is the stacked PC
    // if BFSR bit1 is set.
    //
    sFaultData.u32FaultAddr = (sFaultData.u8BFSR & 0x02) ? getStackedReg(6, u32IsrSP) : 0xffffffff;
    c9ca:	f897 3051 	ldrb.w	r3, [r7, #81]	; 0x51
    c9ce:	b2db      	uxtb	r3, r3
    c9d0:	f003 0302 	and.w	r3, r3, #2
    c9d4:	2b00      	cmp	r3, #0
    c9d6:	d005      	beq.n	c9e4 <am_util_faultisr_collect_data+0x64>
    c9d8:	6879      	ldr	r1, [r7, #4]
    c9da:	2006      	movs	r0, #6
    c9dc:	f7ff ffc9 	bl	c972 <getStackedReg>
    c9e0:	4603      	mov	r3, r0
    c9e2:	e001      	b.n	c9e8 <am_util_faultisr_collect_data+0x68>
    c9e4:	f04f 33ff 	mov.w	r3, #4294967295	; 0xffffffff
    c9e8:	647b      	str	r3, [r7, #68]	; 0x44

    //
    // Get the stacked registers.
    // Note - the address of the instruction that caused the fault is u32PC.
    //
    sFaultData.u32R0  = getStackedReg(0, u32IsrSP);
    c9ea:	6879      	ldr	r1, [r7, #4]
    c9ec:	2000      	movs	r0, #0
    c9ee:	f7ff ffc0 	bl	c972 <getStackedReg>
    c9f2:	4603      	mov	r3, r0
    c9f4:	627b      	str	r3, [r7, #36]	; 0x24
    sFaultData.u32R1  = getStackedReg(1, u32IsrSP);
    c9f6:	6879      	ldr	r1, [r7, #4]
    c9f8:	2001      	movs	r0, #1
    c9fa:	f7ff ffba 	bl	c972 <getStackedReg>
    c9fe:	4603      	mov	r3, r0
    ca00:	62bb      	str	r3, [r7, #40]	; 0x28
    sFaultData.u32R2  = getStackedReg(2, u32IsrSP);
    ca02:	6879      	ldr	r1, [r7, #4]
    ca04:	2002      	movs	r0, #2
    ca06:	f7ff ffb4 	bl	c972 <getStackedReg>
    ca0a:	4603      	mov	r3, r0
    ca0c:	62fb      	str	r3, [r7, #44]	; 0x2c
    sFaultData.u32R3  = getStackedReg(3, u32IsrSP);
    ca0e:	6879      	ldr	r1, [r7, #4]
    ca10:	2003      	movs	r0, #3
    ca12:	f7ff ffae 	bl	c972 <getStackedReg>
    ca16:	4603      	mov	r3, r0
    ca18:	633b      	str	r3, [r7, #48]	; 0x30
    sFaultData.u32R12 = getStackedReg(4, u32IsrSP);
    ca1a:	6879      	ldr	r1, [r7, #4]
    ca1c:	2004      	movs	r0, #4
    ca1e:	f7ff ffa8 	bl	c972 <getStackedReg>
    ca22:	4603      	mov	r3, r0
    ca24:	637b      	str	r3, [r7, #52]	; 0x34
    sFaultData.u32LR  = getStackedReg(5, u32IsrSP);
    ca26:	6879      	ldr	r1, [r7, #4]
    ca28:	2005      	movs	r0, #5
    ca2a:	f7ff ffa2 	bl	c972 <getStackedReg>
    ca2e:	4603      	mov	r3, r0
    ca30:	63bb      	str	r3, [r7, #56]	; 0x38
    sFaultData.u32PC  = getStackedReg(6, u32IsrSP);
    ca32:	6879      	ldr	r1, [r7, #4]
    ca34:	2006      	movs	r0, #6
    ca36:	f7ff ff9c 	bl	c972 <getStackedReg>
    ca3a:	4603      	mov	r3, r0
    ca3c:	63fb      	str	r3, [r7, #60]	; 0x3c
    sFaultData.u32PSR = getStackedReg(7, u32IsrSP);
    ca3e:	6879      	ldr	r1, [r7, #4]
    ca40:	2007      	movs	r0, #7
    ca42:	f7ff ff96 	bl	c972 <getStackedReg>
    ca46:	4603      	mov	r3, r0
    ca48:	643b      	str	r3, [r7, #64]	; 0x40

    //
    // Use the HAL MCUCTRL functions to read the fault data.
    //
#if AM_APOLLO3_MCUCTRL
    am_hal_mcuctrl_info_get(AM_HAL_MCUCTRL_INFO_FAULT_STATUS, &sHalFaultData);
    ca4a:	f107 030c 	add.w	r3, r7, #12
    ca4e:	4619      	mov	r1, r3
    ca50:	2002      	movs	r0, #2
    ca52:	f002 fadf 	bl	f014 <am_hal_mcuctrl_info_get>
    }


#endif

    u32Mask = 0;
    ca56:	2300      	movs	r3, #0
    ca58:	657b      	str	r3, [r7, #84]	; 0x54
    //
    // Spin in an infinite loop.
    // We need to spin here inside the function so that we have access to
    // local data, i.e. sFaultData.
    //
    while(1)
    ca5a:	e7fe      	b.n	ca5a <am_util_faultisr_collect_data+0xda>
    ca5c:	e000ed28 	.word	0xe000ed28
    ca60:	e000ed38 	.word	0xe000ed38

0000ca64 <am_util_stdio_printf_init>:
//! @return None.
//
//*****************************************************************************
void
am_util_stdio_printf_init(am_util_stdio_print_char_t pfnCharPrint)
{
    ca64:	b480      	push	{r7}
    ca66:	b083      	sub	sp, #12
    ca68:	af00      	add	r7, sp, #0
    ca6a:	6078      	str	r0, [r7, #4]
    g_pfnCharPrint = pfnCharPrint;
    ca6c:	4a04      	ldr	r2, [pc, #16]	; (ca80 <am_util_stdio_printf_init+0x1c>)
    ca6e:	687b      	ldr	r3, [r7, #4]
    ca70:	6013      	str	r3, [r2, #0]
}
    ca72:	bf00      	nop
    ca74:	370c      	adds	r7, #12
    ca76:	46bd      	mov	sp, r7
    ca78:	f85d 7b04 	ldr.w	r7, [sp], #4
    ca7c:	4770      	bx	lr
    ca7e:	bf00      	nop
    ca80:	1000c174 	.word	0x1000c174

0000ca84 <divu64_10>:
//  Note: Adapted from Ch10 of Hackers Delight (hackersdelight.org).
//
//*****************************************************************************
static uint64_t
divu64_10(uint64_t ui64Val)
{
    ca84:	e92d 08f0 	stmdb	sp!, {r4, r5, r6, r7, fp}
    ca88:	b08b      	sub	sp, #44	; 0x2c
    ca8a:	af00      	add	r7, sp, #0
    ca8c:	e9c7 0100 	strd	r0, r1, [r7]
    uint32_t q32, r32, ui32Val;

    //
    // If a 32-bit value, use the more optimal 32-bit routine.
    //
    if ( ui64Val >> 32 )
    ca90:	e9d7 1200 	ldrd	r1, r2, [r7]
    ca94:	f04f 0300 	mov.w	r3, #0
    ca98:	f04f 0400 	mov.w	r4, #0
    ca9c:	0013      	movs	r3, r2
    ca9e:	2400      	movs	r4, #0
    caa0:	4323      	orrs	r3, r4
    caa2:	f000 809d 	beq.w	cbe0 <divu64_10+0x15c>
    {
        q64 = (ui64Val>>1) + (ui64Val>>2);
    caa6:	e9d7 3400 	ldrd	r3, r4, [r7]
    caaa:	0866      	lsrs	r6, r4, #1
    caac:	ea4f 0533 	mov.w	r5, r3, rrx
    cab0:	e9d7 1200 	ldrd	r1, r2, [r7]
    cab4:	f04f 0b00 	mov.w	fp, #0
    cab8:	f04f 0c00 	mov.w	ip, #0
    cabc:	ea4f 0b91 	mov.w	fp, r1, lsr #2
    cac0:	ea4b 7b82 	orr.w	fp, fp, r2, lsl #30
    cac4:	ea4f 0c92 	mov.w	ip, r2, lsr #2
    cac8:	eb1b 0305 	adds.w	r3, fp, r5
    cacc:	eb4c 0406 	adc.w	r4, ip, r6
    cad0:	e9c7 3404 	strd	r3, r4, [r7, #16]
        q64 += (q64 >> 4);
    cad4:	e9d7 1204 	ldrd	r1, r2, [r7, #16]
    cad8:	f04f 0500 	mov.w	r5, #0
    cadc:	f04f 0600 	mov.w	r6, #0
    cae0:	090d      	lsrs	r5, r1, #4
    cae2:	ea45 7502 	orr.w	r5, r5, r2, lsl #28
    cae6:	0916      	lsrs	r6, r2, #4
    cae8:	e9d7 1204 	ldrd	r1, r2, [r7, #16]
    caec:	186b      	adds	r3, r5, r1
    caee:	eb46 0402 	adc.w	r4, r6, r2
    caf2:	e9c7 3404 	strd	r3, r4, [r7, #16]
        q64 += (q64 >> 8);
    caf6:	e9d7 1204 	ldrd	r1, r2, [r7, #16]
    cafa:	f04f 0500 	mov.w	r5, #0
    cafe:	f04f 0600 	mov.w	r6, #0
    cb02:	0a0d      	lsrs	r5, r1, #8
    cb04:	ea45 6502 	orr.w	r5, r5, r2, lsl #24
    cb08:	0a16      	lsrs	r6, r2, #8
    cb0a:	e9d7 1204 	ldrd	r1, r2, [r7, #16]
    cb0e:	186b      	adds	r3, r5, r1
    cb10:	eb46 0402 	adc.w	r4, r6, r2
    cb14:	e9c7 3404 	strd	r3, r4, [r7, #16]
        q64 += (q64 >> 16);
    cb18:	e9d7 1204 	ldrd	r1, r2, [r7, #16]
    cb1c:	f04f 0500 	mov.w	r5, #0
    cb20:	f04f 0600 	mov.w	r6, #0
    cb24:	0c0d      	lsrs	r5, r1, #16
    cb26:	ea45 4502 	orr.w	r5, r5, r2, lsl #16
    cb2a:	0c16      	lsrs	r6, r2, #16
    cb2c:	e9d7 1204 	ldrd	r1, r2, [r7, #16]
    cb30:	186b      	adds	r3, r5, r1
    cb32:	eb46 0402 	adc.w	r4, r6, r2
    cb36:	e9c7 3404 	strd	r3, r4, [r7, #16]
        q64 += (q64 >> 32);
    cb3a:	e9d7 1204 	ldrd	r1, r2, [r7, #16]
    cb3e:	f04f 0500 	mov.w	r5, #0
    cb42:	f04f 0600 	mov.w	r6, #0
    cb46:	0015      	movs	r5, r2
    cb48:	2600      	movs	r6, #0
    cb4a:	e9d7 1204 	ldrd	r1, r2, [r7, #16]
    cb4e:	186b      	adds	r3, r5, r1
    cb50:	eb46 0402 	adc.w	r4, r6, r2
    cb54:	e9c7 3404 	strd	r3, r4, [r7, #16]
        q64 >>= 3;
    cb58:	e9d7 1204 	ldrd	r1, r2, [r7, #16]
    cb5c:	f04f 0300 	mov.w	r3, #0
    cb60:	f04f 0400 	mov.w	r4, #0
    cb64:	08cb      	lsrs	r3, r1, #3
    cb66:	ea43 7342 	orr.w	r3, r3, r2, lsl #29
    cb6a:	08d4      	lsrs	r4, r2, #3
    cb6c:	e9c7 3404 	strd	r3, r4, [r7, #16]
        r64 = ui64Val - q64*10;
    cb70:	e9d7 5604 	ldrd	r5, r6, [r7, #16]
    cb74:	46ab      	mov	fp, r5
    cb76:	46b4      	mov	ip, r6
    cb78:	f04f 0100 	mov.w	r1, #0
    cb7c:	f04f 0200 	mov.w	r2, #0
    cb80:	ea4f 028c 	mov.w	r2, ip, lsl #2
    cb84:	ea42 729b 	orr.w	r2, r2, fp, lsr #30
    cb88:	ea4f 018b 	mov.w	r1, fp, lsl #2
    cb8c:	468b      	mov	fp, r1
    cb8e:	4694      	mov	ip, r2
    cb90:	eb1b 0b05 	adds.w	fp, fp, r5
    cb94:	eb4c 0c06 	adc.w	ip, ip, r6
    cb98:	eb1b 030b 	adds.w	r3, fp, fp
    cb9c:	eb4c 040c 	adc.w	r4, ip, ip
    cba0:	469b      	mov	fp, r3
    cba2:	46a4      	mov	ip, r4
    cba4:	4659      	mov	r1, fp
    cba6:	4662      	mov	r2, ip
    cba8:	e9d7 3400 	ldrd	r3, r4, [r7]
    cbac:	1a5b      	subs	r3, r3, r1
    cbae:	eb64 0402 	sbc.w	r4, r4, r2
    cbb2:	461d      	mov	r5, r3
    cbb4:	4626      	mov	r6, r4
    cbb6:	e9c7 5602 	strd	r5, r6, [r7, #8]
        return q64 + ((r64 + 6) >> 4);
    cbba:	e9d7 3402 	ldrd	r3, r4, [r7, #8]
    cbbe:	1d99      	adds	r1, r3, #6
    cbc0:	f144 0200 	adc.w	r2, r4, #0
    cbc4:	f04f 0500 	mov.w	r5, #0
    cbc8:	f04f 0600 	mov.w	r6, #0
    cbcc:	090d      	lsrs	r5, r1, #4
    cbce:	ea45 7502 	orr.w	r5, r5, r2, lsl #28
    cbd2:	0916      	lsrs	r6, r2, #4
    cbd4:	e9d7 1204 	ldrd	r1, r2, [r7, #16]
    cbd8:	186b      	adds	r3, r5, r1
    cbda:	eb46 0402 	adc.w	r4, r6, r2
    cbde:	e029      	b.n	cc34 <divu64_10+0x1b0>
    }
    else
    {
        ui32Val = (uint32_t)(ui64Val & 0xffffffff);
    cbe0:	683b      	ldr	r3, [r7, #0]
    cbe2:	627b      	str	r3, [r7, #36]	; 0x24
        q32 = (ui32Val>>1) + (ui32Val>>2);
    cbe4:	6a7b      	ldr	r3, [r7, #36]	; 0x24
    cbe6:	085a      	lsrs	r2, r3, #1
    cbe8:	6a7b      	ldr	r3, [r7, #36]	; 0x24
    cbea:	089b      	lsrs	r3, r3, #2
    cbec:	4413      	add	r3, r2
    cbee:	623b      	str	r3, [r7, #32]
        q32 += (q32 >> 4);
    cbf0:	6a3b      	ldr	r3, [r7, #32]
    cbf2:	091b      	lsrs	r3, r3, #4
    cbf4:	6a3a      	ldr	r2, [r7, #32]
    cbf6:	4413      	add	r3, r2
    cbf8:	623b      	str	r3, [r7, #32]
        q32 += (q32 >> 8);
    cbfa:	6a3b      	ldr	r3, [r7, #32]
    cbfc:	0a1b      	lsrs	r3, r3, #8
    cbfe:	6a3a      	ldr	r2, [r7, #32]
    cc00:	4413      	add	r3, r2
    cc02:	623b      	str	r3, [r7, #32]
        q32 += (q32 >> 16);
    cc04:	6a3b      	ldr	r3, [r7, #32]
    cc06:	0c1b      	lsrs	r3, r3, #16
    cc08:	6a3a      	ldr	r2, [r7, #32]
    cc0a:	4413      	add	r3, r2
    cc0c:	623b      	str	r3, [r7, #32]
        q32 >>= 3;
    cc0e:	6a3b      	ldr	r3, [r7, #32]
    cc10:	08db      	lsrs	r3, r3, #3
    cc12:	623b      	str	r3, [r7, #32]
        r32 = ui32Val - q32*10;
    cc14:	6a3a      	ldr	r2, [r7, #32]
    cc16:	4613      	mov	r3, r2
    cc18:	009b      	lsls	r3, r3, #2
    cc1a:	4413      	add	r3, r2
    cc1c:	005b      	lsls	r3, r3, #1
    cc1e:	461a      	mov	r2, r3
    cc20:	6a7b      	ldr	r3, [r7, #36]	; 0x24
    cc22:	1a9b      	subs	r3, r3, r2
    cc24:	61fb      	str	r3, [r7, #28]
        return (uint64_t)(q32 + ((r32 + 6) >> 4));
    cc26:	69fb      	ldr	r3, [r7, #28]
    cc28:	3306      	adds	r3, #6
    cc2a:	091a      	lsrs	r2, r3, #4
    cc2c:	6a3b      	ldr	r3, [r7, #32]
    cc2e:	4413      	add	r3, r2
    cc30:	f04f 0400 	mov.w	r4, #0
    }
}
    cc34:	4618      	mov	r0, r3
    cc36:	4621      	mov	r1, r4
    cc38:	372c      	adds	r7, #44	; 0x2c
    cc3a:	46bd      	mov	sp, r7
    cc3c:	e8bd 08f0 	ldmia.w	sp!, {r4, r5, r6, r7, fp}
    cc40:	4770      	bx	lr

0000cc42 <ndigits_in_u64>:
// example: 10000 return 5, 123 returns 3.
//
//*****************************************************************************
static int
ndigits_in_u64(uint64_t ui64Val)
{
    cc42:	b590      	push	{r4, r7, lr}
    cc44:	b085      	sub	sp, #20
    cc46:	af00      	add	r7, sp, #0
    cc48:	e9c7 0100 	strd	r0, r1, [r7]
    int iNDigits = ui64Val ? 0 : 1;
    cc4c:	683a      	ldr	r2, [r7, #0]
    cc4e:	687b      	ldr	r3, [r7, #4]
    cc50:	4313      	orrs	r3, r2
    cc52:	2b00      	cmp	r3, #0
    cc54:	bf0c      	ite	eq
    cc56:	2301      	moveq	r3, #1
    cc58:	2300      	movne	r3, #0
    cc5a:	b2db      	uxtb	r3, r3
    cc5c:	60fb      	str	r3, [r7, #12]

    while ( ui64Val )
    cc5e:	e008      	b.n	cc72 <ndigits_in_u64+0x30>
    {
        //
        // ui32Val /= 10;
        //
        ui64Val = divu64_10(ui64Val);
    cc60:	e9d7 0100 	ldrd	r0, r1, [r7]
    cc64:	f7ff ff0e 	bl	ca84 <divu64_10>
    cc68:	e9c7 0100 	strd	r0, r1, [r7]
        ++iNDigits;
    cc6c:	68fb      	ldr	r3, [r7, #12]
    cc6e:	3301      	adds	r3, #1
    cc70:	60fb      	str	r3, [r7, #12]
    while ( ui64Val )
    cc72:	e9d7 3400 	ldrd	r3, r4, [r7]
    cc76:	4323      	orrs	r3, r4
    cc78:	d1f2      	bne.n	cc60 <ndigits_in_u64+0x1e>
    }

    return iNDigits;
    cc7a:	68fb      	ldr	r3, [r7, #12]
}
    cc7c:	4618      	mov	r0, r3
    cc7e:	3714      	adds	r7, #20
    cc80:	46bd      	mov	sp, r7
    cc82:	bd90      	pop	{r4, r7, pc}

0000cc84 <ndigits_in_i64>:
// example: -3 returns 1, 3 returns 1, 15 returns 2, -15 returns 2, ...
//
//*****************************************************************************
static int
ndigits_in_i64(int64_t i64Val)
{
    cc84:	b590      	push	{r4, r7, lr}
    cc86:	b083      	sub	sp, #12
    cc88:	af00      	add	r7, sp, #0
    cc8a:	e9c7 0100 	strd	r0, r1, [r7]
    if ( i64Val < 0 )
    cc8e:	e9d7 3400 	ldrd	r3, r4, [r7]
    cc92:	2b00      	cmp	r3, #0
    cc94:	f174 0300 	sbcs.w	r3, r4, #0
    cc98:	da06      	bge.n	cca8 <ndigits_in_i64+0x24>
    {
        //
        // Get absolute value
        //
        i64Val = -i64Val;
    cc9a:	e9d7 3400 	ldrd	r3, r4, [r7]
    cc9e:	425b      	negs	r3, r3
    cca0:	eb64 0444 	sbc.w	r4, r4, r4, lsl #1
    cca4:	e9c7 3400 	strd	r3, r4, [r7]
    }

    return ndigits_in_u64((uint64_t) i64Val);
    cca8:	e9d7 3400 	ldrd	r3, r4, [r7]
    ccac:	4618      	mov	r0, r3
    ccae:	4621      	mov	r1, r4
    ccb0:	f7ff ffc7 	bl	cc42 <ndigits_in_u64>
    ccb4:	4603      	mov	r3, r0
}
    ccb6:	4618      	mov	r0, r3
    ccb8:	370c      	adds	r7, #12
    ccba:	46bd      	mov	sp, r7
    ccbc:	bd90      	pop	{r4, r7, pc}

0000ccbe <ndigits_in_hex>:
// Return the number of hex digits in an uint64_t.
//
//*****************************************************************************
static int
ndigits_in_hex(uint64_t ui64Val)
{
    ccbe:	b490      	push	{r4, r7}
    ccc0:	b084      	sub	sp, #16
    ccc2:	af00      	add	r7, sp, #0
    ccc4:	e9c7 0100 	strd	r0, r1, [r7]
    int iDigits = ui64Val ? 0 : 1;
    ccc8:	683a      	ldr	r2, [r7, #0]
    ccca:	687b      	ldr	r3, [r7, #4]
    cccc:	4313      	orrs	r3, r2
    ccce:	2b00      	cmp	r3, #0
    ccd0:	bf0c      	ite	eq
    ccd2:	2301      	moveq	r3, #1
    ccd4:	2300      	movne	r3, #0
    ccd6:	b2db      	uxtb	r3, r3
    ccd8:	60fb      	str	r3, [r7, #12]

    while ( ui64Val )
    ccda:	e00e      	b.n	ccfa <ndigits_in_hex+0x3c>
    {
        ui64Val >>= 4;
    ccdc:	e9d7 1200 	ldrd	r1, r2, [r7]
    cce0:	f04f 0300 	mov.w	r3, #0
    cce4:	f04f 0400 	mov.w	r4, #0
    cce8:	090b      	lsrs	r3, r1, #4
    ccea:	ea43 7302 	orr.w	r3, r3, r2, lsl #28
    ccee:	0914      	lsrs	r4, r2, #4
    ccf0:	e9c7 3400 	strd	r3, r4, [r7]
        ++iDigits;
    ccf4:	68fb      	ldr	r3, [r7, #12]
    ccf6:	3301      	adds	r3, #1
    ccf8:	60fb      	str	r3, [r7, #12]
    while ( ui64Val )
    ccfa:	e9d7 3400 	ldrd	r3, r4, [r7]
    ccfe:	4323      	orrs	r3, r4
    cd00:	d1ec      	bne.n	ccdc <ndigits_in_hex+0x1e>
    }

    return iDigits;
    cd02:	68fb      	ldr	r3, [r7, #12]
}
    cd04:	4618      	mov	r0, r3
    cd06:	3710      	adds	r7, #16
    cd08:	46bd      	mov	sp, r7
    cd0a:	bc90      	pop	{r4, r7}
    cd0c:	4770      	bx	lr

0000cd0e <decstr_to_int>:
// pui32CharCnt.
//
//*****************************************************************************
static uint32_t
decstr_to_int(const char *pcStr, uint32_t *pui32CharCnt)
{
    cd0e:	b480      	push	{r7}
    cd10:	b087      	sub	sp, #28
    cd12:	af00      	add	r7, sp, #0
    cd14:	6078      	str	r0, [r7, #4]
    cd16:	6039      	str	r1, [r7, #0]
    bool bNeg = false;
    cd18:	2300      	movs	r3, #0
    cd1a:	75fb      	strb	r3, [r7, #23]
    uint32_t ui32Val = 0, uCnt = 0;
    cd1c:	2300      	movs	r3, #0
    cd1e:	613b      	str	r3, [r7, #16]
    cd20:	2300      	movs	r3, #0
    cd22:	60fb      	str	r3, [r7, #12]

    if ( *pcStr == '-')
    cd24:	687b      	ldr	r3, [r7, #4]
    cd26:	781b      	ldrb	r3, [r3, #0]
    cd28:	2b2d      	cmp	r3, #45	; 0x2d
    cd2a:	d11b      	bne.n	cd64 <decstr_to_int+0x56>
    {
        bNeg = true;
    cd2c:	2301      	movs	r3, #1
    cd2e:	75fb      	strb	r3, [r7, #23]
        pcStr++;
    cd30:	687b      	ldr	r3, [r7, #4]
    cd32:	3301      	adds	r3, #1
    cd34:	607b      	str	r3, [r7, #4]
        uCnt++;
    cd36:	68fb      	ldr	r3, [r7, #12]
    cd38:	3301      	adds	r3, #1
    cd3a:	60fb      	str	r3, [r7, #12]
    }

    while ( *pcStr >= '0'  &&  *pcStr <= '9' )
    cd3c:	e012      	b.n	cd64 <decstr_to_int+0x56>
    {
        ++uCnt;
    cd3e:	68fb      	ldr	r3, [r7, #12]
    cd40:	3301      	adds	r3, #1
    cd42:	60fb      	str	r3, [r7, #12]

        //
        // Multiply accumulated value by 10.
        //
        ui32Val *= 10;
    cd44:	693a      	ldr	r2, [r7, #16]
    cd46:	4613      	mov	r3, r2
    cd48:	009b      	lsls	r3, r3, #2
    cd4a:	4413      	add	r3, r2
    cd4c:	005b      	lsls	r3, r3, #1
    cd4e:	613b      	str	r3, [r7, #16]

        //
        // Add in the new low digit.
        //
        ui32Val += (*pcStr - '0');
    cd50:	687b      	ldr	r3, [r7, #4]
    cd52:	781b      	ldrb	r3, [r3, #0]
    cd54:	461a      	mov	r2, r3
    cd56:	693b      	ldr	r3, [r7, #16]
    cd58:	4413      	add	r3, r2
    cd5a:	3b30      	subs	r3, #48	; 0x30
    cd5c:	613b      	str	r3, [r7, #16]
        pcStr++;
    cd5e:	687b      	ldr	r3, [r7, #4]
    cd60:	3301      	adds	r3, #1
    cd62:	607b      	str	r3, [r7, #4]
    while ( *pcStr >= '0'  &&  *pcStr <= '9' )
    cd64:	687b      	ldr	r3, [r7, #4]
    cd66:	781b      	ldrb	r3, [r3, #0]
    cd68:	2b2f      	cmp	r3, #47	; 0x2f
    cd6a:	d903      	bls.n	cd74 <decstr_to_int+0x66>
    cd6c:	687b      	ldr	r3, [r7, #4]
    cd6e:	781b      	ldrb	r3, [r3, #0]
    cd70:	2b39      	cmp	r3, #57	; 0x39
    cd72:	d9e4      	bls.n	cd3e <decstr_to_int+0x30>
    }

    if ( pui32CharCnt )
    cd74:	683b      	ldr	r3, [r7, #0]
    cd76:	2b00      	cmp	r3, #0
    cd78:	d002      	beq.n	cd80 <decstr_to_int+0x72>
    {
        *pui32CharCnt = uCnt;
    cd7a:	683b      	ldr	r3, [r7, #0]
    cd7c:	68fa      	ldr	r2, [r7, #12]
    cd7e:	601a      	str	r2, [r3, #0]
    }

    return bNeg ? -ui32Val : ui32Val;
    cd80:	7dfb      	ldrb	r3, [r7, #23]
    cd82:	2b00      	cmp	r3, #0
    cd84:	d002      	beq.n	cd8c <decstr_to_int+0x7e>
    cd86:	693b      	ldr	r3, [r7, #16]
    cd88:	425b      	negs	r3, r3
    cd8a:	e000      	b.n	cd8e <decstr_to_int+0x80>
    cd8c:	693b      	ldr	r3, [r7, #16]
}
    cd8e:	4618      	mov	r0, r3
    cd90:	371c      	adds	r7, #28
    cd92:	46bd      	mov	sp, r7
    cd94:	f85d 7b04 	ldr.w	r7, [sp], #4
    cd98:	4770      	bx	lr

0000cd9a <uint64_to_str>:
// written).
//
//*****************************************************************************
static int
uint64_to_str(uint64_t ui64Val, char *pcBuf)
{
    cd9a:	b590      	push	{r4, r7, lr}
    cd9c:	b091      	sub	sp, #68	; 0x44
    cd9e:	af00      	add	r7, sp, #0
    cda0:	e9c7 0102 	strd	r0, r1, [r7, #8]
    cda4:	607a      	str	r2, [r7, #4]
    char tbuf[25];
    int ix = 0, iNumDig = 0;
    cda6:	2300      	movs	r3, #0
    cda8:	63fb      	str	r3, [r7, #60]	; 0x3c
    cdaa:	2300      	movs	r3, #0
    cdac:	63bb      	str	r3, [r7, #56]	; 0x38
    do
    {
        //
        // Divide by 10
        //
        u64Tmp = divu64_10(ui64Val);
    cdae:	e9d7 0102 	ldrd	r0, r1, [r7, #8]
    cdb2:	f7ff fe67 	bl	ca84 <divu64_10>
    cdb6:	e9c7 010c 	strd	r0, r1, [r7, #48]	; 0x30

        //
        // Get modulus
        //
        uMod = ui64Val - (u64Tmp * 10);
    cdba:	68b9      	ldr	r1, [r7, #8]
    cdbc:	6b3a      	ldr	r2, [r7, #48]	; 0x30
    cdbe:	4613      	mov	r3, r2
    cdc0:	009b      	lsls	r3, r3, #2
    cdc2:	4413      	add	r3, r2
    cdc4:	005b      	lsls	r3, r3, #1
    cdc6:	1acb      	subs	r3, r1, r3
    cdc8:	62fb      	str	r3, [r7, #44]	; 0x2c

        tbuf[ix++] = uMod + '0';
    cdca:	6afb      	ldr	r3, [r7, #44]	; 0x2c
    cdcc:	b2da      	uxtb	r2, r3
    cdce:	6bfb      	ldr	r3, [r7, #60]	; 0x3c
    cdd0:	1c59      	adds	r1, r3, #1
    cdd2:	63f9      	str	r1, [r7, #60]	; 0x3c
    cdd4:	3230      	adds	r2, #48	; 0x30
    cdd6:	b2d2      	uxtb	r2, r2
    cdd8:	f107 0140 	add.w	r1, r7, #64	; 0x40
    cddc:	440b      	add	r3, r1
    cdde:	f803 2c30 	strb.w	r2, [r3, #-48]
        ui64Val = u64Tmp;
    cde2:	e9d7 340c 	ldrd	r3, r4, [r7, #48]	; 0x30
    cde6:	e9c7 3402 	strd	r3, r4, [r7, #8]
    } while ( ui64Val );
    cdea:	e9d7 3402 	ldrd	r3, r4, [r7, #8]
    cdee:	4323      	orrs	r3, r4
    cdf0:	d1dd      	bne.n	cdae <uint64_to_str+0x14>

    //
    // Save the total number of digits
    //
    iNumDig = ix;
    cdf2:	6bfb      	ldr	r3, [r7, #60]	; 0x3c
    cdf4:	63bb      	str	r3, [r7, #56]	; 0x38

    //
    // Now, reverse the buffer when saving to the caller's buffer.
    //
    if ( pcBuf )
    cdf6:	687b      	ldr	r3, [r7, #4]
    cdf8:	2b00      	cmp	r3, #0
    cdfa:	d011      	beq.n	ce20 <uint64_to_str+0x86>
    {
        while ( ix-- )
    cdfc:	e008      	b.n	ce10 <uint64_to_str+0x76>
        {
            *pcBuf++ = tbuf[ix];
    cdfe:	687b      	ldr	r3, [r7, #4]
    ce00:	1c5a      	adds	r2, r3, #1
    ce02:	607a      	str	r2, [r7, #4]
    ce04:	f107 0110 	add.w	r1, r7, #16
    ce08:	6bfa      	ldr	r2, [r7, #60]	; 0x3c
    ce0a:	440a      	add	r2, r1
    ce0c:	7812      	ldrb	r2, [r2, #0]
    ce0e:	701a      	strb	r2, [r3, #0]
        while ( ix-- )
    ce10:	6bfb      	ldr	r3, [r7, #60]	; 0x3c
    ce12:	1e5a      	subs	r2, r3, #1
    ce14:	63fa      	str	r2, [r7, #60]	; 0x3c
    ce16:	2b00      	cmp	r3, #0
    ce18:	d1f1      	bne.n	cdfe <uint64_to_str+0x64>
        }

        //
        // Terminate the caller's buffer
        //
        *pcBuf = 0x00;
    ce1a:	687b      	ldr	r3, [r7, #4]
    ce1c:	2200      	movs	r2, #0
    ce1e:	701a      	strb	r2, [r3, #0]
    }

    return iNumDig;
    ce20:	6bbb      	ldr	r3, [r7, #56]	; 0x38
}
    ce22:	4618      	mov	r0, r3
    ce24:	3744      	adds	r7, #68	; 0x44
    ce26:	46bd      	mov	sp, r7
    ce28:	bd90      	pop	{r4, r7, pc}

0000ce2a <uint64_to_hexstr>:
// written).
//
//*****************************************************************************
static int
uint64_to_hexstr(uint64_t ui64Val, char *pcBuf, bool bLower)
{
    ce2a:	b490      	push	{r4, r7}
    ce2c:	b08c      	sub	sp, #48	; 0x30
    ce2e:	af00      	add	r7, sp, #0
    ce30:	e9c7 0102 	strd	r0, r1, [r7, #8]
    ce34:	607a      	str	r2, [r7, #4]
    ce36:	70fb      	strb	r3, [r7, #3]
    int iNumDig, ix = 0;
    ce38:	2300      	movs	r3, #0
    ce3a:	62fb      	str	r3, [r7, #44]	; 0x2c
    char cCh, tbuf[20];

    if ( ui64Val == 0 )
    ce3c:	e9d7 3402 	ldrd	r3, r4, [r7, #8]
    ce40:	4323      	orrs	r3, r4
    ce42:	d135      	bne.n	ceb0 <uint64_to_hexstr+0x86>
    {
        tbuf[ix++] = '0';   // Print a '0'
    ce44:	6afb      	ldr	r3, [r7, #44]	; 0x2c
    ce46:	1c5a      	adds	r2, r3, #1
    ce48:	62fa      	str	r2, [r7, #44]	; 0x2c
    ce4a:	f107 0230 	add.w	r2, r7, #48	; 0x30
    ce4e:	4413      	add	r3, r2
    ce50:	2230      	movs	r2, #48	; 0x30
    ce52:	f803 2c20 	strb.w	r2, [r3, #-32]
    }

    while ( ui64Val )
    ce56:	e02b      	b.n	ceb0 <uint64_to_hexstr+0x86>
    {
        cCh = ui64Val & 0xf;
    ce58:	7a3b      	ldrb	r3, [r7, #8]
    ce5a:	f003 030f 	and.w	r3, r3, #15
    ce5e:	f887 302b 	strb.w	r3, [r7, #43]	; 0x2b

        //
        // Alpha character
        //
        if ( cCh > 9 )
    ce62:	f897 302b 	ldrb.w	r3, [r7, #43]	; 0x2b
    ce66:	2b09      	cmp	r3, #9
    ce68:	d90a      	bls.n	ce80 <uint64_to_hexstr+0x56>
        {
            cCh += bLower ? 0x27 : 0x7;
    ce6a:	78fb      	ldrb	r3, [r7, #3]
    ce6c:	2b00      	cmp	r3, #0
    ce6e:	d001      	beq.n	ce74 <uint64_to_hexstr+0x4a>
    ce70:	2227      	movs	r2, #39	; 0x27
    ce72:	e000      	b.n	ce76 <uint64_to_hexstr+0x4c>
    ce74:	2207      	movs	r2, #7
    ce76:	f897 302b 	ldrb.w	r3, [r7, #43]	; 0x2b
    ce7a:	4413      	add	r3, r2
    ce7c:	f887 302b 	strb.w	r3, [r7, #43]	; 0x2b
        }

        tbuf[ix++] = cCh + '0';
    ce80:	6afb      	ldr	r3, [r7, #44]	; 0x2c
    ce82:	1c5a      	adds	r2, r3, #1
    ce84:	62fa      	str	r2, [r7, #44]	; 0x2c
    ce86:	f897 202b 	ldrb.w	r2, [r7, #43]	; 0x2b
    ce8a:	3230      	adds	r2, #48	; 0x30
    ce8c:	b2d2      	uxtb	r2, r2
    ce8e:	f107 0130 	add.w	r1, r7, #48	; 0x30
    ce92:	440b      	add	r3, r1
    ce94:	f803 2c20 	strb.w	r2, [r3, #-32]
        ui64Val >>= 4;
    ce98:	e9d7 1202 	ldrd	r1, r2, [r7, #8]
    ce9c:	f04f 0300 	mov.w	r3, #0
    cea0:	f04f 0400 	mov.w	r4, #0
    cea4:	090b      	lsrs	r3, r1, #4
    cea6:	ea43 7302 	orr.w	r3, r3, r2, lsl #28
    ceaa:	0914      	lsrs	r4, r2, #4
    ceac:	e9c7 3402 	strd	r3, r4, [r7, #8]
    while ( ui64Val )
    ceb0:	e9d7 3402 	ldrd	r3, r4, [r7, #8]
    ceb4:	4323      	orrs	r3, r4
    ceb6:	d1cf      	bne.n	ce58 <uint64_to_hexstr+0x2e>
    }

    //
    // Save the total number of digits
    //
    iNumDig = ix;
    ceb8:	6afb      	ldr	r3, [r7, #44]	; 0x2c
    ceba:	627b      	str	r3, [r7, #36]	; 0x24

    //
    // Now, reverse the buffer when saving to the callers buffer.
    //
    if (pcBuf)
    cebc:	687b      	ldr	r3, [r7, #4]
    cebe:	2b00      	cmp	r3, #0
    cec0:	d011      	beq.n	cee6 <uint64_to_hexstr+0xbc>
    {
        while (ix--)
    cec2:	e008      	b.n	ced6 <uint64_to_hexstr+0xac>
        {
            *pcBuf++ = tbuf[ix];
    cec4:	687b      	ldr	r3, [r7, #4]
    cec6:	1c5a      	adds	r2, r3, #1
    cec8:	607a      	str	r2, [r7, #4]
    ceca:	f107 0110 	add.w	r1, r7, #16
    cece:	6afa      	ldr	r2, [r7, #44]	; 0x2c
    ced0:	440a      	add	r2, r1
    ced2:	7812      	ldrb	r2, [r2, #0]
    ced4:	701a      	strb	r2, [r3, #0]
        while (ix--)
    ced6:	6afb      	ldr	r3, [r7, #44]	; 0x2c
    ced8:	1e5a      	subs	r2, r3, #1
    ceda:	62fa      	str	r2, [r7, #44]	; 0x2c
    cedc:	2b00      	cmp	r3, #0
    cede:	d1f1      	bne.n	cec4 <uint64_to_hexstr+0x9a>
        }

        //
        // Terminate the caller's buffer
        //
        *pcBuf = 0;
    cee0:	687b      	ldr	r3, [r7, #4]
    cee2:	2200      	movs	r2, #0
    cee4:	701a      	strb	r2, [r3, #0]
    }

    return iNumDig;
    cee6:	6a7b      	ldr	r3, [r7, #36]	; 0x24
}
    cee8:	4618      	mov	r0, r3
    ceea:	3730      	adds	r7, #48	; 0x30
    ceec:	46bd      	mov	sp, r7
    ceee:	bc90      	pop	{r4, r7}
    cef0:	4770      	bx	lr

0000cef2 <simple_strlen>:
// Return length of the given string.
//
//*****************************************************************************
static uint32_t
simple_strlen(char *pcBuf)
{
    cef2:	b480      	push	{r7}
    cef4:	b085      	sub	sp, #20
    cef6:	af00      	add	r7, sp, #0
    cef8:	6078      	str	r0, [r7, #4]
    uint32_t ui32RetVal = 0;
    cefa:	2300      	movs	r3, #0
    cefc:	60fb      	str	r3, [r7, #12]
    if ( !pcBuf )
    cefe:	687b      	ldr	r3, [r7, #4]
    cf00:	2b00      	cmp	r3, #0
    cf02:	d104      	bne.n	cf0e <simple_strlen+0x1c>
    {
        return ui32RetVal;
    cf04:	68fb      	ldr	r3, [r7, #12]
    cf06:	e009      	b.n	cf1c <simple_strlen+0x2a>
    }

    while ( *pcBuf++ )
    {
        ui32RetVal++;
    cf08:	68fb      	ldr	r3, [r7, #12]
    cf0a:	3301      	adds	r3, #1
    cf0c:	60fb      	str	r3, [r7, #12]
    while ( *pcBuf++ )
    cf0e:	687b      	ldr	r3, [r7, #4]
    cf10:	1c5a      	adds	r2, r3, #1
    cf12:	607a      	str	r2, [r7, #4]
    cf14:	781b      	ldrb	r3, [r3, #0]
    cf16:	2b00      	cmp	r3, #0
    cf18:	d1f6      	bne.n	cf08 <simple_strlen+0x16>
    }
    return ui32RetVal;
    cf1a:	68fb      	ldr	r3, [r7, #12]
}
    cf1c:	4618      	mov	r0, r3
    cf1e:	3714      	adds	r7, #20
    cf20:	46bd      	mov	sp, r7
    cf22:	f85d 7b04 	ldr.w	r7, [sp], #4
    cf26:	4770      	bx	lr

0000cf28 <padbuffer>:
// Pad a string buffer with pad characters.
//
//*****************************************************************************
static int32_t
padbuffer(char *pcBuf, uint8_t cPadChar, int32_t i32NumChars)
{
    cf28:	b480      	push	{r7}
    cf2a:	b087      	sub	sp, #28
    cf2c:	af00      	add	r7, sp, #0
    cf2e:	60f8      	str	r0, [r7, #12]
    cf30:	460b      	mov	r3, r1
    cf32:	607a      	str	r2, [r7, #4]
    cf34:	72fb      	strb	r3, [r7, #11]
    int32_t i32Cnt = 0;
    cf36:	2300      	movs	r3, #0
    cf38:	617b      	str	r3, [r7, #20]

    if ( i32NumChars <= 0 )
    cf3a:	687b      	ldr	r3, [r7, #4]
    cf3c:	2b00      	cmp	r3, #0
    cf3e:	dc0c      	bgt.n	cf5a <padbuffer+0x32>
    {
        return i32Cnt;
    cf40:	697b      	ldr	r3, [r7, #20]
    cf42:	e010      	b.n	cf66 <padbuffer+0x3e>
    }

    while ( i32NumChars-- )
    {
        if ( pcBuf )
    cf44:	68fb      	ldr	r3, [r7, #12]
    cf46:	2b00      	cmp	r3, #0
    cf48:	d004      	beq.n	cf54 <padbuffer+0x2c>
        {
            *pcBuf++ = cPadChar;
    cf4a:	68fb      	ldr	r3, [r7, #12]
    cf4c:	1c5a      	adds	r2, r3, #1
    cf4e:	60fa      	str	r2, [r7, #12]
    cf50:	7afa      	ldrb	r2, [r7, #11]
    cf52:	701a      	strb	r2, [r3, #0]
        }
        i32Cnt++;
    cf54:	697b      	ldr	r3, [r7, #20]
    cf56:	3301      	adds	r3, #1
    cf58:	617b      	str	r3, [r7, #20]
    while ( i32NumChars-- )
    cf5a:	687b      	ldr	r3, [r7, #4]
    cf5c:	1e5a      	subs	r2, r3, #1
    cf5e:	607a      	str	r2, [r7, #4]
    cf60:	2b00      	cmp	r3, #0
    cf62:	d1ef      	bne.n	cf44 <padbuffer+0x1c>
    }

    return i32Cnt;
    cf64:	697b      	ldr	r3, [r7, #20]
}
    cf66:	4618      	mov	r0, r3
    cf68:	371c      	adds	r7, #28
    cf6a:	46bd      	mov	sp, r7
    cf6c:	f85d 7b04 	ldr.w	r7, [sp], #4
    cf70:	4770      	bx	lr
	...

0000cf74 <ftoa>:
    int32_t I32;
    float F;
} i32fl_t;

static int ftoa(float fValue, char *pcBuf, int iPrecision)
{
    cf74:	b590      	push	{r4, r7, lr}
    cf76:	b08f      	sub	sp, #60	; 0x3c
    cf78:	af00      	add	r7, sp, #0
    cf7a:	ed87 0a03 	vstr	s0, [r7, #12]
    cf7e:	60b8      	str	r0, [r7, #8]
    cf80:	6079      	str	r1, [r7, #4]
    i32fl_t unFloatValue;
    int iExp2, iBufSize;
    int32_t i32Significand, i32IntPart, i32FracPart;
    char *pcBufInitial, *pcBuftmp;

    iBufSize = *(uint32_t*)pcBuf;
    cf82:	68bb      	ldr	r3, [r7, #8]
    cf84:	681b      	ldr	r3, [r3, #0]
    cf86:	627b      	str	r3, [r7, #36]	; 0x24
    if (iBufSize < 4)
    cf88:	6a7b      	ldr	r3, [r7, #36]	; 0x24
    cf8a:	2b03      	cmp	r3, #3
    cf8c:	dc02      	bgt.n	cf94 <ftoa+0x20>
    {
        return AM_FTOA_ERR_BUFSIZE;
    cf8e:	f06f 0302 	mvn.w	r3, #2
    cf92:	e0e7      	b.n	d164 <ftoa+0x1f0>
    }

    if (fValue == 0.0f)
    cf94:	edd7 7a03 	vldr	s15, [r7, #12]
    cf98:	eef5 7a40 	vcmp.f32	s15, #0.0
    cf9c:	eef1 fa10 	vmrs	APSR_nzcv, fpscr
    cfa0:	d104      	bne.n	cfac <ftoa+0x38>
    {
        // "0.0"
        *(uint32_t*)pcBuf = 0x00 << 24 | ('0' << 16) | ('.' << 8) | ('0' << 0);
    cfa2:	68bb      	ldr	r3, [r7, #8]
    cfa4:	4a71      	ldr	r2, [pc, #452]	; (d16c <ftoa+0x1f8>)
    cfa6:	601a      	str	r2, [r3, #0]
        return 3;
    cfa8:	2303      	movs	r3, #3
    cfaa:	e0db      	b.n	d164 <ftoa+0x1f0>
    }

    pcBufInitial = pcBuf;
    cfac:	68bb      	ldr	r3, [r7, #8]
    cfae:	623b      	str	r3, [r7, #32]

    unFloatValue.F = fValue;
    cfb0:	68fb      	ldr	r3, [r7, #12]
    cfb2:	613b      	str	r3, [r7, #16]

    iExp2 = ((unFloatValue.I32 >> 23) & 0x000000FF) - 127;
    cfb4:	693b      	ldr	r3, [r7, #16]
    cfb6:	15db      	asrs	r3, r3, #23
    cfb8:	b2db      	uxtb	r3, r3
    cfba:	3b7f      	subs	r3, #127	; 0x7f
    cfbc:	61fb      	str	r3, [r7, #28]
    i32Significand = (unFloatValue.I32 & 0x00FFFFFF) | 0x00800000;
    cfbe:	693b      	ldr	r3, [r7, #16]
    cfc0:	f3c3 0316 	ubfx	r3, r3, #0, #23
    cfc4:	f443 0300 	orr.w	r3, r3, #8388608	; 0x800000
    cfc8:	61bb      	str	r3, [r7, #24]
    i32FracPart = 0;
    cfca:	2300      	movs	r3, #0
    cfcc:	633b      	str	r3, [r7, #48]	; 0x30
    i32IntPart = 0;
    cfce:	2300      	movs	r3, #0
    cfd0:	637b      	str	r3, [r7, #52]	; 0x34

    if (iExp2 >= 31)
    cfd2:	69fb      	ldr	r3, [r7, #28]
    cfd4:	2b1e      	cmp	r3, #30
    cfd6:	dd02      	ble.n	cfde <ftoa+0x6a>
    {
        return AM_FTOA_ERR_VAL_TOO_LARGE;
    cfd8:	f06f 0301 	mvn.w	r3, #1
    cfdc:	e0c2      	b.n	d164 <ftoa+0x1f0>
    }
    else if (iExp2 < -23)
    cfde:	69fb      	ldr	r3, [r7, #28]
    cfe0:	f113 0f17 	cmn.w	r3, #23
    cfe4:	da02      	bge.n	cfec <ftoa+0x78>
    {
        return AM_FTOA_ERR_VAL_TOO_SMALL;
    cfe6:	f04f 33ff 	mov.w	r3, #4294967295	; 0xffffffff
    cfea:	e0bb      	b.n	d164 <ftoa+0x1f0>
    }
    else if (iExp2 >= 23)
    cfec:	69fb      	ldr	r3, [r7, #28]
    cfee:	2b16      	cmp	r3, #22
    cff0:	dd06      	ble.n	d000 <ftoa+0x8c>
    {
        i32IntPart = i32Significand << (iExp2 - 23);
    cff2:	69fb      	ldr	r3, [r7, #28]
    cff4:	3b17      	subs	r3, #23
    cff6:	69ba      	ldr	r2, [r7, #24]
    cff8:	fa02 f303 	lsl.w	r3, r2, r3
    cffc:	637b      	str	r3, [r7, #52]	; 0x34
    cffe:	e01a      	b.n	d036 <ftoa+0xc2>
    }
    else if (iExp2 >= 0)
    d000:	69fb      	ldr	r3, [r7, #28]
    d002:	2b00      	cmp	r3, #0
    d004:	db0f      	blt.n	d026 <ftoa+0xb2>
    {
        i32IntPart = i32Significand >> (23 - iExp2);
    d006:	69fb      	ldr	r3, [r7, #28]
    d008:	f1c3 0317 	rsb	r3, r3, #23
    d00c:	69ba      	ldr	r2, [r7, #24]
    d00e:	fa42 f303 	asr.w	r3, r2, r3
    d012:	637b      	str	r3, [r7, #52]	; 0x34
        i32FracPart = (i32Significand << (iExp2 + 1)) & 0x00FFFFFF;
    d014:	69fb      	ldr	r3, [r7, #28]
    d016:	3301      	adds	r3, #1
    d018:	69ba      	ldr	r2, [r7, #24]
    d01a:	fa02 f303 	lsl.w	r3, r2, r3
    d01e:	f023 437f 	bic.w	r3, r3, #4278190080	; 0xff000000
    d022:	633b      	str	r3, [r7, #48]	; 0x30
    d024:	e007      	b.n	d036 <ftoa+0xc2>
    }
    else // if (iExp2 < 0)
    {
        i32FracPart = (i32Significand & 0x00FFFFFF) >> -(iExp2 + 1);
    d026:	69bb      	ldr	r3, [r7, #24]
    d028:	f023 427f 	bic.w	r2, r3, #4278190080	; 0xff000000
    d02c:	69fb      	ldr	r3, [r7, #28]
    d02e:	43db      	mvns	r3, r3
    d030:	fa42 f303 	asr.w	r3, r2, r3
    d034:	633b      	str	r3, [r7, #48]	; 0x30
    }

    if (unFloatValue.I32 < 0)
    d036:	693b      	ldr	r3, [r7, #16]
    d038:	2b00      	cmp	r3, #0
    d03a:	da04      	bge.n	d046 <ftoa+0xd2>
    {
        *pcBuf++ = '-';
    d03c:	68bb      	ldr	r3, [r7, #8]
    d03e:	1c5a      	adds	r2, r3, #1
    d040:	60ba      	str	r2, [r7, #8]
    d042:	222d      	movs	r2, #45	; 0x2d
    d044:	701a      	strb	r2, [r3, #0]
    }

    if (i32IntPart == 0)
    d046:	6b7b      	ldr	r3, [r7, #52]	; 0x34
    d048:	2b00      	cmp	r3, #0
    d04a:	d105      	bne.n	d058 <ftoa+0xe4>
    {
        *pcBuf++ = '0';
    d04c:	68bb      	ldr	r3, [r7, #8]
    d04e:	1c5a      	adds	r2, r3, #1
    d050:	60ba      	str	r2, [r7, #8]
    d052:	2230      	movs	r2, #48	; 0x30
    d054:	701a      	strb	r2, [r3, #0]
    d056:	e021      	b.n	d09c <ftoa+0x128>
    }
    else
    {
        if (i32IntPart > 0)
    d058:	6b7b      	ldr	r3, [r7, #52]	; 0x34
    d05a:	2b00      	cmp	r3, #0
    d05c:	dd08      	ble.n	d070 <ftoa+0xfc>
        {
            uint64_to_str(i32IntPart, pcBuf);
    d05e:	6b7b      	ldr	r3, [r7, #52]	; 0x34
    d060:	ea4f 74e3 	mov.w	r4, r3, asr #31
    d064:	68ba      	ldr	r2, [r7, #8]
    d066:	4618      	mov	r0, r3
    d068:	4621      	mov	r1, r4
    d06a:	f7ff fe96 	bl	cd9a <uint64_to_str>
    d06e:	e011      	b.n	d094 <ftoa+0x120>
        }
        else
        {
            *pcBuf++ = '-';
    d070:	68bb      	ldr	r3, [r7, #8]
    d072:	1c5a      	adds	r2, r3, #1
    d074:	60ba      	str	r2, [r7, #8]
    d076:	222d      	movs	r2, #45	; 0x2d
    d078:	701a      	strb	r2, [r3, #0]
            uint64_to_str(-i32IntPart, pcBuf);
    d07a:	6b7b      	ldr	r3, [r7, #52]	; 0x34
    d07c:	425b      	negs	r3, r3
    d07e:	ea4f 74e3 	mov.w	r4, r3, asr #31
    d082:	68ba      	ldr	r2, [r7, #8]
    d084:	4618      	mov	r0, r3
    d086:	4621      	mov	r1, r4
    d088:	f7ff fe87 	bl	cd9a <uint64_to_str>
        }
        while (*pcBuf)    // Get to end of new string
    d08c:	e002      	b.n	d094 <ftoa+0x120>
        {
            pcBuf++;
    d08e:	68bb      	ldr	r3, [r7, #8]
    d090:	3301      	adds	r3, #1
    d092:	60bb      	str	r3, [r7, #8]
        while (*pcBuf)    // Get to end of new string
    d094:	68bb      	ldr	r3, [r7, #8]
    d096:	781b      	ldrb	r3, [r3, #0]
    d098:	2b00      	cmp	r3, #0
    d09a:	d1f8      	bne.n	d08e <ftoa+0x11a>
    }

    //
    // Now, begin the fractional part
    //
    *pcBuf++ = '.';
    d09c:	68bb      	ldr	r3, [r7, #8]
    d09e:	1c5a      	adds	r2, r3, #1
    d0a0:	60ba      	str	r2, [r7, #8]
    d0a2:	222e      	movs	r2, #46	; 0x2e
    d0a4:	701a      	strb	r2, [r3, #0]

    if (i32FracPart == 0)
    d0a6:	6b3b      	ldr	r3, [r7, #48]	; 0x30
    d0a8:	2b00      	cmp	r3, #0
    d0aa:	d105      	bne.n	d0b8 <ftoa+0x144>
    {
        *pcBuf++ = '0';
    d0ac:	68bb      	ldr	r3, [r7, #8]
    d0ae:	1c5a      	adds	r2, r3, #1
    d0b0:	60ba      	str	r2, [r7, #8]
    d0b2:	2230      	movs	r2, #48	; 0x30
    d0b4:	701a      	strb	r2, [r3, #0]
    d0b6:	e04f      	b.n	d158 <ftoa+0x1e4>
    }
    else
    {
        int jx, iMax;

        iMax = iBufSize - (pcBuf - pcBufInitial) - 1;
    d0b8:	68ba      	ldr	r2, [r7, #8]
    d0ba:	6a3b      	ldr	r3, [r7, #32]
    d0bc:	1ad3      	subs	r3, r2, r3
    d0be:	6a7a      	ldr	r2, [r7, #36]	; 0x24
    d0c0:	1ad3      	subs	r3, r2, r3
    d0c2:	3b01      	subs	r3, #1
    d0c4:	617b      	str	r3, [r7, #20]
        iMax = (iMax > iPrecision) ? iPrecision : iMax;
    d0c6:	697a      	ldr	r2, [r7, #20]
    d0c8:	687b      	ldr	r3, [r7, #4]
    d0ca:	4293      	cmp	r3, r2
    d0cc:	bfa8      	it	ge
    d0ce:	4613      	movge	r3, r2
    d0d0:	617b      	str	r3, [r7, #20]

        for (jx = 0; jx < iMax; jx++)
    d0d2:	2300      	movs	r3, #0
    d0d4:	62bb      	str	r3, [r7, #40]	; 0x28
    d0d6:	e015      	b.n	d104 <ftoa+0x190>
        {
            i32FracPart *= 10;
    d0d8:	6b3a      	ldr	r2, [r7, #48]	; 0x30
    d0da:	4613      	mov	r3, r2
    d0dc:	009b      	lsls	r3, r3, #2
    d0de:	4413      	add	r3, r2
    d0e0:	005b      	lsls	r3, r3, #1
    d0e2:	633b      	str	r3, [r7, #48]	; 0x30
            *pcBuf++ = (i32FracPart >> 24) + '0';
    d0e4:	6b3b      	ldr	r3, [r7, #48]	; 0x30
    d0e6:	161b      	asrs	r3, r3, #24
    d0e8:	b2da      	uxtb	r2, r3
    d0ea:	68bb      	ldr	r3, [r7, #8]
    d0ec:	1c59      	adds	r1, r3, #1
    d0ee:	60b9      	str	r1, [r7, #8]
    d0f0:	3230      	adds	r2, #48	; 0x30
    d0f2:	b2d2      	uxtb	r2, r2
    d0f4:	701a      	strb	r2, [r3, #0]
            i32FracPart &= 0x00FFFFFF;
    d0f6:	6b3b      	ldr	r3, [r7, #48]	; 0x30
    d0f8:	f023 437f 	bic.w	r3, r3, #4278190080	; 0xff000000
    d0fc:	633b      	str	r3, [r7, #48]	; 0x30
        for (jx = 0; jx < iMax; jx++)
    d0fe:	6abb      	ldr	r3, [r7, #40]	; 0x28
    d100:	3301      	adds	r3, #1
    d102:	62bb      	str	r3, [r7, #40]	; 0x28
    d104:	6aba      	ldr	r2, [r7, #40]	; 0x28
    d106:	697b      	ldr	r3, [r7, #20]
    d108:	429a      	cmp	r2, r3
    d10a:	dbe5      	blt.n	d0d8 <ftoa+0x164>
        // 1.996        4                   1.9960
        //
        // To determine whether to round up, we'll look at what the next
        // decimal value would have been.
        //
        if ( ((i32FracPart * 10) >> 24) >= 5 )
    d10c:	6b3a      	ldr	r2, [r7, #48]	; 0x30
    d10e:	4613      	mov	r3, r2
    d110:	009b      	lsls	r3, r3, #2
    d112:	4413      	add	r3, r2
    d114:	005b      	lsls	r3, r3, #1
    d116:	161b      	asrs	r3, r3, #24
    d118:	2b04      	cmp	r3, #4
    d11a:	dd1d      	ble.n	d158 <ftoa+0x1e4>
        {
            //
            // Yes, we need to round up.
            // Go back through the string and make adjustments as necessary.
            //
            pcBuftmp = pcBuf - 1;
    d11c:	68bb      	ldr	r3, [r7, #8]
    d11e:	3b01      	subs	r3, #1
    d120:	62fb      	str	r3, [r7, #44]	; 0x2c
            while ( pcBuftmp >= pcBufInitial )
    d122:	e015      	b.n	d150 <ftoa+0x1dc>
            {
                if ( *pcBuftmp == '.' )
    d124:	6afb      	ldr	r3, [r7, #44]	; 0x2c
    d126:	781b      	ldrb	r3, [r3, #0]
    d128:	2b2e      	cmp	r3, #46	; 0x2e
    d12a:	d00e      	beq.n	d14a <ftoa+0x1d6>
                {
                }
                else if ( *pcBuftmp == '9' )
    d12c:	6afb      	ldr	r3, [r7, #44]	; 0x2c
    d12e:	781b      	ldrb	r3, [r3, #0]
    d130:	2b39      	cmp	r3, #57	; 0x39
    d132:	d103      	bne.n	d13c <ftoa+0x1c8>
                {
                    *pcBuftmp = '0';
    d134:	6afb      	ldr	r3, [r7, #44]	; 0x2c
    d136:	2230      	movs	r2, #48	; 0x30
    d138:	701a      	strb	r2, [r3, #0]
    d13a:	e006      	b.n	d14a <ftoa+0x1d6>
                }
                else
                {
                    *pcBuftmp += 1;
    d13c:	6afb      	ldr	r3, [r7, #44]	; 0x2c
    d13e:	781b      	ldrb	r3, [r3, #0]
    d140:	3301      	adds	r3, #1
    d142:	b2da      	uxtb	r2, r3
    d144:	6afb      	ldr	r3, [r7, #44]	; 0x2c
    d146:	701a      	strb	r2, [r3, #0]
                    break;
    d148:	e006      	b.n	d158 <ftoa+0x1e4>
                }
                pcBuftmp--;
    d14a:	6afb      	ldr	r3, [r7, #44]	; 0x2c
    d14c:	3b01      	subs	r3, #1
    d14e:	62fb      	str	r3, [r7, #44]	; 0x2c
            while ( pcBuftmp >= pcBufInitial )
    d150:	6afa      	ldr	r2, [r7, #44]	; 0x2c
    d152:	6a3b      	ldr	r3, [r7, #32]
    d154:	429a      	cmp	r2, r3
    d156:	d2e5      	bcs.n	d124 <ftoa+0x1b0>
    }

    //
    // Terminate the string and we're done
    //
    *pcBuf = 0x00;
    d158:	68bb      	ldr	r3, [r7, #8]
    d15a:	2200      	movs	r2, #0
    d15c:	701a      	strb	r2, [r3, #0]

    return (pcBuf - pcBufInitial);
    d15e:	68ba      	ldr	r2, [r7, #8]
    d160:	6a3b      	ldr	r3, [r7, #32]
    d162:	1ad3      	subs	r3, r2, r3
} // ftoa()
    d164:	4618      	mov	r0, r3
    d166:	373c      	adds	r7, #60	; 0x3c
    d168:	46bd      	mov	sp, r7
    d16a:	bd90      	pop	{r4, r7, pc}
    d16c:	00302e30 	.word	0x00302e30

0000d170 <am_util_stdio_vsprintf>:
//! @return uint32_t representing the number of characters printed.
//
//******************************************************************************
uint32_t
am_util_stdio_vsprintf(char *pcBuf, const char *pcFmt, va_list pArgs)
{
    d170:	b590      	push	{r4, r7, lr}
    d172:	b097      	sub	sp, #92	; 0x5c
    d174:	af00      	add	r7, sp, #0
    d176:	60f8      	str	r0, [r7, #12]
    d178:	60b9      	str	r1, [r7, #8]
    d17a:	607a      	str	r2, [r7, #4]
    char *pcStr;
    uint64_t ui64Val;
    int64_t i64Val;
    uint32_t ui32NumChars, ui32CharCnt = 0;
    d17c:	2300      	movs	r3, #0
    d17e:	647b      	str	r3, [r7, #68]	; 0x44
    int iWidth, iVal, iPrecision;
    uint8_t ui8CharSpecifier, ui8PadChar;
    bool bLower, bLongLong, bNeg;
    uint32_t ui32strlen = 0;
    d180:	2300      	movs	r3, #0
    d182:	62fb      	str	r3, [r7, #44]	; 0x2c

    while ( *pcFmt != 0x0 )
    d184:	e2e7      	b.n	d756 <am_util_stdio_vsprintf+0x5e6>
    {
        iPrecision = 6;             // printf() default precision for %f is 6
    d186:	2306      	movs	r3, #6
    d188:	63bb      	str	r3, [r7, #56]	; 0x38

        if ( *pcFmt != '%' )
    d18a:	68bb      	ldr	r3, [r7, #8]
    d18c:	781b      	ldrb	r3, [r3, #0]
    d18e:	2b25      	cmp	r3, #37	; 0x25
    d190:	d01f      	beq.n	d1d2 <am_util_stdio_vsprintf+0x62>
        {
            //
            // Accumulate the string portion of the format specification.
            //
            if ( pcBuf )
    d192:	68fb      	ldr	r3, [r7, #12]
    d194:	2b00      	cmp	r3, #0
    d196:	d015      	beq.n	d1c4 <am_util_stdio_vsprintf+0x54>
            {
                // If '\n', convert to '\r\n'
                if ( *pcFmt == '\n'  &&  g_bTxtXlate )
    d198:	68bb      	ldr	r3, [r7, #8]
    d19a:	781b      	ldrb	r3, [r3, #0]
    d19c:	2b0a      	cmp	r3, #10
    d19e:	d10b      	bne.n	d1b8 <am_util_stdio_vsprintf+0x48>
    d1a0:	4bb1      	ldr	r3, [pc, #708]	; (d468 <am_util_stdio_vsprintf+0x2f8>)
    d1a2:	781b      	ldrb	r3, [r3, #0]
    d1a4:	2b00      	cmp	r3, #0
    d1a6:	d007      	beq.n	d1b8 <am_util_stdio_vsprintf+0x48>
                {
                    *pcBuf++ = '\r';
    d1a8:	68fb      	ldr	r3, [r7, #12]
    d1aa:	1c5a      	adds	r2, r3, #1
    d1ac:	60fa      	str	r2, [r7, #12]
    d1ae:	220d      	movs	r2, #13
    d1b0:	701a      	strb	r2, [r3, #0]
                    ++ui32CharCnt;
    d1b2:	6c7b      	ldr	r3, [r7, #68]	; 0x44
    d1b4:	3301      	adds	r3, #1
    d1b6:	647b      	str	r3, [r7, #68]	; 0x44
                }
                *pcBuf++ = *pcFmt;
    d1b8:	68fb      	ldr	r3, [r7, #12]
    d1ba:	1c5a      	adds	r2, r3, #1
    d1bc:	60fa      	str	r2, [r7, #12]
    d1be:	68ba      	ldr	r2, [r7, #8]
    d1c0:	7812      	ldrb	r2, [r2, #0]
    d1c2:	701a      	strb	r2, [r3, #0]
            }

            ++pcFmt;
    d1c4:	68bb      	ldr	r3, [r7, #8]
    d1c6:	3301      	adds	r3, #1
    d1c8:	60bb      	str	r3, [r7, #8]
            ++ui32CharCnt;
    d1ca:	6c7b      	ldr	r3, [r7, #68]	; 0x44
    d1cc:	3301      	adds	r3, #1
    d1ce:	647b      	str	r3, [r7, #68]	; 0x44
            continue;
    d1d0:	e2c1      	b.n	d756 <am_util_stdio_vsprintf+0x5e6>
        }

        //
        // Handle the specifier.
        //
        ++pcFmt;
    d1d2:	68bb      	ldr	r3, [r7, #8]
    d1d4:	3301      	adds	r3, #1
    d1d6:	60bb      	str	r3, [r7, #8]
        bLower = bLongLong = false;
    d1d8:	2300      	movs	r3, #0
    d1da:	f887 3035 	strb.w	r3, [r7, #53]	; 0x35
    d1de:	f897 3035 	ldrb.w	r3, [r7, #53]	; 0x35
    d1e2:	f887 3036 	strb.w	r3, [r7, #54]	; 0x36

        //
        // Default to space as ui8PadChar
        //
        ui8PadChar = ' ';
    d1e6:	2320      	movs	r3, #32
    d1e8:	f887 3037 	strb.w	r3, [r7, #55]	; 0x37

        if ( *pcFmt == '0' )
    d1ec:	68bb      	ldr	r3, [r7, #8]
    d1ee:	781b      	ldrb	r3, [r3, #0]
    d1f0:	2b30      	cmp	r3, #48	; 0x30
    d1f2:	d105      	bne.n	d200 <am_util_stdio_vsprintf+0x90>
        {
            ui8PadChar = '0';
    d1f4:	2330      	movs	r3, #48	; 0x30
    d1f6:	f887 3037 	strb.w	r3, [r7, #55]	; 0x37
            ++pcFmt;
    d1fa:	68bb      	ldr	r3, [r7, #8]
    d1fc:	3301      	adds	r3, #1
    d1fe:	60bb      	str	r3, [r7, #8]
        }

        //
        // Width specifier
        //
        iWidth = decstr_to_int(pcFmt, &ui32NumChars);
    d200:	f107 0314 	add.w	r3, r7, #20
    d204:	4619      	mov	r1, r3
    d206:	68b8      	ldr	r0, [r7, #8]
    d208:	f7ff fd81 	bl	cd0e <decstr_to_int>
    d20c:	4603      	mov	r3, r0
    d20e:	643b      	str	r3, [r7, #64]	; 0x40
        pcFmt += ui32NumChars;
    d210:	697b      	ldr	r3, [r7, #20]
    d212:	68ba      	ldr	r2, [r7, #8]
    d214:	4413      	add	r3, r2
    d216:	60bb      	str	r3, [r7, #8]

        //
        // For now, only support a negative width specifier for %s
        //
        if ( ( *pcFmt != 's' )  &&  ( iWidth < 0 ) )
    d218:	68bb      	ldr	r3, [r7, #8]
    d21a:	781b      	ldrb	r3, [r3, #0]
    d21c:	2b73      	cmp	r3, #115	; 0x73
    d21e:	d005      	beq.n	d22c <am_util_stdio_vsprintf+0xbc>
    d220:	6c3b      	ldr	r3, [r7, #64]	; 0x40
    d222:	2b00      	cmp	r3, #0
    d224:	da02      	bge.n	d22c <am_util_stdio_vsprintf+0xbc>
        {
            iWidth = -iWidth;
    d226:	6c3b      	ldr	r3, [r7, #64]	; 0x40
    d228:	425b      	negs	r3, r3
    d22a:	643b      	str	r3, [r7, #64]	; 0x40
        }

        //
        // Check for precision specifier
        //
        if (*pcFmt == '.')
    d22c:	68bb      	ldr	r3, [r7, #8]
    d22e:	781b      	ldrb	r3, [r3, #0]
    d230:	2b2e      	cmp	r3, #46	; 0x2e
    d232:	d10e      	bne.n	d252 <am_util_stdio_vsprintf+0xe2>
        {
            ++pcFmt;
    d234:	68bb      	ldr	r3, [r7, #8]
    d236:	3301      	adds	r3, #1
    d238:	60bb      	str	r3, [r7, #8]
            iPrecision = decstr_to_int(pcFmt, &ui32NumChars);
    d23a:	f107 0314 	add.w	r3, r7, #20
    d23e:	4619      	mov	r1, r3
    d240:	68b8      	ldr	r0, [r7, #8]
    d242:	f7ff fd64 	bl	cd0e <decstr_to_int>
    d246:	4603      	mov	r3, r0
    d248:	63bb      	str	r3, [r7, #56]	; 0x38
            pcFmt += ui32NumChars;
    d24a:	697b      	ldr	r3, [r7, #20]
    d24c:	68ba      	ldr	r2, [r7, #8]
    d24e:	4413      	add	r3, r2
    d250:	60bb      	str	r3, [r7, #8]
        // 'll', which must be a modifier for either 'd', 'i', 'u', 'x', or 'X'
        // (or even 'o', which is not currently supported). Other sub-specifiers
        // like 'hh','h', etc. are not currently handled.
        // Note - 'l' is used in Coremark, a primary reason it's supported here.
        //
        if ( *pcFmt == 'l' )
    d252:	68bb      	ldr	r3, [r7, #8]
    d254:	781b      	ldrb	r3, [r3, #0]
    d256:	2b6c      	cmp	r3, #108	; 0x6c
    d258:	d10c      	bne.n	d274 <am_util_stdio_vsprintf+0x104>
        {
            pcFmt++;
    d25a:	68bb      	ldr	r3, [r7, #8]
    d25c:	3301      	adds	r3, #1
    d25e:	60bb      	str	r3, [r7, #8]
            if ( *pcFmt == 'l' )    // "ll" (long long)
    d260:	68bb      	ldr	r3, [r7, #8]
    d262:	781b      	ldrb	r3, [r3, #0]
    d264:	2b6c      	cmp	r3, #108	; 0x6c
    d266:	d105      	bne.n	d274 <am_util_stdio_vsprintf+0x104>
            {
                pcFmt++;
    d268:	68bb      	ldr	r3, [r7, #8]
    d26a:	3301      	adds	r3, #1
    d26c:	60bb      	str	r3, [r7, #8]
                bLongLong = true;
    d26e:	2301      	movs	r3, #1
    d270:	f887 3035 	strb.w	r3, [r7, #53]	; 0x35
            }
        }

        switch ( *pcFmt )
    d274:	68bb      	ldr	r3, [r7, #8]
    d276:	781b      	ldrb	r3, [r3, #0]
    d278:	3b46      	subs	r3, #70	; 0x46
    d27a:	2b32      	cmp	r3, #50	; 0x32
    d27c:	f200 8258 	bhi.w	d730 <am_util_stdio_vsprintf+0x5c0>
    d280:	a201      	add	r2, pc, #4	; (adr r2, d288 <am_util_stdio_vsprintf+0x118>)
    d282:	f852 f023 	ldr.w	pc, [r2, r3, lsl #2]
    d286:	bf00      	nop
    d288:	0000d6b7 	.word	0x0000d6b7
    d28c:	0000d731 	.word	0x0000d731
    d290:	0000d731 	.word	0x0000d731
    d294:	0000d731 	.word	0x0000d731
    d298:	0000d731 	.word	0x0000d731
    d29c:	0000d731 	.word	0x0000d731
    d2a0:	0000d731 	.word	0x0000d731
    d2a4:	0000d731 	.word	0x0000d731
    d2a8:	0000d731 	.word	0x0000d731
    d2ac:	0000d731 	.word	0x0000d731
    d2b0:	0000d731 	.word	0x0000d731
    d2b4:	0000d731 	.word	0x0000d731
    d2b8:	0000d731 	.word	0x0000d731
    d2bc:	0000d731 	.word	0x0000d731
    d2c0:	0000d731 	.word	0x0000d731
    d2c4:	0000d731 	.word	0x0000d731
    d2c8:	0000d731 	.word	0x0000d731
    d2cc:	0000d731 	.word	0x0000d731
    d2d0:	0000d44b 	.word	0x0000d44b
    d2d4:	0000d731 	.word	0x0000d731
    d2d8:	0000d731 	.word	0x0000d731
    d2dc:	0000d731 	.word	0x0000d731
    d2e0:	0000d731 	.word	0x0000d731
    d2e4:	0000d731 	.word	0x0000d731
    d2e8:	0000d731 	.word	0x0000d731
    d2ec:	0000d731 	.word	0x0000d731
    d2f0:	0000d731 	.word	0x0000d731
    d2f4:	0000d731 	.word	0x0000d731
    d2f8:	0000d731 	.word	0x0000d731
    d2fc:	0000d355 	.word	0x0000d355
    d300:	0000d57d 	.word	0x0000d57d
    d304:	0000d731 	.word	0x0000d731
    d308:	0000d6b7 	.word	0x0000d6b7
    d30c:	0000d731 	.word	0x0000d731
    d310:	0000d731 	.word	0x0000d731
    d314:	0000d57d 	.word	0x0000d57d
    d318:	0000d731 	.word	0x0000d731
    d31c:	0000d731 	.word	0x0000d731
    d320:	0000d731 	.word	0x0000d731
    d324:	0000d731 	.word	0x0000d731
    d328:	0000d731 	.word	0x0000d731
    d32c:	0000d731 	.word	0x0000d731
    d330:	0000d731 	.word	0x0000d731
    d334:	0000d731 	.word	0x0000d731
    d338:	0000d731 	.word	0x0000d731
    d33c:	0000d377 	.word	0x0000d377
    d340:	0000d731 	.word	0x0000d731
    d344:	0000d4e9 	.word	0x0000d4e9
    d348:	0000d731 	.word	0x0000d731
    d34c:	0000d731 	.word	0x0000d731
    d350:	0000d445 	.word	0x0000d445
        {
            case 'c':
                ui8CharSpecifier = va_arg(pArgs, uint32_t);
    d354:	687b      	ldr	r3, [r7, #4]
    d356:	1d1a      	adds	r2, r3, #4
    d358:	607a      	str	r2, [r7, #4]
    d35a:	681b      	ldr	r3, [r3, #0]
    d35c:	77fb      	strb	r3, [r7, #31]

                if ( pcBuf )
    d35e:	68fb      	ldr	r3, [r7, #12]
    d360:	2b00      	cmp	r3, #0
    d362:	d004      	beq.n	d36e <am_util_stdio_vsprintf+0x1fe>
                {
                    *pcBuf++ = ui8CharSpecifier;
    d364:	68fb      	ldr	r3, [r7, #12]
    d366:	1c5a      	adds	r2, r3, #1
    d368:	60fa      	str	r2, [r7, #12]
    d36a:	7ffa      	ldrb	r2, [r7, #31]
    d36c:	701a      	strb	r2, [r3, #0]
                }

                ++ui32CharCnt;
    d36e:	6c7b      	ldr	r3, [r7, #68]	; 0x44
    d370:	3301      	adds	r3, #1
    d372:	647b      	str	r3, [r7, #68]	; 0x44
                break;
    d374:	e1ec      	b.n	d750 <am_util_stdio_vsprintf+0x5e0>

            case 's':
                pcStr = va_arg(pArgs, char *);
    d376:	687b      	ldr	r3, [r7, #4]
    d378:	1d1a      	adds	r2, r3, #4
    d37a:	607a      	str	r2, [r7, #4]
    d37c:	681b      	ldr	r3, [r3, #0]
    d37e:	657b      	str	r3, [r7, #84]	; 0x54
                //
                // For %s, we support the width specifier. If iWidth is negative
                // the string is left-aligned (padding on the right).  Otherwise
                // the string is padded at the beginning with spaces.
                //
                ui32strlen = simple_strlen(pcStr);
    d380:	6d78      	ldr	r0, [r7, #84]	; 0x54
    d382:	f7ff fdb6 	bl	cef2 <simple_strlen>
    d386:	62f8      	str	r0, [r7, #44]	; 0x2c
                if ( iWidth > 0 )
    d388:	6c3b      	ldr	r3, [r7, #64]	; 0x40
    d38a:	2b00      	cmp	r3, #0
    d38c:	dd2e      	ble.n	d3ec <am_util_stdio_vsprintf+0x27c>
                {
                    // Pad the beginning of the string (right-aligned).
                    if ( ui32strlen < iWidth )
    d38e:	6c3b      	ldr	r3, [r7, #64]	; 0x40
    d390:	6afa      	ldr	r2, [r7, #44]	; 0x2c
    d392:	429a      	cmp	r2, r3
    d394:	d22a      	bcs.n	d3ec <am_util_stdio_vsprintf+0x27c>
                    {
                        // String needs some padding.
                        iWidth -= ui32strlen;
    d396:	6c3a      	ldr	r2, [r7, #64]	; 0x40
    d398:	6afb      	ldr	r3, [r7, #44]	; 0x2c
    d39a:	1ad3      	subs	r3, r2, r3
    d39c:	643b      	str	r3, [r7, #64]	; 0x40
                        iWidth = padbuffer(pcBuf, ui8PadChar, iWidth);
    d39e:	f897 3037 	ldrb.w	r3, [r7, #55]	; 0x37
    d3a2:	6c3a      	ldr	r2, [r7, #64]	; 0x40
    d3a4:	4619      	mov	r1, r3
    d3a6:	68f8      	ldr	r0, [r7, #12]
    d3a8:	f7ff fdbe 	bl	cf28 <padbuffer>
    d3ac:	6438      	str	r0, [r7, #64]	; 0x40
                        pcBuf += pcBuf ? iWidth : 0;
    d3ae:	68fb      	ldr	r3, [r7, #12]
    d3b0:	2b00      	cmp	r3, #0
    d3b2:	d001      	beq.n	d3b8 <am_util_stdio_vsprintf+0x248>
    d3b4:	6c3b      	ldr	r3, [r7, #64]	; 0x40
    d3b6:	e000      	b.n	d3ba <am_util_stdio_vsprintf+0x24a>
    d3b8:	2300      	movs	r3, #0
    d3ba:	68fa      	ldr	r2, [r7, #12]
    d3bc:	4413      	add	r3, r2
    d3be:	60fb      	str	r3, [r7, #12]
                        ui32CharCnt += iWidth;
    d3c0:	6c3b      	ldr	r3, [r7, #64]	; 0x40
    d3c2:	6c7a      	ldr	r2, [r7, #68]	; 0x44
    d3c4:	4413      	add	r3, r2
    d3c6:	647b      	str	r3, [r7, #68]	; 0x44
                        iWidth = 0;
    d3c8:	2300      	movs	r3, #0
    d3ca:	643b      	str	r3, [r7, #64]	; 0x40
                    }
                }

                while (*pcStr != 0x0)
    d3cc:	e00e      	b.n	d3ec <am_util_stdio_vsprintf+0x27c>
                {
                    if ( pcBuf )
    d3ce:	68fb      	ldr	r3, [r7, #12]
    d3d0:	2b00      	cmp	r3, #0
    d3d2:	d005      	beq.n	d3e0 <am_util_stdio_vsprintf+0x270>
                    {
                        *pcBuf++ = *pcStr;
    d3d4:	68fb      	ldr	r3, [r7, #12]
    d3d6:	1c5a      	adds	r2, r3, #1
    d3d8:	60fa      	str	r2, [r7, #12]
    d3da:	6d7a      	ldr	r2, [r7, #84]	; 0x54
    d3dc:	7812      	ldrb	r2, [r2, #0]
    d3de:	701a      	strb	r2, [r3, #0]
                    }

                    ++pcStr;
    d3e0:	6d7b      	ldr	r3, [r7, #84]	; 0x54
    d3e2:	3301      	adds	r3, #1
    d3e4:	657b      	str	r3, [r7, #84]	; 0x54
                    ++ui32CharCnt;
    d3e6:	6c7b      	ldr	r3, [r7, #68]	; 0x44
    d3e8:	3301      	adds	r3, #1
    d3ea:	647b      	str	r3, [r7, #68]	; 0x44
                while (*pcStr != 0x0)
    d3ec:	6d7b      	ldr	r3, [r7, #84]	; 0x54
    d3ee:	781b      	ldrb	r3, [r3, #0]
    d3f0:	2b00      	cmp	r3, #0
    d3f2:	d1ec      	bne.n	d3ce <am_util_stdio_vsprintf+0x25e>
                }

                if ( iWidth )
    d3f4:	6c3b      	ldr	r3, [r7, #64]	; 0x40
    d3f6:	2b00      	cmp	r3, #0
    d3f8:	f000 81a7 	beq.w	d74a <am_util_stdio_vsprintf+0x5da>
                {
                    iWidth = -iWidth;
    d3fc:	6c3b      	ldr	r3, [r7, #64]	; 0x40
    d3fe:	425b      	negs	r3, r3
    d400:	643b      	str	r3, [r7, #64]	; 0x40

                    // Pad the end of the string (left-aligned).
                    if ( ui32strlen < iWidth )
    d402:	6c3b      	ldr	r3, [r7, #64]	; 0x40
    d404:	6afa      	ldr	r2, [r7, #44]	; 0x2c
    d406:	429a      	cmp	r2, r3
    d408:	f080 819f 	bcs.w	d74a <am_util_stdio_vsprintf+0x5da>
                    {
                        // String needs some padding.
                        iWidth -= ui32strlen;
    d40c:	6c3a      	ldr	r2, [r7, #64]	; 0x40
    d40e:	6afb      	ldr	r3, [r7, #44]	; 0x2c
    d410:	1ad3      	subs	r3, r2, r3
    d412:	643b      	str	r3, [r7, #64]	; 0x40
                        iWidth = padbuffer(pcBuf, ui8PadChar, iWidth);
    d414:	f897 3037 	ldrb.w	r3, [r7, #55]	; 0x37
    d418:	6c3a      	ldr	r2, [r7, #64]	; 0x40
    d41a:	4619      	mov	r1, r3
    d41c:	68f8      	ldr	r0, [r7, #12]
    d41e:	f7ff fd83 	bl	cf28 <padbuffer>
    d422:	6438      	str	r0, [r7, #64]	; 0x40
                        pcBuf += pcBuf ? iWidth : 0;
    d424:	68fb      	ldr	r3, [r7, #12]
    d426:	2b00      	cmp	r3, #0
    d428:	d001      	beq.n	d42e <am_util_stdio_vsprintf+0x2be>
    d42a:	6c3b      	ldr	r3, [r7, #64]	; 0x40
    d42c:	e000      	b.n	d430 <am_util_stdio_vsprintf+0x2c0>
    d42e:	2300      	movs	r3, #0
    d430:	68fa      	ldr	r2, [r7, #12]
    d432:	4413      	add	r3, r2
    d434:	60fb      	str	r3, [r7, #12]
                        ui32CharCnt += iWidth;
    d436:	6c3b      	ldr	r3, [r7, #64]	; 0x40
    d438:	6c7a      	ldr	r2, [r7, #68]	; 0x44
    d43a:	4413      	add	r3, r2
    d43c:	647b      	str	r3, [r7, #68]	; 0x44
                        iWidth = 0;
    d43e:	2300      	movs	r3, #0
    d440:	643b      	str	r3, [r7, #64]	; 0x40
                    }
                }
                break;
    d442:	e182      	b.n	d74a <am_util_stdio_vsprintf+0x5da>

            case 'x':
                bLower = true;
    d444:	2301      	movs	r3, #1
    d446:	f887 3036 	strb.w	r3, [r7, #54]	; 0x36
            case 'X':
                ui64Val = bLongLong ? va_arg(pArgs, uint64_t) :
    d44a:	f897 3035 	ldrb.w	r3, [r7, #53]	; 0x35
    d44e:	2b00      	cmp	r3, #0
    d450:	d00c      	beq.n	d46c <am_util_stdio_vsprintf+0x2fc>
    d452:	687b      	ldr	r3, [r7, #4]
    d454:	3307      	adds	r3, #7
    d456:	f023 0307 	bic.w	r3, r3, #7
    d45a:	f103 0208 	add.w	r2, r3, #8
    d45e:	607a      	str	r2, [r7, #4]
    d460:	e9d3 3400 	ldrd	r3, r4, [r3]
    d464:	e008      	b.n	d478 <am_util_stdio_vsprintf+0x308>
    d466:	bf00      	nop
    d468:	1000c150 	.word	0x1000c150
                                      va_arg(pArgs, uint32_t);
    d46c:	687b      	ldr	r3, [r7, #4]
    d46e:	1d1a      	adds	r2, r3, #4
    d470:	607a      	str	r2, [r7, #4]
    d472:	681b      	ldr	r3, [r3, #0]
                ui64Val = bLongLong ? va_arg(pArgs, uint64_t) :
    d474:	f04f 0400 	mov.w	r4, #0
    d478:	e9c7 3412 	strd	r3, r4, [r7, #72]	; 0x48

                if ( iWidth )
    d47c:	6c3b      	ldr	r3, [r7, #64]	; 0x40
    d47e:	2b00      	cmp	r3, #0
    d480:	d01e      	beq.n	d4c0 <am_util_stdio_vsprintf+0x350>
                {
                    //
                    // Compute # of leading chars
                    //
                    iWidth -= ndigits_in_hex(ui64Val);
    d482:	e9d7 0112 	ldrd	r0, r1, [r7, #72]	; 0x48
    d486:	f7ff fc1a 	bl	ccbe <ndigits_in_hex>
    d48a:	4602      	mov	r2, r0
    d48c:	6c3b      	ldr	r3, [r7, #64]	; 0x40
    d48e:	1a9b      	subs	r3, r3, r2
    d490:	643b      	str	r3, [r7, #64]	; 0x40

                    iWidth = padbuffer(pcBuf, ui8PadChar, iWidth);
    d492:	f897 3037 	ldrb.w	r3, [r7, #55]	; 0x37
    d496:	6c3a      	ldr	r2, [r7, #64]	; 0x40
    d498:	4619      	mov	r1, r3
    d49a:	68f8      	ldr	r0, [r7, #12]
    d49c:	f7ff fd44 	bl	cf28 <padbuffer>
    d4a0:	6438      	str	r0, [r7, #64]	; 0x40
                    pcBuf += pcBuf ? iWidth : 0;
    d4a2:	68fb      	ldr	r3, [r7, #12]
    d4a4:	2b00      	cmp	r3, #0
    d4a6:	d001      	beq.n	d4ac <am_util_stdio_vsprintf+0x33c>
    d4a8:	6c3b      	ldr	r3, [r7, #64]	; 0x40
    d4aa:	e000      	b.n	d4ae <am_util_stdio_vsprintf+0x33e>
    d4ac:	2300      	movs	r3, #0
    d4ae:	68fa      	ldr	r2, [r7, #12]
    d4b0:	4413      	add	r3, r2
    d4b2:	60fb      	str	r3, [r7, #12]
                    ui32CharCnt += iWidth;
    d4b4:	6c3b      	ldr	r3, [r7, #64]	; 0x40
    d4b6:	6c7a      	ldr	r2, [r7, #68]	; 0x44
    d4b8:	4413      	add	r3, r2
    d4ba:	647b      	str	r3, [r7, #68]	; 0x44
                    iWidth = 0;
    d4bc:	2300      	movs	r3, #0
    d4be:	643b      	str	r3, [r7, #64]	; 0x40
                }

                iVal = uint64_to_hexstr(ui64Val, pcBuf, bLower);
    d4c0:	f897 3036 	ldrb.w	r3, [r7, #54]	; 0x36
    d4c4:	68fa      	ldr	r2, [r7, #12]
    d4c6:	e9d7 0112 	ldrd	r0, r1, [r7, #72]	; 0x48
    d4ca:	f7ff fcae 	bl	ce2a <uint64_to_hexstr>
    d4ce:	63f8      	str	r0, [r7, #60]	; 0x3c

                if ( pcBuf )
    d4d0:	68fb      	ldr	r3, [r7, #12]
    d4d2:	2b00      	cmp	r3, #0
    d4d4:	d003      	beq.n	d4de <am_util_stdio_vsprintf+0x36e>
                {
                    pcBuf += iVal;
    d4d6:	6bfb      	ldr	r3, [r7, #60]	; 0x3c
    d4d8:	68fa      	ldr	r2, [r7, #12]
    d4da:	4413      	add	r3, r2
    d4dc:	60fb      	str	r3, [r7, #12]
                }

                ui32CharCnt += iVal;
    d4de:	6bfb      	ldr	r3, [r7, #60]	; 0x3c
    d4e0:	6c7a      	ldr	r2, [r7, #68]	; 0x44
    d4e2:	4413      	add	r3, r2
    d4e4:	647b      	str	r3, [r7, #68]	; 0x44
                break;
    d4e6:	e133      	b.n	d750 <am_util_stdio_vsprintf+0x5e0>

            case 'u':
                ui64Val = bLongLong ? va_arg(pArgs, uint64_t) :
    d4e8:	f897 3035 	ldrb.w	r3, [r7, #53]	; 0x35
    d4ec:	2b00      	cmp	r3, #0
    d4ee:	d009      	beq.n	d504 <am_util_stdio_vsprintf+0x394>
    d4f0:	687b      	ldr	r3, [r7, #4]
    d4f2:	3307      	adds	r3, #7
    d4f4:	f023 0307 	bic.w	r3, r3, #7
    d4f8:	f103 0208 	add.w	r2, r3, #8
    d4fc:	607a      	str	r2, [r7, #4]
    d4fe:	e9d3 3400 	ldrd	r3, r4, [r3]
    d502:	e005      	b.n	d510 <am_util_stdio_vsprintf+0x3a0>
                                      va_arg(pArgs, uint32_t);
    d504:	687b      	ldr	r3, [r7, #4]
    d506:	1d1a      	adds	r2, r3, #4
    d508:	607a      	str	r2, [r7, #4]
    d50a:	681b      	ldr	r3, [r3, #0]
                ui64Val = bLongLong ? va_arg(pArgs, uint64_t) :
    d50c:	f04f 0400 	mov.w	r4, #0
    d510:	e9c7 3412 	strd	r3, r4, [r7, #72]	; 0x48

                if ( iWidth )
    d514:	6c3b      	ldr	r3, [r7, #64]	; 0x40
    d516:	2b00      	cmp	r3, #0
    d518:	d01e      	beq.n	d558 <am_util_stdio_vsprintf+0x3e8>
                {
                    //
                    // We need to pad the beginning of the value.
                    // Compute # of leading chars
                    //
                    iWidth -= ndigits_in_u64(ui64Val);
    d51a:	e9d7 0112 	ldrd	r0, r1, [r7, #72]	; 0x48
    d51e:	f7ff fb90 	bl	cc42 <ndigits_in_u64>
    d522:	4602      	mov	r2, r0
    d524:	6c3b      	ldr	r3, [r7, #64]	; 0x40
    d526:	1a9b      	subs	r3, r3, r2
    d528:	643b      	str	r3, [r7, #64]	; 0x40

                    iWidth = padbuffer(pcBuf, ui8PadChar, iWidth);
    d52a:	f897 3037 	ldrb.w	r3, [r7, #55]	; 0x37
    d52e:	6c3a      	ldr	r2, [r7, #64]	; 0x40
    d530:	4619      	mov	r1, r3
    d532:	68f8      	ldr	r0, [r7, #12]
    d534:	f7ff fcf8 	bl	cf28 <padbuffer>
    d538:	6438      	str	r0, [r7, #64]	; 0x40
                    pcBuf += pcBuf ? iWidth : 0;
    d53a:	68fb      	ldr	r3, [r7, #12]
    d53c:	2b00      	cmp	r3, #0
    d53e:	d001      	beq.n	d544 <am_util_stdio_vsprintf+0x3d4>
    d540:	6c3b      	ldr	r3, [r7, #64]	; 0x40
    d542:	e000      	b.n	d546 <am_util_stdio_vsprintf+0x3d6>
    d544:	2300      	movs	r3, #0
    d546:	68fa      	ldr	r2, [r7, #12]
    d548:	4413      	add	r3, r2
    d54a:	60fb      	str	r3, [r7, #12]
                    ui32CharCnt += iWidth;
    d54c:	6c3b      	ldr	r3, [r7, #64]	; 0x40
    d54e:	6c7a      	ldr	r2, [r7, #68]	; 0x44
    d550:	4413      	add	r3, r2
    d552:	647b      	str	r3, [r7, #68]	; 0x44
                    iWidth = 0;
    d554:	2300      	movs	r3, #0
    d556:	643b      	str	r3, [r7, #64]	; 0x40
                }

                iVal = uint64_to_str(ui64Val, pcBuf);
    d558:	68fa      	ldr	r2, [r7, #12]
    d55a:	e9d7 0112 	ldrd	r0, r1, [r7, #72]	; 0x48
    d55e:	f7ff fc1c 	bl	cd9a <uint64_to_str>
    d562:	63f8      	str	r0, [r7, #60]	; 0x3c

                if ( pcBuf )
    d564:	68fb      	ldr	r3, [r7, #12]
    d566:	2b00      	cmp	r3, #0
    d568:	d003      	beq.n	d572 <am_util_stdio_vsprintf+0x402>
                {
                    pcBuf += iVal;
    d56a:	6bfb      	ldr	r3, [r7, #60]	; 0x3c
    d56c:	68fa      	ldr	r2, [r7, #12]
    d56e:	4413      	add	r3, r2
    d570:	60fb      	str	r3, [r7, #12]
                }

                ui32CharCnt += iVal;
    d572:	6bfb      	ldr	r3, [r7, #60]	; 0x3c
    d574:	6c7a      	ldr	r2, [r7, #68]	; 0x44
    d576:	4413      	add	r3, r2
    d578:	647b      	str	r3, [r7, #68]	; 0x44
                break;
    d57a:	e0e9      	b.n	d750 <am_util_stdio_vsprintf+0x5e0>
                // Output for a negative number, for example, -5:
                //   %d:-5
                //  %5d:   -5
                // %05d:-0005
                //
                i64Val = bLongLong ? va_arg(pArgs, int64_t) :
    d57c:	f897 3035 	ldrb.w	r3, [r7, #53]	; 0x35
    d580:	2b00      	cmp	r3, #0
    d582:	d009      	beq.n	d598 <am_util_stdio_vsprintf+0x428>
    d584:	687b      	ldr	r3, [r7, #4]
    d586:	3307      	adds	r3, #7
    d588:	f023 0307 	bic.w	r3, r3, #7
    d58c:	f103 0208 	add.w	r2, r3, #8
    d590:	607a      	str	r2, [r7, #4]
    d592:	e9d3 3400 	ldrd	r3, r4, [r3]
    d596:	e005      	b.n	d5a4 <am_util_stdio_vsprintf+0x434>
                                     va_arg(pArgs, int32_t);
    d598:	687b      	ldr	r3, [r7, #4]
    d59a:	1d1a      	adds	r2, r3, #4
    d59c:	607a      	str	r2, [r7, #4]
    d59e:	681b      	ldr	r3, [r3, #0]
                i64Val = bLongLong ? va_arg(pArgs, int64_t) :
    d5a0:	ea4f 74e3 	mov.w	r4, r3, asr #31
    d5a4:	e9c7 3408 	strd	r3, r4, [r7, #32]

                //
                // Get absolute value
                //
                if ( i64Val < 0 )
    d5a8:	e9d7 3408 	ldrd	r3, r4, [r7, #32]
    d5ac:	2b00      	cmp	r3, #0
    d5ae:	f174 0300 	sbcs.w	r3, r4, #0
    d5b2:	da0a      	bge.n	d5ca <am_util_stdio_vsprintf+0x45a>
                {
                    ui64Val = -i64Val;          // Get absolute value
    d5b4:	e9d7 3408 	ldrd	r3, r4, [r7, #32]
    d5b8:	425b      	negs	r3, r3
    d5ba:	eb64 0444 	sbc.w	r4, r4, r4, lsl #1
    d5be:	e9c7 3412 	strd	r3, r4, [r7, #72]	; 0x48
                    bNeg = true;
    d5c2:	2301      	movs	r3, #1
    d5c4:	f887 3034 	strb.w	r3, [r7, #52]	; 0x34
    d5c8:	e006      	b.n	d5d8 <am_util_stdio_vsprintf+0x468>
                }
                else
                {
                    ui64Val = i64Val;
    d5ca:	e9d7 3408 	ldrd	r3, r4, [r7, #32]
    d5ce:	e9c7 3412 	strd	r3, r4, [r7, #72]	; 0x48
                    bNeg = false;
    d5d2:	2300      	movs	r3, #0
    d5d4:	f887 3034 	strb.w	r3, [r7, #52]	; 0x34
                }

                if ( iWidth )
    d5d8:	6c3b      	ldr	r3, [r7, #64]	; 0x40
    d5da:	2b00      	cmp	r3, #0
    d5dc:	d04a      	beq.n	d674 <am_util_stdio_vsprintf+0x504>
                {
                    //
                    // We need to pad the beginning of the value.
                    // Compute # of leading chars
                    //
                    iWidth -= ndigits_in_i64(ui64Val);
    d5de:	e9d7 3412 	ldrd	r3, r4, [r7, #72]	; 0x48
    d5e2:	4618      	mov	r0, r3
    d5e4:	4621      	mov	r1, r4
    d5e6:	f7ff fb4d 	bl	cc84 <ndigits_in_i64>
    d5ea:	4602      	mov	r2, r0
    d5ec:	6c3b      	ldr	r3, [r7, #64]	; 0x40
    d5ee:	1a9b      	subs	r3, r3, r2
    d5f0:	643b      	str	r3, [r7, #64]	; 0x40

                    if ( bNeg )
    d5f2:	f897 3034 	ldrb.w	r3, [r7, #52]	; 0x34
    d5f6:	2b00      	cmp	r3, #0
    d5f8:	d011      	beq.n	d61e <am_util_stdio_vsprintf+0x4ae>
                    {
                        --iWidth;
    d5fa:	6c3b      	ldr	r3, [r7, #64]	; 0x40
    d5fc:	3b01      	subs	r3, #1
    d5fe:	643b      	str	r3, [r7, #64]	; 0x40

                        //
                        // Allow for the negative sign
                        //
                        if ( ui8PadChar == '0' )
    d600:	f897 3037 	ldrb.w	r3, [r7, #55]	; 0x37
    d604:	2b30      	cmp	r3, #48	; 0x30
    d606:	d10a      	bne.n	d61e <am_util_stdio_vsprintf+0x4ae>
                        {
                            //
                            // Print the neg sign BEFORE the leading zeros
                            //
                            if ( pcBuf )
    d608:	68fb      	ldr	r3, [r7, #12]
    d60a:	2b00      	cmp	r3, #0
    d60c:	d004      	beq.n	d618 <am_util_stdio_vsprintf+0x4a8>
                            {
                                *pcBuf++ = '-';
    d60e:	68fb      	ldr	r3, [r7, #12]
    d610:	1c5a      	adds	r2, r3, #1
    d612:	60fa      	str	r2, [r7, #12]
    d614:	222d      	movs	r2, #45	; 0x2d
    d616:	701a      	strb	r2, [r3, #0]
                            }

                            ++ui32CharCnt;
    d618:	6c7b      	ldr	r3, [r7, #68]	; 0x44
    d61a:	3301      	adds	r3, #1
    d61c:	647b      	str	r3, [r7, #68]	; 0x44
                        }
                    }

                    iWidth = padbuffer(pcBuf, ui8PadChar, iWidth);
    d61e:	f897 3037 	ldrb.w	r3, [r7, #55]	; 0x37
    d622:	6c3a      	ldr	r2, [r7, #64]	; 0x40
    d624:	4619      	mov	r1, r3
    d626:	68f8      	ldr	r0, [r7, #12]
    d628:	f7ff fc7e 	bl	cf28 <padbuffer>
    d62c:	6438      	str	r0, [r7, #64]	; 0x40
                    pcBuf += pcBuf ? iWidth : 0;
    d62e:	68fb      	ldr	r3, [r7, #12]
    d630:	2b00      	cmp	r3, #0
    d632:	d001      	beq.n	d638 <am_util_stdio_vsprintf+0x4c8>
    d634:	6c3b      	ldr	r3, [r7, #64]	; 0x40
    d636:	e000      	b.n	d63a <am_util_stdio_vsprintf+0x4ca>
    d638:	2300      	movs	r3, #0
    d63a:	68fa      	ldr	r2, [r7, #12]
    d63c:	4413      	add	r3, r2
    d63e:	60fb      	str	r3, [r7, #12]
                    ui32CharCnt += iWidth;
    d640:	6c3b      	ldr	r3, [r7, #64]	; 0x40
    d642:	6c7a      	ldr	r2, [r7, #68]	; 0x44
    d644:	4413      	add	r3, r2
    d646:	647b      	str	r3, [r7, #68]	; 0x44
                    iWidth = 0;
    d648:	2300      	movs	r3, #0
    d64a:	643b      	str	r3, [r7, #64]	; 0x40

                    if ( bNeg  &&  (ui8PadChar == ' ') )
    d64c:	f897 3034 	ldrb.w	r3, [r7, #52]	; 0x34
    d650:	2b00      	cmp	r3, #0
    d652:	d01e      	beq.n	d692 <am_util_stdio_vsprintf+0x522>
    d654:	f897 3037 	ldrb.w	r3, [r7, #55]	; 0x37
    d658:	2b20      	cmp	r3, #32
    d65a:	d11a      	bne.n	d692 <am_util_stdio_vsprintf+0x522>
                    {
                        //
                        // Print the neg sign AFTER the leading blanks
                        //
                        if ( pcBuf )
    d65c:	68fb      	ldr	r3, [r7, #12]
    d65e:	2b00      	cmp	r3, #0
    d660:	d004      	beq.n	d66c <am_util_stdio_vsprintf+0x4fc>
                        {
                            *pcBuf++ = '-';
    d662:	68fb      	ldr	r3, [r7, #12]
    d664:	1c5a      	adds	r2, r3, #1
    d666:	60fa      	str	r2, [r7, #12]
    d668:	222d      	movs	r2, #45	; 0x2d
    d66a:	701a      	strb	r2, [r3, #0]
                        }

                        ++ui32CharCnt;
    d66c:	6c7b      	ldr	r3, [r7, #68]	; 0x44
    d66e:	3301      	adds	r3, #1
    d670:	647b      	str	r3, [r7, #68]	; 0x44
    d672:	e00e      	b.n	d692 <am_util_stdio_vsprintf+0x522>
                    }
                }
                else
                {
                    if ( bNeg )
    d674:	f897 3034 	ldrb.w	r3, [r7, #52]	; 0x34
    d678:	2b00      	cmp	r3, #0
    d67a:	d00a      	beq.n	d692 <am_util_stdio_vsprintf+0x522>
                    {
                        if ( pcBuf )
    d67c:	68fb      	ldr	r3, [r7, #12]
    d67e:	2b00      	cmp	r3, #0
    d680:	d004      	beq.n	d68c <am_util_stdio_vsprintf+0x51c>
                        {
                            *pcBuf++ = '-';
    d682:	68fb      	ldr	r3, [r7, #12]
    d684:	1c5a      	adds	r2, r3, #1
    d686:	60fa      	str	r2, [r7, #12]
    d688:	222d      	movs	r2, #45	; 0x2d
    d68a:	701a      	strb	r2, [r3, #0]
                        }
                        ++ui32CharCnt;
    d68c:	6c7b      	ldr	r3, [r7, #68]	; 0x44
    d68e:	3301      	adds	r3, #1
    d690:	647b      	str	r3, [r7, #68]	; 0x44
                    }
                }

                iVal = uint64_to_str(ui64Val, pcBuf);
    d692:	68fa      	ldr	r2, [r7, #12]
    d694:	e9d7 0112 	ldrd	r0, r1, [r7, #72]	; 0x48
    d698:	f7ff fb7f 	bl	cd9a <uint64_to_str>
    d69c:	63f8      	str	r0, [r7, #60]	; 0x3c

                if ( pcBuf )
    d69e:	68fb      	ldr	r3, [r7, #12]
    d6a0:	2b00      	cmp	r3, #0
    d6a2:	d003      	beq.n	d6ac <am_util_stdio_vsprintf+0x53c>
                {
                    pcBuf += iVal;
    d6a4:	6bfb      	ldr	r3, [r7, #60]	; 0x3c
    d6a6:	68fa      	ldr	r2, [r7, #12]
    d6a8:	4413      	add	r3, r2
    d6aa:	60fb      	str	r3, [r7, #12]
                }

                ui32CharCnt += iVal;
    d6ac:	6bfb      	ldr	r3, [r7, #60]	; 0x3c
    d6ae:	6c7a      	ldr	r2, [r7, #68]	; 0x44
    d6b0:	4413      	add	r3, r2
    d6b2:	647b      	str	r3, [r7, #68]	; 0x44
                break;
    d6b4:	e04c      	b.n	d750 <am_util_stdio_vsprintf+0x5e0>


            case 'f':
            case 'F':
                if ( pcBuf )
    d6b6:	68fb      	ldr	r3, [r7, #12]
    d6b8:	2b00      	cmp	r3, #0
    d6ba:	d048      	beq.n	d74e <am_util_stdio_vsprintf+0x5de>
                {
                    float fValue = va_arg(pArgs, double);
    d6bc:	687b      	ldr	r3, [r7, #4]
    d6be:	3307      	adds	r3, #7
    d6c0:	f023 0307 	bic.w	r3, r3, #7
    d6c4:	f103 0208 	add.w	r2, r3, #8
    d6c8:	607a      	str	r2, [r7, #4]
    d6ca:	e9d3 3400 	ldrd	r3, r4, [r3]
    d6ce:	4618      	mov	r0, r3
    d6d0:	4621      	mov	r1, r4
    d6d2:	f7fe ffcb 	bl	c66c <__aeabi_d2f>
    d6d6:	4603      	mov	r3, r0
    d6d8:	61bb      	str	r3, [r7, #24]

                    //
                    // pcBuf is an input (size of buffer) and also an output of ftoa()
                    //
                    *(uint32_t*)pcBuf = 20;
    d6da:	68fb      	ldr	r3, [r7, #12]
    d6dc:	2214      	movs	r2, #20
    d6de:	601a      	str	r2, [r3, #0]

                    iVal = ftoa(fValue, pcBuf, iPrecision);
    d6e0:	6bb9      	ldr	r1, [r7, #56]	; 0x38
    d6e2:	68f8      	ldr	r0, [r7, #12]
    d6e4:	ed97 0a06 	vldr	s0, [r7, #24]
    d6e8:	f7ff fc44 	bl	cf74 <ftoa>
    d6ec:	63f8      	str	r0, [r7, #60]	; 0x3c
                    if ( iVal < 0 )
    d6ee:	6bfb      	ldr	r3, [r7, #60]	; 0x3c
    d6f0:	2b00      	cmp	r3, #0
    d6f2:	da14      	bge.n	d71e <am_util_stdio_vsprintf+0x5ae>
                    {
                        uint32_t u32PrntErrVal;
                        if ( iVal == AM_FTOA_ERR_VAL_TOO_SMALL )
    d6f4:	6bfb      	ldr	r3, [r7, #60]	; 0x3c
    d6f6:	f1b3 3fff 	cmp.w	r3, #4294967295	; 0xffffffff
    d6fa:	d102      	bne.n	d702 <am_util_stdio_vsprintf+0x592>
                        {
                            u32PrntErrVal = (0x00 << 24) | ('0' << 16) |
    d6fc:	4b1e      	ldr	r3, [pc, #120]	; (d778 <am_util_stdio_vsprintf+0x608>)
    d6fe:	633b      	str	r3, [r7, #48]	; 0x30
    d700:	e008      	b.n	d714 <am_util_stdio_vsprintf+0x5a4>
                                            ('.' << 8)   | ('0' << 0);  // "0.0"
                        }
                        else if ( iVal == AM_FTOA_ERR_VAL_TOO_LARGE )
    d702:	6bfb      	ldr	r3, [r7, #60]	; 0x3c
    d704:	f113 0f02 	cmn.w	r3, #2
    d708:	d102      	bne.n	d710 <am_util_stdio_vsprintf+0x5a0>
                        {
                            u32PrntErrVal = (0x00 << 24) | ('#' << 16) |
    d70a:	4b1c      	ldr	r3, [pc, #112]	; (d77c <am_util_stdio_vsprintf+0x60c>)
    d70c:	633b      	str	r3, [r7, #48]	; 0x30
    d70e:	e001      	b.n	d714 <am_util_stdio_vsprintf+0x5a4>
                                            ('.' << 8)   | ('#' << 0);  // "#.#"
                        }
                        else
                        {
                            u32PrntErrVal = (0x00 << 24) | ('?' << 16) |
    d710:	4b1b      	ldr	r3, [pc, #108]	; (d780 <am_util_stdio_vsprintf+0x610>)
    d712:	633b      	str	r3, [r7, #48]	; 0x30
                                            ('.' << 8)   | ('?' << 0);  // "?.?"
                        }
                        *(uint32_t*)pcBuf = u32PrntErrVal;
    d714:	68fb      	ldr	r3, [r7, #12]
    d716:	6b3a      	ldr	r2, [r7, #48]	; 0x30
    d718:	601a      	str	r2, [r3, #0]
                        iVal = 3;
    d71a:	2303      	movs	r3, #3
    d71c:	63fb      	str	r3, [r7, #60]	; 0x3c
                    }
                    ui32CharCnt += iVal;
    d71e:	6bfb      	ldr	r3, [r7, #60]	; 0x3c
    d720:	6c7a      	ldr	r2, [r7, #68]	; 0x44
    d722:	4413      	add	r3, r2
    d724:	647b      	str	r3, [r7, #68]	; 0x44
                    pcBuf += iVal;
    d726:	6bfb      	ldr	r3, [r7, #60]	; 0x3c
    d728:	68fa      	ldr	r2, [r7, #12]
    d72a:	4413      	add	r3, r2
    d72c:	60fb      	str	r3, [r7, #12]
                }
                break;
    d72e:	e00e      	b.n	d74e <am_util_stdio_vsprintf+0x5de>
            // For non-handled specifiers, we'll just print the character.
            // e.g. this will allow the normal printing of a '%' using
            // "%%".
            //
            default:
                if ( pcBuf )
    d730:	68fb      	ldr	r3, [r7, #12]
    d732:	2b00      	cmp	r3, #0
    d734:	d005      	beq.n	d742 <am_util_stdio_vsprintf+0x5d2>
                {
                    *pcBuf++ = *pcFmt;
    d736:	68fb      	ldr	r3, [r7, #12]
    d738:	1c5a      	adds	r2, r3, #1
    d73a:	60fa      	str	r2, [r7, #12]
    d73c:	68ba      	ldr	r2, [r7, #8]
    d73e:	7812      	ldrb	r2, [r2, #0]
    d740:	701a      	strb	r2, [r3, #0]
                }

                ++ui32CharCnt;
    d742:	6c7b      	ldr	r3, [r7, #68]	; 0x44
    d744:	3301      	adds	r3, #1
    d746:	647b      	str	r3, [r7, #68]	; 0x44
                break;
    d748:	e002      	b.n	d750 <am_util_stdio_vsprintf+0x5e0>
                break;
    d74a:	bf00      	nop
    d74c:	e000      	b.n	d750 <am_util_stdio_vsprintf+0x5e0>
                break;
    d74e:	bf00      	nop
        } // switch()

        //
        // Bump the format specification to the next character
        //
        ++pcFmt;
    d750:	68bb      	ldr	r3, [r7, #8]
    d752:	3301      	adds	r3, #1
    d754:	60bb      	str	r3, [r7, #8]
    while ( *pcFmt != 0x0 )
    d756:	68bb      	ldr	r3, [r7, #8]
    d758:	781b      	ldrb	r3, [r3, #0]
    d75a:	2b00      	cmp	r3, #0
    d75c:	f47f ad13 	bne.w	d186 <am_util_stdio_vsprintf+0x16>
    } // while ()

    //
    // Terminate the string
    //
    if ( pcBuf )
    d760:	68fb      	ldr	r3, [r7, #12]
    d762:	2b00      	cmp	r3, #0
    d764:	d002      	beq.n	d76c <am_util_stdio_vsprintf+0x5fc>
    {
        *pcBuf = 0x0;
    d766:	68fb      	ldr	r3, [r7, #12]
    d768:	2200      	movs	r2, #0
    d76a:	701a      	strb	r2, [r3, #0]
    }

    return (ui32CharCnt);
    d76c:	6c7b      	ldr	r3, [r7, #68]	; 0x44
}
    d76e:	4618      	mov	r0, r3
    d770:	375c      	adds	r7, #92	; 0x5c
    d772:	46bd      	mov	sp, r7
    d774:	bd90      	pop	{r4, r7, pc}
    d776:	bf00      	nop
    d778:	00302e30 	.word	0x00302e30
    d77c:	00232e23 	.word	0x00232e23
    d780:	003f2e3f 	.word	0x003f2e3f

0000d784 <am_util_stdio_printf>:
//! @return uint32_t representing the number of characters printed.
//
// *****************************************************************************
uint32_t
am_util_stdio_printf(const char *pcFmt, ...)
{
    d784:	b40f      	push	{r0, r1, r2, r3}
    d786:	b580      	push	{r7, lr}
    d788:	b082      	sub	sp, #8
    d78a:	af00      	add	r7, sp, #0
    uint32_t ui32NumChars;

    if (!g_pfnCharPrint)
    d78c:	4b0d      	ldr	r3, [pc, #52]	; (d7c4 <am_util_stdio_printf+0x40>)
    d78e:	681b      	ldr	r3, [r3, #0]
    d790:	2b00      	cmp	r3, #0
    d792:	d101      	bne.n	d798 <am_util_stdio_printf+0x14>
    {
        return 0;
    d794:	2300      	movs	r3, #0
    d796:	e00d      	b.n	d7b4 <am_util_stdio_printf+0x30>

    //
    // Convert to the desired string.
    //
    va_list pArgs;
    va_start(pArgs, pcFmt);
    d798:	f107 0314 	add.w	r3, r7, #20
    d79c:	603b      	str	r3, [r7, #0]
    ui32NumChars = am_util_stdio_vsprintf(g_prfbuf, pcFmt, pArgs);
    d79e:	683a      	ldr	r2, [r7, #0]
    d7a0:	6939      	ldr	r1, [r7, #16]
    d7a2:	4809      	ldr	r0, [pc, #36]	; (d7c8 <am_util_stdio_printf+0x44>)
    d7a4:	f7ff fce4 	bl	d170 <am_util_stdio_vsprintf>
    d7a8:	6078      	str	r0, [r7, #4]
    va_end(pArgs);

    //
    // This is where we print the buffer to the configured interface.
    //
    g_pfnCharPrint(g_prfbuf);
    d7aa:	4b06      	ldr	r3, [pc, #24]	; (d7c4 <am_util_stdio_printf+0x40>)
    d7ac:	681b      	ldr	r3, [r3, #0]
    d7ae:	4806      	ldr	r0, [pc, #24]	; (d7c8 <am_util_stdio_printf+0x44>)
    d7b0:	4798      	blx	r3

    //
    // return the number of characters printed.
    //
    return ui32NumChars;
    d7b2:	687b      	ldr	r3, [r7, #4]
}
    d7b4:	4618      	mov	r0, r3
    d7b6:	3708      	adds	r7, #8
    d7b8:	46bd      	mov	sp, r7
    d7ba:	e8bd 4080 	ldmia.w	sp!, {r7, lr}
    d7be:	b004      	add	sp, #16
    d7c0:	4770      	bx	lr
    d7c2:	bf00      	nop
    d7c4:	1000c174 	.word	0x1000c174
    d7c8:	1000c050 	.word	0x1000c050

0000d7cc <am_app_utils_ring_buffer_init>:
//! @return
//
//*****************************************************************************
void
am_app_utils_ring_buffer_init(am_app_utils_ring_buffer_t* ring_buffs, am_app_utils_ringbuff_setup_t setup)
{
    d7cc:	b480      	push	{r7}
    d7ce:	b085      	sub	sp, #20
    d7d0:	af00      	add	r7, sp, #0
    d7d2:	60f8      	str	r0, [r7, #12]
    d7d4:	4638      	mov	r0, r7
    d7d6:	e880 000e 	stmia.w	r0, {r1, r2, r3}
    ring_buffs[setup.indx].ui32BufferHead_read = 0;
    d7da:	683b      	ldr	r3, [r7, #0]
    d7dc:	461a      	mov	r2, r3
    d7de:	4613      	mov	r3, r2
    d7e0:	009b      	lsls	r3, r3, #2
    d7e2:	4413      	add	r3, r2
    d7e4:	009b      	lsls	r3, r3, #2
    d7e6:	461a      	mov	r2, r3
    d7e8:	68fb      	ldr	r3, [r7, #12]
    d7ea:	4413      	add	r3, r2
    d7ec:	2200      	movs	r2, #0
    d7ee:	609a      	str	r2, [r3, #8]
    ring_buffs[setup.indx].ui32BufferTail_write = 0;
    d7f0:	683b      	ldr	r3, [r7, #0]
    d7f2:	461a      	mov	r2, r3
    d7f4:	4613      	mov	r3, r2
    d7f6:	009b      	lsls	r3, r3, #2
    d7f8:	4413      	add	r3, r2
    d7fa:	009b      	lsls	r3, r3, #2
    d7fc:	461a      	mov	r2, r3
    d7fe:	68fb      	ldr	r3, [r7, #12]
    d800:	4413      	add	r3, r2
    d802:	2200      	movs	r2, #0
    d804:	605a      	str	r2, [r3, #4]
    ring_buffs[setup.indx].ui32OverWriting = 0;
    d806:	683b      	ldr	r3, [r7, #0]
    d808:	461a      	mov	r2, r3
    d80a:	4613      	mov	r3, r2
    d80c:	009b      	lsls	r3, r3, #2
    d80e:	4413      	add	r3, r2
    d810:	009b      	lsls	r3, r3, #2
    d812:	461a      	mov	r2, r3
    d814:	68fb      	ldr	r3, [r7, #12]
    d816:	4413      	add	r3, r2
    d818:	2200      	movs	r2, #0
    d81a:	60da      	str	r2, [r3, #12]
    ring_buffs[setup.indx].ui32Capacity = setup.ui32ByteSize;
    d81c:	683b      	ldr	r3, [r7, #0]
    d81e:	461a      	mov	r2, r3
    d820:	4613      	mov	r3, r2
    d822:	009b      	lsls	r3, r3, #2
    d824:	4413      	add	r3, r2
    d826:	009b      	lsls	r3, r3, #2
    d828:	461a      	mov	r2, r3
    d82a:	68fb      	ldr	r3, [r7, #12]
    d82c:	4413      	add	r3, r2
    d82e:	68ba      	ldr	r2, [r7, #8]
    d830:	611a      	str	r2, [r3, #16]
    ring_buffs[setup.indx].pui8Data = setup.pData;
    d832:	683b      	ldr	r3, [r7, #0]
    d834:	461a      	mov	r2, r3
    d836:	4613      	mov	r3, r2
    d838:	009b      	lsls	r3, r3, #2
    d83a:	4413      	add	r3, r2
    d83c:	009b      	lsls	r3, r3, #2
    d83e:	461a      	mov	r2, r3
    d840:	68fb      	ldr	r3, [r7, #12]
    d842:	4413      	add	r3, r2
    d844:	687a      	ldr	r2, [r7, #4]
    d846:	601a      	str	r2, [r3, #0]
}
    d848:	bf00      	nop
    d84a:	3714      	adds	r7, #20
    d84c:	46bd      	mov	sp, r7
    d84e:	f85d 7b04 	ldr.w	r7, [sp], #4
    d852:	4770      	bx	lr

0000d854 <am_app_utils_ring_buffer_init_all>:

void
am_app_utils_ring_buffer_init_all(am_app_utils_ring_buffer_t* ring_buffs, const am_app_utils_ringbuff_setup_t* setup_array, 
                                    uint32_t ui32BufferCount)
{
    d854:	b580      	push	{r7, lr}
    d856:	b086      	sub	sp, #24
    d858:	af00      	add	r7, sp, #0
    d85a:	60f8      	str	r0, [r7, #12]
    d85c:	60b9      	str	r1, [r7, #8]
    d85e:	607a      	str	r2, [r7, #4]
    uint32_t ringbuff = 0;
    d860:	2300      	movs	r3, #0
    d862:	617b      	str	r3, [r7, #20]
    for(ringbuff =0; ringbuff<ui32BufferCount; ringbuff++)
    d864:	2300      	movs	r3, #0
    d866:	617b      	str	r3, [r7, #20]
    d868:	e00e      	b.n	d888 <am_app_utils_ring_buffer_init_all+0x34>
    {
        am_app_utils_ring_buffer_init(ring_buffs,setup_array[ringbuff]);    
    d86a:	697a      	ldr	r2, [r7, #20]
    d86c:	4613      	mov	r3, r2
    d86e:	005b      	lsls	r3, r3, #1
    d870:	4413      	add	r3, r2
    d872:	009b      	lsls	r3, r3, #2
    d874:	461a      	mov	r2, r3
    d876:	68bb      	ldr	r3, [r7, #8]
    d878:	4413      	add	r3, r2
    d87a:	cb0e      	ldmia	r3, {r1, r2, r3}
    d87c:	68f8      	ldr	r0, [r7, #12]
    d87e:	f7ff ffa5 	bl	d7cc <am_app_utils_ring_buffer_init>
    for(ringbuff =0; ringbuff<ui32BufferCount; ringbuff++)
    d882:	697b      	ldr	r3, [r7, #20]
    d884:	3301      	adds	r3, #1
    d886:	617b      	str	r3, [r7, #20]
    d888:	697a      	ldr	r2, [r7, #20]
    d88a:	687b      	ldr	r3, [r7, #4]
    d88c:	429a      	cmp	r2, r3
    d88e:	d3ec      	bcc.n	d86a <am_app_utils_ring_buffer_init_all+0x16>
    }

}
    d890:	bf00      	nop
    d892:	3718      	adds	r7, #24
    d894:	46bd      	mov	sp, r7
    d896:	bd80      	pop	{r7, pc}

0000d898 <am_devices_led_init>:
//! @return None.
//
//*****************************************************************************
void
am_devices_led_init(am_devices_led_t *psLED)
{
    d898:	b580      	push	{r7, lr}
    d89a:	b082      	sub	sp, #8
    d89c:	af00      	add	r7, sp, #0
    d89e:	6078      	str	r0, [r7, #4]
    if ( (psLED == NULL)    ||
    d8a0:	687b      	ldr	r3, [r7, #4]
    d8a2:	2b00      	cmp	r3, #0
    d8a4:	d03d      	beq.n	d922 <am_devices_led_init+0x8a>
         (psLED->ui32GPIONumber >= AM_HAL_GPIO_MAX_PADS) )
    d8a6:	687b      	ldr	r3, [r7, #4]
    d8a8:	681b      	ldr	r3, [r3, #0]
    if ( (psLED == NULL)    ||
    d8aa:	2b31      	cmp	r3, #49	; 0x31
    d8ac:	d839      	bhi.n	d922 <am_devices_led_init+0x8a>

#if AM_APOLLO3_GPIO
    //
    // Handle Direct Drive Versus 3-State (with pull-up or no buffer).
    //
    if ( AM_DEVICES_LED_POL_DIRECT_DRIVE_M & psLED->ui32Polarity )
    d8ae:	687b      	ldr	r3, [r7, #4]
    d8b0:	685b      	ldr	r3, [r3, #4]
    d8b2:	f003 0302 	and.w	r3, r3, #2
    d8b6:	2b00      	cmp	r3, #0
    d8b8:	d019      	beq.n	d8ee <am_devices_led_init+0x56>
    {
        //
        // Configure the pin as a push-pull GPIO output.
        //
        am_hal_gpio_pinconfig(psLED->ui32GPIONumber, g_AM_HAL_GPIO_OUTPUT);
    d8ba:	687b      	ldr	r3, [r7, #4]
    d8bc:	681a      	ldr	r2, [r3, #0]
    d8be:	4b1b      	ldr	r3, [pc, #108]	; (d92c <am_devices_led_init+0x94>)
    d8c0:	6819      	ldr	r1, [r3, #0]
    d8c2:	4610      	mov	r0, r2
    d8c4:	f001 f9a6 	bl	ec14 <am_hal_gpio_pinconfig>
        // state.  Note that for Apollo3 GPIOs in push-pull mode, the output
        // enable, normally a tri-state control, instead functions as an enable
        // for Fast GPIO. Its state does not matter on previous chips, so for
        // normal GPIO usage on Apollo3, it must be disabled.
        //
        am_hal_gpio_state_write(psLED->ui32GPIONumber, AM_HAL_GPIO_OUTPUT_TRISTATE_DISABLE);
    d8c8:	687b      	ldr	r3, [r7, #4]
    d8ca:	681b      	ldr	r3, [r3, #0]
    d8cc:	2103      	movs	r1, #3
    d8ce:	4618      	mov	r0, r3
    d8d0:	f001 fb0e 	bl	eef0 <am_hal_gpio_state_write>
        am_hal_gpio_state_write(psLED->ui32GPIONumber,
    d8d4:	687b      	ldr	r3, [r7, #4]
    d8d6:	681a      	ldr	r2, [r3, #0]
                                psLED->ui32Polarity & AM_DEVICES_LED_POL_POLARITY_M ?
    d8d8:	687b      	ldr	r3, [r7, #4]
    d8da:	685b      	ldr	r3, [r3, #4]
                                AM_HAL_GPIO_OUTPUT_SET : AM_HAL_GPIO_OUTPUT_CLEAR);
    d8dc:	b2db      	uxtb	r3, r3
    d8de:	f003 0301 	and.w	r3, r3, #1
    d8e2:	b2db      	uxtb	r3, r3
        am_hal_gpio_state_write(psLED->ui32GPIONumber,
    d8e4:	4619      	mov	r1, r3
    d8e6:	4610      	mov	r0, r2
    d8e8:	f001 fb02 	bl	eef0 <am_hal_gpio_state_write>
    d8ec:	e01a      	b.n	d924 <am_devices_led_init+0x8c>
    else
    {
        //
        // Configure the pin as a tri-state GPIO.
        //
        am_hal_gpio_pinconfig(psLED->ui32GPIONumber, g_AM_HAL_GPIO_TRISTATE);
    d8ee:	687b      	ldr	r3, [r7, #4]
    d8f0:	681a      	ldr	r2, [r3, #0]
    d8f2:	4b0f      	ldr	r3, [pc, #60]	; (d930 <am_devices_led_init+0x98>)
    d8f4:	6819      	ldr	r1, [r3, #0]
    d8f6:	4610      	mov	r0, r2
    d8f8:	f001 f98c 	bl	ec14 <am_hal_gpio_pinconfig>

        //
        // Disable the output driver, and set the output value to the LEDs "ON"
        // state.
        //
        am_hal_gpio_state_write(psLED->ui32GPIONumber, AM_HAL_GPIO_OUTPUT_TRISTATE_DISABLE);
    d8fc:	687b      	ldr	r3, [r7, #4]
    d8fe:	681b      	ldr	r3, [r3, #0]
    d900:	2103      	movs	r1, #3
    d902:	4618      	mov	r0, r3
    d904:	f001 faf4 	bl	eef0 <am_hal_gpio_state_write>
        am_hal_gpio_state_write(psLED->ui32GPIONumber,
    d908:	687b      	ldr	r3, [r7, #4]
    d90a:	681a      	ldr	r2, [r3, #0]
                                psLED->ui32Polarity & AM_DEVICES_LED_POL_POLARITY_M ?
    d90c:	687b      	ldr	r3, [r7, #4]
    d90e:	685b      	ldr	r3, [r3, #4]
                                AM_HAL_GPIO_OUTPUT_SET : AM_HAL_GPIO_OUTPUT_CLEAR);
    d910:	b2db      	uxtb	r3, r3
    d912:	f003 0301 	and.w	r3, r3, #1
    d916:	b2db      	uxtb	r3, r3
        am_hal_gpio_state_write(psLED->ui32GPIONumber,
    d918:	4619      	mov	r1, r3
    d91a:	4610      	mov	r0, r2
    d91c:	f001 fae8 	bl	eef0 <am_hal_gpio_state_write>
    d920:	e000      	b.n	d924 <am_devices_led_init+0x8c>
        return;
    d922:	bf00      	nop
        am_hal_gpio_out_bit_replace(psLED->ui32GPIONumber,
                                    psLED->ui32Polarity &
                                    AM_DEVICES_LED_POL_POLARITY_M );
    }
#endif // AM_APOLLO3_GPIO
}
    d924:	3708      	adds	r7, #8
    d926:	46bd      	mov	sp, r7
    d928:	bd80      	pop	{r7, pc}
    d92a:	bf00      	nop
    d92c:	00011c3c 	.word	0x00011c3c
    d930:	00011b04 	.word	0x00011b04

0000d934 <am_devices_led_array_init>:
//! @return None.
//
//*****************************************************************************
void
am_devices_led_array_init(am_devices_led_t *psLEDs, uint32_t ui32NumLEDs)
{
    d934:	b580      	push	{r7, lr}
    d936:	b084      	sub	sp, #16
    d938:	af00      	add	r7, sp, #0
    d93a:	6078      	str	r0, [r7, #4]
    d93c:	6039      	str	r1, [r7, #0]
    uint32_t i;

    if ( (psLEDs == NULL)                       ||
    d93e:	687b      	ldr	r3, [r7, #4]
    d940:	2b00      	cmp	r3, #0
    d942:	d014      	beq.n	d96e <am_devices_led_array_init+0x3a>
    d944:	683b      	ldr	r3, [r7, #0]
    d946:	2b1f      	cmp	r3, #31
    d948:	d811      	bhi.n	d96e <am_devices_led_array_init+0x3a>
    }

    //
    // Loop through the list of LEDs, configuring each one individually.
    //
    for ( i = 0; i < ui32NumLEDs; i++ )
    d94a:	2300      	movs	r3, #0
    d94c:	60fb      	str	r3, [r7, #12]
    d94e:	e009      	b.n	d964 <am_devices_led_array_init+0x30>
    {
        am_devices_led_init(psLEDs + i);
    d950:	68fb      	ldr	r3, [r7, #12]
    d952:	00db      	lsls	r3, r3, #3
    d954:	687a      	ldr	r2, [r7, #4]
    d956:	4413      	add	r3, r2
    d958:	4618      	mov	r0, r3
    d95a:	f7ff ff9d 	bl	d898 <am_devices_led_init>
    for ( i = 0; i < ui32NumLEDs; i++ )
    d95e:	68fb      	ldr	r3, [r7, #12]
    d960:	3301      	adds	r3, #1
    d962:	60fb      	str	r3, [r7, #12]
    d964:	68fa      	ldr	r2, [r7, #12]
    d966:	683b      	ldr	r3, [r7, #0]
    d968:	429a      	cmp	r2, r3
    d96a:	d3f1      	bcc.n	d950 <am_devices_led_array_init+0x1c>
    d96c:	e000      	b.n	d970 <am_devices_led_array_init+0x3c>
        return;
    d96e:	bf00      	nop
    }
}
    d970:	3710      	adds	r7, #16
    d972:	46bd      	mov	sp, r7
    d974:	bd80      	pop	{r7, pc}

0000d976 <am_devices_led_off>:
//! @return None.
//
//*****************************************************************************
void
am_devices_led_off(am_devices_led_t *psLEDs, uint32_t ui32LEDNum)
{
    d976:	b580      	push	{r7, lr}
    d978:	b082      	sub	sp, #8
    d97a:	af00      	add	r7, sp, #0
    d97c:	6078      	str	r0, [r7, #4]
    d97e:	6039      	str	r1, [r7, #0]
    if ( (psLEDs == NULL)                       ||
    d980:	687b      	ldr	r3, [r7, #4]
    d982:	2b00      	cmp	r3, #0
    d984:	d031      	beq.n	d9ea <am_devices_led_off+0x74>
    d986:	683b      	ldr	r3, [r7, #0]
    d988:	2b1e      	cmp	r3, #30
    d98a:	d82e      	bhi.n	d9ea <am_devices_led_off+0x74>
         (ui32LEDNum >= MAX_LEDS)               ||
         (psLEDs[ui32LEDNum].ui32GPIONumber >= AM_HAL_GPIO_MAX_PADS) )
    d98c:	683b      	ldr	r3, [r7, #0]
    d98e:	00db      	lsls	r3, r3, #3
    d990:	687a      	ldr	r2, [r7, #4]
    d992:	4413      	add	r3, r2
    d994:	681b      	ldr	r3, [r3, #0]
         (ui32LEDNum >= MAX_LEDS)               ||
    d996:	2b31      	cmp	r3, #49	; 0x31
    d998:	d827      	bhi.n	d9ea <am_devices_led_off+0x74>

#if AM_APOLLO3_GPIO
    //
    // Handle Direct Drive Versus 3-State (with pull-up or no buffer).
    //
    if ( AM_DEVICES_LED_POL_DIRECT_DRIVE_M & psLEDs[ui32LEDNum].ui32Polarity )
    d99a:	683b      	ldr	r3, [r7, #0]
    d99c:	00db      	lsls	r3, r3, #3
    d99e:	687a      	ldr	r2, [r7, #4]
    d9a0:	4413      	add	r3, r2
    d9a2:	685b      	ldr	r3, [r3, #4]
    d9a4:	f003 0302 	and.w	r3, r3, #2
    d9a8:	2b00      	cmp	r3, #0
    d9aa:	d014      	beq.n	d9d6 <am_devices_led_off+0x60>
    {
        //
        // Set the output to the correct state for the LED.
        //
        am_hal_gpio_state_write(psLEDs[ui32LEDNum].ui32GPIONumber,
    d9ac:	683b      	ldr	r3, [r7, #0]
    d9ae:	00db      	lsls	r3, r3, #3
    d9b0:	687a      	ldr	r2, [r7, #4]
    d9b2:	4413      	add	r3, r2
    d9b4:	6818      	ldr	r0, [r3, #0]
                                psLEDs[ui32LEDNum].ui32Polarity & AM_DEVICES_LED_POL_POLARITY_M ?
    d9b6:	683b      	ldr	r3, [r7, #0]
    d9b8:	00db      	lsls	r3, r3, #3
    d9ba:	687a      	ldr	r2, [r7, #4]
    d9bc:	4413      	add	r3, r2
    d9be:	685b      	ldr	r3, [r3, #4]
    d9c0:	f003 0301 	and.w	r3, r3, #1
        am_hal_gpio_state_write(psLEDs[ui32LEDNum].ui32GPIONumber,
    d9c4:	2b00      	cmp	r3, #0
    d9c6:	bf0c      	ite	eq
    d9c8:	2301      	moveq	r3, #1
    d9ca:	2300      	movne	r3, #0
    d9cc:	b2db      	uxtb	r3, r3
    d9ce:	4619      	mov	r1, r3
    d9d0:	f001 fa8e 	bl	eef0 <am_hal_gpio_state_write>
    d9d4:	e00a      	b.n	d9ec <am_devices_led_off+0x76>
    else
    {
        //
        // Turn off the output driver for the LED.
        //
        am_hal_gpio_state_write(psLEDs[ui32LEDNum].ui32GPIONumber,
    d9d6:	683b      	ldr	r3, [r7, #0]
    d9d8:	00db      	lsls	r3, r3, #3
    d9da:	687a      	ldr	r2, [r7, #4]
    d9dc:	4413      	add	r3, r2
    d9de:	681b      	ldr	r3, [r3, #0]
    d9e0:	2103      	movs	r1, #3
    d9e2:	4618      	mov	r0, r3
    d9e4:	f001 fa84 	bl	eef0 <am_hal_gpio_state_write>
    d9e8:	e000      	b.n	d9ec <am_devices_led_off+0x76>
        return;
    d9ea:	bf00      	nop
        // Turn off the output driver for the LED.
        //
        am_hal_gpio_out_enable_bit_clear(psLEDs[ui32LEDNum].ui32GPIONumber);
    }
#endif // AM_APOLLO3_GPIO
}
    d9ec:	3708      	adds	r7, #8
    d9ee:	46bd      	mov	sp, r7
    d9f0:	bd80      	pop	{r7, pc}

0000d9f2 <am_devices_led_toggle>:
//! @return None.
//
//*****************************************************************************
void
am_devices_led_toggle(am_devices_led_t *psLEDs, uint32_t ui32LEDNum)
{
    d9f2:	b580      	push	{r7, lr}
    d9f4:	b084      	sub	sp, #16
    d9f6:	af00      	add	r7, sp, #0
    d9f8:	6078      	str	r0, [r7, #4]
    d9fa:	6039      	str	r1, [r7, #0]
    if ( (psLEDs == NULL)                       ||
    d9fc:	687b      	ldr	r3, [r7, #4]
    d9fe:	2b00      	cmp	r3, #0
    da00:	d042      	beq.n	da88 <am_devices_led_toggle+0x96>
    da02:	683b      	ldr	r3, [r7, #0]
    da04:	2b1e      	cmp	r3, #30
    da06:	d83f      	bhi.n	da88 <am_devices_led_toggle+0x96>
         (ui32LEDNum >= MAX_LEDS)               ||
         (psLEDs[ui32LEDNum].ui32GPIONumber >= AM_HAL_GPIO_MAX_PADS) )
    da08:	683b      	ldr	r3, [r7, #0]
    da0a:	00db      	lsls	r3, r3, #3
    da0c:	687a      	ldr	r2, [r7, #4]
    da0e:	4413      	add	r3, r2
    da10:	681b      	ldr	r3, [r3, #0]
         (ui32LEDNum >= MAX_LEDS)               ||
    da12:	2b31      	cmp	r3, #49	; 0x31
    da14:	d838      	bhi.n	da88 <am_devices_led_toggle+0x96>

#if AM_APOLLO3_GPIO
    //
    // Handle Direct Drive Versus 3-State (with pull-up or no buffer).
    //
    if ( AM_DEVICES_LED_POL_DIRECT_DRIVE_M & psLEDs[ui32LEDNum].ui32Polarity )
    da16:	683b      	ldr	r3, [r7, #0]
    da18:	00db      	lsls	r3, r3, #3
    da1a:	687a      	ldr	r2, [r7, #4]
    da1c:	4413      	add	r3, r2
    da1e:	685b      	ldr	r3, [r3, #4]
    da20:	f003 0302 	and.w	r3, r3, #2
    da24:	2b00      	cmp	r3, #0
    da26:	d009      	beq.n	da3c <am_devices_led_toggle+0x4a>
    {
        am_hal_gpio_state_write(psLEDs[ui32LEDNum].ui32GPIONumber,
    da28:	683b      	ldr	r3, [r7, #0]
    da2a:	00db      	lsls	r3, r3, #3
    da2c:	687a      	ldr	r2, [r7, #4]
    da2e:	4413      	add	r3, r2
    da30:	681b      	ldr	r3, [r3, #0]
    da32:	2102      	movs	r1, #2
    da34:	4618      	mov	r0, r3
    da36:	f001 fa5b 	bl	eef0 <am_hal_gpio_state_write>
    da3a:	e026      	b.n	da8a <am_devices_led_toggle+0x98>
        uint32_t ui32Ret, ui32Value;

        //
        // Check to see if the LED pin is enabled.
        //
        ui32Ret = am_hal_gpio_state_read(psLEDs[ui32LEDNum].ui32GPIONumber,
    da3c:	683b      	ldr	r3, [r7, #0]
    da3e:	00db      	lsls	r3, r3, #3
    da40:	687a      	ldr	r2, [r7, #4]
    da42:	4413      	add	r3, r2
    da44:	681b      	ldr	r3, [r3, #0]
    da46:	f107 0208 	add.w	r2, r7, #8
    da4a:	2102      	movs	r1, #2
    da4c:	4618      	mov	r0, r3
    da4e:	f001 fa1d 	bl	ee8c <am_hal_gpio_state_read>
    da52:	60f8      	str	r0, [r7, #12]
                                         AM_HAL_GPIO_ENABLE_READ, &ui32Value);

        if ( ui32Ret == AM_HAL_STATUS_SUCCESS )
    da54:	68fb      	ldr	r3, [r7, #12]
    da56:	2b00      	cmp	r3, #0
    da58:	d117      	bne.n	da8a <am_devices_led_toggle+0x98>
        {
            if ( ui32Value )
    da5a:	68bb      	ldr	r3, [r7, #8]
    da5c:	2b00      	cmp	r3, #0
    da5e:	d009      	beq.n	da74 <am_devices_led_toggle+0x82>
            {
                //
                // If it was enabled, turn if off.
                //
                am_hal_gpio_state_write(psLEDs[ui32LEDNum].ui32GPIONumber,
    da60:	683b      	ldr	r3, [r7, #0]
    da62:	00db      	lsls	r3, r3, #3
    da64:	687a      	ldr	r2, [r7, #4]
    da66:	4413      	add	r3, r2
    da68:	681b      	ldr	r3, [r3, #0]
    da6a:	2103      	movs	r1, #3
    da6c:	4618      	mov	r0, r3
    da6e:	f001 fa3f 	bl	eef0 <am_hal_gpio_state_write>
    da72:	e00a      	b.n	da8a <am_devices_led_toggle+0x98>
            else
            {
                //
                // If it was not enabled, turn it on.
                //
                am_hal_gpio_state_write(psLEDs[ui32LEDNum].ui32GPIONumber,
    da74:	683b      	ldr	r3, [r7, #0]
    da76:	00db      	lsls	r3, r3, #3
    da78:	687a      	ldr	r2, [r7, #4]
    da7a:	4413      	add	r3, r2
    da7c:	681b      	ldr	r3, [r3, #0]
    da7e:	2104      	movs	r1, #4
    da80:	4618      	mov	r0, r3
    da82:	f001 fa35 	bl	eef0 <am_hal_gpio_state_write>
    da86:	e000      	b.n	da8a <am_devices_led_toggle+0x98>
        return;
    da88:	bf00      	nop
            //
            am_hal_gpio_out_enable_bit_set(psLEDs[ui32LEDNum].ui32GPIONumber);
        }
    }
#endif // AM_APOLLO3_GPIO
}
    da8a:	3710      	adds	r7, #16
    da8c:	46bd      	mov	sp, r7
    da8e:	bd80      	pop	{r7, pc}

0000da90 <Reset_Handler>:
Reset_Handler(void)
{
    //
    // Set the vector table pointer.
    //
    __asm("    ldr    r0, =0xE000ED08\n"
    da90:	4811      	ldr	r0, [pc, #68]	; (dad8 <zero_loop+0x12>)
    da92:	4912      	ldr	r1, [pc, #72]	; (dadc <zero_loop+0x16>)
    da94:	6001      	str	r1, [r0, #0]
          "    str    r1, [r0]");

    //
    // Set the stack pointer.
    //
    __asm("    ldr    sp, [r1]");
    da96:	f8d1 d000 	ldr.w	sp, [r1]
#ifndef NOFPU
    //
    // Enable the FPU.
    //
    __asm("ldr  r0, =0xE000ED88\n"
    da9a:	4811      	ldr	r0, [pc, #68]	; (dae0 <zero_loop+0x1a>)
    da9c:	6801      	ldr	r1, [r0, #0]
    da9e:	f441 0170 	orr.w	r1, r1, #15728640	; 0xf00000
    daa2:	6001      	str	r1, [r0, #0]
    daa4:	f3bf 8f4f 	dsb	sy
    daa8:	f3bf 8f6f 	isb	sy
          "isb\n");
#endif
    //
    // Copy the data segment initializers from flash to SRAM.
    //
    __asm("    ldr     r0, =_init_data\n"
    daac:	480d      	ldr	r0, [pc, #52]	; (dae4 <zero_loop+0x1e>)
    daae:	490e      	ldr	r1, [pc, #56]	; (dae8 <zero_loop+0x22>)
    dab0:	4a0e      	ldr	r2, [pc, #56]	; (daec <zero_loop+0x26>)

0000dab2 <copy_loop>:
    dab2:	f850 3b04 	ldr.w	r3, [r0], #4
    dab6:	f841 3b04 	str.w	r3, [r1], #4
    daba:	4291      	cmp	r1, r2
    dabc:	dbf9      	blt.n	dab2 <copy_loop>
          "        cmp     r1, r2\n"
          "        blt     copy_loop\n");
    //
    // Zero fill the bss segment.
    //
    __asm("    ldr     r0, =_sbss\n"
    dabe:	480c      	ldr	r0, [pc, #48]	; (daf0 <zero_loop+0x2a>)
    dac0:	490c      	ldr	r1, [pc, #48]	; (daf4 <zero_loop+0x2e>)
    dac2:	f04f 0200 	mov.w	r2, #0

0000dac6 <zero_loop>:
    dac6:	4288      	cmp	r0, r1
    dac8:	bfb8      	it	lt
    daca:	f840 2b04 	strlt.w	r2, [r0], #4
    dace:	dbfa      	blt.n	dac6 <zero_loop>
          "        blt     zero_loop");

    //
    // Call the application's entry point.
    //
    main();
    dad0:	f7fe fe1c 	bl	c70c <main>

    //
    // If main returns then execute a break point instruction
    //
    __asm("    bkpt     ");
    dad4:	be00      	bkpt	0x0000
}
    dad6:	bf00      	nop
    dad8:	e000ed08 	.word	0xe000ed08
    dadc:	0000c000 	.word	0x0000c000
    dae0:	e000ed88 	.word	0xe000ed88
    dae4:	00025200 	.word	0x00025200
    dae8:	1000c000 	.word	0x1000c000
    daec:	1000c050 	.word	0x1000c050
    daf0:	1000c050 	.word	0x1000c050
    daf4:	1001c18c 	.word	0x1001c18c

0000daf8 <NMI_Handler>:
// by a debugger.
//
//*****************************************************************************
void
NMI_Handler(void)
{
    daf8:	b480      	push	{r7}
    dafa:	af00      	add	r7, sp, #0
    //
    // Go into an infinite loop.
    //
    while(1)
    dafc:	e7fe      	b.n	dafc <NMI_Handler+0x4>

0000dafe <DebugMon_Handler>:
// for examination by a debugger.
//
//*****************************************************************************
void
am_default_isr(void)
{
    dafe:	b480      	push	{r7}
    db00:	af00      	add	r7, sp, #0
    //
    // Go into an infinite loop.
    //
    while(1)
    db02:	e7fe      	b.n	db02 <DebugMon_Handler+0x4>

0000db04 <__NVIC_EnableIRQ>:
  \details Enables a device specific interrupt in the NVIC interrupt controller.
  \param [in]      IRQn  Device specific interrupt number.
  \note    IRQn must not be negative.
 */
__STATIC_INLINE void __NVIC_EnableIRQ(IRQn_Type IRQn)
{
    db04:	b480      	push	{r7}
    db06:	b083      	sub	sp, #12
    db08:	af00      	add	r7, sp, #0
    db0a:	4603      	mov	r3, r0
    db0c:	71fb      	strb	r3, [r7, #7]
  if ((int32_t)(IRQn) >= 0)
    db0e:	f997 3007 	ldrsb.w	r3, [r7, #7]
    db12:	2b00      	cmp	r3, #0
    db14:	db0b      	blt.n	db2e <__NVIC_EnableIRQ+0x2a>
  {
    NVIC->ISER[(((uint32_t)IRQn) >> 5UL)] = (uint32_t)(1UL << (((uint32_t)IRQn) & 0x1FUL));
    db16:	79fb      	ldrb	r3, [r7, #7]
    db18:	f003 021f 	and.w	r2, r3, #31
    db1c:	4907      	ldr	r1, [pc, #28]	; (db3c <__NVIC_EnableIRQ+0x38>)
    db1e:	f997 3007 	ldrsb.w	r3, [r7, #7]
    db22:	095b      	lsrs	r3, r3, #5
    db24:	2001      	movs	r0, #1
    db26:	fa00 f202 	lsl.w	r2, r0, r2
    db2a:	f841 2023 	str.w	r2, [r1, r3, lsl #2]
  }
}
    db2e:	bf00      	nop
    db30:	370c      	adds	r7, #12
    db32:	46bd      	mov	sp, r7
    db34:	f85d 7b04 	ldr.w	r7, [sp], #4
    db38:	4770      	bx	lr
    db3a:	bf00      	nop
    db3c:	e000e100 	.word	0xe000e100

0000db40 <DebugLog>:

//*****************************************************************************
// The stdio function for debug usage
//*****************************************************************************

void DebugLog(const char* s) { am_util_stdio_printf("%s", s); }
    db40:	b580      	push	{r7, lr}
    db42:	b082      	sub	sp, #8
    db44:	af00      	add	r7, sp, #0
    db46:	6078      	str	r0, [r7, #4]
    db48:	6879      	ldr	r1, [r7, #4]
    db4a:	4803      	ldr	r0, [pc, #12]	; (db58 <DebugLog+0x18>)
    db4c:	f7ff fe1a 	bl	d784 <am_util_stdio_printf>
    db50:	bf00      	nop
    db52:	3708      	adds	r7, #8
    db54:	46bd      	mov	sp, r7
    db56:	bd80      	pop	{r7, pc}
    db58:	00010fdc 	.word	0x00010fdc

0000db5c <DebugLogFloat>:
void DebugLogInt32(int32_t i) { am_util_stdio_printf("%d", i); }
void DebugLogUInt32(uint32_t i) { am_util_stdio_printf("%d", i); }
void DebugLogHex(uint32_t i) { am_util_stdio_printf("0x%8x", i); }
void DebugLogFloat(float i) { am_util_stdio_printf("%f", i); }
    db5c:	b590      	push	{r4, r7, lr}
    db5e:	b083      	sub	sp, #12
    db60:	af00      	add	r7, sp, #0
    db62:	ed87 0a01 	vstr	s0, [r7, #4]
    db66:	6878      	ldr	r0, [r7, #4]
    db68:	f7fe fd28 	bl	c5bc <__aeabi_f2d>
    db6c:	4603      	mov	r3, r0
    db6e:	460c      	mov	r4, r1
    db70:	461a      	mov	r2, r3
    db72:	4623      	mov	r3, r4
    db74:	4803      	ldr	r0, [pc, #12]	; (db84 <DebugLogFloat+0x28>)
    db76:	f7ff fe05 	bl	d784 <am_util_stdio_printf>
    db7a:	bf00      	nop
    db7c:	370c      	adds	r7, #12
    db7e:	46bd      	mov	sp, r7
    db80:	bd90      	pop	{r4, r7, pc}
    db82:	bf00      	nop
    db84:	00010fec 	.word	0x00010fec

0000db88 <timerA0_init>:
// Function to initialize Timer A0 to interrupt every 1/4 second.
//
//*****************************************************************************
void
timerA0_init(void)
{
    db88:	b580      	push	{r7, lr}
    db8a:	b082      	sub	sp, #8
    db8c:	af00      	add	r7, sp, #0
    uint32_t ui32Period;

    //
    // Enable the LFRC.
    //
    am_hal_clkgen_control(AM_HAL_CLKGEN_CONTROL_XTAL_START, 0);
    db8e:	2100      	movs	r1, #0
    db90:	2001      	movs	r0, #1
    db92:	f000 fe59 	bl	e848 <am_hal_clkgen_control>
    

    //
    // Set up timer A0.
    //
    am_hal_ctimer_clear(0, AM_HAL_CTIMER_TIMERA);
    db96:	f64f 71ff 	movw	r1, #65535	; 0xffff
    db9a:	2000      	movs	r0, #0
    db9c:	f000 ff58 	bl	ea50 <am_hal_ctimer_clear>
    am_hal_ctimer_config(0, &g_sTimer0);
    dba0:	490a      	ldr	r1, [pc, #40]	; (dbcc <timerA0_init+0x44>)
    dba2:	2000      	movs	r0, #0
    dba4:	f000 fefa 	bl	e99c <am_hal_ctimer_config>

    //
    // Set up timerA0 to 32Hz from LFRC divided to 1 second period.
    //
    ui32Period = 12000;
    dba8:	f642 63e0 	movw	r3, #12000	; 0x2ee0
    dbac:	607b      	str	r3, [r7, #4]
    am_hal_ctimer_period_set(0, AM_HAL_CTIMER_TIMERA, ui32Period,
    dbae:	687b      	ldr	r3, [r7, #4]
    dbb0:	085b      	lsrs	r3, r3, #1
    dbb2:	687a      	ldr	r2, [r7, #4]
    dbb4:	f64f 71ff 	movw	r1, #65535	; 0xffff
    dbb8:	2000      	movs	r0, #0
    dbba:	f000 ff5d 	bl	ea78 <am_hal_ctimer_period_set>
                             (ui32Period >> 1));

    //
    // Clear the timer Interrupt
    //
    am_hal_ctimer_int_clear(AM_HAL_CTIMER_INT_TIMERA0);
    dbbe:	2001      	movs	r0, #1
    dbc0:	f000 ffc4 	bl	eb4c <am_hal_ctimer_int_clear>
}
    dbc4:	bf00      	nop
    dbc6:	3708      	adds	r7, #8
    dbc8:	46bd      	mov	sp, r7
    dbca:	bd80      	pop	{r7, pc}
    dbcc:	1000c000 	.word	0x1000c000

0000dbd0 <am_app_AEP_sys_init>:
//
// Function to initialize Timer A0 to interrupt every 1/4 second.
//
//*****************************************************************************
void am_app_AEP_sys_init(void)
{
    dbd0:	b580      	push	{r7, lr}
    dbd2:	b082      	sub	sp, #8
    dbd4:	af00      	add	r7, sp, #0
    //
    // Set the clock frequency.
    //
    am_hal_clkgen_control(AM_HAL_CLKGEN_CONTROL_SYSCLK_MAX, 0);
    dbd6:	2100      	movs	r1, #0
    dbd8:	2000      	movs	r0, #0
    dbda:	f000 fe35 	bl	e848 <am_hal_clkgen_control>
    
    //
    // Set the default cache configuration
    //
    am_hal_cachectrl_config(&am_hal_cachectrl_defaults);
    dbde:	4837      	ldr	r0, [pc, #220]	; (dcbc <am_app_AEP_sys_init+0xec>)
    dbe0:	f000 fc90 	bl	e504 <am_hal_cachectrl_config>
    am_hal_cachectrl_enable();
    dbe4:	f000 fcb4 	bl	e550 <am_hal_cachectrl_enable>
    
    //
    // Configure the board for low power operation.
    //
    am_bsp_low_power_init();
    dbe8:	f000 fbc8 	bl	e37c <am_bsp_low_power_init>

#if defined(AM_BSP_NUM_BUTTONS) && defined(AM_BSP_NUM_LEDS)
    //
    // Configure the button pin.
    //
    am_hal_gpio_pinconfig(AM_BSP_GPIO_BUTTON0, g_deepsleep_button0);
    dbec:	4b34      	ldr	r3, [pc, #208]	; (dcc0 <am_app_AEP_sys_init+0xf0>)
    dbee:	6819      	ldr	r1, [r3, #0]
    dbf0:	2010      	movs	r0, #16
    dbf2:	f001 f80f 	bl	ec14 <am_hal_gpio_pinconfig>
    
    //
    // Clear the GPIO Interrupt (write to clear).
    //
    am_hal_gpio_interrupt_clear(AM_HAL_GPIO_BIT(AM_BSP_GPIO_BUTTON0));
    dbf6:	f44f 3080 	mov.w	r0, #65536	; 0x10000
    dbfa:	f04f 0100 	mov.w	r1, #0
    dbfe:	f001 f9df 	bl	efc0 <am_hal_gpio_interrupt_clear>
    
    //
    // Enable the GPIO/button interrupt.
    //
    am_hal_gpio_interrupt_enable(AM_HAL_GPIO_BIT(AM_BSP_GPIO_BUTTON0));
    dc02:	f44f 3080 	mov.w	r0, #65536	; 0x10000
    dc06:	f04f 0100 	mov.w	r1, #0
    dc0a:	f001 f9b5 	bl	ef78 <am_hal_gpio_interrupt_enable>
    
    //
    // Configure the LEDs.
    //
    am_devices_led_array_init(am_bsp_psLEDs, AM_BSP_NUM_LEDS);
    dc0e:	2105      	movs	r1, #5
    dc10:	482c      	ldr	r0, [pc, #176]	; (dcc4 <am_app_AEP_sys_init+0xf4>)
    dc12:	f7ff fe8f 	bl	d934 <am_devices_led_array_init>
    
    //
    // Turn the LEDs off
    //
    for (int ix = 0; ix < AM_BSP_NUM_LEDS; ix++) 
    dc16:	2300      	movs	r3, #0
    dc18:	607b      	str	r3, [r7, #4]
    dc1a:	e007      	b.n	dc2c <am_app_AEP_sys_init+0x5c>
    {
        am_devices_led_off(am_bsp_psLEDs, ix);
    dc1c:	687b      	ldr	r3, [r7, #4]
    dc1e:	4619      	mov	r1, r3
    dc20:	4828      	ldr	r0, [pc, #160]	; (dcc4 <am_app_AEP_sys_init+0xf4>)
    dc22:	f7ff fea8 	bl	d976 <am_devices_led_off>
    for (int ix = 0; ix < AM_BSP_NUM_LEDS; ix++) 
    dc26:	687b      	ldr	r3, [r7, #4]
    dc28:	3301      	adds	r3, #1
    dc2a:	607b      	str	r3, [r7, #4]
    dc2c:	687b      	ldr	r3, [r7, #4]
    dc2e:	2b04      	cmp	r3, #4
    dc30:	ddf4      	ble.n	dc1c <am_app_AEP_sys_init+0x4c>
    }
    //
    // TimerA0 init.
    //
    timerA0_init();
    dc32:	f7ff ffa9 	bl	db88 <timerA0_init>

    //
    // Enable the timer Interrupt.
    //
    am_hal_ctimer_int_enable(AM_HAL_CTIMER_INT_TIMERA0);
    dc36:	2001      	movs	r0, #1
    dc38:	f000 ff74 	bl	eb24 <am_hal_ctimer_int_enable>

#endif  // defined(AM_BSP_NUM_BUTTONS)  &&  defined(AM_BSP_NUM_LEDS)

    // Turn on PDM
    am_app_AEP_pdm_init();
    dc3c:	f000 f8e2 	bl	de04 <am_app_AEP_pdm_init>
 
#if AM_CMSIS_REGS
    NVIC_EnableIRQ(GPIO_IRQn);
    dc40:	200d      	movs	r0, #13
    dc42:	f7ff ff5f 	bl	db04 <__NVIC_EnableIRQ>
    NVIC_EnableIRQ(CTIMER_IRQn);
    dc46:	200e      	movs	r0, #14
    dc48:	f7ff ff5c 	bl	db04 <__NVIC_EnableIRQ>
#endif  // AM_CMSIS_REGS

    //
    // Enable interrupts to the core.
    //
    am_hal_interrupt_master_enable();
    dc4c:	f001 f9d6 	bl	effc <am_hal_interrupt_master_enable>
   
    //
    // Initialize the printf interface for UART output
    //
    am_bsp_uart_printf_enable();
    dc50:	f000 fbb4 	bl	e3bc <am_bsp_uart_printf_enable>
#endif

    //
    // Configure of burst mode
    //
    if (AM_HAL_STATUS_SUCCESS == am_hal_burst_mode_initialize(&eBurstModeAvailable))
    dc54:	481c      	ldr	r0, [pc, #112]	; (dcc8 <am_app_AEP_sys_init+0xf8>)
    dc56:	f000 fbdf 	bl	e418 <am_hal_burst_mode_initialize>
    dc5a:	4603      	mov	r3, r0
    dc5c:	2b00      	cmp	r3, #0
    dc5e:	d10b      	bne.n	dc78 <am_app_AEP_sys_init+0xa8>
    {
        if (AM_HAL_BURST_AVAIL == eBurstModeAvailable)
    dc60:	4b19      	ldr	r3, [pc, #100]	; (dcc8 <am_app_AEP_sys_init+0xf8>)
    dc62:	781b      	ldrb	r3, [r3, #0]
    dc64:	2b00      	cmp	r3, #0
    dc66:	d103      	bne.n	dc70 <am_app_AEP_sys_init+0xa0>
        {
            am_util_stdio_printf("Apollo3 Burst Mode is Available\r\n");
    dc68:	4818      	ldr	r0, [pc, #96]	; (dccc <am_app_AEP_sys_init+0xfc>)
    dc6a:	f7ff fd8b 	bl	d784 <am_util_stdio_printf>
    dc6e:	e006      	b.n	dc7e <am_app_AEP_sys_init+0xae>
        }
        else
        {
            am_util_stdio_printf("Apollo3 Burst Mode is Not Available\r\n");
    dc70:	4817      	ldr	r0, [pc, #92]	; (dcd0 <am_app_AEP_sys_init+0x100>)
    dc72:	f7ff fd87 	bl	d784 <am_util_stdio_printf>
    dc76:	e002      	b.n	dc7e <am_app_AEP_sys_init+0xae>
        }
    }
    else
    {
        am_util_stdio_printf("Failed to Initialize for Burst Mode operation\r\n");
    dc78:	4816      	ldr	r0, [pc, #88]	; (dcd4 <am_app_AEP_sys_init+0x104>)
    dc7a:	f7ff fd83 	bl	d784 <am_util_stdio_printf>
    }

#if configUSE_BURST_ALWAYS_ON
    // Put the MCU into "Burst" mode.
    if (AM_HAL_STATUS_SUCCESS == am_hal_burst_mode_enable(&eBurstMode))
    dc7e:	4816      	ldr	r0, [pc, #88]	; (dcd8 <am_app_AEP_sys_init+0x108>)
    dc80:	f000 fc12 	bl	e4a8 <am_hal_burst_mode_enable>
    dc84:	4603      	mov	r3, r0
    dc86:	2b00      	cmp	r3, #0
    dc88:	d107      	bne.n	dc9a <am_app_AEP_sys_init+0xca>
    {
        if (AM_HAL_BURST_MODE == eBurstMode)
    dc8a:	4b13      	ldr	r3, [pc, #76]	; (dcd8 <am_app_AEP_sys_init+0x108>)
    dc8c:	781b      	ldrb	r3, [r3, #0]
    dc8e:	2b00      	cmp	r3, #0
    dc90:	d106      	bne.n	dca0 <am_app_AEP_sys_init+0xd0>
        {
            am_util_stdio_printf("Apollo3 operating in Burst Mode (96MHz)\r\n");
    dc92:	4812      	ldr	r0, [pc, #72]	; (dcdc <am_app_AEP_sys_init+0x10c>)
    dc94:	f7ff fd76 	bl	d784 <am_util_stdio_printf>
    dc98:	e002      	b.n	dca0 <am_app_AEP_sys_init+0xd0>
        }
    }
    else
    {
        am_util_stdio_printf("Failed to Enable Burst Mode operation\r\n");
    dc9a:	4811      	ldr	r0, [pc, #68]	; (dce0 <am_app_AEP_sys_init+0x110>)
    dc9c:	f7ff fd72 	bl	d784 <am_util_stdio_printf>
    }

#endif // configUSE_BURST_ALWAYS_ON

    am_hal_ctimer_start(0, AM_HAL_CTIMER_TIMERA);
    dca0:	f64f 71ff 	movw	r1, #65535	; 0xffff
    dca4:	2000      	movs	r0, #0
    dca6:	f000 fea9 	bl	e9fc <am_hal_ctimer_start>

    am_app_utils_ring_buffer_init_all(am_sys_ring_buffers, g_SysRingBuffSetup, SYS_RINGBUFF_INIT_COUNT);
    dcaa:	2201      	movs	r2, #1
    dcac:	490d      	ldr	r1, [pc, #52]	; (dce4 <am_app_AEP_sys_init+0x114>)
    dcae:	480e      	ldr	r0, [pc, #56]	; (dce8 <am_app_AEP_sys_init+0x118>)
    dcb0:	f7ff fdd0 	bl	d854 <am_app_utils_ring_buffer_init_all>

}
    dcb4:	bf00      	nop
    dcb6:	3708      	adds	r7, #8
    dcb8:	46bd      	mov	sp, r7
    dcba:	bd80      	pop	{r7, pc}
    dcbc:	00011b00 	.word	0x00011b00
    dcc0:	000110cc 	.word	0x000110cc
    dcc4:	1000c00c 	.word	0x1000c00c
    dcc8:	1000c180 	.word	0x1000c180
    dccc:	00010ff0 	.word	0x00010ff0
    dcd0:	00011014 	.word	0x00011014
    dcd4:	0001103c 	.word	0x0001103c
    dcd8:	1000c178 	.word	0x1000c178
    dcdc:	0001106c 	.word	0x0001106c
    dce0:	00011098 	.word	0x00011098
    dce4:	000110c0 	.word	0x000110c0
    dce8:	1001bb88 	.word	0x1001bb88

0000dcec <am_ctimer_isr>:
// Timer Interrupt Service Routine (ISR)
//
//*****************************************************************************
void
am_ctimer_isr(void)
{
    dcec:	b580      	push	{r7, lr}
    dcee:	af00      	add	r7, sp, #0
    //
    // Increment count and set limit based on the number of LEDs available.
    //
    g_ui32TimerCount++;
    dcf0:	4b0f      	ldr	r3, [pc, #60]	; (dd30 <am_ctimer_isr+0x44>)
    dcf2:	681b      	ldr	r3, [r3, #0]
    dcf4:	3301      	adds	r3, #1
    dcf6:	4a0e      	ldr	r2, [pc, #56]	; (dd30 <am_ctimer_isr+0x44>)
    dcf8:	6013      	str	r3, [r2, #0]
    if ( g_ui8DebounceFlag == 1)
    dcfa:	4b0e      	ldr	r3, [pc, #56]	; (dd34 <am_ctimer_isr+0x48>)
    dcfc:	781b      	ldrb	r3, [r3, #0]
    dcfe:	b2db      	uxtb	r3, r3
    dd00:	2b01      	cmp	r3, #1
    dd02:	d10f      	bne.n	dd24 <am_ctimer_isr+0x38>
    {
        g_ui32DebounceTimerCount++;
    dd04:	4b0c      	ldr	r3, [pc, #48]	; (dd38 <am_ctimer_isr+0x4c>)
    dd06:	681b      	ldr	r3, [r3, #0]
    dd08:	3301      	adds	r3, #1
    dd0a:	4a0b      	ldr	r2, [pc, #44]	; (dd38 <am_ctimer_isr+0x4c>)
    dd0c:	6013      	str	r3, [r2, #0]

        if(g_ui32DebounceTimerCount > 300)
    dd0e:	4b0a      	ldr	r3, [pc, #40]	; (dd38 <am_ctimer_isr+0x4c>)
    dd10:	681b      	ldr	r3, [r3, #0]
    dd12:	f5b3 7f96 	cmp.w	r3, #300	; 0x12c
    dd16:	d905      	bls.n	dd24 <am_ctimer_isr+0x38>
        {
            g_sysKeyValue = AM_APP_KEY_0;
    dd18:	4b08      	ldr	r3, [pc, #32]	; (dd3c <am_ctimer_isr+0x50>)
    dd1a:	2201      	movs	r2, #1
    dd1c:	701a      	strb	r2, [r3, #0]
            g_ui8DebounceFlag = 0;
    dd1e:	4b05      	ldr	r3, [pc, #20]	; (dd34 <am_ctimer_isr+0x48>)
    dd20:	2200      	movs	r2, #0
    dd22:	701a      	strb	r2, [r3, #0]
    } 

    //
    // Clear TimerA0 Interrupt (write to clear).
    //
    am_hal_ctimer_int_clear(AM_HAL_CTIMER_INT_TIMERA0);
    dd24:	2001      	movs	r0, #1
    dd26:	f000 ff11 	bl	eb4c <am_hal_ctimer_int_clear>
}
    dd2a:	bf00      	nop
    dd2c:	bd80      	pop	{r7, pc}
    dd2e:	bf00      	nop
    dd30:	1000c154 	.word	0x1000c154
    dd34:	1000c158 	.word	0x1000c158
    dd38:	1000c15c 	.word	0x1000c15c
    dd3c:	1000c160 	.word	0x1000c160

0000dd40 <am_gpio_isr>:
//*****************************************************************************
// GPIO ISR
// Will enable the PDM, set number of frames transferred to 0, and turn on LED
//*****************************************************************************
void am_gpio_isr(void) 
{
    dd40:	b580      	push	{r7, lr}
    dd42:	af00      	add	r7, sp, #0
    //
    // debounce.
    //
    if(g_ui8DebounceFlag == 0)
    dd44:	4b09      	ldr	r3, [pc, #36]	; (dd6c <am_gpio_isr+0x2c>)
    dd46:	781b      	ldrb	r3, [r3, #0]
    dd48:	b2db      	uxtb	r3, r3
    dd4a:	2b00      	cmp	r3, #0
    dd4c:	d105      	bne.n	dd5a <am_gpio_isr+0x1a>
    {
        g_ui8DebounceFlag = 1;
    dd4e:	4b07      	ldr	r3, [pc, #28]	; (dd6c <am_gpio_isr+0x2c>)
    dd50:	2201      	movs	r2, #1
    dd52:	701a      	strb	r2, [r3, #0]
        g_ui32DebounceTimerCount = 0;
    dd54:	4b06      	ldr	r3, [pc, #24]	; (dd70 <am_gpio_isr+0x30>)
    dd56:	2200      	movs	r2, #0
    dd58:	601a      	str	r2, [r3, #0]
    }  
    //
    // Clear the GPIO Interrupt (write to clear).
    //
    am_hal_gpio_interrupt_clear(AM_HAL_GPIO_BIT(AM_BSP_GPIO_BUTTON0));
    dd5a:	f44f 3080 	mov.w	r0, #65536	; 0x10000
    dd5e:	f04f 0100 	mov.w	r1, #0
    dd62:	f001 f92d 	bl	efc0 <am_hal_gpio_interrupt_clear>

}
    dd66:	bf00      	nop
    dd68:	bd80      	pop	{r7, pc}
    dd6a:	bf00      	nop
    dd6c:	1000c158 	.word	0x1000c158
    dd70:	1000c15c 	.word	0x1000c15c

0000dd74 <__NVIC_EnableIRQ>:
{
    dd74:	b480      	push	{r7}
    dd76:	b083      	sub	sp, #12
    dd78:	af00      	add	r7, sp, #0
    dd7a:	4603      	mov	r3, r0
    dd7c:	71fb      	strb	r3, [r7, #7]
  if ((int32_t)(IRQn) >= 0)
    dd7e:	f997 3007 	ldrsb.w	r3, [r7, #7]
    dd82:	2b00      	cmp	r3, #0
    dd84:	db0b      	blt.n	dd9e <__NVIC_EnableIRQ+0x2a>
    NVIC->ISER[(((uint32_t)IRQn) >> 5UL)] = (uint32_t)(1UL << (((uint32_t)IRQn) & 0x1FUL));
    dd86:	79fb      	ldrb	r3, [r7, #7]
    dd88:	f003 021f 	and.w	r2, r3, #31
    dd8c:	4907      	ldr	r1, [pc, #28]	; (ddac <__NVIC_EnableIRQ+0x38>)
    dd8e:	f997 3007 	ldrsb.w	r3, [r7, #7]
    dd92:	095b      	lsrs	r3, r3, #5
    dd94:	2001      	movs	r0, #1
    dd96:	fa00 f202 	lsl.w	r2, r0, r2
    dd9a:	f841 2023 	str.w	r2, [r1, r3, lsl #2]
}
    dd9e:	bf00      	nop
    dda0:	370c      	adds	r7, #12
    dda2:	46bd      	mov	sp, r7
    dda4:	f85d 7b04 	ldr.w	r7, [sp], #4
    dda8:	4770      	bx	lr
    ddaa:	bf00      	nop
    ddac:	e000e100 	.word	0xe000e100

0000ddb0 <__NVIC_SetPriority>:
  \param [in]      IRQn  Interrupt number.
  \param [in]  priority  Priority to set.
  \note    The priority cannot be set for every processor exception.
 */
__STATIC_INLINE void __NVIC_SetPriority(IRQn_Type IRQn, uint32_t priority)
{
    ddb0:	b480      	push	{r7}
    ddb2:	b083      	sub	sp, #12
    ddb4:	af00      	add	r7, sp, #0
    ddb6:	4603      	mov	r3, r0
    ddb8:	6039      	str	r1, [r7, #0]
    ddba:	71fb      	strb	r3, [r7, #7]
  if ((int32_t)(IRQn) >= 0)
    ddbc:	f997 3007 	ldrsb.w	r3, [r7, #7]
    ddc0:	2b00      	cmp	r3, #0
    ddc2:	db0a      	blt.n	ddda <__NVIC_SetPriority+0x2a>
  {
    NVIC->IP[((uint32_t)IRQn)]               = (uint8_t)((priority << (8U - __NVIC_PRIO_BITS)) & (uint32_t)0xFFUL);
    ddc4:	683b      	ldr	r3, [r7, #0]
    ddc6:	b2da      	uxtb	r2, r3
    ddc8:	490c      	ldr	r1, [pc, #48]	; (ddfc <__NVIC_SetPriority+0x4c>)
    ddca:	f997 3007 	ldrsb.w	r3, [r7, #7]
    ddce:	0152      	lsls	r2, r2, #5
    ddd0:	b2d2      	uxtb	r2, r2
    ddd2:	440b      	add	r3, r1
    ddd4:	f883 2300 	strb.w	r2, [r3, #768]	; 0x300
  }
  else
  {
    SCB->SHP[(((uint32_t)IRQn) & 0xFUL)-4UL] = (uint8_t)((priority << (8U - __NVIC_PRIO_BITS)) & (uint32_t)0xFFUL);
  }
}
    ddd8:	e00a      	b.n	ddf0 <__NVIC_SetPriority+0x40>
    SCB->SHP[(((uint32_t)IRQn) & 0xFUL)-4UL] = (uint8_t)((priority << (8U - __NVIC_PRIO_BITS)) & (uint32_t)0xFFUL);
    ddda:	683b      	ldr	r3, [r7, #0]
    dddc:	b2da      	uxtb	r2, r3
    ddde:	4908      	ldr	r1, [pc, #32]	; (de00 <__NVIC_SetPriority+0x50>)
    dde0:	79fb      	ldrb	r3, [r7, #7]
    dde2:	f003 030f 	and.w	r3, r3, #15
    dde6:	3b04      	subs	r3, #4
    dde8:	0152      	lsls	r2, r2, #5
    ddea:	b2d2      	uxtb	r2, r2
    ddec:	440b      	add	r3, r1
    ddee:	761a      	strb	r2, [r3, #24]
}
    ddf0:	bf00      	nop
    ddf2:	370c      	adds	r7, #12
    ddf4:	46bd      	mov	sp, r7
    ddf6:	f85d 7b04 	ldr.w	r7, [sp], #4
    ddfa:	4770      	bx	lr
    ddfc:	e000e100 	.word	0xe000e100
    de00:	e000ed00 	.word	0xe000ed00

0000de04 <am_app_AEP_pdm_init>:

//*****************************************************************************
// PDM initialization.
//*****************************************************************************
void am_app_AEP_pdm_init(void) 
{
    de04:	b580      	push	{r7, lr}
    de06:	b08a      	sub	sp, #40	; 0x28
    de08:	af00      	add	r7, sp, #0
  //
  // Configure the necessary pins.
  //
  am_hal_gpio_pincfg_t sPinCfg = {0, 0, 0, 0, 0, 0, 0, 0, 0, 0, 0, 0};
    de0a:	2300      	movs	r3, #0
    de0c:	627b      	str	r3, [r7, #36]	; 0x24

  // ARPIT 181019
  // sPinCfg.uFuncSel = AM_HAL_PIN_10_PDMCLK;
  // am_hal_gpio_pinconfig(10, sPinCfg);
  sPinCfg.uFuncSel = AM_HAL_PIN_12_PDMCLK;
    de0e:	f897 3024 	ldrb.w	r3, [r7, #36]	; 0x24
    de12:	2205      	movs	r2, #5
    de14:	f362 0302 	bfi	r3, r2, #0, #3
    de18:	f887 3024 	strb.w	r3, [r7, #36]	; 0x24
  am_hal_gpio_pinconfig(12, sPinCfg);
    de1c:	6a79      	ldr	r1, [r7, #36]	; 0x24
    de1e:	200c      	movs	r0, #12
    de20:	f000 fef8 	bl	ec14 <am_hal_gpio_pinconfig>

  sPinCfg.uFuncSel = AM_HAL_PIN_11_PDMDATA;
    de24:	f897 3024 	ldrb.w	r3, [r7, #36]	; 0x24
    de28:	f043 0307 	orr.w	r3, r3, #7
    de2c:	f887 3024 	strb.w	r3, [r7, #36]	; 0x24
  am_hal_gpio_pinconfig(11, sPinCfg);
    de30:	6a79      	ldr	r1, [r7, #36]	; 0x24
    de32:	200b      	movs	r0, #11
    de34:	f000 feee 	bl	ec14 <am_hal_gpio_pinconfig>


    am_hal_pdm_config_t g_sPdmConfig = {
    de38:	1d3b      	adds	r3, r7, #4
    de3a:	2220      	movs	r2, #32
    de3c:	2100      	movs	r1, #0
    de3e:	4618      	mov	r0, r3
    de40:	f003 f840 	bl	10ec4 <memset>
    de44:	230b      	movs	r3, #11
    de46:	717b      	strb	r3, [r7, #5]
    de48:	230b      	movs	r3, #11
    de4a:	71bb      	strb	r3, [r7, #6]
    de4c:	2318      	movs	r3, #24
    de4e:	60bb      	str	r3, [r7, #8]
    de50:	2308      	movs	r3, #8
    de52:	613b      	str	r3, [r7, #16]
    de54:	2305      	movs	r3, #5
    de56:	753b      	strb	r3, [r7, #20]
    de58:	2301      	movs	r3, #1
    de5a:	763b      	strb	r3, [r7, #24]
    de5c:	2303      	movs	r3, #3
    de5e:	767b      	strb	r3, [r7, #25]
    };
    
//
  // Initialize, power-up, and configure the PDM.
  //
    am_hal_pdm_initialize(0, &PDMHandle);
    de60:	4919      	ldr	r1, [pc, #100]	; (dec8 <am_app_AEP_pdm_init+0xc4>)
    de62:	2000      	movs	r0, #0
    de64:	f001 f96c 	bl	f140 <am_hal_pdm_initialize>
    am_hal_pdm_power_control(PDMHandle, AM_HAL_PDM_POWER_ON, false);
    de68:	4b17      	ldr	r3, [pc, #92]	; (dec8 <am_app_AEP_pdm_init+0xc4>)
    de6a:	681b      	ldr	r3, [r3, #0]
    de6c:	2200      	movs	r2, #0
    de6e:	2100      	movs	r1, #0
    de70:	4618      	mov	r0, r3
    de72:	f001 f985 	bl	f180 <am_hal_pdm_power_control>
    am_hal_pdm_configure(PDMHandle, &g_sPdmConfig);
    de76:	4b14      	ldr	r3, [pc, #80]	; (dec8 <am_app_AEP_pdm_init+0xc4>)
    de78:	681b      	ldr	r3, [r3, #0]
    de7a:	1d3a      	adds	r2, r7, #4
    de7c:	4611      	mov	r1, r2
    de7e:	4618      	mov	r0, r3
    de80:	f001 f9bc 	bl	f1fc <am_hal_pdm_configure>
    am_hal_pdm_fifo_flush(PDMHandle);
    de84:	4b10      	ldr	r3, [pc, #64]	; (dec8 <am_app_AEP_pdm_init+0xc4>)
    de86:	681b      	ldr	r3, [r3, #0]
    de88:	4618      	mov	r0, r3
    de8a:	f001 fa9d 	bl	f3c8 <am_hal_pdm_fifo_flush>


  am_hal_pdm_enable(PDMHandle);
    de8e:	4b0e      	ldr	r3, [pc, #56]	; (dec8 <am_app_AEP_pdm_init+0xc4>)
    de90:	681b      	ldr	r3, [r3, #0]
    de92:	4618      	mov	r0, r3
    de94:	f001 fa38 	bl	f308 <am_hal_pdm_enable>

  //
  // Configure and enable PDM interrupts (set up to trigger on DMA
  // completion).
  //
  am_hal_pdm_interrupt_enable(PDMHandle,
    de98:	4b0b      	ldr	r3, [pc, #44]	; (dec8 <am_app_AEP_pdm_init+0xc4>)
    de9a:	681b      	ldr	r3, [r3, #0]
    de9c:	211e      	movs	r1, #30
    de9e:	4618      	mov	r0, r3
    dea0:	f001 faa4 	bl	f3ec <am_hal_pdm_interrupt_enable>
                              (AM_HAL_PDM_INT_DERR | AM_HAL_PDM_INT_DCMP |
                               AM_HAL_PDM_INT_UNDFL | AM_HAL_PDM_INT_OVF));

#if AM_CMSIS_REGS
    NVIC_SetPriority(PDM_IRQn, 4);
    dea4:	2104      	movs	r1, #4
    dea6:	2013      	movs	r0, #19
    dea8:	f7ff ff82 	bl	ddb0 <__NVIC_SetPriority>
    NVIC_EnableIRQ(PDM_IRQn);
    deac:	2013      	movs	r0, #19
    deae:	f7ff ff61 	bl	dd74 <__NVIC_EnableIRQ>


    //
    // Enable PDM
    //
    am_hal_pdm_enable(PDMHandle);
    deb2:	4b05      	ldr	r3, [pc, #20]	; (dec8 <am_app_AEP_pdm_init+0xc4>)
    deb4:	681b      	ldr	r3, [r3, #0]
    deb6:	4618      	mov	r0, r3
    deb8:	f001 fa26 	bl	f308 <am_hal_pdm_enable>
    pdm_trigger_dma();
    debc:	f000 f806 	bl	decc <pdm_trigger_dma>

}
    dec0:	bf00      	nop
    dec2:	3728      	adds	r7, #40	; 0x28
    dec4:	46bd      	mov	sp, r7
    dec6:	bd80      	pop	{r7, pc}
    dec8:	1001c0b4 	.word	0x1001c0b4

0000decc <pdm_trigger_dma>:
  // Start the data transfer.
  //
//  am_hal_pdm_dma_start(PDMHandle, &sTransfer);
//}
void pdm_trigger_dma(void)
{
    decc:	b580      	push	{r7, lr}
    dece:	b082      	sub	sp, #8
    ded0:	af00      	add	r7, sp, #0
    //
    // Configure DMA and target address.
    //
    am_hal_pdm_transfer_t sTransfer;
    sTransfer.ui32TargetAddr = (uint32_t ) g_ui32PCMDataBuff;
    ded2:	4b08      	ldr	r3, [pc, #32]	; (def4 <pdm_trigger_dma+0x28>)
    ded4:	603b      	str	r3, [r7, #0]
    sTransfer.ui32TotalCount = (PCM_FRAME_SIZE * PCM_DATA_BYTES);
    ded6:	f44f 63a0 	mov.w	r3, #1280	; 0x500
    deda:	607b      	str	r3, [r7, #4]

    //
    // Start the data transfer.
    //
    am_hal_pdm_dma_start(PDMHandle, &sTransfer);
    dedc:	4b06      	ldr	r3, [pc, #24]	; (def8 <pdm_trigger_dma+0x2c>)
    dede:	681b      	ldr	r3, [r3, #0]
    dee0:	463a      	mov	r2, r7
    dee2:	4611      	mov	r1, r2
    dee4:	4618      	mov	r0, r3
    dee6:	f001 fa27 	bl	f338 <am_hal_pdm_dma_start>
}
    deea:	bf00      	nop
    deec:	3708      	adds	r7, #8
    deee:	46bd      	mov	sp, r7
    def0:	bd80      	pop	{r7, pc}
    def2:	bf00      	nop
    def4:	1001bbb4 	.word	0x1001bbb4
    def8:	1001c0b4 	.word	0x1001c0b4

0000defc <am_pdm0_isr>:
//
// PDM interrupt handler.
//
//*****************************************************************************
void am_pdm0_isr(void) 
{
    defc:	b580      	push	{r7, lr}
    defe:	b082      	sub	sp, #8
    df00:	af00      	add	r7, sp, #0
#endif
    uint32_t ui32Status;
    //
    // Read the interrupt status.
    //
    am_hal_pdm_interrupt_status_get(PDMHandle, &ui32Status, true);
    df02:	4b13      	ldr	r3, [pc, #76]	; (df50 <am_pdm0_isr+0x54>)
    df04:	681b      	ldr	r3, [r3, #0]
    df06:	1d39      	adds	r1, r7, #4
    df08:	2201      	movs	r2, #1
    df0a:	4618      	mov	r0, r3
    df0c:	f001 fa96 	bl	f43c <am_hal_pdm_interrupt_status_get>
    am_hal_pdm_interrupt_clear(PDMHandle, ui32Status);
    df10:	4b0f      	ldr	r3, [pc, #60]	; (df50 <am_pdm0_isr+0x54>)
    df12:	681b      	ldr	r3, [r3, #0]
    df14:	687a      	ldr	r2, [r7, #4]
    df16:	4611      	mov	r1, r2
    df18:	4618      	mov	r0, r3
    df1a:	f001 fa7d 	bl	f418 <am_hal_pdm_interrupt_clear>
    
    if (ui32Status & AM_HAL_PDM_INT_DCMP)
    df1e:	687b      	ldr	r3, [r7, #4]
    df20:	f003 0308 	and.w	r3, r3, #8
    df24:	2b00      	cmp	r3, #0
    df26:	d005      	beq.n	df34 <am_pdm0_isr+0x38>
    {
        // trigger next traction
        PDMn(0)->DMATOTCOUNT = PCM_FRAME_SIZE*PCM_DATA_BYTES;  // FIFO unit in bytes
    df28:	4b0a      	ldr	r3, [pc, #40]	; (df54 <am_pdm0_isr+0x58>)
    df2a:	f44f 62a0 	mov.w	r2, #1280	; 0x500
    df2e:	f8c3 2288 	str.w	r2, [r3, #648]	; 0x288

#if configUSE_SYSVIEW
    SEGGER_SYSVIEW_RecordExitISR(); //emit Exit ISR signal
#endif

}
    df32:	e009      	b.n	df48 <am_pdm0_isr+0x4c>
    else if(ui32Status & (AM_HAL_PDM_INT_UNDFL | AM_HAL_PDM_INT_OVF))
    df34:	687b      	ldr	r3, [r7, #4]
    df36:	f003 0306 	and.w	r3, r3, #6
    df3a:	2b00      	cmp	r3, #0
    df3c:	d004      	beq.n	df48 <am_pdm0_isr+0x4c>
        am_hal_pdm_fifo_flush(PDMHandle);
    df3e:	4b04      	ldr	r3, [pc, #16]	; (df50 <am_pdm0_isr+0x54>)
    df40:	681b      	ldr	r3, [r3, #0]
    df42:	4618      	mov	r0, r3
    df44:	f001 fa40 	bl	f3c8 <am_hal_pdm_fifo_flush>
}
    df48:	bf00      	nop
    df4a:	3708      	adds	r7, #8
    df4c:	46bd      	mov	sp, r7
    df4e:	bd80      	pop	{r7, pc}
    df50:	1001c0b4 	.word	0x1001c0b4
    df54:	50011000 	.word	0x50011000

0000df58 <stft_init_f32>:
#include "am_app_utils.h"
#include "stft.h"
#include "board_setup.h"

void stft_init_f32(am_app_stft_instance_f32* Sf, arm_rfft_fast_instance_f32* p_armfft, uint16_t fft_len, uint16_t hop, uint16_t roll_frames, const float* window_buff)
{
    df58:	b580      	push	{r7, lr}
    df5a:	b084      	sub	sp, #16
    df5c:	af00      	add	r7, sp, #0
    df5e:	60f8      	str	r0, [r7, #12]
    df60:	60b9      	str	r1, [r7, #8]
    df62:	4611      	mov	r1, r2
    df64:	461a      	mov	r2, r3
    df66:	460b      	mov	r3, r1
    df68:	80fb      	strh	r3, [r7, #6]
    df6a:	4613      	mov	r3, r2
    df6c:	80bb      	strh	r3, [r7, #4]
    Sf->ui16FftLen = fft_len;
    df6e:	68fb      	ldr	r3, [r7, #12]
    df70:	88fa      	ldrh	r2, [r7, #6]
    df72:	801a      	strh	r2, [r3, #0]
    Sf->ui16HopSize = hop;
    df74:	68fb      	ldr	r3, [r7, #12]
    df76:	88ba      	ldrh	r2, [r7, #4]
    df78:	805a      	strh	r2, [r3, #2]
    Sf->ui16SynFrames = roll_frames;
    df7a:	68fb      	ldr	r3, [r7, #12]
    df7c:	8b3a      	ldrh	r2, [r7, #24]
    df7e:	809a      	strh	r2, [r3, #4]
    configASSERT((fft_len >= hop));
    df80:	88fa      	ldrh	r2, [r7, #6]
    df82:	88bb      	ldrh	r3, [r7, #4]
    df84:	429a      	cmp	r2, r3
    df86:	d200      	bcs.n	df8a <stft_init_f32+0x32>
    df88:	e7fe      	b.n	df88 <stft_init_f32+0x30>
    Sf->pfWindowBuffer = window_buff;
    df8a:	68fb      	ldr	r3, [r7, #12]
    df8c:	69fa      	ldr	r2, [r7, #28]
    df8e:	609a      	str	r2, [r3, #8]
    Sf->p_armfft = p_armfft;
    df90:	68fb      	ldr	r3, [r7, #12]
    df92:	68ba      	ldr	r2, [r7, #8]
    df94:	60da      	str	r2, [r3, #12]
    arm_rfft_fast_init_f32(Sf->p_armfft, Sf->ui16FftLen);
    df96:	68fb      	ldr	r3, [r7, #12]
    df98:	68da      	ldr	r2, [r3, #12]
    df9a:	68fb      	ldr	r3, [r7, #12]
    df9c:	881b      	ldrh	r3, [r3, #0]
    df9e:	4619      	mov	r1, r3
    dfa0:	4610      	mov	r0, r2
    dfa2:	f001 ffaf 	bl	ff04 <arm_rfft_fast_init_f32>
}
    dfa6:	bf00      	nop
    dfa8:	3710      	adds	r7, #16
    dfaa:	46bd      	mov	sp, r7
    dfac:	bd80      	pop	{r7, pc}

0000dfae <stft_window_apply_f32>:

void stft_window_apply_f32(int16_t* input_signal, float* windowed_signal, am_app_stft_instance_f32* Sf)
{
    dfae:	b480      	push	{r7}
    dfb0:	b087      	sub	sp, #28
    dfb2:	af00      	add	r7, sp, #0
    dfb4:	60f8      	str	r0, [r7, #12]
    dfb6:	60b9      	str	r1, [r7, #8]
    dfb8:	607a      	str	r2, [r7, #4]
    uint16_t i = 0;
    dfba:	2300      	movs	r3, #0
    dfbc:	82fb      	strh	r3, [r7, #22]
    for(i=0; i < Sf->ui16FftLen; i++)
    dfbe:	2300      	movs	r3, #0
    dfc0:	82fb      	strh	r3, [r7, #22]
    dfc2:	e01b      	b.n	dffc <stft_window_apply_f32+0x4e>
    {
        windowed_signal[i] = input_signal[i] * Sf->pfWindowBuffer[i];
    dfc4:	8afb      	ldrh	r3, [r7, #22]
    dfc6:	005b      	lsls	r3, r3, #1
    dfc8:	68fa      	ldr	r2, [r7, #12]
    dfca:	4413      	add	r3, r2
    dfcc:	f9b3 3000 	ldrsh.w	r3, [r3]
    dfd0:	ee07 3a90 	vmov	s15, r3
    dfd4:	eeb8 7ae7 	vcvt.f32.s32	s14, s15
    dfd8:	687b      	ldr	r3, [r7, #4]
    dfda:	689a      	ldr	r2, [r3, #8]
    dfdc:	8afb      	ldrh	r3, [r7, #22]
    dfde:	009b      	lsls	r3, r3, #2
    dfe0:	4413      	add	r3, r2
    dfe2:	edd3 7a00 	vldr	s15, [r3]
    dfe6:	8afb      	ldrh	r3, [r7, #22]
    dfe8:	009b      	lsls	r3, r3, #2
    dfea:	68ba      	ldr	r2, [r7, #8]
    dfec:	4413      	add	r3, r2
    dfee:	ee67 7a27 	vmul.f32	s15, s14, s15
    dff2:	edc3 7a00 	vstr	s15, [r3]
    for(i=0; i < Sf->ui16FftLen; i++)
    dff6:	8afb      	ldrh	r3, [r7, #22]
    dff8:	3301      	adds	r3, #1
    dffa:	82fb      	strh	r3, [r7, #22]
    dffc:	687b      	ldr	r3, [r7, #4]
    dffe:	881b      	ldrh	r3, [r3, #0]
    e000:	8afa      	ldrh	r2, [r7, #22]
    e002:	429a      	cmp	r2, r3
    e004:	d3de      	bcc.n	dfc4 <stft_window_apply_f32+0x16>
    }
}
    e006:	bf00      	nop
    e008:	371c      	adds	r7, #28
    e00a:	46bd      	mov	sp, r7
    e00c:	f85d 7b04 	ldr.w	r7, [sp], #4
    e010:	4770      	bx	lr

0000e012 <stft_f32>:
//        prev_sample[indx/2-hop] = fft_in_buffer[indx];
//    }
//}

void stft_f32(am_app_stft_instance_f32* Sf, float32_t* windowed_sig, float32_t* stft_result)
{
    e012:	b580      	push	{r7, lr}
    e014:	b084      	sub	sp, #16
    e016:	af00      	add	r7, sp, #0
    e018:	60f8      	str	r0, [r7, #12]
    e01a:	60b9      	str	r1, [r7, #8]
    e01c:	607a      	str	r2, [r7, #4]
//    {
//        input[indx] = windowed_sig[indx];
//        input[2*indx+1] = 0.0;
//    }

    arm_rfft_fast_f32(Sf->p_armfft, windowed_sig, stft_result, 0);
    e01e:	68fb      	ldr	r3, [r7, #12]
    e020:	68d8      	ldr	r0, [r3, #12]
    e022:	2300      	movs	r3, #0
    e024:	687a      	ldr	r2, [r7, #4]
    e026:	68b9      	ldr	r1, [r7, #8]
    e028:	f001 ffee 	bl	10008 <arm_rfft_fast_f32>

}
    e02c:	bf00      	nop
    e02e:	3710      	adds	r7, #16
    e030:	46bd      	mov	sp, r7
    e032:	bd80      	pop	{r7, pc}

0000e034 <istft_f32>:

void istft_f32(am_app_stft_instance_f32* Sf, uint32_t syn_frame, float* input_buff, int16_t* output_pcm)
{
    e034:	b5b0      	push	{r4, r5, r7, lr}
    e036:	b092      	sub	sp, #72	; 0x48
    e038:	af00      	add	r7, sp, #0
    e03a:	60f8      	str	r0, [r7, #12]
    e03c:	60b9      	str	r1, [r7, #8]
    e03e:	607a      	str	r2, [r7, #4]
    e040:	603b      	str	r3, [r7, #0]
    e042:	466b      	mov	r3, sp
    e044:	461d      	mov	r5, r3
    uint32_t indx = 0;
    e046:	2300      	movs	r3, #0
    e048:	633b      	str	r3, [r7, #48]	; 0x30
    uint32_t k = 0;
    e04a:	2300      	movs	r3, #0
    e04c:	637b      	str	r3, [r7, #52]	; 0x34
    uint32_t syn_audio_len = 0;
    e04e:	2300      	movs	r3, #0
    e050:	63bb      	str	r3, [r7, #56]	; 0x38
    uint32_t input_audio_len = 0;
    e052:	2300      	movs	r3, #0
    e054:	63fb      	str	r3, [r7, #60]	; 0x3c
    uint32_t rfft_len = Sf->ui16FftLen/2 + 1; 
    e056:	68fb      	ldr	r3, [r7, #12]
    e058:	881b      	ldrh	r3, [r3, #0]
    e05a:	085b      	lsrs	r3, r3, #1
    e05c:	b29b      	uxth	r3, r3
    e05e:	3301      	adds	r3, #1
    e060:	643b      	str	r3, [r7, #64]	; 0x40
    float input_dummy_buff[rfft_len];
    e062:	6c38      	ldr	r0, [r7, #64]	; 0x40
    e064:	4603      	mov	r3, r0
    e066:	3b01      	subs	r3, #1
    e068:	647b      	str	r3, [r7, #68]	; 0x44
    e06a:	4601      	mov	r1, r0
    e06c:	f04f 0200 	mov.w	r2, #0
    e070:	f04f 0300 	mov.w	r3, #0
    e074:	f04f 0400 	mov.w	r4, #0
    e078:	0154      	lsls	r4, r2, #5
    e07a:	ea44 64d1 	orr.w	r4, r4, r1, lsr #27
    e07e:	014b      	lsls	r3, r1, #5
    e080:	4601      	mov	r1, r0
    e082:	f04f 0200 	mov.w	r2, #0
    e086:	f04f 0300 	mov.w	r3, #0
    e08a:	f04f 0400 	mov.w	r4, #0
    e08e:	0154      	lsls	r4, r2, #5
    e090:	ea44 64d1 	orr.w	r4, r4, r1, lsr #27
    e094:	014b      	lsls	r3, r1, #5
    e096:	0083      	lsls	r3, r0, #2
    e098:	3303      	adds	r3, #3
    e09a:	3307      	adds	r3, #7
    e09c:	08db      	lsrs	r3, r3, #3
    e09e:	00db      	lsls	r3, r3, #3
    e0a0:	ebad 0d03 	sub.w	sp, sp, r3
    e0a4:	466b      	mov	r3, sp
    e0a6:	3303      	adds	r3, #3
    e0a8:	089b      	lsrs	r3, r3, #2
    e0aa:	009b      	lsls	r3, r3, #2
    e0ac:	62fb      	str	r3, [r7, #44]	; 0x2c
    input_audio_len = 3 * syn_frame;
    e0ae:	68ba      	ldr	r2, [r7, #8]
    e0b0:	4613      	mov	r3, r2
    e0b2:	005b      	lsls	r3, r3, #1
    e0b4:	4413      	add	r3, r2
    e0b6:	63fb      	str	r3, [r7, #60]	; 0x3c
    syn_audio_len = Sf->ui16FftLen + (syn_frame-1) * Sf->ui16HopSize;
    e0b8:	68fb      	ldr	r3, [r7, #12]
    e0ba:	881b      	ldrh	r3, [r3, #0]
    e0bc:	4619      	mov	r1, r3
    e0be:	68bb      	ldr	r3, [r7, #8]
    e0c0:	3b01      	subs	r3, #1
    e0c2:	68fa      	ldr	r2, [r7, #12]
    e0c4:	8852      	ldrh	r2, [r2, #2]
    e0c6:	fb02 f303 	mul.w	r3, r2, r3
    e0ca:	440b      	add	r3, r1
    e0cc:	63bb      	str	r3, [r7, #56]	; 0x38
    float ifft_result[Sf->ui16FftLen];
    e0ce:	68fb      	ldr	r3, [r7, #12]
    e0d0:	8818      	ldrh	r0, [r3, #0]
    e0d2:	4603      	mov	r3, r0
    e0d4:	3b01      	subs	r3, #1
    e0d6:	62bb      	str	r3, [r7, #40]	; 0x28
    e0d8:	b281      	uxth	r1, r0
    e0da:	f04f 0200 	mov.w	r2, #0
    e0de:	f04f 0300 	mov.w	r3, #0
    e0e2:	f04f 0400 	mov.w	r4, #0
    e0e6:	0154      	lsls	r4, r2, #5
    e0e8:	ea44 64d1 	orr.w	r4, r4, r1, lsr #27
    e0ec:	014b      	lsls	r3, r1, #5
    e0ee:	b281      	uxth	r1, r0
    e0f0:	f04f 0200 	mov.w	r2, #0
    e0f4:	f04f 0300 	mov.w	r3, #0
    e0f8:	f04f 0400 	mov.w	r4, #0
    e0fc:	0154      	lsls	r4, r2, #5
    e0fe:	ea44 64d1 	orr.w	r4, r4, r1, lsr #27
    e102:	014b      	lsls	r3, r1, #5
    e104:	4603      	mov	r3, r0
    e106:	009b      	lsls	r3, r3, #2
    e108:	3303      	adds	r3, #3
    e10a:	3307      	adds	r3, #7
    e10c:	08db      	lsrs	r3, r3, #3
    e10e:	00db      	lsls	r3, r3, #3
    e110:	ebad 0d03 	sub.w	sp, sp, r3
    e114:	466b      	mov	r3, sp
    e116:	3303      	adds	r3, #3
    e118:	089b      	lsrs	r3, r3, #2
    e11a:	009b      	lsls	r3, r3, #2
    e11c:	627b      	str	r3, [r7, #36]	; 0x24
    float window_sum[syn_audio_len];
    e11e:	6bb8      	ldr	r0, [r7, #56]	; 0x38
    e120:	4603      	mov	r3, r0
    e122:	3b01      	subs	r3, #1
    e124:	623b      	str	r3, [r7, #32]
    e126:	4601      	mov	r1, r0
    e128:	f04f 0200 	mov.w	r2, #0
    e12c:	f04f 0300 	mov.w	r3, #0
    e130:	f04f 0400 	mov.w	r4, #0
    e134:	0154      	lsls	r4, r2, #5
    e136:	ea44 64d1 	orr.w	r4, r4, r1, lsr #27
    e13a:	014b      	lsls	r3, r1, #5
    e13c:	4601      	mov	r1, r0
    e13e:	f04f 0200 	mov.w	r2, #0
    e142:	f04f 0300 	mov.w	r3, #0
    e146:	f04f 0400 	mov.w	r4, #0
    e14a:	0154      	lsls	r4, r2, #5
    e14c:	ea44 64d1 	orr.w	r4, r4, r1, lsr #27
    e150:	014b      	lsls	r3, r1, #5
    e152:	0083      	lsls	r3, r0, #2
    e154:	3303      	adds	r3, #3
    e156:	3307      	adds	r3, #7
    e158:	08db      	lsrs	r3, r3, #3
    e15a:	00db      	lsls	r3, r3, #3
    e15c:	ebad 0d03 	sub.w	sp, sp, r3
    e160:	466b      	mov	r3, sp
    e162:	3303      	adds	r3, #3
    e164:	089b      	lsrs	r3, r3, #2
    e166:	009b      	lsls	r3, r3, #2
    e168:	61fb      	str	r3, [r7, #28]
    float syn_audio_buff[syn_audio_len];
    e16a:	6bb8      	ldr	r0, [r7, #56]	; 0x38
    e16c:	4603      	mov	r3, r0
    e16e:	3b01      	subs	r3, #1
    e170:	61bb      	str	r3, [r7, #24]
    e172:	4601      	mov	r1, r0
    e174:	f04f 0200 	mov.w	r2, #0
    e178:	f04f 0300 	mov.w	r3, #0
    e17c:	f04f 0400 	mov.w	r4, #0
    e180:	0154      	lsls	r4, r2, #5
    e182:	ea44 64d1 	orr.w	r4, r4, r1, lsr #27
    e186:	014b      	lsls	r3, r1, #5
    e188:	4601      	mov	r1, r0
    e18a:	f04f 0200 	mov.w	r2, #0
    e18e:	f04f 0300 	mov.w	r3, #0
    e192:	f04f 0400 	mov.w	r4, #0
    e196:	0154      	lsls	r4, r2, #5
    e198:	ea44 64d1 	orr.w	r4, r4, r1, lsr #27
    e19c:	014b      	lsls	r3, r1, #5
    e19e:	0083      	lsls	r3, r0, #2
    e1a0:	3303      	adds	r3, #3
    e1a2:	3307      	adds	r3, #7
    e1a4:	08db      	lsrs	r3, r3, #3
    e1a6:	00db      	lsls	r3, r3, #3
    e1a8:	ebad 0d03 	sub.w	sp, sp, r3
    e1ac:	466b      	mov	r3, sp
    e1ae:	3303      	adds	r3, #3
    e1b0:	089b      	lsrs	r3, r3, #2
    e1b2:	009b      	lsls	r3, r3, #2
    e1b4:	617b      	str	r3, [r7, #20]
    for(indx=0; indx<syn_frame; indx++)
    e1b6:	2300      	movs	r3, #0
    e1b8:	633b      	str	r3, [r7, #48]	; 0x30
    e1ba:	e079      	b.n	e2b0 <istft_f32+0x27c>
    {
        memcpy(input_dummy_buff, &input_buff[indx*rfft_len], rfft_len*sizeof(float32_t));    
    e1bc:	6af8      	ldr	r0, [r7, #44]	; 0x2c
    e1be:	6b3b      	ldr	r3, [r7, #48]	; 0x30
    e1c0:	6c3a      	ldr	r2, [r7, #64]	; 0x40
    e1c2:	fb02 f303 	mul.w	r3, r2, r3
    e1c6:	009b      	lsls	r3, r3, #2
    e1c8:	687a      	ldr	r2, [r7, #4]
    e1ca:	18d1      	adds	r1, r2, r3
    e1cc:	6c3b      	ldr	r3, [r7, #64]	; 0x40
    e1ce:	009b      	lsls	r3, r3, #2
    e1d0:	461a      	mov	r2, r3
    e1d2:	f7fd fff5 	bl	c1c0 <memcpy>
        arm_rfft_fast_f32(Sf->p_armfft, input_dummy_buff, ifft_result, 1);
    e1d6:	68fb      	ldr	r3, [r7, #12]
    e1d8:	68d8      	ldr	r0, [r3, #12]
    e1da:	6af9      	ldr	r1, [r7, #44]	; 0x2c
    e1dc:	6a7a      	ldr	r2, [r7, #36]	; 0x24
    e1de:	2301      	movs	r3, #1
    e1e0:	f001 ff12 	bl	10008 <arm_rfft_fast_f32>
        
        for(k=0; k<Sf->ui16FftLen; k++)
    e1e4:	2300      	movs	r3, #0
    e1e6:	637b      	str	r3, [r7, #52]	; 0x34
    e1e8:	e059      	b.n	e29e <istft_f32+0x26a>
        {
            syn_audio_buff[k+indx*Sf->ui16HopSize] += ifft_result[k]*Sf->pfWindowBuffer[k];
    e1ea:	68fb      	ldr	r3, [r7, #12]
    e1ec:	885b      	ldrh	r3, [r3, #2]
    e1ee:	461a      	mov	r2, r3
    e1f0:	6b3b      	ldr	r3, [r7, #48]	; 0x30
    e1f2:	fb03 f202 	mul.w	r2, r3, r2
    e1f6:	6b7b      	ldr	r3, [r7, #52]	; 0x34
    e1f8:	4413      	add	r3, r2
    e1fa:	697a      	ldr	r2, [r7, #20]
    e1fc:	009b      	lsls	r3, r3, #2
    e1fe:	4413      	add	r3, r2
    e200:	ed93 7a00 	vldr	s14, [r3]
    e204:	6a7a      	ldr	r2, [r7, #36]	; 0x24
    e206:	6b7b      	ldr	r3, [r7, #52]	; 0x34
    e208:	009b      	lsls	r3, r3, #2
    e20a:	4413      	add	r3, r2
    e20c:	edd3 6a00 	vldr	s13, [r3]
    e210:	68fb      	ldr	r3, [r7, #12]
    e212:	689a      	ldr	r2, [r3, #8]
    e214:	6b7b      	ldr	r3, [r7, #52]	; 0x34
    e216:	009b      	lsls	r3, r3, #2
    e218:	4413      	add	r3, r2
    e21a:	edd3 7a00 	vldr	s15, [r3]
    e21e:	ee66 7aa7 	vmul.f32	s15, s13, s15
    e222:	68fb      	ldr	r3, [r7, #12]
    e224:	885b      	ldrh	r3, [r3, #2]
    e226:	461a      	mov	r2, r3
    e228:	6b3b      	ldr	r3, [r7, #48]	; 0x30
    e22a:	fb03 f202 	mul.w	r2, r3, r2
    e22e:	6b7b      	ldr	r3, [r7, #52]	; 0x34
    e230:	4413      	add	r3, r2
    e232:	ee77 7a27 	vadd.f32	s15, s14, s15
    e236:	697a      	ldr	r2, [r7, #20]
    e238:	009b      	lsls	r3, r3, #2
    e23a:	4413      	add	r3, r2
    e23c:	edc3 7a00 	vstr	s15, [r3]
            window_sum[k+indx*Sf->ui16HopSize]  += Sf->pfWindowBuffer[k]*Sf->pfWindowBuffer[k]; 
    e240:	68fb      	ldr	r3, [r7, #12]
    e242:	885b      	ldrh	r3, [r3, #2]
    e244:	461a      	mov	r2, r3
    e246:	6b3b      	ldr	r3, [r7, #48]	; 0x30
    e248:	fb03 f202 	mul.w	r2, r3, r2
    e24c:	6b7b      	ldr	r3, [r7, #52]	; 0x34
    e24e:	4413      	add	r3, r2
    e250:	69fa      	ldr	r2, [r7, #28]
    e252:	009b      	lsls	r3, r3, #2
    e254:	4413      	add	r3, r2
    e256:	ed93 7a00 	vldr	s14, [r3]
    e25a:	68fb      	ldr	r3, [r7, #12]
    e25c:	689a      	ldr	r2, [r3, #8]
    e25e:	6b7b      	ldr	r3, [r7, #52]	; 0x34
    e260:	009b      	lsls	r3, r3, #2
    e262:	4413      	add	r3, r2
    e264:	edd3 6a00 	vldr	s13, [r3]
    e268:	68fb      	ldr	r3, [r7, #12]
    e26a:	689a      	ldr	r2, [r3, #8]
    e26c:	6b7b      	ldr	r3, [r7, #52]	; 0x34
    e26e:	009b      	lsls	r3, r3, #2
    e270:	4413      	add	r3, r2
    e272:	edd3 7a00 	vldr	s15, [r3]
    e276:	ee66 7aa7 	vmul.f32	s15, s13, s15
    e27a:	68fb      	ldr	r3, [r7, #12]
    e27c:	885b      	ldrh	r3, [r3, #2]
    e27e:	461a      	mov	r2, r3
    e280:	6b3b      	ldr	r3, [r7, #48]	; 0x30
    e282:	fb03 f202 	mul.w	r2, r3, r2
    e286:	6b7b      	ldr	r3, [r7, #52]	; 0x34
    e288:	4413      	add	r3, r2
    e28a:	ee77 7a27 	vadd.f32	s15, s14, s15
    e28e:	69fa      	ldr	r2, [r7, #28]
    e290:	009b      	lsls	r3, r3, #2
    e292:	4413      	add	r3, r2
    e294:	edc3 7a00 	vstr	s15, [r3]
        for(k=0; k<Sf->ui16FftLen; k++)
    e298:	6b7b      	ldr	r3, [r7, #52]	; 0x34
    e29a:	3301      	adds	r3, #1
    e29c:	637b      	str	r3, [r7, #52]	; 0x34
    e29e:	68fb      	ldr	r3, [r7, #12]
    e2a0:	881b      	ldrh	r3, [r3, #0]
    e2a2:	461a      	mov	r2, r3
    e2a4:	6b7b      	ldr	r3, [r7, #52]	; 0x34
    e2a6:	4293      	cmp	r3, r2
    e2a8:	d39f      	bcc.n	e1ea <istft_f32+0x1b6>
    for(indx=0; indx<syn_frame; indx++)
    e2aa:	6b3b      	ldr	r3, [r7, #48]	; 0x30
    e2ac:	3301      	adds	r3, #1
    e2ae:	633b      	str	r3, [r7, #48]	; 0x30
    e2b0:	6b3a      	ldr	r2, [r7, #48]	; 0x30
    e2b2:	68bb      	ldr	r3, [r7, #8]
    e2b4:	429a      	cmp	r2, r3
    e2b6:	d381      	bcc.n	e1bc <istft_f32+0x188>
        }
    }
    //
    // Divide with window sum to re-construct the signal. NOLA needed.
    //
    for(indx=0; indx<syn_audio_len; indx++)
    e2b8:	2300      	movs	r3, #0
    e2ba:	633b      	str	r3, [r7, #48]	; 0x30
    e2bc:	e031      	b.n	e322 <istft_f32+0x2ee>
    {
        if(window_sum[indx]!=0)
    e2be:	69fa      	ldr	r2, [r7, #28]
    e2c0:	6b3b      	ldr	r3, [r7, #48]	; 0x30
    e2c2:	009b      	lsls	r3, r3, #2
    e2c4:	4413      	add	r3, r2
    e2c6:	edd3 7a00 	vldr	s15, [r3]
    e2ca:	eef5 7a40 	vcmp.f32	s15, #0.0
    e2ce:	eef1 fa10 	vmrs	APSR_nzcv, fpscr
    e2d2:	d013      	beq.n	e2fc <istft_f32+0x2c8>
        {
            syn_audio_buff[indx] = syn_audio_buff[indx]/window_sum[indx];
    e2d4:	697a      	ldr	r2, [r7, #20]
    e2d6:	6b3b      	ldr	r3, [r7, #48]	; 0x30
    e2d8:	009b      	lsls	r3, r3, #2
    e2da:	4413      	add	r3, r2
    e2dc:	edd3 6a00 	vldr	s13, [r3]
    e2e0:	69fa      	ldr	r2, [r7, #28]
    e2e2:	6b3b      	ldr	r3, [r7, #48]	; 0x30
    e2e4:	009b      	lsls	r3, r3, #2
    e2e6:	4413      	add	r3, r2
    e2e8:	ed93 7a00 	vldr	s14, [r3]
    e2ec:	eec6 7a87 	vdiv.f32	s15, s13, s14
    e2f0:	697a      	ldr	r2, [r7, #20]
    e2f2:	6b3b      	ldr	r3, [r7, #48]	; 0x30
    e2f4:	009b      	lsls	r3, r3, #2
    e2f6:	4413      	add	r3, r2
    e2f8:	edc3 7a00 	vstr	s15, [r3]
        }
        output_pcm[indx] = (int16_t)syn_audio_buff[indx];
    e2fc:	697a      	ldr	r2, [r7, #20]
    e2fe:	6b3b      	ldr	r3, [r7, #48]	; 0x30
    e300:	009b      	lsls	r3, r3, #2
    e302:	4413      	add	r3, r2
    e304:	edd3 7a00 	vldr	s15, [r3]
    e308:	6b3b      	ldr	r3, [r7, #48]	; 0x30
    e30a:	005b      	lsls	r3, r3, #1
    e30c:	683a      	ldr	r2, [r7, #0]
    e30e:	4413      	add	r3, r2
    e310:	eefd 7ae7 	vcvt.s32.f32	s15, s15
    e314:	ee17 2a90 	vmov	r2, s15
    e318:	b212      	sxth	r2, r2
    e31a:	801a      	strh	r2, [r3, #0]
    for(indx=0; indx<syn_audio_len; indx++)
    e31c:	6b3b      	ldr	r3, [r7, #48]	; 0x30
    e31e:	3301      	adds	r3, #1
    e320:	633b      	str	r3, [r7, #48]	; 0x30
    e322:	6b3a      	ldr	r2, [r7, #48]	; 0x30
    e324:	6bbb      	ldr	r3, [r7, #56]	; 0x38
    e326:	429a      	cmp	r2, r3
    e328:	d3c9      	bcc.n	e2be <istft_f32+0x28a>
    e32a:	46ad      	mov	sp, r5
    }
       
}
    e32c:	bf00      	nop
    e32e:	3748      	adds	r7, #72	; 0x48
    e330:	46bd      	mov	sp, r7
    e332:	bdb0      	pop	{r4, r5, r7, pc}

0000e334 <am_bsp_uart_string_print>:
    e334:	b510      	push	{r4, lr}
    e336:	b086      	sub	sp, #24
    e338:	7803      	ldrb	r3, [r0, #0]
    e33a:	2400      	movs	r4, #0
    e33c:	9400      	str	r4, [sp, #0]
    e33e:	b1bb      	cbz	r3, e370 <am_bsp_uart_string_print+0x3c>
    e340:	4603      	mov	r3, r0
    e342:	f813 2f01 	ldrb.w	r2, [r3, #1]!
    e346:	3401      	adds	r4, #1
    e348:	2a00      	cmp	r2, #0
    e34a:	d1fa      	bne.n	e342 <am_bsp_uart_string_print+0xe>
    e34c:	4b0a      	ldr	r3, [pc, #40]	; (e378 <am_bsp_uart_string_print+0x44>)
    e34e:	9002      	str	r0, [sp, #8]
    e350:	2200      	movs	r2, #0
    e352:	6818      	ldr	r0, [r3, #0]
    e354:	9403      	str	r4, [sp, #12]
    e356:	f04f 33ff 	mov.w	r3, #4294967295	; 0xffffffff
    e35a:	a901      	add	r1, sp, #4
    e35c:	9304      	str	r3, [sp, #16]
    e35e:	9201      	str	r2, [sp, #4]
    e360:	f8cd d014 	str.w	sp, [sp, #20]
    e364:	f001 fb18 	bl	f998 <am_hal_uart_transfer>
    e368:	9b00      	ldr	r3, [sp, #0]
    e36a:	42a3      	cmp	r3, r4
    e36c:	d002      	beq.n	e374 <am_bsp_uart_string_print+0x40>
    e36e:	e7fe      	b.n	e36e <am_bsp_uart_string_print+0x3a>
    e370:	461c      	mov	r4, r3
    e372:	e7eb      	b.n	e34c <am_bsp_uart_string_print+0x18>
    e374:	b006      	add	sp, #24
    e376:	bd10      	pop	{r4, pc}
    e378:	1000c168 	.word	0x1000c168

0000e37c <am_bsp_low_power_init>:
    e37c:	b5f8      	push	{r3, r4, r5, r6, r7, lr}
    e37e:	f001 f8d1 	bl	f524 <am_hal_pwrctrl_low_power_init>
    e382:	f001 f941 	bl	f608 <am_hal_rtc_osc_disable>
    e386:	4b0b      	ldr	r3, [pc, #44]	; (e3b4 <am_bsp_low_power_init+0x38>)
    e388:	4f0b      	ldr	r7, [pc, #44]	; (e3b8 <am_bsp_low_power_init+0x3c>)
    e38a:	681e      	ldr	r6, [r3, #0]
    e38c:	2400      	movs	r4, #0
    e38e:	f857 5034 	ldr.w	r5, [r7, r4, lsl #3]
    e392:	4631      	mov	r1, r6
    e394:	4628      	mov	r0, r5
    e396:	f000 fc3d 	bl	ec14 <am_hal_gpio_pinconfig>
    e39a:	2103      	movs	r1, #3
    e39c:	4628      	mov	r0, r5
    e39e:	f000 fda7 	bl	eef0 <am_hal_gpio_state_write>
    e3a2:	3401      	adds	r4, #1
    e3a4:	4628      	mov	r0, r5
    e3a6:	2100      	movs	r1, #0
    e3a8:	f000 fda2 	bl	eef0 <am_hal_gpio_state_write>
    e3ac:	2c05      	cmp	r4, #5
    e3ae:	d1ee      	bne.n	e38e <am_bsp_low_power_init+0x12>
    e3b0:	bdf8      	pop	{r3, r4, r5, r6, r7, pc}
    e3b2:	bf00      	nop
    e3b4:	00011c3c 	.word	0x00011c3c
    e3b8:	1000c00c 	.word	0x1000c00c

0000e3bc <am_bsp_uart_printf_enable>:
    e3bc:	b510      	push	{r4, lr}
    e3be:	4c10      	ldr	r4, [pc, #64]	; (e400 <am_bsp_uart_printf_enable+0x44>)
    e3c0:	4b10      	ldr	r3, [pc, #64]	; (e404 <am_bsp_uart_printf_enable+0x48>)
    e3c2:	4621      	mov	r1, r4
    e3c4:	2202      	movs	r2, #2
    e3c6:	2000      	movs	r0, #0
    e3c8:	601a      	str	r2, [r3, #0]
    e3ca:	f001 f927 	bl	f61c <am_hal_uart_initialize>
    e3ce:	2200      	movs	r2, #0
    e3d0:	4611      	mov	r1, r2
    e3d2:	6820      	ldr	r0, [r4, #0]
    e3d4:	f001 f94a 	bl	f66c <am_hal_uart_power_control>
    e3d8:	6820      	ldr	r0, [r4, #0]
    e3da:	490b      	ldr	r1, [pc, #44]	; (e408 <am_bsp_uart_printf_enable+0x4c>)
    e3dc:	f001 f9b8 	bl	f750 <am_hal_uart_configure>
    e3e0:	4b0a      	ldr	r3, [pc, #40]	; (e40c <am_bsp_uart_printf_enable+0x50>)
    e3e2:	2016      	movs	r0, #22
    e3e4:	6819      	ldr	r1, [r3, #0]
    e3e6:	f000 fc15 	bl	ec14 <am_hal_gpio_pinconfig>
    e3ea:	4b09      	ldr	r3, [pc, #36]	; (e410 <am_bsp_uart_printf_enable+0x54>)
    e3ec:	2017      	movs	r0, #23
    e3ee:	6819      	ldr	r1, [r3, #0]
    e3f0:	f000 fc10 	bl	ec14 <am_hal_gpio_pinconfig>
    e3f4:	4807      	ldr	r0, [pc, #28]	; (e414 <am_bsp_uart_printf_enable+0x58>)
    e3f6:	e8bd 4010 	ldmia.w	sp!, {r4, lr}
    e3fa:	f7fe bb33 	b.w	ca64 <am_util_stdio_printf_init>
    e3fe:	bf00      	nop
    e400:	1000c168 	.word	0x1000c168
    e404:	1000c164 	.word	0x1000c164
    e408:	00011ad0 	.word	0x00011ad0
    e40c:	00011af8 	.word	0x00011af8
    e410:	00011afc 	.word	0x00011afc
    e414:	0000e335 	.word	0x0000e335

0000e418 <am_hal_burst_mode_initialize>:
    e418:	b570      	push	{r4, r5, r6, lr}
    e41a:	4b1e      	ldr	r3, [pc, #120]	; (e494 <am_hal_burst_mode_initialize+0x7c>)
    e41c:	695a      	ldr	r2, [r3, #20]
    e41e:	07d5      	lsls	r5, r2, #31
    e420:	b082      	sub	sp, #8
    e422:	4604      	mov	r4, r0
    e424:	d407      	bmi.n	e436 <am_hal_burst_mode_initialize+0x1e>
    e426:	4a1c      	ldr	r2, [pc, #112]	; (e498 <am_hal_burst_mode_initialize+0x80>)
    e428:	2100      	movs	r1, #0
    e42a:	2301      	movs	r3, #1
    e42c:	7011      	strb	r1, [r2, #0]
    e42e:	2007      	movs	r0, #7
    e430:	7023      	strb	r3, [r4, #0]
    e432:	b002      	add	sp, #8
    e434:	bd70      	pop	{r4, r5, r6, pc}
    e436:	4a19      	ldr	r2, [pc, #100]	; (e49c <am_hal_burst_mode_initialize+0x84>)
    e438:	6a91      	ldr	r1, [r2, #40]	; 0x28
    e43a:	f041 4100 	orr.w	r1, r1, #2147483648	; 0x80000000
    e43e:	6291      	str	r1, [r2, #40]	; 0x28
    e440:	6812      	ldr	r2, [r2, #0]
    e442:	07d0      	lsls	r0, r2, #31
    e444:	d507      	bpl.n	e456 <am_hal_burst_mode_initialize+0x3e>
    e446:	68db      	ldr	r3, [r3, #12]
    e448:	b2db      	uxtb	r3, r3
    e44a:	2b11      	cmp	r3, #17
    e44c:	d903      	bls.n	e456 <am_hal_burst_mode_initialize+0x3e>
    e44e:	f04f 2340 	mov.w	r3, #1073758208	; 0x40004000
    e452:	4a13      	ldr	r2, [pc, #76]	; (e4a0 <am_hal_burst_mode_initialize+0x88>)
    e454:	63da      	str	r2, [r3, #60]	; 0x3c
    e456:	4d0f      	ldr	r5, [pc, #60]	; (e494 <am_hal_burst_mode_initialize+0x7c>)
    e458:	4912      	ldr	r1, [pc, #72]	; (e4a4 <am_hal_burst_mode_initialize+0x8c>)
    e45a:	7e2a      	ldrb	r2, [r5, #24]
    e45c:	2601      	movs	r6, #1
    e45e:	f042 0210 	orr.w	r2, r2, #16
    e462:	2320      	movs	r3, #32
    e464:	762a      	strb	r2, [r5, #24]
    e466:	f242 7010 	movw	r0, #10000	; 0x2710
    e46a:	461a      	mov	r2, r3
    e46c:	9600      	str	r6, [sp, #0]
    e46e:	f000 fb8d 	bl	eb8c <am_hal_flash_delay_status_check>
    e472:	b948      	cbnz	r0, e488 <am_hal_burst_mode_initialize+0x70>
    e474:	69aa      	ldr	r2, [r5, #24]
    e476:	0651      	lsls	r1, r2, #25
    e478:	d5d5      	bpl.n	e426 <am_hal_burst_mode_initialize+0xe>
    e47a:	69aa      	ldr	r2, [r5, #24]
    e47c:	0692      	lsls	r2, r2, #26
    e47e:	d5d2      	bpl.n	e426 <am_hal_burst_mode_initialize+0xe>
    e480:	4a05      	ldr	r2, [pc, #20]	; (e498 <am_hal_burst_mode_initialize+0x80>)
    e482:	7016      	strb	r6, [r2, #0]
    e484:	7020      	strb	r0, [r4, #0]
    e486:	e7d4      	b.n	e432 <am_hal_burst_mode_initialize+0x1a>
    e488:	4a03      	ldr	r2, [pc, #12]	; (e498 <am_hal_burst_mode_initialize+0x80>)
    e48a:	2100      	movs	r1, #0
    e48c:	7011      	strb	r1, [r2, #0]
    e48e:	7026      	strb	r6, [r4, #0]
    e490:	b002      	add	sp, #8
    e492:	bd70      	pop	{r4, r5, r6, pc}
    e494:	40020000 	.word	0x40020000
    e498:	1000c16c 	.word	0x1000c16c
    e49c:	40021000 	.word	0x40021000
    e4a0:	0fc0400f 	.word	0x0fc0400f
    e4a4:	40020018 	.word	0x40020018

0000e4a8 <am_hal_burst_mode_enable>:
    e4a8:	4b14      	ldr	r3, [pc, #80]	; (e4fc <am_hal_burst_mode_enable+0x54>)
    e4aa:	781b      	ldrb	r3, [r3, #0]
    e4ac:	b91b      	cbnz	r3, e4b6 <am_hal_burst_mode_enable+0xe>
    e4ae:	2301      	movs	r3, #1
    e4b0:	7003      	strb	r3, [r0, #0]
    e4b2:	2007      	movs	r0, #7
    e4b4:	4770      	bx	lr
    e4b6:	b570      	push	{r4, r5, r6, lr}
    e4b8:	f04f 2540 	mov.w	r5, #1073758208	; 0x40004000
    e4bc:	b082      	sub	sp, #8
    e4be:	f895 2034 	ldrb.w	r2, [r5, #52]	; 0x34
    e4c2:	490f      	ldr	r1, [pc, #60]	; (e500 <am_hal_burst_mode_enable+0x58>)
    e4c4:	2601      	movs	r6, #1
    e4c6:	4332      	orrs	r2, r6
    e4c8:	2304      	movs	r3, #4
    e4ca:	f885 2034 	strb.w	r2, [r5, #52]	; 0x34
    e4ce:	4604      	mov	r4, r0
    e4d0:	461a      	mov	r2, r3
    e4d2:	9600      	str	r6, [sp, #0]
    e4d4:	f242 7010 	movw	r0, #10000	; 0x2710
    e4d8:	f000 fb58 	bl	eb8c <am_hal_flash_delay_status_check>
    e4dc:	b938      	cbnz	r0, e4ee <am_hal_burst_mode_enable+0x46>
    e4de:	6b6b      	ldr	r3, [r5, #52]	; 0x34
    e4e0:	079a      	lsls	r2, r3, #30
    e4e2:	d507      	bpl.n	e4f4 <am_hal_burst_mode_enable+0x4c>
    e4e4:	6b6b      	ldr	r3, [r5, #52]	; 0x34
    e4e6:	075b      	lsls	r3, r3, #29
    e4e8:	d501      	bpl.n	e4ee <am_hal_burst_mode_enable+0x46>
    e4ea:	7020      	strb	r0, [r4, #0]
    e4ec:	e000      	b.n	e4f0 <am_hal_burst_mode_enable+0x48>
    e4ee:	7026      	strb	r6, [r4, #0]
    e4f0:	b002      	add	sp, #8
    e4f2:	bd70      	pop	{r4, r5, r6, pc}
    e4f4:	7026      	strb	r6, [r4, #0]
    e4f6:	4630      	mov	r0, r6
    e4f8:	e7fa      	b.n	e4f0 <am_hal_burst_mode_enable+0x48>
    e4fa:	bf00      	nop
    e4fc:	1000c16c 	.word	0x1000c16c
    e500:	40004034 	.word	0x40004034

0000e504 <am_hal_cachectrl_config>:
    e504:	b530      	push	{r4, r5, lr}
    e506:	b083      	sub	sp, #12
    e508:	4605      	mov	r5, r0
    e50a:	f000 fd7b 	bl	f004 <am_hal_interrupt_master_disable>
    e50e:	4c0f      	ldr	r4, [pc, #60]	; (e54c <am_hal_cachectrl_config+0x48>)
    e510:	9001      	str	r0, [sp, #4]
    e512:	6823      	ldr	r3, [r4, #0]
    e514:	f423 7340 	bic.w	r3, r3, #768	; 0x300
    e518:	6023      	str	r3, [r4, #0]
    e51a:	9801      	ldr	r0, [sp, #4]
    e51c:	f000 fd76 	bl	f00c <am_hal_interrupt_master_set>
    e520:	78ab      	ldrb	r3, [r5, #2]
    e522:	782a      	ldrb	r2, [r5, #0]
    e524:	7869      	ldrb	r1, [r5, #1]
    e526:	005b      	lsls	r3, r3, #1
    e528:	0112      	lsls	r2, r2, #4
    e52a:	b2d2      	uxtb	r2, r2
    e52c:	f003 0302 	and.w	r3, r3, #2
    e530:	4313      	orrs	r3, r2
    e532:	f443 1380 	orr.w	r3, r3, #1048576	; 0x100000
    e536:	020a      	lsls	r2, r1, #8
    e538:	f402 7240 	and.w	r2, r2, #768	; 0x300
    e53c:	f443 6380 	orr.w	r3, r3, #1024	; 0x400
    e540:	4313      	orrs	r3, r2
    e542:	2000      	movs	r0, #0
    e544:	6023      	str	r3, [r4, #0]
    e546:	b003      	add	sp, #12
    e548:	bd30      	pop	{r4, r5, pc}
    e54a:	bf00      	nop
    e54c:	40018000 	.word	0x40018000

0000e550 <am_hal_cachectrl_enable>:
    e550:	4a03      	ldr	r2, [pc, #12]	; (e560 <am_hal_cachectrl_enable+0x10>)
    e552:	6813      	ldr	r3, [r2, #0]
    e554:	f043 0301 	orr.w	r3, r3, #1
    e558:	6013      	str	r3, [r2, #0]
    e55a:	2000      	movs	r0, #0
    e55c:	4770      	bx	lr
    e55e:	bf00      	nop
    e560:	40018000 	.word	0x40018000

0000e564 <am_hal_cachectrl_control>:
    e564:	b510      	push	{r4, lr}
    e566:	3801      	subs	r0, #1
    e568:	b08e      	sub	sp, #56	; 0x38
    e56a:	2810      	cmp	r0, #16
    e56c:	f200 8143 	bhi.w	e7f6 <am_hal_cachectrl_control+0x292>
    e570:	e8df f010 	tbh	[pc, r0, lsl #1]
    e574:	01380136 	.word	0x01380136
    e578:	0011013e 	.word	0x0011013e
    e57c:	001a0018 	.word	0x001a0018
    e580:	001f001c 	.word	0x001f001c
    e584:	00300022 	.word	0x00300022
    e588:	0074003c 	.word	0x0074003c
    e58c:	00e400ac 	.word	0x00e400ac
    e590:	011a00ff 	.word	0x011a00ff
    e594:	0120      	.short	0x0120
    e596:	f44f 7208 	mov.w	r2, #544	; 0x220
    e59a:	4ba8      	ldr	r3, [pc, #672]	; (e83c <am_hal_cachectrl_control+0x2d8>)
    e59c:	2000      	movs	r0, #0
    e59e:	609a      	str	r2, [r3, #8]
    e5a0:	b00e      	add	sp, #56	; 0x38
    e5a2:	bd10      	pop	{r4, pc}
    e5a4:	2240      	movs	r2, #64	; 0x40
    e5a6:	e7f8      	b.n	e59a <am_hal_cachectrl_control+0x36>
    e5a8:	2220      	movs	r2, #32
    e5aa:	e7f6      	b.n	e59a <am_hal_cachectrl_control+0x36>
    e5ac:	f44f 6280 	mov.w	r2, #1024	; 0x400
    e5b0:	e7f3      	b.n	e59a <am_hal_cachectrl_control+0x36>
    e5b2:	f44f 7200 	mov.w	r2, #512	; 0x200
    e5b6:	e7f0      	b.n	e59a <am_hal_cachectrl_control+0x36>
    e5b8:	f000 fd24 	bl	f004 <am_hal_interrupt_master_disable>
    e5bc:	4a9f      	ldr	r2, [pc, #636]	; (e83c <am_hal_cachectrl_control+0x2d8>)
    e5be:	9000      	str	r0, [sp, #0]
    e5c0:	6813      	ldr	r3, [r2, #0]
    e5c2:	f043 7380 	orr.w	r3, r3, #16777216	; 0x1000000
    e5c6:	6013      	str	r3, [r2, #0]
    e5c8:	9800      	ldr	r0, [sp, #0]
    e5ca:	f000 fd1f 	bl	f00c <am_hal_interrupt_master_set>
    e5ce:	2000      	movs	r0, #0
    e5d0:	b00e      	add	sp, #56	; 0x38
    e5d2:	bd10      	pop	{r4, pc}
    e5d4:	f000 fd16 	bl	f004 <am_hal_interrupt_master_disable>
    e5d8:	4a98      	ldr	r2, [pc, #608]	; (e83c <am_hal_cachectrl_control+0x2d8>)
    e5da:	9001      	str	r0, [sp, #4]
    e5dc:	6813      	ldr	r3, [r2, #0]
    e5de:	f023 7380 	bic.w	r3, r3, #16777216	; 0x1000000
    e5e2:	6013      	str	r3, [r2, #0]
    e5e4:	9801      	ldr	r0, [sp, #4]
    e5e6:	f000 fd11 	bl	f00c <am_hal_interrupt_master_set>
    e5ea:	e7f0      	b.n	e5ce <am_hal_cachectrl_control+0x6a>
    e5ec:	f000 fd0a 	bl	f004 <am_hal_interrupt_master_disable>
    e5f0:	4603      	mov	r3, r0
    e5f2:	4893      	ldr	r0, [pc, #588]	; (e840 <am_hal_cachectrl_control+0x2dc>)
    e5f4:	9302      	str	r3, [sp, #8]
    e5f6:	f000 fb03 	bl	ec00 <am_hal_flash_load_ui32>
    e5fa:	f420 517c 	bic.w	r1, r0, #16128	; 0x3f00
    e5fe:	f441 61e0 	orr.w	r1, r1, #1792	; 0x700
    e602:	488f      	ldr	r0, [pc, #572]	; (e840 <am_hal_cachectrl_control+0x2dc>)
    e604:	f000 fb00 	bl	ec08 <am_hal_flash_store_ui32>
    e608:	9802      	ldr	r0, [sp, #8]
    e60a:	f000 fcff 	bl	f00c <am_hal_interrupt_master_set>
    e60e:	f000 fcf9 	bl	f004 <am_hal_interrupt_master_disable>
    e612:	4603      	mov	r3, r0
    e614:	488a      	ldr	r0, [pc, #552]	; (e840 <am_hal_cachectrl_control+0x2dc>)
    e616:	9303      	str	r3, [sp, #12]
    e618:	f000 faf2 	bl	ec00 <am_hal_flash_load_ui32>
    e61c:	f420 6177 	bic.w	r1, r0, #3952	; 0xf70
    e620:	f441 61ee 	orr.w	r1, r1, #1904	; 0x770
    e624:	4886      	ldr	r0, [pc, #536]	; (e840 <am_hal_cachectrl_control+0x2dc>)
    e626:	f000 faef 	bl	ec08 <am_hal_flash_store_ui32>
    e62a:	9803      	ldr	r0, [sp, #12]
    e62c:	f000 fcee 	bl	f00c <am_hal_interrupt_master_set>
    e630:	f000 fce8 	bl	f004 <am_hal_interrupt_master_disable>
    e634:	4603      	mov	r3, r0
    e636:	4882      	ldr	r0, [pc, #520]	; (e840 <am_hal_cachectrl_control+0x2dc>)
    e638:	9304      	str	r3, [sp, #16]
    e63a:	f000 fae1 	bl	ec00 <am_hal_flash_load_ui32>
    e63e:	f420 6170 	bic.w	r1, r0, #3840	; 0xf00
    e642:	f021 010f 	bic.w	r1, r1, #15
    e646:	f441 61e0 	orr.w	r1, r1, #1792	; 0x700
    e64a:	f041 0103 	orr.w	r1, r1, #3
    e64e:	487c      	ldr	r0, [pc, #496]	; (e840 <am_hal_cachectrl_control+0x2dc>)
    e650:	f000 fada 	bl	ec08 <am_hal_flash_store_ui32>
    e654:	9804      	ldr	r0, [sp, #16]
    e656:	f000 fcd9 	bl	f00c <am_hal_interrupt_master_set>
    e65a:	e7b8      	b.n	e5ce <am_hal_cachectrl_control+0x6a>
    e65c:	f000 fcd2 	bl	f004 <am_hal_interrupt_master_disable>
    e660:	4603      	mov	r3, r0
    e662:	4877      	ldr	r0, [pc, #476]	; (e840 <am_hal_cachectrl_control+0x2dc>)
    e664:	9305      	str	r3, [sp, #20]
    e666:	f000 facb 	bl	ec00 <am_hal_flash_load_ui32>
    e66a:	f420 517c 	bic.w	r1, r0, #16128	; 0x3f00
    e66e:	f441 51b8 	orr.w	r1, r1, #5888	; 0x1700
    e672:	4873      	ldr	r0, [pc, #460]	; (e840 <am_hal_cachectrl_control+0x2dc>)
    e674:	f000 fac8 	bl	ec08 <am_hal_flash_store_ui32>
    e678:	9805      	ldr	r0, [sp, #20]
    e67a:	f000 fcc7 	bl	f00c <am_hal_interrupt_master_set>
    e67e:	f000 fcc1 	bl	f004 <am_hal_interrupt_master_disable>
    e682:	4603      	mov	r3, r0
    e684:	486e      	ldr	r0, [pc, #440]	; (e840 <am_hal_cachectrl_control+0x2dc>)
    e686:	9306      	str	r3, [sp, #24]
    e688:	f000 faba 	bl	ec00 <am_hal_flash_load_ui32>
    e68c:	f420 6177 	bic.w	r1, r0, #3952	; 0xf70
    e690:	f441 61ea 	orr.w	r1, r1, #1872	; 0x750
    e694:	486a      	ldr	r0, [pc, #424]	; (e840 <am_hal_cachectrl_control+0x2dc>)
    e696:	f000 fab7 	bl	ec08 <am_hal_flash_store_ui32>
    e69a:	9806      	ldr	r0, [sp, #24]
    e69c:	f000 fcb6 	bl	f00c <am_hal_interrupt_master_set>
    e6a0:	f000 fcb0 	bl	f004 <am_hal_interrupt_master_disable>
    e6a4:	4603      	mov	r3, r0
    e6a6:	4866      	ldr	r0, [pc, #408]	; (e840 <am_hal_cachectrl_control+0x2dc>)
    e6a8:	9307      	str	r3, [sp, #28]
    e6aa:	f000 faa9 	bl	ec00 <am_hal_flash_load_ui32>
    e6ae:	f420 6170 	bic.w	r1, r0, #3840	; 0xf00
    e6b2:	f021 010f 	bic.w	r1, r1, #15
    e6b6:	f441 61e0 	orr.w	r1, r1, #1792	; 0x700
    e6ba:	f041 0101 	orr.w	r1, r1, #1
    e6be:	4860      	ldr	r0, [pc, #384]	; (e840 <am_hal_cachectrl_control+0x2dc>)
    e6c0:	f000 faa2 	bl	ec08 <am_hal_flash_store_ui32>
    e6c4:	9807      	ldr	r0, [sp, #28]
    e6c6:	f000 fca1 	bl	f00c <am_hal_interrupt_master_set>
    e6ca:	e780      	b.n	e5ce <am_hal_cachectrl_control+0x6a>
    e6cc:	f000 fc9a 	bl	f004 <am_hal_interrupt_master_disable>
    e6d0:	4603      	mov	r3, r0
    e6d2:	485b      	ldr	r0, [pc, #364]	; (e840 <am_hal_cachectrl_control+0x2dc>)
    e6d4:	9308      	str	r3, [sp, #32]
    e6d6:	f000 fa93 	bl	ec00 <am_hal_flash_load_ui32>
    e6da:	f420 517c 	bic.w	r1, r0, #16128	; 0x3f00
    e6de:	f441 51b8 	orr.w	r1, r1, #5888	; 0x1700
    e6e2:	4857      	ldr	r0, [pc, #348]	; (e840 <am_hal_cachectrl_control+0x2dc>)
    e6e4:	f000 fa90 	bl	ec08 <am_hal_flash_store_ui32>
    e6e8:	9808      	ldr	r0, [sp, #32]
    e6ea:	f000 fc8f 	bl	f00c <am_hal_interrupt_master_set>
    e6ee:	f000 fc89 	bl	f004 <am_hal_interrupt_master_disable>
    e6f2:	4603      	mov	r3, r0
    e6f4:	4852      	ldr	r0, [pc, #328]	; (e840 <am_hal_cachectrl_control+0x2dc>)
    e6f6:	9309      	str	r3, [sp, #36]	; 0x24
    e6f8:	f000 fa82 	bl	ec00 <am_hal_flash_load_ui32>
    e6fc:	f420 6177 	bic.w	r1, r0, #3952	; 0xf70
    e700:	f441 61ec 	orr.w	r1, r1, #1888	; 0x760
    e704:	484e      	ldr	r0, [pc, #312]	; (e840 <am_hal_cachectrl_control+0x2dc>)
    e706:	f000 fa7f 	bl	ec08 <am_hal_flash_store_ui32>
    e70a:	9809      	ldr	r0, [sp, #36]	; 0x24
    e70c:	f000 fc7e 	bl	f00c <am_hal_interrupt_master_set>
    e710:	f000 fc78 	bl	f004 <am_hal_interrupt_master_disable>
    e714:	4603      	mov	r3, r0
    e716:	484a      	ldr	r0, [pc, #296]	; (e840 <am_hal_cachectrl_control+0x2dc>)
    e718:	930a      	str	r3, [sp, #40]	; 0x28
    e71a:	f000 fa71 	bl	ec00 <am_hal_flash_load_ui32>
    e71e:	f420 6170 	bic.w	r1, r0, #3840	; 0xf00
    e722:	f021 010f 	bic.w	r1, r1, #15
    e726:	f441 61e0 	orr.w	r1, r1, #1792	; 0x700
    e72a:	f041 0101 	orr.w	r1, r1, #1
    e72e:	4844      	ldr	r0, [pc, #272]	; (e840 <am_hal_cachectrl_control+0x2dc>)
    e730:	f000 fa6a 	bl	ec08 <am_hal_flash_store_ui32>
    e734:	980a      	ldr	r0, [sp, #40]	; 0x28
    e736:	f000 fc69 	bl	f00c <am_hal_interrupt_master_set>
    e73a:	e748      	b.n	e5ce <am_hal_cachectrl_control+0x6a>
    e73c:	2900      	cmp	r1, #0
    e73e:	d05a      	beq.n	e7f6 <am_hal_cachectrl_control+0x292>
    e740:	680c      	ldr	r4, [r1, #0]
    e742:	2c03      	cmp	r4, #3
    e744:	d834      	bhi.n	e7b0 <am_hal_cachectrl_control+0x24c>
    e746:	f000 fc5d 	bl	f004 <am_hal_interrupt_master_disable>
    e74a:	4603      	mov	r3, r0
    e74c:	483c      	ldr	r0, [pc, #240]	; (e840 <am_hal_cachectrl_control+0x2dc>)
    e74e:	930b      	str	r3, [sp, #44]	; 0x2c
    e750:	f000 fa56 	bl	ec00 <am_hal_flash_load_ui32>
    e754:	0323      	lsls	r3, r4, #12
    e756:	f403 5340 	and.w	r3, r3, #12288	; 0x3000
    e75a:	f443 63e0 	orr.w	r3, r3, #1792	; 0x700
    e75e:	f420 517c 	bic.w	r1, r0, #16128	; 0x3f00
    e762:	4319      	orrs	r1, r3
    e764:	4836      	ldr	r0, [pc, #216]	; (e840 <am_hal_cachectrl_control+0x2dc>)
    e766:	f000 fa4f 	bl	ec08 <am_hal_flash_store_ui32>
    e76a:	980b      	ldr	r0, [sp, #44]	; 0x2c
    e76c:	f000 fc4e 	bl	f00c <am_hal_interrupt_master_set>
    e770:	e72d      	b.n	e5ce <am_hal_cachectrl_control+0x6a>
    e772:	2900      	cmp	r1, #0
    e774:	d03f      	beq.n	e7f6 <am_hal_cachectrl_control+0x292>
    e776:	680c      	ldr	r4, [r1, #0]
    e778:	2c07      	cmp	r4, #7
    e77a:	d819      	bhi.n	e7b0 <am_hal_cachectrl_control+0x24c>
    e77c:	f000 fc42 	bl	f004 <am_hal_interrupt_master_disable>
    e780:	4603      	mov	r3, r0
    e782:	482f      	ldr	r0, [pc, #188]	; (e840 <am_hal_cachectrl_control+0x2dc>)
    e784:	930c      	str	r3, [sp, #48]	; 0x30
    e786:	f000 fa3b 	bl	ec00 <am_hal_flash_load_ui32>
    e78a:	0123      	lsls	r3, r4, #4
    e78c:	f003 0370 	and.w	r3, r3, #112	; 0x70
    e790:	f443 63e0 	orr.w	r3, r3, #1792	; 0x700
    e794:	f420 6177 	bic.w	r1, r0, #3952	; 0xf70
    e798:	4319      	orrs	r1, r3
    e79a:	4829      	ldr	r0, [pc, #164]	; (e840 <am_hal_cachectrl_control+0x2dc>)
    e79c:	f000 fa34 	bl	ec08 <am_hal_flash_store_ui32>
    e7a0:	980c      	ldr	r0, [sp, #48]	; 0x30
    e7a2:	f000 fc33 	bl	f00c <am_hal_interrupt_master_set>
    e7a6:	e712      	b.n	e5ce <am_hal_cachectrl_control+0x6a>
    e7a8:	b329      	cbz	r1, e7f6 <am_hal_cachectrl_control+0x292>
    e7aa:	680c      	ldr	r4, [r1, #0]
    e7ac:	2c0f      	cmp	r4, #15
    e7ae:	d926      	bls.n	e7fe <am_hal_cachectrl_control+0x29a>
    e7b0:	2001      	movs	r0, #1
    e7b2:	e6f5      	b.n	e5a0 <am_hal_cachectrl_control+0x3c>
    e7b4:	b1f9      	cbz	r1, e7f6 <am_hal_cachectrl_control+0x292>
    e7b6:	684a      	ldr	r2, [r1, #4]
    e7b8:	4b22      	ldr	r3, [pc, #136]	; (e844 <am_hal_cachectrl_control+0x2e0>)
    e7ba:	4013      	ands	r3, r2
    e7bc:	b9db      	cbnz	r3, e7f6 <am_hal_cachectrl_control+0x292>
    e7be:	688b      	ldr	r3, [r1, #8]
    e7c0:	4820      	ldr	r0, [pc, #128]	; (e844 <am_hal_cachectrl_control+0x2e0>)
    e7c2:	4018      	ands	r0, r3
    e7c4:	b9b8      	cbnz	r0, e7f6 <am_hal_cachectrl_control+0x292>
    e7c6:	780c      	ldrb	r4, [r1, #0]
    e7c8:	b374      	cbz	r4, e828 <am_hal_cachectrl_control+0x2c4>
    e7ca:	2c01      	cmp	r4, #1
    e7cc:	d113      	bne.n	e7f6 <am_hal_cachectrl_control+0x292>
    e7ce:	4c1b      	ldr	r4, [pc, #108]	; (e83c <am_hal_cachectrl_control+0x2d8>)
    e7d0:	61a2      	str	r2, [r4, #24]
    e7d2:	61e3      	str	r3, [r4, #28]
    e7d4:	784a      	ldrb	r2, [r1, #1]
    e7d6:	6823      	ldr	r3, [r4, #0]
    e7d8:	f362 03c3 	bfi	r3, r2, #3, #1
    e7dc:	6023      	str	r3, [r4, #0]
    e7de:	e6df      	b.n	e5a0 <am_hal_cachectrl_control+0x3c>
    e7e0:	2201      	movs	r2, #1
    e7e2:	e6da      	b.n	e59a <am_hal_cachectrl_control+0x36>
    e7e4:	4b15      	ldr	r3, [pc, #84]	; (e83c <am_hal_cachectrl_control+0x2d8>)
    e7e6:	681b      	ldr	r3, [r3, #0]
    e7e8:	01db      	lsls	r3, r3, #7
    e7ea:	d406      	bmi.n	e7fa <am_hal_cachectrl_control+0x296>
    e7ec:	2007      	movs	r0, #7
    e7ee:	e6d7      	b.n	e5a0 <am_hal_cachectrl_control+0x3c>
    e7f0:	f44f 6288 	mov.w	r2, #1088	; 0x440
    e7f4:	e6d1      	b.n	e59a <am_hal_cachectrl_control+0x36>
    e7f6:	2006      	movs	r0, #6
    e7f8:	e6d2      	b.n	e5a0 <am_hal_cachectrl_control+0x3c>
    e7fa:	2202      	movs	r2, #2
    e7fc:	e6cd      	b.n	e59a <am_hal_cachectrl_control+0x36>
    e7fe:	f000 fc01 	bl	f004 <am_hal_interrupt_master_disable>
    e802:	4603      	mov	r3, r0
    e804:	480e      	ldr	r0, [pc, #56]	; (e840 <am_hal_cachectrl_control+0x2dc>)
    e806:	930d      	str	r3, [sp, #52]	; 0x34
    e808:	f000 f9fa 	bl	ec00 <am_hal_flash_load_ui32>
    e80c:	f420 6170 	bic.w	r1, r0, #3840	; 0xf00
    e810:	f444 64e0 	orr.w	r4, r4, #1792	; 0x700
    e814:	f021 010f 	bic.w	r1, r1, #15
    e818:	4321      	orrs	r1, r4
    e81a:	4809      	ldr	r0, [pc, #36]	; (e840 <am_hal_cachectrl_control+0x2dc>)
    e81c:	f000 f9f4 	bl	ec08 <am_hal_flash_store_ui32>
    e820:	980d      	ldr	r0, [sp, #52]	; 0x34
    e822:	f000 fbf3 	bl	f00c <am_hal_interrupt_master_set>
    e826:	e6d2      	b.n	e5ce <am_hal_cachectrl_control+0x6a>
    e828:	4c04      	ldr	r4, [pc, #16]	; (e83c <am_hal_cachectrl_control+0x2d8>)
    e82a:	6122      	str	r2, [r4, #16]
    e82c:	6163      	str	r3, [r4, #20]
    e82e:	784a      	ldrb	r2, [r1, #1]
    e830:	6823      	ldr	r3, [r4, #0]
    e832:	f362 0382 	bfi	r3, r2, #2, #1
    e836:	6023      	str	r3, [r4, #0]
    e838:	e6b2      	b.n	e5a0 <am_hal_cachectrl_control+0x3c>
    e83a:	bf00      	nop
    e83c:	40018000 	.word	0x40018000
    e840:	40018004 	.word	0x40018004
    e844:	f800000f 	.word	0xf800000f

0000e848 <am_hal_clkgen_control>:
    e848:	4b41      	ldr	r3, [pc, #260]	; (e950 <am_hal_clkgen_control+0x108>)
    e84a:	681a      	ldr	r2, [r3, #0]
    e84c:	b912      	cbnz	r2, e854 <am_hal_clkgen_control+0xc>
    e84e:	4a41      	ldr	r2, [pc, #260]	; (e954 <am_hal_clkgen_control+0x10c>)
    e850:	6812      	ldr	r2, [r2, #0]
    e852:	601a      	str	r2, [r3, #0]
    e854:	2809      	cmp	r0, #9
    e856:	d878      	bhi.n	e94a <am_hal_clkgen_control+0x102>
    e858:	e8df f000 	tbb	[pc, r0]
    e85c:	261e160d 	.word	0x261e160d
    e860:	524c423a 	.word	0x524c423a
    e864:	055a      	.short	0x055a
    e866:	f04f 2340 	mov.w	r3, #1073758208	; 0x40004000
    e86a:	2000      	movs	r0, #0
    e86c:	6a1a      	ldr	r2, [r3, #32]
    e86e:	f36f 0200 	bfc	r2, #0, #1
    e872:	621a      	str	r2, [r3, #32]
    e874:	4770      	bx	lr
    e876:	f04f 2340 	mov.w	r3, #1073758208	; 0x40004000
    e87a:	2200      	movs	r2, #0
    e87c:	2147      	movs	r1, #71	; 0x47
    e87e:	6159      	str	r1, [r3, #20]
    e880:	4610      	mov	r0, r2
    e882:	619a      	str	r2, [r3, #24]
    e884:	615a      	str	r2, [r3, #20]
    e886:	4770      	bx	lr
    e888:	f04f 2240 	mov.w	r2, #1073758208	; 0x40004000
    e88c:	2000      	movs	r0, #0
    e88e:	68d3      	ldr	r3, [r2, #12]
    e890:	f023 0301 	bic.w	r3, r3, #1
    e894:	60d3      	str	r3, [r2, #12]
    e896:	4770      	bx	lr
    e898:	f04f 2240 	mov.w	r2, #1073758208	; 0x40004000
    e89c:	2000      	movs	r0, #0
    e89e:	68d3      	ldr	r3, [r2, #12]
    e8a0:	f023 0302 	bic.w	r3, r3, #2
    e8a4:	60d3      	str	r3, [r2, #12]
    e8a6:	4770      	bx	lr
    e8a8:	4a2b      	ldr	r2, [pc, #172]	; (e958 <am_hal_clkgen_control+0x110>)
    e8aa:	68d3      	ldr	r3, [r2, #12]
    e8ac:	b2db      	uxtb	r3, r3
    e8ae:	2b21      	cmp	r3, #33	; 0x21
    e8b0:	d106      	bne.n	e8c0 <am_hal_clkgen_control+0x78>
    e8b2:	f8b2 3120 	ldrh.w	r3, [r2, #288]	; 0x120
    e8b6:	2101      	movs	r1, #1
    e8b8:	f361 2309 	bfi	r3, r1, #8, #2
    e8bc:	f8a2 3120 	strh.w	r3, [r2, #288]	; 0x120
    e8c0:	f04f 2240 	mov.w	r2, #1073758208	; 0x40004000
    e8c4:	2000      	movs	r0, #0
    e8c6:	68d3      	ldr	r3, [r2, #12]
    e8c8:	f043 0301 	orr.w	r3, r3, #1
    e8cc:	60d3      	str	r3, [r2, #12]
    e8ce:	4770      	bx	lr
    e8d0:	f04f 2240 	mov.w	r2, #1073758208	; 0x40004000
    e8d4:	2000      	movs	r0, #0
    e8d6:	68d3      	ldr	r3, [r2, #12]
    e8d8:	f043 0302 	orr.w	r3, r3, #2
    e8dc:	60d3      	str	r3, [r2, #12]
    e8de:	4770      	bx	lr
    e8e0:	f04f 2340 	mov.w	r3, #1073758208	; 0x40004000
    e8e4:	2200      	movs	r2, #0
    e8e6:	2047      	movs	r0, #71	; 0x47
    e8e8:	2101      	movs	r1, #1
    e8ea:	6158      	str	r0, [r3, #20]
    e8ec:	6199      	str	r1, [r3, #24]
    e8ee:	4610      	mov	r0, r2
    e8f0:	615a      	str	r2, [r3, #20]
    e8f2:	4770      	bx	lr
    e8f4:	f04f 2340 	mov.w	r3, #1073758208	; 0x40004000
    e8f8:	2000      	movs	r0, #0
    e8fa:	68da      	ldr	r2, [r3, #12]
    e8fc:	60da      	str	r2, [r3, #12]
    e8fe:	4770      	bx	lr
    e900:	f04f 2240 	mov.w	r2, #1073758208	; 0x40004000
    e904:	2000      	movs	r0, #0
    e906:	68d3      	ldr	r3, [r2, #12]
    e908:	f043 0380 	orr.w	r3, r3, #128	; 0x80
    e90c:	60d3      	str	r3, [r2, #12]
    e90e:	4770      	bx	lr
    e910:	b510      	push	{r4, lr}
    e912:	4a11      	ldr	r2, [pc, #68]	; (e958 <am_hal_clkgen_control+0x110>)
    e914:	68d3      	ldr	r3, [r2, #12]
    e916:	b2db      	uxtb	r3, r3
    e918:	2b21      	cmp	r3, #33	; 0x21
    e91a:	460c      	mov	r4, r1
    e91c:	d008      	beq.n	e930 <am_hal_clkgen_control+0xe8>
    e91e:	b194      	cbz	r4, e946 <am_hal_clkgen_control+0xfe>
    e920:	6823      	ldr	r3, [r4, #0]
    e922:	f043 0301 	orr.w	r3, r3, #1
    e926:	f04f 2240 	mov.w	r2, #1073758208	; 0x40004000
    e92a:	2000      	movs	r0, #0
    e92c:	6213      	str	r3, [r2, #32]
    e92e:	bd10      	pop	{r4, pc}
    e930:	f8b2 3120 	ldrh.w	r3, [r2, #288]	; 0x120
    e934:	f443 7340 	orr.w	r3, r3, #768	; 0x300
    e938:	f8a2 3120 	strh.w	r3, [r2, #288]	; 0x120
    e93c:	f44f 507a 	mov.w	r0, #16000	; 0x3e80
    e940:	f000 f914 	bl	eb6c <am_hal_flash_delay>
    e944:	e7eb      	b.n	e91e <am_hal_clkgen_control+0xd6>
    e946:	4b05      	ldr	r3, [pc, #20]	; (e95c <am_hal_clkgen_control+0x114>)
    e948:	e7ed      	b.n	e926 <am_hal_clkgen_control+0xde>
    e94a:	2006      	movs	r0, #6
    e94c:	4770      	bx	lr
    e94e:	bf00      	nop
    e950:	1000c170 	.word	0x1000c170
    e954:	4ffff000 	.word	0x4ffff000
    e958:	40020000 	.word	0x40020000
    e95c:	0025b801 	.word	0x0025b801

0000e960 <am_hal_clkgen_status_get>:
    e960:	b1a8      	cbz	r0, e98e <am_hal_clkgen_status_get+0x2e>
    e962:	b410      	push	{r4}
    e964:	f04f 2240 	mov.w	r2, #1073758208	; 0x40004000
    e968:	490a      	ldr	r1, [pc, #40]	; (e994 <am_hal_clkgen_status_get+0x34>)
    e96a:	6994      	ldr	r4, [r2, #24]
    e96c:	4b0a      	ldr	r3, [pc, #40]	; (e998 <am_hal_clkgen_status_get+0x38>)
    e96e:	f014 0f01 	tst.w	r4, #1
    e972:	bf08      	it	eq
    e974:	460b      	moveq	r3, r1
    e976:	6003      	str	r3, [r0, #0]
    e978:	69d3      	ldr	r3, [r2, #28]
    e97a:	f85d 4b04 	ldr.w	r4, [sp], #4
    e97e:	f003 0201 	and.w	r2, r3, #1
    e982:	f3c3 0340 	ubfx	r3, r3, #1, #1
    e986:	6042      	str	r2, [r0, #4]
    e988:	7203      	strb	r3, [r0, #8]
    e98a:	2000      	movs	r0, #0
    e98c:	4770      	bx	lr
    e98e:	2006      	movs	r0, #6
    e990:	4770      	bx	lr
    e992:	bf00      	nop
    e994:	02dc6c00 	.word	0x02dc6c00
    e998:	016e3600 	.word	0x016e3600

0000e99c <am_hal_ctimer_config>:
    e99c:	b570      	push	{r4, r5, r6, lr}
    e99e:	e891 001c 	ldmia.w	r1, {r2, r3, r4}
    e9a2:	2a00      	cmp	r2, #0
    e9a4:	b082      	sub	sp, #8
    e9a6:	bf18      	it	ne
    e9a8:	f04f 4200 	movne.w	r2, #2147483648	; 0x80000000
    e9ac:	ea43 4304 	orr.w	r3, r3, r4, lsl #16
    e9b0:	ea42 0403 	orr.w	r4, r2, r3
    e9b4:	460d      	mov	r5, r1
    e9b6:	4606      	mov	r6, r0
    e9b8:	f000 fb24 	bl	f004 <am_hal_interrupt_master_disable>
    e9bc:	4b0d      	ldr	r3, [pc, #52]	; (e9f4 <am_hal_ctimer_config+0x58>)
    e9be:	9001      	str	r0, [sp, #4]
    e9c0:	0172      	lsls	r2, r6, #5
    e9c2:	50d4      	str	r4, [r2, r3]
    e9c4:	9801      	ldr	r0, [sp, #4]
    e9c6:	f000 fb21 	bl	f00c <am_hal_interrupt_master_set>
    e9ca:	686b      	ldr	r3, [r5, #4]
    e9cc:	b90b      	cbnz	r3, e9d2 <am_hal_ctimer_config+0x36>
    e9ce:	682a      	ldr	r2, [r5, #0]
    e9d0:	b142      	cbz	r2, e9e4 <am_hal_ctimer_config+0x48>
    e9d2:	f3c3 0344 	ubfx	r3, r3, #1, #5
    e9d6:	2100      	movs	r1, #0
    e9d8:	4a07      	ldr	r2, [pc, #28]	; (e9f8 <am_hal_ctimer_config+0x5c>)
    e9da:	eb02 0646 	add.w	r6, r2, r6, lsl #1
    e9de:	5473      	strb	r3, [r6, r1]
    e9e0:	b002      	add	sp, #8
    e9e2:	bd70      	pop	{r4, r5, r6, pc}
    e9e4:	68ab      	ldr	r3, [r5, #8]
    e9e6:	2b00      	cmp	r3, #0
    e9e8:	d0fa      	beq.n	e9e0 <am_hal_ctimer_config+0x44>
    e9ea:	f3c3 0344 	ubfx	r3, r3, #1, #5
    e9ee:	2101      	movs	r1, #1
    e9f0:	e7f2      	b.n	e9d8 <am_hal_ctimer_config+0x3c>
    e9f2:	bf00      	nop
    e9f4:	4000800c 	.word	0x4000800c
    e9f8:	1000c034 	.word	0x1000c034

0000e9fc <am_hal_ctimer_start>:
    e9fc:	b570      	push	{r4, r5, r6, lr}
    e9fe:	b082      	sub	sp, #8
    ea00:	460c      	mov	r4, r1
    ea02:	0146      	lsls	r6, r0, #5
    ea04:	4605      	mov	r5, r0
    ea06:	f000 fafd 	bl	f004 <am_hal_interrupt_master_disable>
    ea0a:	4a0f      	ldr	r2, [pc, #60]	; (ea48 <am_hal_ctimer_start+0x4c>)
    ea0c:	9001      	str	r0, [sp, #4]
    ea0e:	58b3      	ldr	r3, [r6, r2]
    ea10:	f004 2108 	and.w	r1, r4, #134219776	; 0x8000800
    ea14:	ea23 0301 	bic.w	r3, r3, r1
    ea18:	f004 1101 	and.w	r1, r4, #65537	; 0x10001
    ea1c:	430b      	orrs	r3, r1
    ea1e:	f514 3f80 	cmn.w	r4, #65536	; 0x10000
    ea22:	bf0c      	ite	eq
    ea24:	f3c3 4444 	ubfxeq	r4, r3, #17, #5
    ea28:	f3c3 0444 	ubfxne	r4, r3, #1, #5
    ea2c:	50b3      	str	r3, [r6, r2]
    ea2e:	4b07      	ldr	r3, [pc, #28]	; (ea4c <am_hal_ctimer_start+0x50>)
    ea30:	9801      	ldr	r0, [sp, #4]
    ea32:	bf0c      	ite	eq
    ea34:	2101      	moveq	r1, #1
    ea36:	2100      	movne	r1, #0
    ea38:	eb03 0345 	add.w	r3, r3, r5, lsl #1
    ea3c:	545c      	strb	r4, [r3, r1]
    ea3e:	f000 fae5 	bl	f00c <am_hal_interrupt_master_set>
    ea42:	b002      	add	sp, #8
    ea44:	bd70      	pop	{r4, r5, r6, pc}
    ea46:	bf00      	nop
    ea48:	4000800c 	.word	0x4000800c
    ea4c:	1000c034 	.word	0x1000c034

0000ea50 <am_hal_ctimer_clear>:
    ea50:	b570      	push	{r4, r5, r6, lr}
    ea52:	b082      	sub	sp, #8
    ea54:	0146      	lsls	r6, r0, #5
    ea56:	460c      	mov	r4, r1
    ea58:	f000 fad4 	bl	f004 <am_hal_interrupt_master_disable>
    ea5c:	4d05      	ldr	r5, [pc, #20]	; (ea74 <am_hal_ctimer_clear+0x24>)
    ea5e:	9001      	str	r0, [sp, #4]
    ea60:	5973      	ldr	r3, [r6, r5]
    ea62:	f004 2108 	and.w	r1, r4, #134219776	; 0x8000800
    ea66:	4319      	orrs	r1, r3
    ea68:	5171      	str	r1, [r6, r5]
    ea6a:	9801      	ldr	r0, [sp, #4]
    ea6c:	f000 face 	bl	f00c <am_hal_interrupt_master_set>
    ea70:	b002      	add	sp, #8
    ea72:	bd70      	pop	{r4, r5, r6, pc}
    ea74:	4000800c 	.word	0x4000800c

0000ea78 <am_hal_ctimer_period_set>:
    ea78:	e92d 47f0 	stmdb	sp!, {r4, r5, r6, r7, r8, r9, sl, lr}
    ea7c:	b082      	sub	sp, #8
    ea7e:	4689      	mov	r9, r1
    ea80:	4698      	mov	r8, r3
    ea82:	0147      	lsls	r7, r0, #5
    ea84:	4614      	mov	r4, r2
    ea86:	f000 fabd 	bl	f004 <am_hal_interrupt_master_disable>
    ea8a:	f8df a094 	ldr.w	sl, [pc, #148]	; eb20 <am_hal_ctimer_period_set+0xa8>
    ea8e:	9001      	str	r0, [sp, #4]
    ea90:	f519 3f80 	cmn.w	r9, #65536	; 0x10000
    ea94:	4d20      	ldr	r5, [pc, #128]	; (eb18 <am_hal_ctimer_period_set+0xa0>)
    ea96:	4e21      	ldr	r6, [pc, #132]	; (eb1c <am_hal_ctimer_period_set+0xa4>)
    ea98:	f857 300a 	ldr.w	r3, [r7, sl]
    ea9c:	d01a      	beq.n	ead4 <am_hal_ctimer_period_set+0x5c>
    ea9e:	f403 73c0 	and.w	r3, r3, #384	; 0x180
    eaa2:	2b80      	cmp	r3, #128	; 0x80
    eaa4:	d01b      	beq.n	eade <am_hal_ctimer_period_set+0x66>
    eaa6:	f64f 72ff 	movw	r2, #65535	; 0xffff
    eaaa:	2000      	movs	r0, #0
    eaac:	4591      	cmp	r9, r2
    eaae:	4603      	mov	r3, r0
    eab0:	d01e      	beq.n	eaf0 <am_hal_ctimer_period_set+0x78>
    eab2:	f519 3f80 	cmn.w	r9, #65536	; 0x10000
    eab6:	d025      	beq.n	eb04 <am_hal_ctimer_period_set+0x8c>
    eab8:	0c1b      	lsrs	r3, r3, #16
    eaba:	b2a2      	uxth	r2, r4
    eabc:	041b      	lsls	r3, r3, #16
    eabe:	4310      	orrs	r0, r2
    eac0:	ea43 4314 	orr.w	r3, r3, r4, lsr #16
    eac4:	5178      	str	r0, [r7, r5]
    eac6:	51bb      	str	r3, [r7, r6]
    eac8:	9801      	ldr	r0, [sp, #4]
    eaca:	f000 fa9f 	bl	f00c <am_hal_interrupt_master_set>
    eace:	b002      	add	sp, #8
    ead0:	e8bd 87f0 	ldmia.w	sp!, {r4, r5, r6, r7, r8, r9, sl, pc}
    ead4:	0c1b      	lsrs	r3, r3, #16
    ead6:	f403 73c0 	and.w	r3, r3, #384	; 0x180
    eada:	2b80      	cmp	r3, #128	; 0x80
    eadc:	d111      	bne.n	eb02 <am_hal_ctimer_period_set+0x8a>
    eade:	f64f 72ff 	movw	r2, #65535	; 0xffff
    eae2:	4591      	cmp	r9, r2
    eae4:	ea4f 4004 	mov.w	r0, r4, lsl #16
    eae8:	4623      	mov	r3, r4
    eaea:	ebc8 0404 	rsb	r4, r8, r4
    eaee:	d1e0      	bne.n	eab2 <am_hal_ctimer_period_set+0x3a>
    eaf0:	b2a3      	uxth	r3, r4
    eaf2:	4318      	orrs	r0, r3
    eaf4:	5178      	str	r0, [r7, r5]
    eaf6:	9801      	ldr	r0, [sp, #4]
    eaf8:	f000 fa88 	bl	f00c <am_hal_interrupt_master_set>
    eafc:	b002      	add	sp, #8
    eafe:	e8bd 87f0 	ldmia.w	sp!, {r4, r5, r6, r7, r8, r9, sl, pc}
    eb02:	2000      	movs	r0, #0
    eb04:	b2a3      	uxth	r3, r4
    eb06:	4318      	orrs	r0, r3
    eb08:	51b8      	str	r0, [r7, r6]
    eb0a:	9801      	ldr	r0, [sp, #4]
    eb0c:	f000 fa7e 	bl	f00c <am_hal_interrupt_master_set>
    eb10:	b002      	add	sp, #8
    eb12:	e8bd 87f0 	ldmia.w	sp!, {r4, r5, r6, r7, r8, r9, sl, pc}
    eb16:	bf00      	nop
    eb18:	40008004 	.word	0x40008004
    eb1c:	40008008 	.word	0x40008008
    eb20:	4000800c 	.word	0x4000800c

0000eb24 <am_hal_ctimer_int_enable>:
    eb24:	b510      	push	{r4, lr}
    eb26:	b082      	sub	sp, #8
    eb28:	4604      	mov	r4, r0
    eb2a:	f000 fa6b 	bl	f004 <am_hal_interrupt_master_disable>
    eb2e:	4b06      	ldr	r3, [pc, #24]	; (eb48 <am_hal_ctimer_int_enable+0x24>)
    eb30:	9001      	str	r0, [sp, #4]
    eb32:	f8d3 2200 	ldr.w	r2, [r3, #512]	; 0x200
    eb36:	4314      	orrs	r4, r2
    eb38:	f8c3 4200 	str.w	r4, [r3, #512]	; 0x200
    eb3c:	9801      	ldr	r0, [sp, #4]
    eb3e:	f000 fa65 	bl	f00c <am_hal_interrupt_master_set>
    eb42:	b002      	add	sp, #8
    eb44:	bd10      	pop	{r4, pc}
    eb46:	bf00      	nop
    eb48:	40008000 	.word	0x40008000

0000eb4c <am_hal_ctimer_int_clear>:
    eb4c:	b510      	push	{r4, lr}
    eb4e:	b082      	sub	sp, #8
    eb50:	4604      	mov	r4, r0
    eb52:	f000 fa57 	bl	f004 <am_hal_interrupt_master_disable>
    eb56:	4b04      	ldr	r3, [pc, #16]	; (eb68 <am_hal_ctimer_int_clear+0x1c>)
    eb58:	9001      	str	r0, [sp, #4]
    eb5a:	f8c3 4208 	str.w	r4, [r3, #520]	; 0x208
    eb5e:	9801      	ldr	r0, [sp, #4]
    eb60:	f000 fa54 	bl	f00c <am_hal_interrupt_master_set>
    eb64:	b002      	add	sp, #8
    eb66:	bd10      	pop	{r4, pc}
    eb68:	40008000 	.word	0x40008000

0000eb6c <am_hal_flash_delay>:
    eb6c:	f04f 2340 	mov.w	r3, #1073758208	; 0x40004000
    eb70:	6b5b      	ldr	r3, [r3, #52]	; 0x34
    eb72:	075b      	lsls	r3, r3, #29
    eb74:	bf46      	itte	mi
    eb76:	0040      	lslmi	r0, r0, #1
    eb78:	230e      	movmi	r3, #14
    eb7a:	230b      	movpl	r3, #11
    eb7c:	4298      	cmp	r0, r3
    eb7e:	d800      	bhi.n	eb82 <am_hal_flash_delay+0x16>
    eb80:	4770      	bx	lr
    eb82:	1ac0      	subs	r0, r0, r3
    eb84:	4b00      	ldr	r3, [pc, #0]	; (eb88 <am_hal_flash_delay+0x1c>)
    eb86:	4718      	bx	r3
    eb88:	0800009d 	.word	0x0800009d

0000eb8c <am_hal_flash_delay_status_check>:
    eb8c:	e92d 43f8 	stmdb	sp!, {r3, r4, r5, r6, r7, r8, r9, lr}
    eb90:	f89d 4020 	ldrb.w	r4, [sp, #32]
    eb94:	460d      	mov	r5, r1
    eb96:	4616      	mov	r6, r2
    eb98:	461f      	mov	r7, r3
    eb9a:	b1b4      	cbz	r4, ebca <am_hal_flash_delay_status_check+0x3e>
    eb9c:	4604      	mov	r4, r0
    eb9e:	f04f 2940 	mov.w	r9, #1073758208	; 0x40004000
    eba2:	f8df 8058 	ldr.w	r8, [pc, #88]	; ebfc <am_hal_flash_delay_status_check+0x70>
    eba6:	e009      	b.n	ebbc <am_hal_flash_delay_status_check+0x30>
    eba8:	b324      	cbz	r4, ebf4 <am_hal_flash_delay_status_check+0x68>
    ebaa:	f8d9 3034 	ldr.w	r3, [r9, #52]	; 0x34
    ebae:	f013 0f04 	tst.w	r3, #4
    ebb2:	bf14      	ite	ne
    ebb4:	2012      	movne	r0, #18
    ebb6:	2005      	moveq	r0, #5
    ebb8:	3c01      	subs	r4, #1
    ebba:	47c0      	blx	r8
    ebbc:	682b      	ldr	r3, [r5, #0]
    ebbe:	4033      	ands	r3, r6
    ebc0:	429f      	cmp	r7, r3
    ebc2:	d1f1      	bne.n	eba8 <am_hal_flash_delay_status_check+0x1c>
    ebc4:	2000      	movs	r0, #0
    ebc6:	e8bd 83f8 	ldmia.w	sp!, {r3, r4, r5, r6, r7, r8, r9, pc}
    ebca:	f8df 8030 	ldr.w	r8, [pc, #48]	; ebfc <am_hal_flash_delay_status_check+0x70>
    ebce:	4604      	mov	r4, r0
    ebd0:	f04f 2940 	mov.w	r9, #1073758208	; 0x40004000
    ebd4:	e009      	b.n	ebea <am_hal_flash_delay_status_check+0x5e>
    ebd6:	b16c      	cbz	r4, ebf4 <am_hal_flash_delay_status_check+0x68>
    ebd8:	f8d9 3034 	ldr.w	r3, [r9, #52]	; 0x34
    ebdc:	f013 0f04 	tst.w	r3, #4
    ebe0:	bf14      	ite	ne
    ebe2:	2012      	movne	r0, #18
    ebe4:	2005      	moveq	r0, #5
    ebe6:	3c01      	subs	r4, #1
    ebe8:	47c0      	blx	r8
    ebea:	682b      	ldr	r3, [r5, #0]
    ebec:	4033      	ands	r3, r6
    ebee:	429f      	cmp	r7, r3
    ebf0:	d0f1      	beq.n	ebd6 <am_hal_flash_delay_status_check+0x4a>
    ebf2:	e7e7      	b.n	ebc4 <am_hal_flash_delay_status_check+0x38>
    ebf4:	2004      	movs	r0, #4
    ebf6:	e8bd 83f8 	ldmia.w	sp!, {r3, r4, r5, r6, r7, r8, r9, pc}
    ebfa:	bf00      	nop
    ebfc:	0800009d 	.word	0x0800009d

0000ec00 <am_hal_flash_load_ui32>:
    ec00:	4b00      	ldr	r3, [pc, #0]	; (ec04 <am_hal_flash_load_ui32+0x4>)
    ec02:	4718      	bx	r3
    ec04:	08000075 	.word	0x08000075

0000ec08 <am_hal_flash_store_ui32>:
    ec08:	4b01      	ldr	r3, [pc, #4]	; (ec10 <am_hal_flash_store_ui32+0x8>)
    ec0a:	f043 0301 	orr.w	r3, r3, #1
    ec0e:	4718      	bx	r3
    ec10:	1000c044 	.word	0x1000c044

0000ec14 <am_hal_gpio_pinconfig>:
    ec14:	2831      	cmp	r0, #49	; 0x31
    ec16:	d901      	bls.n	ec1c <am_hal_gpio_pinconfig+0x8>
    ec18:	2006      	movs	r0, #6
    ec1a:	4770      	bx	lr
    ec1c:	e92d 4ff0 	stmdb	sp!, {r4, r5, r6, r7, r8, r9, sl, fp, lr}
    ec20:	f001 0307 	and.w	r3, r1, #7
    ec24:	f011 06e0 	ands.w	r6, r1, #224	; 0xe0
    ec28:	b085      	sub	sp, #20
    ec2a:	ea4f 02c3 	mov.w	r2, r3, lsl #3
    ec2e:	f3c1 04c1 	ubfx	r4, r1, #3, #2
    ec32:	d014      	beq.n	ec5e <am_hal_gpio_pinconfig+0x4a>
    ec34:	f3c1 1742 	ubfx	r7, r1, #5, #3
    ec38:	1dbd      	adds	r5, r7, #6
    ec3a:	f005 0507 	and.w	r5, r5, #7
    ec3e:	2d03      	cmp	r5, #3
    ec40:	f042 0201 	orr.w	r2, r2, #1
    ec44:	f200 80a7 	bhi.w	ed96 <am_hal_gpio_pinconfig+0x182>
    ec48:	4d82      	ldr	r5, [pc, #520]	; (ee54 <am_hal_gpio_pinconfig+0x240>)
    ec4a:	5c2d      	ldrb	r5, [r5, r0]
    ec4c:	07ee      	lsls	r6, r5, #31
    ec4e:	d403      	bmi.n	ec58 <am_hal_gpio_pinconfig+0x44>
    ec50:	4881      	ldr	r0, [pc, #516]	; (ee58 <am_hal_gpio_pinconfig+0x244>)
    ec52:	b005      	add	sp, #20
    ec54:	e8bd 8ff0 	ldmia.w	sp!, {r4, r5, r6, r7, r8, r9, sl, fp, pc}
    ec58:	3f02      	subs	r7, #2
    ec5a:	ea42 1287 	orr.w	r2, r2, r7, lsl #6
    ec5e:	2c00      	cmp	r4, #0
    ec60:	f040 8091 	bne.w	ed86 <am_hal_gpio_pinconfig+0x172>
    ec64:	4c7d      	ldr	r4, [pc, #500]	; (ee5c <am_hal_gpio_pinconfig+0x248>)
    ec66:	4d7e      	ldr	r5, [pc, #504]	; (ee60 <am_hal_gpio_pinconfig+0x24c>)
    ec68:	5c24      	ldrb	r4, [r4, r0]
    ec6a:	5c2d      	ldrb	r5, [r5, r0]
    ec6c:	411c      	asrs	r4, r3
    ec6e:	f014 0f01 	tst.w	r4, #1
    ec72:	bf0c      	ite	eq
    ec74:	2400      	moveq	r4, #0
    ec76:	2402      	movne	r4, #2
    ec78:	42ab      	cmp	r3, r5
    ec7a:	ea42 0204 	orr.w	r2, r2, r4
    ec7e:	f000 8096 	beq.w	edae <am_hal_gpio_pinconfig+0x19a>
    ec82:	f3c1 3341 	ubfx	r3, r1, #13, #2
    ec86:	105d      	asrs	r5, r3, #1
    ec88:	f3c1 2681 	ubfx	r6, r1, #10, #2
    ec8c:	00db      	lsls	r3, r3, #3
    ec8e:	f3c1 2e07 	ubfx	lr, r1, #8, #8
    ec92:	f003 0408 	and.w	r4, r3, #8
    ec96:	ea45 0346 	orr.w	r3, r5, r6, lsl #1
    ec9a:	f00e 060c 	and.w	r6, lr, #12
    ec9e:	f3c1 3500 	ubfx	r5, r1, #12, #1
    eca2:	2e04      	cmp	r6, #4
    eca4:	ea43 0304 	orr.w	r3, r3, r4
    eca8:	ea42 0245 	orr.w	r2, r2, r5, lsl #1
    ecac:	462c      	mov	r4, r5
    ecae:	f000 808b 	beq.w	edc8 <am_hal_gpio_pinconfig+0x1b4>
    ecb2:	4c6c      	ldr	r4, [pc, #432]	; (ee64 <am_hal_gpio_pinconfig+0x250>)
    ecb4:	6827      	ldr	r7, [r4, #0]
    ecb6:	1bcf      	subs	r7, r1, r7
    ecb8:	fab7 f787 	clz	r7, r7
    ecbc:	097f      	lsrs	r7, r7, #5
    ecbe:	f01e 0f60 	tst.w	lr, #96	; 0x60
    ecc2:	bf04      	itt	eq
    ecc4:	f3c1 34c0 	ubfxeq	r4, r1, #15, #1
    ecc8:	f364 0300 	bfieq	r3, r4, #0, #1
    eccc:	0084      	lsls	r4, r0, #2
    ecce:	f3c1 2101 	ubfx	r1, r1, #8, #2
    ecd2:	2902      	cmp	r1, #2
    ecd4:	ea4f 05c0 	mov.w	r5, r0, lsl #3
    ecd8:	d078      	beq.n	edcc <am_hal_gpio_pinconfig+0x1b8>
    ecda:	d87f      	bhi.n	eddc <am_hal_gpio_pinconfig+0x1c8>
    ecdc:	2901      	cmp	r1, #1
    ecde:	f04f 0100 	mov.w	r1, #0
    ece2:	bf08      	it	eq
    ece4:	f042 0204 	orreq.w	r2, r2, #4
    ece8:	f005 0518 	and.w	r5, r5, #24
    ecec:	9101      	str	r1, [sp, #4]
    ecee:	f004 041c 	and.w	r4, r4, #28
    ecf2:	f020 0a03 	bic.w	sl, r0, #3
    ecf6:	f04f 090f 	mov.w	r9, #15
    ecfa:	fa09 f904 	lsl.w	r9, r9, r4
    ecfe:	0841      	lsrs	r1, r0, #1
    ed00:	26ff      	movs	r6, #255	; 0xff
    ed02:	fa03 f404 	lsl.w	r4, r3, r4
    ed06:	f10a 4380 	add.w	r3, sl, #1073741824	; 0x40000000
    ed0a:	40ae      	lsls	r6, r5
    ed0c:	9300      	str	r3, [sp, #0]
    ed0e:	fa02 f505 	lsl.w	r5, r2, r5
    ed12:	4683      	mov	fp, r0
    ed14:	f021 0803 	bic.w	r8, r1, #3
    ed18:	f000 f974 	bl	f004 <am_hal_interrupt_master_disable>
    ed1c:	9b00      	ldr	r3, [sp, #0]
    ed1e:	9003      	str	r0, [sp, #12]
    ed20:	ea6f 0909 	mvn.w	r9, r9
    ed24:	43f6      	mvns	r6, r6
    ed26:	f503 3380 	add.w	r3, r3, #65536	; 0x10000
    ed2a:	f8df e15c 	ldr.w	lr, [pc, #348]	; ee88 <am_hal_gpio_pinconfig+0x274>
    ed2e:	4a4e      	ldr	r2, [pc, #312]	; (ee68 <am_hal_gpio_pinconfig+0x254>)
    ed30:	b15f      	cbz	r7, ed4a <am_hal_gpio_pinconfig+0x136>
    ed32:	ea4f 07db 	mov.w	r7, fp, lsr #3
    ed36:	f00b 001f 	and.w	r0, fp, #31
    ed3a:	f007 0704 	and.w	r7, r7, #4
    ed3e:	f04f 0b01 	mov.w	fp, #1
    ed42:	494a      	ldr	r1, [pc, #296]	; (ee6c <am_hal_gpio_pinconfig+0x258>)
    ed44:	fa0b f000 	lsl.w	r0, fp, r0
    ed48:	5078      	str	r0, [r7, r1]
    ed4a:	4849      	ldr	r0, [pc, #292]	; (ee70 <am_hal_gpio_pinconfig+0x25c>)
    ed4c:	2773      	movs	r7, #115	; 0x73
    ed4e:	6607      	str	r7, [r0, #96]	; 0x60
    ed50:	681f      	ldr	r7, [r3, #0]
    ed52:	4037      	ands	r7, r6
    ed54:	433d      	orrs	r5, r7
    ed56:	601d      	str	r5, [r3, #0]
    ed58:	f858 300e 	ldr.w	r3, [r8, lr]
    ed5c:	ea09 0303 	and.w	r3, r9, r3
    ed60:	4323      	orrs	r3, r4
    ed62:	f848 300e 	str.w	r3, [r8, lr]
    ed66:	f85a 3002 	ldr.w	r3, [sl, r2]
    ed6a:	401e      	ands	r6, r3
    ed6c:	9b01      	ldr	r3, [sp, #4]
    ed6e:	2400      	movs	r4, #0
    ed70:	431e      	orrs	r6, r3
    ed72:	f84a 6002 	str.w	r6, [sl, r2]
    ed76:	6604      	str	r4, [r0, #96]	; 0x60
    ed78:	9803      	ldr	r0, [sp, #12]
    ed7a:	f000 f947 	bl	f00c <am_hal_interrupt_master_set>
    ed7e:	4620      	mov	r0, r4
    ed80:	b005      	add	sp, #20
    ed82:	e8bd 8ff0 	ldmia.w	sp!, {r4, r5, r6, r7, r8, r9, sl, fp, pc}
    ed86:	2c01      	cmp	r4, #1
    ed88:	d017      	beq.n	edba <am_hal_gpio_pinconfig+0x1a6>
    ed8a:	2c02      	cmp	r4, #2
    ed8c:	d035      	beq.n	edfa <am_hal_gpio_pinconfig+0x1e6>
    ed8e:	4839      	ldr	r0, [pc, #228]	; (ee74 <am_hal_gpio_pinconfig+0x260>)
    ed90:	b005      	add	sp, #20
    ed92:	e8bd 8ff0 	ldmia.w	sp!, {r4, r5, r6, r7, r8, r9, sl, fp, pc}
    ed96:	2ec0      	cmp	r6, #192	; 0xc0
    ed98:	d02a      	beq.n	edf0 <am_hal_gpio_pinconfig+0x1dc>
    ed9a:	2e20      	cmp	r6, #32
    ed9c:	f47f af5f 	bne.w	ec5e <am_hal_gpio_pinconfig+0x4a>
    eda0:	2814      	cmp	r0, #20
    eda2:	f43f af55 	beq.w	ec50 <am_hal_gpio_pinconfig+0x3c>
    eda6:	2c00      	cmp	r4, #0
    eda8:	f43f af5c 	beq.w	ec64 <am_hal_gpio_pinconfig+0x50>
    edac:	e7eb      	b.n	ed86 <am_hal_gpio_pinconfig+0x172>
    edae:	f3c1 4402 	ubfx	r4, r1, #16, #3
    edb2:	2c07      	cmp	r4, #7
    edb4:	d128      	bne.n	ee08 <am_hal_gpio_pinconfig+0x1f4>
    edb6:	4830      	ldr	r0, [pc, #192]	; (ee78 <am_hal_gpio_pinconfig+0x264>)
    edb8:	e74b      	b.n	ec52 <am_hal_gpio_pinconfig+0x3e>
    edba:	4c26      	ldr	r4, [pc, #152]	; (ee54 <am_hal_gpio_pinconfig+0x240>)
    edbc:	5c24      	ldrb	r4, [r4, r0]
    edbe:	07a5      	lsls	r5, r4, #30
    edc0:	d5e5      	bpl.n	ed8e <am_hal_gpio_pinconfig+0x17a>
    edc2:	f042 0240 	orr.w	r2, r2, #64	; 0x40
    edc6:	e74d      	b.n	ec64 <am_hal_gpio_pinconfig+0x50>
    edc8:	2701      	movs	r7, #1
    edca:	e778      	b.n	ecbe <am_hal_gpio_pinconfig+0xaa>
    edcc:	f005 0518 	and.w	r5, r5, #24
    edd0:	f04f 0801 	mov.w	r8, #1
    edd4:	fa08 f105 	lsl.w	r1, r8, r5
    edd8:	9101      	str	r1, [sp, #4]
    edda:	e788      	b.n	ecee <am_hal_gpio_pinconfig+0xda>
    eddc:	f005 0518 	and.w	r5, r5, #24
    ede0:	f04f 0801 	mov.w	r8, #1
    ede4:	fa08 f105 	lsl.w	r1, r8, r5
    ede8:	f042 0204 	orr.w	r2, r2, #4
    edec:	9101      	str	r1, [sp, #4]
    edee:	e77e      	b.n	ecee <am_hal_gpio_pinconfig+0xda>
    edf0:	2814      	cmp	r0, #20
    edf2:	f43f af34 	beq.w	ec5e <am_hal_gpio_pinconfig+0x4a>
    edf6:	4821      	ldr	r0, [pc, #132]	; (ee7c <am_hal_gpio_pinconfig+0x268>)
    edf8:	e72b      	b.n	ec52 <am_hal_gpio_pinconfig+0x3e>
    edfa:	4c16      	ldr	r4, [pc, #88]	; (ee54 <am_hal_gpio_pinconfig+0x240>)
    edfc:	5c24      	ldrb	r4, [r4, r0]
    edfe:	0764      	lsls	r4, r4, #29
    ee00:	d5c5      	bpl.n	ed8e <am_hal_gpio_pinconfig+0x17a>
    ee02:	f042 0280 	orr.w	r2, r2, #128	; 0x80
    ee06:	e72d      	b.n	ec64 <am_hal_gpio_pinconfig+0x50>
    ee08:	4d1d      	ldr	r5, [pc, #116]	; (ee80 <am_hal_gpio_pinconfig+0x26c>)
    ee0a:	f3c1 43c1 	ubfx	r3, r1, #19, #2
    ee0e:	f815 6020 	ldrb.w	r6, [r5, r0, lsl #2]
    ee12:	ea43 1304 	orr.w	r3, r3, r4, lsl #4
    ee16:	429e      	cmp	r6, r3
    ee18:	d00c      	beq.n	ee34 <am_hal_gpio_pinconfig+0x220>
    ee1a:	0084      	lsls	r4, r0, #2
    ee1c:	4425      	add	r5, r4
    ee1e:	786e      	ldrb	r6, [r5, #1]
    ee20:	429e      	cmp	r6, r3
    ee22:	d012      	beq.n	ee4a <am_hal_gpio_pinconfig+0x236>
    ee24:	78ae      	ldrb	r6, [r5, #2]
    ee26:	429e      	cmp	r6, r3
    ee28:	d00d      	beq.n	ee46 <am_hal_gpio_pinconfig+0x232>
    ee2a:	78ed      	ldrb	r5, [r5, #3]
    ee2c:	429d      	cmp	r5, r3
    ee2e:	d00e      	beq.n	ee4e <am_hal_gpio_pinconfig+0x23a>
    ee30:	4814      	ldr	r0, [pc, #80]	; (ee84 <am_hal_gpio_pinconfig+0x270>)
    ee32:	e70e      	b.n	ec52 <am_hal_gpio_pinconfig+0x3e>
    ee34:	2300      	movs	r3, #0
    ee36:	0084      	lsls	r4, r0, #2
    ee38:	005b      	lsls	r3, r3, #1
    ee3a:	f3c1 5540 	ubfx	r5, r1, #21, #1
    ee3e:	ea43 03c5 	orr.w	r3, r3, r5, lsl #3
    ee42:	2700      	movs	r7, #0
    ee44:	e743      	b.n	ecce <am_hal_gpio_pinconfig+0xba>
    ee46:	2302      	movs	r3, #2
    ee48:	e7f6      	b.n	ee38 <am_hal_gpio_pinconfig+0x224>
    ee4a:	2301      	movs	r3, #1
    ee4c:	e7f4      	b.n	ee38 <am_hal_gpio_pinconfig+0x224>
    ee4e:	2303      	movs	r3, #3
    ee50:	e7f2      	b.n	ee38 <am_hal_gpio_pinconfig+0x224>
    ee52:	bf00      	nop
    ee54:	00011b08 	.word	0x00011b08
    ee58:	08000100 	.word	0x08000100
    ee5c:	00011c04 	.word	0x00011c04
    ee60:	00011c40 	.word	0x00011c40
    ee64:	00011c38 	.word	0x00011c38
    ee68:	400100e0 	.word	0x400100e0
    ee6c:	400100b4 	.word	0x400100b4
    ee70:	40010000 	.word	0x40010000
    ee74:	08000102 	.word	0x08000102
    ee78:	08000103 	.word	0x08000103
    ee7c:	08000101 	.word	0x08000101
    ee80:	00011b3c 	.word	0x00011b3c
    ee84:	08000104 	.word	0x08000104
    ee88:	40010040 	.word	0x40010040

0000ee8c <am_hal_gpio_state_read>:
    ee8c:	b1ca      	cbz	r2, eec2 <am_hal_gpio_state_read+0x36>
    ee8e:	2831      	cmp	r0, #49	; 0x31
    ee90:	d904      	bls.n	ee9c <am_hal_gpio_state_read+0x10>
    ee92:	f04f 33ff 	mov.w	r3, #4294967295	; 0xffffffff
    ee96:	6013      	str	r3, [r2, #0]
    ee98:	2005      	movs	r0, #5
    ee9a:	4770      	bx	lr
    ee9c:	08c3      	lsrs	r3, r0, #3
    ee9e:	2901      	cmp	r1, #1
    eea0:	f003 0304 	and.w	r3, r3, #4
    eea4:	f000 001f 	and.w	r0, r0, #31
    eea8:	d00d      	beq.n	eec6 <am_hal_gpio_state_read+0x3a>
    eeaa:	d313      	bcc.n	eed4 <am_hal_gpio_state_read+0x48>
    eeac:	2902      	cmp	r1, #2
    eeae:	d108      	bne.n	eec2 <am_hal_gpio_state_read+0x36>
    eeb0:	490c      	ldr	r1, [pc, #48]	; (eee4 <am_hal_gpio_state_read+0x58>)
    eeb2:	585b      	ldr	r3, [r3, r1]
    eeb4:	fa23 f000 	lsr.w	r0, r3, r0
    eeb8:	f000 0001 	and.w	r0, r0, #1
    eebc:	6010      	str	r0, [r2, #0]
    eebe:	2000      	movs	r0, #0
    eec0:	4770      	bx	lr
    eec2:	2006      	movs	r0, #6
    eec4:	4770      	bx	lr
    eec6:	4908      	ldr	r1, [pc, #32]	; (eee8 <am_hal_gpio_state_read+0x5c>)
    eec8:	585b      	ldr	r3, [r3, r1]
    eeca:	fa23 f000 	lsr.w	r0, r3, r0
    eece:	f000 0001 	and.w	r0, r0, #1
    eed2:	e7f3      	b.n	eebc <am_hal_gpio_state_read+0x30>
    eed4:	4905      	ldr	r1, [pc, #20]	; (eeec <am_hal_gpio_state_read+0x60>)
    eed6:	585b      	ldr	r3, [r3, r1]
    eed8:	fa23 f000 	lsr.w	r0, r3, r0
    eedc:	f000 0001 	and.w	r0, r0, #1
    eee0:	e7ec      	b.n	eebc <am_hal_gpio_state_read+0x30>
    eee2:	bf00      	nop
    eee4:	400100a0 	.word	0x400100a0
    eee8:	40010088 	.word	0x40010088
    eeec:	40010080 	.word	0x40010080

0000eef0 <am_hal_gpio_state_write>:
    eef0:	2831      	cmp	r0, #49	; 0x31
    eef2:	d901      	bls.n	eef8 <am_hal_gpio_state_write+0x8>
    eef4:	2005      	movs	r0, #5
    eef6:	4770      	bx	lr
    eef8:	2905      	cmp	r1, #5
    eefa:	d901      	bls.n	ef00 <am_hal_gpio_state_write+0x10>
    eefc:	2006      	movs	r0, #6
    eefe:	4770      	bx	lr
    ef00:	b570      	push	{r4, r5, r6, lr}
    ef02:	f000 031f 	and.w	r3, r0, #31
    ef06:	b082      	sub	sp, #8
    ef08:	08c0      	lsrs	r0, r0, #3
    ef0a:	2201      	movs	r2, #1
    ef0c:	460d      	mov	r5, r1
    ef0e:	f000 0404 	and.w	r4, r0, #4
    ef12:	fa02 f603 	lsl.w	r6, r2, r3
    ef16:	f000 f875 	bl	f004 <am_hal_interrupt_master_disable>
    ef1a:	1e69      	subs	r1, r5, #1
    ef1c:	9001      	str	r0, [sp, #4]
    ef1e:	2904      	cmp	r1, #4
    ef20:	d817      	bhi.n	ef52 <am_hal_gpio_state_write+0x62>
    ef22:	e8df f001 	tbb	[pc, r1]
    ef26:	0e13      	.short	0x0e13
    ef28:	030b      	.short	0x030b
    ef2a:	19          	.byte	0x19
    ef2b:	00          	.byte	0x00
    ef2c:	4b0d      	ldr	r3, [pc, #52]	; (ef64 <am_hal_gpio_state_write+0x74>)
    ef2e:	50e6      	str	r6, [r4, r3]
    ef30:	9801      	ldr	r0, [sp, #4]
    ef32:	f000 f86b 	bl	f00c <am_hal_interrupt_master_set>
    ef36:	2000      	movs	r0, #0
    ef38:	b002      	add	sp, #8
    ef3a:	bd70      	pop	{r4, r5, r6, pc}
    ef3c:	4b0a      	ldr	r3, [pc, #40]	; (ef68 <am_hal_gpio_state_write+0x78>)
    ef3e:	50e6      	str	r6, [r4, r3]
    ef40:	e7f6      	b.n	ef30 <am_hal_gpio_state_write+0x40>
    ef42:	4a0a      	ldr	r2, [pc, #40]	; (ef6c <am_hal_gpio_state_write+0x7c>)
    ef44:	58a3      	ldr	r3, [r4, r2]
    ef46:	4073      	eors	r3, r6
    ef48:	50a3      	str	r3, [r4, r2]
    ef4a:	e7f1      	b.n	ef30 <am_hal_gpio_state_write+0x40>
    ef4c:	4b08      	ldr	r3, [pc, #32]	; (ef70 <am_hal_gpio_state_write+0x80>)
    ef4e:	50e6      	str	r6, [r4, r3]
    ef50:	e7ee      	b.n	ef30 <am_hal_gpio_state_write+0x40>
    ef52:	4b08      	ldr	r3, [pc, #32]	; (ef74 <am_hal_gpio_state_write+0x84>)
    ef54:	50e6      	str	r6, [r4, r3]
    ef56:	e7eb      	b.n	ef30 <am_hal_gpio_state_write+0x40>
    ef58:	4a03      	ldr	r2, [pc, #12]	; (ef68 <am_hal_gpio_state_write+0x78>)
    ef5a:	58a3      	ldr	r3, [r4, r2]
    ef5c:	4073      	eors	r3, r6
    ef5e:	50a3      	str	r3, [r4, r2]
    ef60:	e7e6      	b.n	ef30 <am_hal_gpio_state_write+0x40>
    ef62:	bf00      	nop
    ef64:	400100a8 	.word	0x400100a8
    ef68:	400100b4 	.word	0x400100b4
    ef6c:	40010088 	.word	0x40010088
    ef70:	40010090 	.word	0x40010090
    ef74:	40010098 	.word	0x40010098

0000ef78 <am_hal_gpio_interrupt_enable>:
    ef78:	4b0f      	ldr	r3, [pc, #60]	; (efb8 <am_hal_gpio_interrupt_enable+0x40>)
    ef7a:	2200      	movs	r2, #0
    ef7c:	4002      	ands	r2, r0
    ef7e:	400b      	ands	r3, r1
    ef80:	4313      	orrs	r3, r2
    ef82:	d001      	beq.n	ef88 <am_hal_gpio_interrupt_enable+0x10>
    ef84:	2005      	movs	r0, #5
    ef86:	4770      	bx	lr
    ef88:	b530      	push	{r4, r5, lr}
    ef8a:	b083      	sub	sp, #12
    ef8c:	460d      	mov	r5, r1
    ef8e:	4604      	mov	r4, r0
    ef90:	f000 f838 	bl	f004 <am_hal_interrupt_master_disable>
    ef94:	4b09      	ldr	r3, [pc, #36]	; (efbc <am_hal_gpio_interrupt_enable+0x44>)
    ef96:	9001      	str	r0, [sp, #4]
    ef98:	f8d3 2200 	ldr.w	r2, [r3, #512]	; 0x200
    ef9c:	4322      	orrs	r2, r4
    ef9e:	f8c3 2200 	str.w	r2, [r3, #512]	; 0x200
    efa2:	f8d3 2210 	ldr.w	r2, [r3, #528]	; 0x210
    efa6:	432a      	orrs	r2, r5
    efa8:	f8c3 2210 	str.w	r2, [r3, #528]	; 0x210
    efac:	9801      	ldr	r0, [sp, #4]
    efae:	f000 f82d 	bl	f00c <am_hal_interrupt_master_set>
    efb2:	2000      	movs	r0, #0
    efb4:	b003      	add	sp, #12
    efb6:	bd30      	pop	{r4, r5, pc}
    efb8:	fffc0000 	.word	0xfffc0000
    efbc:	40010000 	.word	0x40010000

0000efc0 <am_hal_gpio_interrupt_clear>:
    efc0:	4b0c      	ldr	r3, [pc, #48]	; (eff4 <am_hal_gpio_interrupt_clear+0x34>)
    efc2:	2200      	movs	r2, #0
    efc4:	4002      	ands	r2, r0
    efc6:	400b      	ands	r3, r1
    efc8:	4313      	orrs	r3, r2
    efca:	d001      	beq.n	efd0 <am_hal_gpio_interrupt_clear+0x10>
    efcc:	2005      	movs	r0, #5
    efce:	4770      	bx	lr
    efd0:	b530      	push	{r4, r5, lr}
    efd2:	b083      	sub	sp, #12
    efd4:	460d      	mov	r5, r1
    efd6:	4604      	mov	r4, r0
    efd8:	f000 f814 	bl	f004 <am_hal_interrupt_master_disable>
    efdc:	4b06      	ldr	r3, [pc, #24]	; (eff8 <am_hal_gpio_interrupt_clear+0x38>)
    efde:	9001      	str	r0, [sp, #4]
    efe0:	f8c3 4208 	str.w	r4, [r3, #520]	; 0x208
    efe4:	f8c3 5218 	str.w	r5, [r3, #536]	; 0x218
    efe8:	9801      	ldr	r0, [sp, #4]
    efea:	f000 f80f 	bl	f00c <am_hal_interrupt_master_set>
    efee:	2000      	movs	r0, #0
    eff0:	b003      	add	sp, #12
    eff2:	bd30      	pop	{r4, r5, pc}
    eff4:	fffc0000 	.word	0xfffc0000
    eff8:	40010000 	.word	0x40010000

0000effc <am_hal_interrupt_master_enable>:
    effc:	f3ef 8010 	mrs	r0, PRIMASK
    f000:	b662      	cpsie	i
    f002:	4770      	bx	lr

0000f004 <am_hal_interrupt_master_disable>:
    f004:	f3ef 8010 	mrs	r0, PRIMASK
    f008:	b672      	cpsid	i
    f00a:	4770      	bx	lr

0000f00c <am_hal_interrupt_master_set>:
    f00c:	f380 8810 	msr	PRIMASK, r0
    f010:	4770      	bx	lr
    f012:	bf00      	nop

0000f014 <am_hal_mcuctrl_info_get>:
    f014:	b4f0      	push	{r4, r5, r6, r7}
    f016:	b121      	cbz	r1, f022 <am_hal_mcuctrl_info_get+0xe>
    f018:	2801      	cmp	r0, #1
    f01a:	d038      	beq.n	f08e <am_hal_mcuctrl_info_get+0x7a>
    f01c:	d320      	bcc.n	f060 <am_hal_mcuctrl_info_get+0x4c>
    f01e:	2802      	cmp	r0, #2
    f020:	d002      	beq.n	f028 <am_hal_mcuctrl_info_get+0x14>
    f022:	2006      	movs	r0, #6
    f024:	bcf0      	pop	{r4, r5, r6, r7}
    f026:	4770      	bx	lr
    f028:	4a41      	ldr	r2, [pc, #260]	; (f130 <am_hal_mcuctrl_info_get+0x11c>)
    f02a:	684d      	ldr	r5, [r1, #4]
    f02c:	f8d2 31cc 	ldr.w	r3, [r2, #460]	; 0x1cc
    f030:	694c      	ldr	r4, [r1, #20]
    f032:	f003 0601 	and.w	r6, r3, #1
    f036:	f3c3 0040 	ubfx	r0, r3, #1, #1
    f03a:	f3c3 0380 	ubfx	r3, r3, #2, #1
    f03e:	700e      	strb	r6, [r1, #0]
    f040:	7208      	strb	r0, [r1, #8]
    f042:	740b      	strb	r3, [r1, #16]
    f044:	f8d2 31c4 	ldr.w	r3, [r2, #452]	; 0x1c4
    f048:	60cb      	str	r3, [r1, #12]
    f04a:	f8d2 01c0 	ldr.w	r0, [r2, #448]	; 0x1c0
    f04e:	4328      	orrs	r0, r5
    f050:	6048      	str	r0, [r1, #4]
    f052:	f8d2 31c8 	ldr.w	r3, [r2, #456]	; 0x1c8
    f056:	4323      	orrs	r3, r4
    f058:	2000      	movs	r0, #0
    f05a:	614b      	str	r3, [r1, #20]
    f05c:	bcf0      	pop	{r4, r5, r6, r7}
    f05e:	4770      	bx	lr
    f060:	4a33      	ldr	r2, [pc, #204]	; (f130 <am_hal_mcuctrl_info_get+0x11c>)
    f062:	6993      	ldr	r3, [r2, #24]
    f064:	f3c3 1080 	ubfx	r0, r3, #6, #1
    f068:	f3c3 0380 	ubfx	r3, r3, #2, #1
    f06c:	7008      	strb	r0, [r1, #0]
    f06e:	704b      	strb	r3, [r1, #1]
    f070:	f8d2 31a0 	ldr.w	r3, [r2, #416]	; 0x1a0
    f074:	f3c3 6381 	ubfx	r3, r3, #26, #2
    f078:	710b      	strb	r3, [r1, #4]
    f07a:	6953      	ldr	r3, [r2, #20]
    f07c:	f3c3 0240 	ubfx	r2, r3, #1, #1
    f080:	f003 0301 	and.w	r3, r3, #1
    f084:	2000      	movs	r0, #0
    f086:	708a      	strb	r2, [r1, #2]
    f088:	70cb      	strb	r3, [r1, #3]
    f08a:	bcf0      	pop	{r4, r5, r6, r7}
    f08c:	4770      	bx	lr
    f08e:	4b28      	ldr	r3, [pc, #160]	; (f130 <am_hal_mcuctrl_info_get+0x11c>)
    f090:	4c28      	ldr	r4, [pc, #160]	; (f134 <am_hal_mcuctrl_info_get+0x120>)
    f092:	681a      	ldr	r2, [r3, #0]
    f094:	600a      	str	r2, [r1, #0]
    f096:	6858      	ldr	r0, [r3, #4]
    f098:	6048      	str	r0, [r1, #4]
    f09a:	6898      	ldr	r0, [r3, #8]
    f09c:	6088      	str	r0, [r1, #8]
    f09e:	68d8      	ldr	r0, [r3, #12]
    f0a0:	60c8      	str	r0, [r1, #12]
    f0a2:	691d      	ldr	r5, [r3, #16]
    f0a4:	4824      	ldr	r0, [pc, #144]	; (f138 <am_hal_mcuctrl_info_get+0x124>)
    f0a6:	610d      	str	r5, [r1, #16]
    f0a8:	f3c2 5703 	ubfx	r7, r2, #20, #4
    f0ac:	f3c2 4603 	ubfx	r6, r2, #16, #4
    f0b0:	695d      	ldr	r5, [r3, #20]
    f0b2:	f854 4027 	ldr.w	r4, [r4, r7, lsl #2]
    f0b6:	4b21      	ldr	r3, [pc, #132]	; (f13c <am_hal_mcuctrl_info_get+0x128>)
    f0b8:	f850 0026 	ldr.w	r0, [r0, r6, lsl #2]
    f0bc:	6208      	str	r0, [r1, #32]
    f0be:	f002 0201 	and.w	r2, r2, #1
    f0c2:	614d      	str	r5, [r1, #20]
    f0c4:	61cc      	str	r4, [r1, #28]
    f0c6:	618a      	str	r2, [r1, #24]
    f0c8:	f8d3 20e0 	ldr.w	r2, [r3, #224]	; 0xe0
    f0cc:	f8d3 40e4 	ldr.w	r4, [r3, #228]	; 0xe4
    f0d0:	b2d0      	uxtb	r0, r2
    f0d2:	f004 020f 	and.w	r2, r4, #15
    f0d6:	ea40 2202 	orr.w	r2, r0, r2, lsl #8
    f0da:	624a      	str	r2, [r1, #36]	; 0x24
    f0dc:	f8d3 20e4 	ldr.w	r2, [r3, #228]	; 0xe4
    f0e0:	f8d3 40e8 	ldr.w	r4, [r3, #232]	; 0xe8
    f0e4:	f3c2 1003 	ubfx	r0, r2, #4, #4
    f0e8:	f004 020f 	and.w	r2, r4, #15
    f0ec:	ea40 1202 	orr.w	r2, r0, r2, lsl #4
    f0f0:	628a      	str	r2, [r1, #40]	; 0x28
    f0f2:	f8d3 00e8 	ldr.w	r0, [r3, #232]	; 0xe8
    f0f6:	f8d3 20ec 	ldr.w	r2, [r3, #236]	; 0xec
    f0fa:	f000 00f0 	and.w	r0, r0, #240	; 0xf0
    f0fe:	f3c2 1203 	ubfx	r2, r2, #4, #4
    f102:	4302      	orrs	r2, r0
    f104:	62ca      	str	r2, [r1, #44]	; 0x2c
    f106:	f8d3 50fc 	ldr.w	r5, [r3, #252]	; 0xfc
    f10a:	f8d3 00f8 	ldr.w	r0, [r3, #248]	; 0xf8
    f10e:	f8d3 40f4 	ldr.w	r4, [r3, #244]	; 0xf4
    f112:	f8d3 20f0 	ldr.w	r2, [r3, #240]	; 0xf0
    f116:	b2c0      	uxtb	r0, r0
    f118:	0400      	lsls	r0, r0, #16
    f11a:	ea40 6305 	orr.w	r3, r0, r5, lsl #24
    f11e:	b2d2      	uxtb	r2, r2
    f120:	431a      	orrs	r2, r3
    f122:	b2e3      	uxtb	r3, r4
    f124:	ea42 2303 	orr.w	r3, r2, r3, lsl #8
    f128:	630b      	str	r3, [r1, #48]	; 0x30
    f12a:	2000      	movs	r0, #0
    f12c:	bcf0      	pop	{r4, r5, r6, r7}
    f12e:	4770      	bx	lr
    f130:	40020000 	.word	0x40020000
    f134:	00011c74 	.word	0x00011c74
    f138:	00011cb4 	.word	0x00011cb4
    f13c:	f0000f00 	.word	0xf0000f00

0000f140 <am_hal_pdm_initialize>:
    f140:	b108      	cbz	r0, f146 <am_hal_pdm_initialize+0x6>
    f142:	2005      	movs	r0, #5
    f144:	4770      	bx	lr
    f146:	b1a9      	cbz	r1, f174 <am_hal_pdm_initialize+0x34>
    f148:	4b0b      	ldr	r3, [pc, #44]	; (f178 <am_hal_pdm_initialize+0x38>)
    f14a:	78da      	ldrb	r2, [r3, #3]
    f14c:	b430      	push	{r4, r5}
    f14e:	f3c2 0400 	ubfx	r4, r2, #0, #1
    f152:	b2e0      	uxtb	r0, r4
    f154:	b110      	cbz	r0, f15c <am_hal_pdm_initialize+0x1c>
    f156:	2007      	movs	r0, #7
    f158:	bc30      	pop	{r4, r5}
    f15a:	4770      	bx	lr
    f15c:	f042 0201 	orr.w	r2, r2, #1
    f160:	70da      	strb	r2, [r3, #3]
    f162:	681a      	ldr	r2, [r3, #0]
    f164:	4d05      	ldr	r5, [pc, #20]	; (f17c <am_hal_pdm_initialize+0x3c>)
    f166:	6098      	str	r0, [r3, #8]
    f168:	f365 0217 	bfi	r2, r5, #0, #24
    f16c:	711c      	strb	r4, [r3, #4]
    f16e:	601a      	str	r2, [r3, #0]
    f170:	600b      	str	r3, [r1, #0]
    f172:	e7f1      	b.n	f158 <am_hal_pdm_initialize+0x18>
    f174:	2006      	movs	r0, #6
    f176:	4770      	bx	lr
    f178:	1001c0b8 	.word	0x1001c0b8
    f17c:	00f956e2 	.word	0x00f956e2

0000f180 <am_hal_pdm_power_control>:
    f180:	b5f0      	push	{r4, r5, r6, r7, lr}
    f182:	6803      	ldr	r3, [r0, #0]
    f184:	4c1c      	ldr	r4, [pc, #112]	; (f1f8 <am_hal_pdm_power_control+0x78>)
    f186:	f023 437e 	bic.w	r3, r3, #4261412864	; 0xfe000000
    f18a:	42a3      	cmp	r3, r4
    f18c:	b083      	sub	sp, #12
    f18e:	d002      	beq.n	f196 <am_hal_pdm_power_control+0x16>
    f190:	2002      	movs	r0, #2
    f192:	b003      	add	sp, #12
    f194:	bdf0      	pop	{r4, r5, r6, r7, pc}
    f196:	4604      	mov	r4, r0
    f198:	6880      	ldr	r0, [r0, #8]
    f19a:	300d      	adds	r0, #13
    f19c:	4617      	mov	r7, r2
    f19e:	460d      	mov	r5, r1
    f1a0:	b2c6      	uxtb	r6, r0
    f1a2:	b149      	cbz	r1, f1b8 <am_hal_pdm_power_control+0x38>
    f1a4:	2902      	cmp	r1, #2
    f1a6:	d805      	bhi.n	f1b4 <am_hal_pdm_power_control+0x34>
    f1a8:	b982      	cbnz	r2, f1cc <am_hal_pdm_power_control+0x4c>
    f1aa:	4630      	mov	r0, r6
    f1ac:	f000 f98e 	bl	f4cc <am_hal_pwrctrl_periph_disable>
    f1b0:	2000      	movs	r0, #0
    f1b2:	e7ee      	b.n	f192 <am_hal_pdm_power_control+0x12>
    f1b4:	2006      	movs	r0, #6
    f1b6:	e7ec      	b.n	f192 <am_hal_pdm_power_control+0x12>
    f1b8:	b11a      	cbz	r2, f1c2 <am_hal_pdm_power_control+0x42>
    f1ba:	7923      	ldrb	r3, [r4, #4]
    f1bc:	b97b      	cbnz	r3, f1de <am_hal_pdm_power_control+0x5e>
    f1be:	2007      	movs	r0, #7
    f1c0:	e7e7      	b.n	f192 <am_hal_pdm_power_control+0x12>
    f1c2:	4630      	mov	r0, r6
    f1c4:	f000 f958 	bl	f478 <am_hal_pwrctrl_periph_enable>
    f1c8:	4638      	mov	r0, r7
    f1ca:	e7e2      	b.n	f192 <am_hal_pdm_power_control+0x12>
    f1cc:	f7ff ff1a 	bl	f004 <am_hal_interrupt_master_disable>
    f1d0:	2301      	movs	r3, #1
    f1d2:	9001      	str	r0, [sp, #4]
    f1d4:	9801      	ldr	r0, [sp, #4]
    f1d6:	7123      	strb	r3, [r4, #4]
    f1d8:	f7ff ff18 	bl	f00c <am_hal_interrupt_master_set>
    f1dc:	e7e5      	b.n	f1aa <am_hal_pdm_power_control+0x2a>
    f1de:	4630      	mov	r0, r6
    f1e0:	f000 f94a 	bl	f478 <am_hal_pwrctrl_periph_enable>
    f1e4:	f7ff ff0e 	bl	f004 <am_hal_interrupt_master_disable>
    f1e8:	9000      	str	r0, [sp, #0]
    f1ea:	9800      	ldr	r0, [sp, #0]
    f1ec:	7125      	strb	r5, [r4, #4]
    f1ee:	f7ff ff0d 	bl	f00c <am_hal_interrupt_master_set>
    f1f2:	4628      	mov	r0, r5
    f1f4:	e7cd      	b.n	f192 <am_hal_pdm_power_control+0x12>
    f1f6:	bf00      	nop
    f1f8:	01f956e2 	.word	0x01f956e2

0000f1fc <am_hal_pdm_configure>:
    f1fc:	b128      	cbz	r0, f20a <am_hal_pdm_configure+0xe>
    f1fe:	6803      	ldr	r3, [r0, #0]
    f200:	4a3e      	ldr	r2, [pc, #248]	; (f2fc <am_hal_pdm_configure+0x100>)
    f202:	f023 437e 	bic.w	r3, r3, #4261412864	; 0xfe000000
    f206:	4293      	cmp	r3, r2
    f208:	d001      	beq.n	f20e <am_hal_pdm_configure+0x12>
    f20a:	2002      	movs	r0, #2
    f20c:	4770      	bx	lr
    f20e:	b510      	push	{r4, lr}
    f210:	4c3b      	ldr	r4, [pc, #236]	; (f300 <am_hal_pdm_configure+0x104>)
    f212:	7f4a      	ldrb	r2, [r1, #29]
    f214:	6823      	ldr	r3, [r4, #0]
    f216:	f362 0341 	bfi	r3, r2, #1, #1
    f21a:	6023      	str	r3, [r4, #0]
    f21c:	6823      	ldr	r3, [r4, #0]
    f21e:	698a      	ldr	r2, [r1, #24]
    f220:	f362 0384 	bfi	r3, r2, #2, #3
    f224:	6023      	str	r3, [r4, #0]
    f226:	6823      	ldr	r3, [r4, #0]
    f228:	68ca      	ldr	r2, [r1, #12]
    f22a:	f362 1348 	bfi	r3, r2, #5, #4
    f22e:	6023      	str	r3, [r4, #0]
    f230:	6823      	ldr	r3, [r4, #0]
    f232:	7a0a      	ldrb	r2, [r1, #8]
    f234:	f362 2349 	bfi	r3, r2, #9, #1
    f238:	6023      	str	r3, [r4, #0]
    f23a:	6823      	ldr	r3, [r4, #0]
    f23c:	684a      	ldr	r2, [r1, #4]
    f23e:	f362 2390 	bfi	r3, r2, #10, #7
    f242:	6023      	str	r3, [r4, #0]
    f244:	6823      	ldr	r3, [r4, #0]
    f246:	780a      	ldrb	r2, [r1, #0]
    f248:	f362 4352 	bfi	r3, r2, #17, #2
    f24c:	6023      	str	r3, [r4, #0]
    f24e:	6823      	ldr	r3, [r4, #0]
    f250:	784a      	ldrb	r2, [r1, #1]
    f252:	f362 5359 	bfi	r3, r2, #21, #5
    f256:	6023      	str	r3, [r4, #0]
    f258:	788a      	ldrb	r2, [r1, #2]
    f25a:	6823      	ldr	r3, [r4, #0]
    f25c:	f362 639e 	bfi	r3, r2, #26, #5
    f260:	6023      	str	r3, [r4, #0]
    f262:	7f8a      	ldrb	r2, [r1, #30]
    f264:	6823      	ldr	r3, [r4, #0]
    f266:	f362 73df 	bfi	r3, r2, #31, #1
    f26a:	6023      	str	r3, [r4, #0]
    f26c:	6823      	ldr	r3, [r4, #0]
    f26e:	f043 0301 	orr.w	r3, r3, #1
    f272:	6023      	str	r3, [r4, #0]
    f274:	6863      	ldr	r3, [r4, #4]
    f276:	f36f 639a 	bfc	r3, #26, #1
    f27a:	6063      	str	r3, [r4, #4]
    f27c:	6863      	ldr	r3, [r4, #4]
    f27e:	f36f 73df 	bfc	r3, #31, #1
    f282:	6063      	str	r3, [r4, #4]
    f284:	6863      	ldr	r3, [r4, #4]
    f286:	f36f 739e 	bfc	r3, #30, #1
    f28a:	6063      	str	r3, [r4, #4]
    f28c:	6863      	ldr	r3, [r4, #4]
    f28e:	7d4a      	ldrb	r2, [r1, #21]
    f290:	f362 03c4 	bfi	r3, r2, #3, #2
    f294:	6063      	str	r3, [r4, #4]
    f296:	6863      	ldr	r3, [r4, #4]
    f298:	7d0a      	ldrb	r2, [r1, #20]
    f29a:	f362 2308 	bfi	r3, r2, #8, #1
    f29e:	6063      	str	r3, [r4, #4]
    f2a0:	6863      	ldr	r3, [r4, #4]
    f2a2:	7c8a      	ldrb	r2, [r1, #18]
    f2a4:	f362 4310 	bfi	r3, r2, #16, #1
    f2a8:	6063      	str	r3, [r4, #4]
    f2aa:	6863      	ldr	r3, [r4, #4]
    f2ac:	7cca      	ldrb	r2, [r1, #19]
    f2ae:	f362 4351 	bfi	r3, r2, #17, #1
    f2b2:	6063      	str	r3, [r4, #4]
    f2b4:	7c4a      	ldrb	r2, [r1, #17]
    f2b6:	6863      	ldr	r3, [r4, #4]
    f2b8:	f362 43d3 	bfi	r3, r2, #19, #1
    f2bc:	6063      	str	r3, [r4, #4]
    f2be:	7f0a      	ldrb	r2, [r1, #28]
    f2c0:	6863      	ldr	r3, [r4, #4]
    f2c2:	f362 5314 	bfi	r3, r2, #20, #1
    f2c6:	6063      	str	r3, [r4, #4]
    f2c8:	7c0a      	ldrb	r2, [r1, #16]
    f2ca:	6863      	ldr	r3, [r4, #4]
    f2cc:	b084      	sub	sp, #16
    f2ce:	f362 63dd 	bfi	r3, r2, #27, #3
    f2d2:	6063      	str	r3, [r4, #4]
    f2d4:	a801      	add	r0, sp, #4
    f2d6:	f7ff fb43 	bl	e960 <am_hal_clkgen_status_get>
    f2da:	9b01      	ldr	r3, [sp, #4]
    f2dc:	4809      	ldr	r0, [pc, #36]	; (f304 <am_hal_pdm_configure+0x108>)
    f2de:	fba0 2303 	umull	r2, r3, r0, r3
    f2e2:	0c9b      	lsrs	r3, r3, #18
    f2e4:	2064      	movs	r0, #100	; 0x64
    f2e6:	fb00 f003 	mul.w	r0, r0, r3
    f2ea:	f7ff fc3f 	bl	eb6c <am_hal_flash_delay>
    f2ee:	6863      	ldr	r3, [r4, #4]
    f2f0:	2000      	movs	r0, #0
    f2f2:	f043 4380 	orr.w	r3, r3, #1073741824	; 0x40000000
    f2f6:	6063      	str	r3, [r4, #4]
    f2f8:	b004      	add	sp, #16
    f2fa:	bd10      	pop	{r4, pc}
    f2fc:	01f956e2 	.word	0x01f956e2
    f300:	50011000 	.word	0x50011000
    f304:	165e9f81 	.word	0x165e9f81

0000f308 <am_hal_pdm_enable>:
    f308:	b128      	cbz	r0, f316 <am_hal_pdm_enable+0xe>
    f30a:	6803      	ldr	r3, [r0, #0]
    f30c:	4a08      	ldr	r2, [pc, #32]	; (f330 <am_hal_pdm_enable+0x28>)
    f30e:	f023 437e 	bic.w	r3, r3, #4261412864	; 0xfe000000
    f312:	4293      	cmp	r3, r2
    f314:	d001      	beq.n	f31a <am_hal_pdm_enable+0x12>
    f316:	2002      	movs	r0, #2
    f318:	4770      	bx	lr
    f31a:	4b06      	ldr	r3, [pc, #24]	; (f334 <am_hal_pdm_enable+0x2c>)
    f31c:	685a      	ldr	r2, [r3, #4]
    f31e:	f042 4200 	orr.w	r2, r2, #2147483648	; 0x80000000
    f322:	605a      	str	r2, [r3, #4]
    f324:	685a      	ldr	r2, [r3, #4]
    f326:	f042 6280 	orr.w	r2, r2, #67108864	; 0x4000000
    f32a:	605a      	str	r2, [r3, #4]
    f32c:	2000      	movs	r0, #0
    f32e:	4770      	bx	lr
    f330:	01f956e2 	.word	0x01f956e2
    f334:	50011000 	.word	0x50011000

0000f338 <am_hal_pdm_dma_start>:
    f338:	b128      	cbz	r0, f346 <am_hal_pdm_dma_start+0xe>
    f33a:	6803      	ldr	r3, [r0, #0]
    f33c:	4a20      	ldr	r2, [pc, #128]	; (f3c0 <am_hal_pdm_dma_start+0x88>)
    f33e:	f023 437e 	bic.w	r3, r3, #4261412864	; 0xfe000000
    f342:	4293      	cmp	r3, r2
    f344:	d001      	beq.n	f34a <am_hal_pdm_dma_start+0x12>
    f346:	2002      	movs	r0, #2
    f348:	4770      	bx	lr
    f34a:	684a      	ldr	r2, [r1, #4]
    f34c:	2a01      	cmp	r2, #1
    f34e:	d934      	bls.n	f3ba <am_hal_pdm_dma_start+0x82>
    f350:	b410      	push	{r4}
    f352:	2301      	movs	r3, #1
    f354:	fbb2 f4f3 	udiv	r4, r2, r3
    f358:	fb03 2014 	mls	r0, r3, r4, r2
    f35c:	3301      	adds	r3, #1
    f35e:	b908      	cbnz	r0, f364 <am_hal_pdm_dma_start+0x2c>
    f360:	2c1f      	cmp	r4, #31
    f362:	d906      	bls.n	f372 <am_hal_pdm_dma_start+0x3a>
    f364:	4293      	cmp	r3, r2
    f366:	d1f5      	bne.n	f354 <am_hal_pdm_dma_start+0x1c>
    f368:	f04f 6000 	mov.w	r0, #134217728	; 0x8000000
    f36c:	f85d 4b04 	ldr.w	r4, [sp], #4
    f370:	4770      	bx	lr
    f372:	2c00      	cmp	r4, #0
    f374:	d0f8      	beq.n	f368 <am_hal_pdm_dma_start+0x30>
    f376:	4b13      	ldr	r3, [pc, #76]	; (f3c4 <am_hal_pdm_dma_start+0x8c>)
    f378:	615c      	str	r4, [r3, #20]
    f37a:	f8c3 0280 	str.w	r0, [r3, #640]	; 0x280
    f37e:	f8b3 4280 	ldrh.w	r4, [r3, #640]	; 0x280
    f382:	f360 2408 	bfi	r4, r0, #8, #1
    f386:	f8a3 4280 	strh.w	r4, [r3, #640]	; 0x280
    f38a:	f8b3 4280 	ldrh.w	r4, [r3, #640]	; 0x280
    f38e:	f360 0482 	bfi	r4, r0, #2, #1
    f392:	f8a3 4280 	strh.w	r4, [r3, #640]	; 0x280
    f396:	f8c3 2288 	str.w	r2, [r3, #648]	; 0x288
    f39a:	680a      	ldr	r2, [r1, #0]
    f39c:	f8c3 228c 	str.w	r2, [r3, #652]	; 0x28c
    f3a0:	f893 2240 	ldrb.w	r2, [r3, #576]	; 0x240
    f3a4:	f042 0201 	orr.w	r2, r2, #1
    f3a8:	f883 2240 	strb.w	r2, [r3, #576]	; 0x240
    f3ac:	f8b3 2280 	ldrh.w	r2, [r3, #640]	; 0x280
    f3b0:	f042 0201 	orr.w	r2, r2, #1
    f3b4:	f8a3 2280 	strh.w	r2, [r3, #640]	; 0x280
    f3b8:	e7d8      	b.n	f36c <am_hal_pdm_dma_start+0x34>
    f3ba:	f04f 6000 	mov.w	r0, #134217728	; 0x8000000
    f3be:	4770      	bx	lr
    f3c0:	01f956e2 	.word	0x01f956e2
    f3c4:	50011000 	.word	0x50011000

0000f3c8 <am_hal_pdm_fifo_flush>:
    f3c8:	b128      	cbz	r0, f3d6 <am_hal_pdm_fifo_flush+0xe>
    f3ca:	6803      	ldr	r3, [r0, #0]
    f3cc:	4a05      	ldr	r2, [pc, #20]	; (f3e4 <am_hal_pdm_fifo_flush+0x1c>)
    f3ce:	f023 437e 	bic.w	r3, r3, #4261412864	; 0xfe000000
    f3d2:	4293      	cmp	r3, r2
    f3d4:	d001      	beq.n	f3da <am_hal_pdm_fifo_flush+0x12>
    f3d6:	2002      	movs	r0, #2
    f3d8:	4770      	bx	lr
    f3da:	4b03      	ldr	r3, [pc, #12]	; (f3e8 <am_hal_pdm_fifo_flush+0x20>)
    f3dc:	2201      	movs	r2, #1
    f3de:	611a      	str	r2, [r3, #16]
    f3e0:	2000      	movs	r0, #0
    f3e2:	4770      	bx	lr
    f3e4:	01f956e2 	.word	0x01f956e2
    f3e8:	50011000 	.word	0x50011000

0000f3ec <am_hal_pdm_interrupt_enable>:
    f3ec:	b128      	cbz	r0, f3fa <am_hal_pdm_interrupt_enable+0xe>
    f3ee:	6803      	ldr	r3, [r0, #0]
    f3f0:	4a07      	ldr	r2, [pc, #28]	; (f410 <am_hal_pdm_interrupt_enable+0x24>)
    f3f2:	f023 437e 	bic.w	r3, r3, #4261412864	; 0xfe000000
    f3f6:	4293      	cmp	r3, r2
    f3f8:	d001      	beq.n	f3fe <am_hal_pdm_interrupt_enable+0x12>
    f3fa:	2002      	movs	r0, #2
    f3fc:	4770      	bx	lr
    f3fe:	4b05      	ldr	r3, [pc, #20]	; (f414 <am_hal_pdm_interrupt_enable+0x28>)
    f400:	f8d3 2200 	ldr.w	r2, [r3, #512]	; 0x200
    f404:	4311      	orrs	r1, r2
    f406:	f8c3 1200 	str.w	r1, [r3, #512]	; 0x200
    f40a:	2000      	movs	r0, #0
    f40c:	4770      	bx	lr
    f40e:	bf00      	nop
    f410:	01f956e2 	.word	0x01f956e2
    f414:	50011000 	.word	0x50011000

0000f418 <am_hal_pdm_interrupt_clear>:
    f418:	b128      	cbz	r0, f426 <am_hal_pdm_interrupt_clear+0xe>
    f41a:	6803      	ldr	r3, [r0, #0]
    f41c:	4a05      	ldr	r2, [pc, #20]	; (f434 <am_hal_pdm_interrupt_clear+0x1c>)
    f41e:	f023 437e 	bic.w	r3, r3, #4261412864	; 0xfe000000
    f422:	4293      	cmp	r3, r2
    f424:	d001      	beq.n	f42a <am_hal_pdm_interrupt_clear+0x12>
    f426:	2002      	movs	r0, #2
    f428:	4770      	bx	lr
    f42a:	4b03      	ldr	r3, [pc, #12]	; (f438 <am_hal_pdm_interrupt_clear+0x20>)
    f42c:	2000      	movs	r0, #0
    f42e:	f8c3 1208 	str.w	r1, [r3, #520]	; 0x208
    f432:	4770      	bx	lr
    f434:	01f956e2 	.word	0x01f956e2
    f438:	50011000 	.word	0x50011000

0000f43c <am_hal_pdm_interrupt_status_get>:
    f43c:	b128      	cbz	r0, f44a <am_hal_pdm_interrupt_status_get+0xe>
    f43e:	6803      	ldr	r3, [r0, #0]
    f440:	480b      	ldr	r0, [pc, #44]	; (f470 <am_hal_pdm_interrupt_status_get+0x34>)
    f442:	f023 437e 	bic.w	r3, r3, #4261412864	; 0xfe000000
    f446:	4283      	cmp	r3, r0
    f448:	d001      	beq.n	f44e <am_hal_pdm_interrupt_status_get+0x12>
    f44a:	2002      	movs	r0, #2
    f44c:	4770      	bx	lr
    f44e:	4b09      	ldr	r3, [pc, #36]	; (f474 <am_hal_pdm_interrupt_status_get+0x38>)
    f450:	b922      	cbnz	r2, f45c <am_hal_pdm_interrupt_status_get+0x20>
    f452:	f8d3 3204 	ldr.w	r3, [r3, #516]	; 0x204
    f456:	600b      	str	r3, [r1, #0]
    f458:	4610      	mov	r0, r2
    f45a:	4770      	bx	lr
    f45c:	f8d3 2204 	ldr.w	r2, [r3, #516]	; 0x204
    f460:	600a      	str	r2, [r1, #0]
    f462:	f8d3 3200 	ldr.w	r3, [r3, #512]	; 0x200
    f466:	4013      	ands	r3, r2
    f468:	600b      	str	r3, [r1, #0]
    f46a:	2000      	movs	r0, #0
    f46c:	4770      	bx	lr
    f46e:	bf00      	nop
    f470:	01f956e2 	.word	0x01f956e2
    f474:	50011000 	.word	0x50011000

0000f478 <am_hal_pwrctrl_periph_enable>:
    f478:	b570      	push	{r4, r5, r6, lr}
    f47a:	b082      	sub	sp, #8
    f47c:	4604      	mov	r4, r0
    f47e:	f7ff fdc1 	bl	f004 <am_hal_interrupt_master_disable>
    f482:	eb04 0444 	add.w	r4, r4, r4, lsl #1
    f486:	4d0f      	ldr	r5, [pc, #60]	; (f4c4 <am_hal_pwrctrl_periph_enable+0x4c>)
    f488:	4e0f      	ldr	r6, [pc, #60]	; (f4c8 <am_hal_pwrctrl_periph_enable+0x50>)
    f48a:	9001      	str	r0, [sp, #4]
    f48c:	00a4      	lsls	r4, r4, #2
    f48e:	68aa      	ldr	r2, [r5, #8]
    f490:	5933      	ldr	r3, [r6, r4]
    f492:	4313      	orrs	r3, r2
    f494:	60ab      	str	r3, [r5, #8]
    f496:	9801      	ldr	r0, [sp, #4]
    f498:	4434      	add	r4, r6
    f49a:	f7ff fdb7 	bl	f00c <am_hal_interrupt_master_set>
    f49e:	20a0      	movs	r0, #160	; 0xa0
    f4a0:	f7ff fb64 	bl	eb6c <am_hal_flash_delay>
    f4a4:	69ab      	ldr	r3, [r5, #24]
    f4a6:	6864      	ldr	r4, [r4, #4]
    f4a8:	4223      	tst	r3, r4
    f4aa:	d103      	bne.n	f4b4 <am_hal_pwrctrl_periph_enable+0x3c>
    f4ac:	20a0      	movs	r0, #160	; 0xa0
    f4ae:	f7ff fb5d 	bl	eb6c <am_hal_flash_delay>
    f4b2:	69ab      	ldr	r3, [r5, #24]
    f4b4:	4b03      	ldr	r3, [pc, #12]	; (f4c4 <am_hal_pwrctrl_periph_enable+0x4c>)
    f4b6:	699b      	ldr	r3, [r3, #24]
    f4b8:	4223      	tst	r3, r4
    f4ba:	bf0c      	ite	eq
    f4bc:	2001      	moveq	r0, #1
    f4be:	2000      	movne	r0, #0
    f4c0:	b002      	add	sp, #8
    f4c2:	bd70      	pop	{r4, r5, r6, pc}
    f4c4:	40021000 	.word	0x40021000
    f4c8:	00011cf4 	.word	0x00011cf4

0000f4cc <am_hal_pwrctrl_periph_disable>:
    f4cc:	b570      	push	{r4, r5, r6, lr}
    f4ce:	b082      	sub	sp, #8
    f4d0:	4604      	mov	r4, r0
    f4d2:	f7ff fd97 	bl	f004 <am_hal_interrupt_master_disable>
    f4d6:	eb04 0444 	add.w	r4, r4, r4, lsl #1
    f4da:	4d10      	ldr	r5, [pc, #64]	; (f51c <am_hal_pwrctrl_periph_disable+0x50>)
    f4dc:	4e10      	ldr	r6, [pc, #64]	; (f520 <am_hal_pwrctrl_periph_disable+0x54>)
    f4de:	9001      	str	r0, [sp, #4]
    f4e0:	00a4      	lsls	r4, r4, #2
    f4e2:	68ab      	ldr	r3, [r5, #8]
    f4e4:	5932      	ldr	r2, [r6, r4]
    f4e6:	ea23 0302 	bic.w	r3, r3, r2
    f4ea:	60ab      	str	r3, [r5, #8]
    f4ec:	9801      	ldr	r0, [sp, #4]
    f4ee:	4434      	add	r4, r6
    f4f0:	f7ff fd8c 	bl	f00c <am_hal_interrupt_master_set>
    f4f4:	20a0      	movs	r0, #160	; 0xa0
    f4f6:	f7ff fb39 	bl	eb6c <am_hal_flash_delay>
    f4fa:	69ab      	ldr	r3, [r5, #24]
    f4fc:	6864      	ldr	r4, [r4, #4]
    f4fe:	4223      	tst	r3, r4
    f500:	d003      	beq.n	f50a <am_hal_pwrctrl_periph_disable+0x3e>
    f502:	20a0      	movs	r0, #160	; 0xa0
    f504:	f7ff fb32 	bl	eb6c <am_hal_flash_delay>
    f508:	69ab      	ldr	r3, [r5, #24]
    f50a:	4b04      	ldr	r3, [pc, #16]	; (f51c <am_hal_pwrctrl_periph_disable+0x50>)
    f50c:	699b      	ldr	r3, [r3, #24]
    f50e:	4223      	tst	r3, r4
    f510:	bf14      	ite	ne
    f512:	2001      	movne	r0, #1
    f514:	2000      	moveq	r0, #0
    f516:	b002      	add	sp, #8
    f518:	bd70      	pop	{r4, r5, r6, pc}
    f51a:	bf00      	nop
    f51c:	40021000 	.word	0x40021000
    f520:	00011cf4 	.word	0x00011cf4

0000f524 <am_hal_pwrctrl_low_power_init>:
    f524:	b530      	push	{r4, r5, lr}
    f526:	4b33      	ldr	r3, [pc, #204]	; (f5f4 <am_hal_pwrctrl_low_power_init+0xd0>)
    f528:	681a      	ldr	r2, [r3, #0]
    f52a:	b085      	sub	sp, #20
    f52c:	b912      	cbnz	r2, f534 <am_hal_pwrctrl_low_power_init+0x10>
    f52e:	4a32      	ldr	r2, [pc, #200]	; (f5f8 <am_hal_pwrctrl_low_power_init+0xd4>)
    f530:	6812      	ldr	r2, [r2, #0]
    f532:	601a      	str	r2, [r3, #0]
    f534:	4b31      	ldr	r3, [pc, #196]	; (f5fc <am_hal_pwrctrl_low_power_init+0xd8>)
    f536:	68db      	ldr	r3, [r3, #12]
    f538:	b2db      	uxtb	r3, r3
    f53a:	2b12      	cmp	r3, #18
    f53c:	d00a      	beq.n	f554 <am_hal_pwrctrl_low_power_init+0x30>
    f53e:	4c30      	ldr	r4, [pc, #192]	; (f600 <am_hal_pwrctrl_low_power_init+0xdc>)
    f540:	2100      	movs	r1, #0
    f542:	200c      	movs	r0, #12
    f544:	f7ff f80e 	bl	e564 <am_hal_cachectrl_control>
    f548:	69a3      	ldr	r3, [r4, #24]
    f54a:	05d8      	lsls	r0, r3, #23
    f54c:	d520      	bpl.n	f590 <am_hal_pwrctrl_low_power_init+0x6c>
    f54e:	2000      	movs	r0, #0
    f550:	b005      	add	sp, #20
    f552:	bd30      	pop	{r4, r5, pc}
    f554:	4c2a      	ldr	r4, [pc, #168]	; (f600 <am_hal_pwrctrl_low_power_init+0xdc>)
    f556:	6863      	ldr	r3, [r4, #4]
    f558:	07d9      	lsls	r1, r3, #31
    f55a:	d5f0      	bpl.n	f53e <am_hal_pwrctrl_low_power_init+0x1a>
    f55c:	f7ff fd52 	bl	f004 <am_hal_interrupt_master_disable>
    f560:	9003      	str	r0, [sp, #12]
    f562:	68a3      	ldr	r3, [r4, #8]
    f564:	f443 5380 	orr.w	r3, r3, #4096	; 0x1000
    f568:	60a3      	str	r3, [r4, #8]
    f56a:	9803      	ldr	r0, [sp, #12]
    f56c:	f7ff fd4e 	bl	f00c <am_hal_interrupt_master_set>
    f570:	20a0      	movs	r0, #160	; 0xa0
    f572:	f7ff fafb 	bl	eb6c <am_hal_flash_delay>
    f576:	69a3      	ldr	r3, [r4, #24]
    f578:	061a      	lsls	r2, r3, #24
    f57a:	d403      	bmi.n	f584 <am_hal_pwrctrl_low_power_init+0x60>
    f57c:	20a0      	movs	r0, #160	; 0xa0
    f57e:	f7ff faf5 	bl	eb6c <am_hal_flash_delay>
    f582:	69a3      	ldr	r3, [r4, #24]
    f584:	4b1e      	ldr	r3, [pc, #120]	; (f600 <am_hal_pwrctrl_low_power_init+0xdc>)
    f586:	699b      	ldr	r3, [r3, #24]
    f588:	061b      	lsls	r3, r3, #24
    f58a:	d4d8      	bmi.n	f53e <am_hal_pwrctrl_low_power_init+0x1a>
    f58c:	2001      	movs	r0, #1
    f58e:	e7df      	b.n	f550 <am_hal_pwrctrl_low_power_init+0x2c>
    f590:	4d1a      	ldr	r5, [pc, #104]	; (f5fc <am_hal_pwrctrl_low_power_init+0xd8>)
    f592:	491c      	ldr	r1, [pc, #112]	; (f604 <am_hal_pwrctrl_low_power_init+0xe0>)
    f594:	7e2a      	ldrb	r2, [r5, #24]
    f596:	2001      	movs	r0, #1
    f598:	4302      	orrs	r2, r0
    f59a:	2307      	movs	r3, #7
    f59c:	762a      	strb	r2, [r5, #24]
    f59e:	9000      	str	r0, [sp, #0]
    f5a0:	461a      	mov	r2, r3
    f5a2:	f242 7010 	movw	r0, #10000	; 0x2710
    f5a6:	f7ff faf1 	bl	eb8c <am_hal_flash_delay_status_check>
    f5aa:	b110      	cbz	r0, f5b2 <am_hal_pwrctrl_low_power_init+0x8e>
    f5ac:	2004      	movs	r0, #4
    f5ae:	b005      	add	sp, #20
    f5b0:	bd30      	pop	{r4, r5, pc}
    f5b2:	6823      	ldr	r3, [r4, #0]
    f5b4:	f043 0301 	orr.w	r3, r3, #1
    f5b8:	6023      	str	r3, [r4, #0]
    f5ba:	6a63      	ldr	r3, [r4, #36]	; 0x24
    f5bc:	f043 0340 	orr.w	r3, r3, #64	; 0x40
    f5c0:	6263      	str	r3, [r4, #36]	; 0x24
    f5c2:	68eb      	ldr	r3, [r5, #12]
    f5c4:	b2db      	uxtb	r3, r3
    f5c6:	2b11      	cmp	r3, #17
    f5c8:	d1c1      	bne.n	f54e <am_hal_pwrctrl_low_power_init+0x2a>
    f5ca:	f8d5 335c 	ldr.w	r3, [r5, #860]	; 0x35c
    f5ce:	f360 5356 	bfi	r3, r0, #21, #2
    f5d2:	f8c5 335c 	str.w	r3, [r5, #860]	; 0x35c
    f5d6:	f8d5 3368 	ldr.w	r3, [r5, #872]	; 0x368
    f5da:	220f      	movs	r2, #15
    f5dc:	f362 138b 	bfi	r3, r2, #6, #6
    f5e0:	f8c5 3368 	str.w	r3, [r5, #872]	; 0x368
    f5e4:	f8d5 3368 	ldr.w	r3, [r5, #872]	; 0x368
    f5e8:	f362 0305 	bfi	r3, r2, #0, #6
    f5ec:	f8c5 3368 	str.w	r3, [r5, #872]	; 0x368
    f5f0:	e7ae      	b.n	f550 <am_hal_pwrctrl_low_power_init+0x2c>
    f5f2:	bf00      	nop
    f5f4:	1000c170 	.word	0x1000c170
    f5f8:	4ffff000 	.word	0x4ffff000
    f5fc:	40020000 	.word	0x40020000
    f600:	40021000 	.word	0x40021000
    f604:	40020018 	.word	0x40020018

0000f608 <am_hal_rtc_osc_disable>:
    f608:	4a03      	ldr	r2, [pc, #12]	; (f618 <am_hal_rtc_osc_disable+0x10>)
    f60a:	f892 3050 	ldrb.w	r3, [r2, #80]	; 0x50
    f60e:	f043 0310 	orr.w	r3, r3, #16
    f612:	f882 3050 	strb.w	r3, [r2, #80]	; 0x50
    f616:	4770      	bx	lr
    f618:	40004200 	.word	0x40004200

0000f61c <am_hal_uart_initialize>:
    f61c:	2801      	cmp	r0, #1
    f61e:	d901      	bls.n	f624 <am_hal_uart_initialize+0x8>
    f620:	2005      	movs	r0, #5
    f622:	4770      	bx	lr
    f624:	b169      	cbz	r1, f642 <am_hal_uart_initialize+0x26>
    f626:	b5f0      	push	{r4, r5, r6, r7, lr}
    f628:	2264      	movs	r2, #100	; 0x64
    f62a:	4e0e      	ldr	r6, [pc, #56]	; (f664 <am_hal_uart_initialize+0x48>)
    f62c:	fb02 f200 	mul.w	r2, r2, r0
    f630:	18b4      	adds	r4, r6, r2
    f632:	4603      	mov	r3, r0
    f634:	78e0      	ldrb	r0, [r4, #3]
    f636:	f3c0 0700 	ubfx	r7, r0, #0, #1
    f63a:	b2fd      	uxtb	r5, r7
    f63c:	b11d      	cbz	r5, f646 <am_hal_uart_initialize+0x2a>
    f63e:	2007      	movs	r0, #7
    f640:	bdf0      	pop	{r4, r5, r6, r7, pc}
    f642:	2006      	movs	r0, #6
    f644:	4770      	bx	lr
    f646:	f040 0001 	orr.w	r0, r0, #1
    f64a:	70e0      	strb	r0, [r4, #3]
    f64c:	58b0      	ldr	r0, [r6, r2]
    f64e:	f8df e018 	ldr.w	lr, [pc, #24]	; f668 <am_hal_uart_initialize+0x4c>
    f652:	f36e 0017 	bfi	r0, lr, #0, #24
    f656:	50b0      	str	r0, [r6, r2]
    f658:	6263      	str	r3, [r4, #36]	; 0x24
    f65a:	7127      	strb	r7, [r4, #4]
    f65c:	6625      	str	r5, [r4, #96]	; 0x60
    f65e:	4628      	mov	r0, r5
    f660:	600c      	str	r4, [r1, #0]
    f662:	bdf0      	pop	{r4, r5, r6, r7, pc}
    f664:	1001c0c4 	.word	0x1001c0c4
    f668:	00ea9e06 	.word	0x00ea9e06

0000f66c <am_hal_uart_power_control>:
    f66c:	e92d 43f0 	stmdb	sp!, {r4, r5, r6, r7, r8, r9, lr}
    f670:	6804      	ldr	r4, [r0, #0]
    f672:	4b36      	ldr	r3, [pc, #216]	; (f74c <am_hal_uart_power_control+0xe0>)
    f674:	f024 447e 	bic.w	r4, r4, #4261412864	; 0xfe000000
    f678:	429c      	cmp	r4, r3
    f67a:	b083      	sub	sp, #12
    f67c:	d003      	beq.n	f686 <am_hal_uart_power_control+0x1a>
    f67e:	2002      	movs	r0, #2
    f680:	b003      	add	sp, #12
    f682:	e8bd 83f0 	ldmia.w	sp!, {r4, r5, r6, r7, r8, r9, pc}
    f686:	6a47      	ldr	r7, [r0, #36]	; 0x24
    f688:	4605      	mov	r5, r0
    f68a:	f107 0008 	add.w	r0, r7, #8
    f68e:	4691      	mov	r9, r2
    f690:	460e      	mov	r6, r1
    f692:	fa5f f880 	uxtb.w	r8, r0
    f696:	b181      	cbz	r1, f6ba <am_hal_uart_power_control+0x4e>
    f698:	2902      	cmp	r1, #2
    f69a:	d80c      	bhi.n	f6b6 <am_hal_uart_power_control+0x4a>
    f69c:	b992      	cbnz	r2, f6c4 <am_hal_uart_power_control+0x58>
    f69e:	f507 2780 	add.w	r7, r7, #262144	; 0x40000
    f6a2:	371c      	adds	r7, #28
    f6a4:	033f      	lsls	r7, r7, #12
    f6a6:	f04f 33ff 	mov.w	r3, #4294967295	; 0xffffffff
    f6aa:	647b      	str	r3, [r7, #68]	; 0x44
    f6ac:	4640      	mov	r0, r8
    f6ae:	f7ff ff0d 	bl	f4cc <am_hal_pwrctrl_periph_disable>
    f6b2:	2000      	movs	r0, #0
    f6b4:	e7e4      	b.n	f680 <am_hal_uart_power_control+0x14>
    f6b6:	2006      	movs	r0, #6
    f6b8:	e7e2      	b.n	f680 <am_hal_uart_power_control+0x14>
    f6ba:	b322      	cbz	r2, f706 <am_hal_uart_power_control+0x9a>
    f6bc:	792b      	ldrb	r3, [r5, #4]
    f6be:	bb3b      	cbnz	r3, f710 <am_hal_uart_power_control+0xa4>
    f6c0:	2007      	movs	r0, #7
    f6c2:	e7dd      	b.n	f680 <am_hal_uart_power_control+0x14>
    f6c4:	f7ff fc9e 	bl	f004 <am_hal_interrupt_master_disable>
    f6c8:	f507 2380 	add.w	r3, r7, #262144	; 0x40000
    f6cc:	331c      	adds	r3, #28
    f6ce:	031b      	lsls	r3, r3, #12
    f6d0:	9001      	str	r0, [sp, #4]
    f6d2:	6a1a      	ldr	r2, [r3, #32]
    f6d4:	60aa      	str	r2, [r5, #8]
    f6d6:	6a5a      	ldr	r2, [r3, #36]	; 0x24
    f6d8:	60ea      	str	r2, [r5, #12]
    f6da:	6a9a      	ldr	r2, [r3, #40]	; 0x28
    f6dc:	612a      	str	r2, [r5, #16]
    f6de:	6ada      	ldr	r2, [r3, #44]	; 0x2c
    f6e0:	616a      	str	r2, [r5, #20]
    f6e2:	6b1a      	ldr	r2, [r3, #48]	; 0x30
    f6e4:	61aa      	str	r2, [r5, #24]
    f6e6:	6b5a      	ldr	r2, [r3, #52]	; 0x34
    f6e8:	61ea      	str	r2, [r5, #28]
    f6ea:	6b9b      	ldr	r3, [r3, #56]	; 0x38
    f6ec:	622b      	str	r3, [r5, #32]
    f6ee:	2301      	movs	r3, #1
    f6f0:	712b      	strb	r3, [r5, #4]
    f6f2:	9801      	ldr	r0, [sp, #4]
    f6f4:	f7ff fc8a 	bl	f00c <am_hal_interrupt_master_set>
    f6f8:	682b      	ldr	r3, [r5, #0]
    f6fa:	f023 437e 	bic.w	r3, r3, #4261412864	; 0xfe000000
    f6fe:	42a3      	cmp	r3, r4
    f700:	d1d4      	bne.n	f6ac <am_hal_uart_power_control+0x40>
    f702:	6a6f      	ldr	r7, [r5, #36]	; 0x24
    f704:	e7cb      	b.n	f69e <am_hal_uart_power_control+0x32>
    f706:	4640      	mov	r0, r8
    f708:	f7ff feb6 	bl	f478 <am_hal_pwrctrl_periph_enable>
    f70c:	4648      	mov	r0, r9
    f70e:	e7b7      	b.n	f680 <am_hal_uart_power_control+0x14>
    f710:	4640      	mov	r0, r8
    f712:	f7ff feb1 	bl	f478 <am_hal_pwrctrl_periph_enable>
    f716:	f7ff fc75 	bl	f004 <am_hal_interrupt_master_disable>
    f71a:	f507 2380 	add.w	r3, r7, #262144	; 0x40000
    f71e:	331c      	adds	r3, #28
    f720:	031b      	lsls	r3, r3, #12
    f722:	68aa      	ldr	r2, [r5, #8]
    f724:	9000      	str	r0, [sp, #0]
    f726:	621a      	str	r2, [r3, #32]
    f728:	68ea      	ldr	r2, [r5, #12]
    f72a:	625a      	str	r2, [r3, #36]	; 0x24
    f72c:	692a      	ldr	r2, [r5, #16]
    f72e:	629a      	str	r2, [r3, #40]	; 0x28
    f730:	696a      	ldr	r2, [r5, #20]
    f732:	62da      	str	r2, [r3, #44]	; 0x2c
    f734:	69aa      	ldr	r2, [r5, #24]
    f736:	631a      	str	r2, [r3, #48]	; 0x30
    f738:	69ea      	ldr	r2, [r5, #28]
    f73a:	635a      	str	r2, [r3, #52]	; 0x34
    f73c:	6a2a      	ldr	r2, [r5, #32]
    f73e:	639a      	str	r2, [r3, #56]	; 0x38
    f740:	9800      	ldr	r0, [sp, #0]
    f742:	712e      	strb	r6, [r5, #4]
    f744:	f7ff fc62 	bl	f00c <am_hal_interrupt_master_set>
    f748:	4630      	mov	r0, r6
    f74a:	e799      	b.n	f680 <am_hal_uart_power_control+0x14>
    f74c:	01ea9e06 	.word	0x01ea9e06

0000f750 <am_hal_uart_configure>:
    f750:	6803      	ldr	r3, [r0, #0]
    f752:	4a84      	ldr	r2, [pc, #528]	; (f964 <am_hal_uart_configure+0x214>)
    f754:	f023 437e 	bic.w	r3, r3, #4261412864	; 0xfe000000
    f758:	4293      	cmp	r3, r2
    f75a:	d001      	beq.n	f760 <am_hal_uart_configure+0x10>
    f75c:	2002      	movs	r0, #2
    f75e:	4770      	bx	lr
    f760:	e92d 41f0 	stmdb	sp!, {r4, r5, r6, r7, r8, lr}
    f764:	6a45      	ldr	r5, [r0, #36]	; 0x24
    f766:	f505 2580 	add.w	r5, r5, #262144	; 0x40000
    f76a:	351c      	adds	r5, #28
    f76c:	032d      	lsls	r5, r5, #12
    f76e:	2700      	movs	r7, #0
    f770:	b084      	sub	sp, #16
    f772:	632f      	str	r7, [r5, #48]	; 0x30
    f774:	460e      	mov	r6, r1
    f776:	4604      	mov	r4, r0
    f778:	f7ff fc44 	bl	f004 <am_hal_interrupt_master_disable>
    f77c:	9001      	str	r0, [sp, #4]
    f77e:	8e2b      	ldrh	r3, [r5, #48]	; 0x30
    f780:	f043 0308 	orr.w	r3, r3, #8
    f784:	862b      	strh	r3, [r5, #48]	; 0x30
    f786:	8e2b      	ldrh	r3, [r5, #48]	; 0x30
    f788:	2201      	movs	r2, #1
    f78a:	f362 1306 	bfi	r3, r2, #4, #3
    f78e:	862b      	strh	r3, [r5, #48]	; 0x30
    f790:	9801      	ldr	r0, [sp, #4]
    f792:	f7ff fc3b 	bl	f00c <am_hal_interrupt_master_set>
    f796:	f7ff fc35 	bl	f004 <am_hal_interrupt_master_disable>
    f79a:	9002      	str	r0, [sp, #8]
    f79c:	8e2b      	ldrh	r3, [r5, #48]	; 0x30
    f79e:	f367 0300 	bfi	r3, r7, #0, #1
    f7a2:	862b      	strh	r3, [r5, #48]	; 0x30
    f7a4:	8e2b      	ldrh	r3, [r5, #48]	; 0x30
    f7a6:	f367 2349 	bfi	r3, r7, #9, #1
    f7aa:	862b      	strh	r3, [r5, #48]	; 0x30
    f7ac:	8e2b      	ldrh	r3, [r5, #48]	; 0x30
    f7ae:	f367 2308 	bfi	r3, r7, #8, #1
    f7b2:	862b      	strh	r3, [r5, #48]	; 0x30
    f7b4:	9802      	ldr	r0, [sp, #8]
    f7b6:	f7ff fc29 	bl	f00c <am_hal_interrupt_master_set>
    f7ba:	4a6b      	ldr	r2, [pc, #428]	; (f968 <am_hal_uart_configure+0x218>)
    f7bc:	6833      	ldr	r3, [r6, #0]
    f7be:	68d2      	ldr	r2, [r2, #12]
    f7c0:	b2d2      	uxtb	r2, r2
    f7c2:	2a12      	cmp	r2, #18
    f7c4:	d00b      	beq.n	f7de <am_hal_uart_configure+0x8e>
    f7c6:	4a68      	ldr	r2, [pc, #416]	; (f968 <am_hal_uart_configure+0x218>)
    f7c8:	68d2      	ldr	r2, [r2, #12]
    f7ca:	b2d2      	uxtb	r2, r2
    f7cc:	2a20      	cmp	r2, #32
    f7ce:	d90a      	bls.n	f7e6 <am_hal_uart_configure+0x96>
    f7d0:	4a66      	ldr	r2, [pc, #408]	; (f96c <am_hal_uart_configure+0x21c>)
    f7d2:	4293      	cmp	r3, r2
    f7d4:	d907      	bls.n	f7e6 <am_hal_uart_configure+0x96>
    f7d6:	4866      	ldr	r0, [pc, #408]	; (f970 <am_hal_uart_configure+0x220>)
    f7d8:	b004      	add	sp, #16
    f7da:	e8bd 81f0 	ldmia.w	sp!, {r4, r5, r6, r7, r8, pc}
    f7de:	f5b3 2f61 	cmp.w	r3, #921600	; 0xe1000
    f7e2:	d8f8      	bhi.n	f7d6 <am_hal_uart_configure+0x86>
    f7e4:	e7ef      	b.n	f7c6 <am_hal_uart_configure+0x76>
    f7e6:	6b2a      	ldr	r2, [r5, #48]	; 0x30
    f7e8:	f3c2 1202 	ubfx	r2, r2, #4, #3
    f7ec:	3a01      	subs	r2, #1
    f7ee:	2a03      	cmp	r2, #3
    f7f0:	d852      	bhi.n	f898 <am_hal_uart_configure+0x148>
    f7f2:	e8df f002 	tbb	[pc, r2]
    f7f6:	020f      	.short	0x020f
    f7f8:	1215      	.short	0x1215
    f7fa:	4a5e      	ldr	r2, [pc, #376]	; (f974 <am_hal_uart_configure+0x224>)
    f7fc:	495e      	ldr	r1, [pc, #376]	; (f978 <am_hal_uart_configure+0x228>)
    f7fe:	011b      	lsls	r3, r3, #4
    f800:	fbb2 f2f3 	udiv	r2, r2, r3
    f804:	fbb1 f3f3 	udiv	r3, r1, r3
    f808:	eba2 1283 	sub.w	r2, r2, r3, lsl #6
    f80c:	b95b      	cbnz	r3, f826 <am_hal_uart_configure+0xd6>
    f80e:	6623      	str	r3, [r4, #96]	; 0x60
    f810:	4857      	ldr	r0, [pc, #348]	; (f970 <am_hal_uart_configure+0x220>)
    f812:	e7e1      	b.n	f7d8 <am_hal_uart_configure+0x88>
    f814:	4a59      	ldr	r2, [pc, #356]	; (f97c <am_hal_uart_configure+0x22c>)
    f816:	495a      	ldr	r1, [pc, #360]	; (f980 <am_hal_uart_configure+0x230>)
    f818:	e7f1      	b.n	f7fe <am_hal_uart_configure+0xae>
    f81a:	4a5a      	ldr	r2, [pc, #360]	; (f984 <am_hal_uart_configure+0x234>)
    f81c:	495a      	ldr	r1, [pc, #360]	; (f988 <am_hal_uart_configure+0x238>)
    f81e:	e7ee      	b.n	f7fe <am_hal_uart_configure+0xae>
    f820:	4a5a      	ldr	r2, [pc, #360]	; (f98c <am_hal_uart_configure+0x23c>)
    f822:	495b      	ldr	r1, [pc, #364]	; (f990 <am_hal_uart_configure+0x240>)
    f824:	e7eb      	b.n	f7fe <am_hal_uart_configure+0xae>
    f826:	0890      	lsrs	r0, r2, #2
    f828:	626b      	str	r3, [r5, #36]	; 0x24
    f82a:	eb00 1003 	add.w	r0, r0, r3, lsl #4
    f82e:	626b      	str	r3, [r5, #36]	; 0x24
    f830:	fbb1 f1f0 	udiv	r1, r1, r0
    f834:	62aa      	str	r2, [r5, #40]	; 0x28
    f836:	6621      	str	r1, [r4, #96]	; 0x60
    f838:	8e2b      	ldrh	r3, [r5, #48]	; 0x30
    f83a:	f36f 338e 	bfc	r3, #14, #1
    f83e:	862b      	strh	r3, [r5, #48]	; 0x30
    f840:	8e2b      	ldrh	r3, [r5, #48]	; 0x30
    f842:	f36f 33cf 	bfc	r3, #15, #1
    f846:	862b      	strh	r3, [r5, #48]	; 0x30
    f848:	6b2a      	ldr	r2, [r5, #48]	; 0x30
    f84a:	6933      	ldr	r3, [r6, #16]
    f84c:	4313      	orrs	r3, r2
    f84e:	632b      	str	r3, [r5, #48]	; 0x30
    f850:	6973      	ldr	r3, [r6, #20]
    f852:	636b      	str	r3, [r5, #52]	; 0x34
    f854:	6871      	ldr	r1, [r6, #4]
    f856:	68b3      	ldr	r3, [r6, #8]
    f858:	68f2      	ldr	r2, [r6, #12]
    f85a:	430b      	orrs	r3, r1
    f85c:	f043 0310 	orr.w	r3, r3, #16
    f860:	4313      	orrs	r3, r2
    f862:	62eb      	str	r3, [r5, #44]	; 0x2c
    f864:	f7ff fbce 	bl	f004 <am_hal_interrupt_master_disable>
    f868:	9003      	str	r0, [sp, #12]
    f86a:	8e2b      	ldrh	r3, [r5, #48]	; 0x30
    f86c:	f043 0301 	orr.w	r3, r3, #1
    f870:	862b      	strh	r3, [r5, #48]	; 0x30
    f872:	8e2b      	ldrh	r3, [r5, #48]	; 0x30
    f874:	f443 7300 	orr.w	r3, r3, #512	; 0x200
    f878:	862b      	strh	r3, [r5, #48]	; 0x30
    f87a:	8e2b      	ldrh	r3, [r5, #48]	; 0x30
    f87c:	f443 7380 	orr.w	r3, r3, #256	; 0x100
    f880:	862b      	strh	r3, [r5, #48]	; 0x30
    f882:	9803      	ldr	r0, [sp, #12]
    f884:	f7ff fbc2 	bl	f00c <am_hal_interrupt_master_set>
    f888:	6825      	ldr	r5, [r4, #0]
    f88a:	4b36      	ldr	r3, [pc, #216]	; (f964 <am_hal_uart_configure+0x214>)
    f88c:	f025 457e 	bic.w	r5, r5, #4261412864	; 0xfe000000
    f890:	429d      	cmp	r5, r3
    f892:	d005      	beq.n	f8a0 <am_hal_uart_configure+0x150>
    f894:	2000      	movs	r0, #0
    f896:	e79f      	b.n	f7d8 <am_hal_uart_configure+0x88>
    f898:	2300      	movs	r3, #0
    f89a:	6623      	str	r3, [r4, #96]	; 0x60
    f89c:	483d      	ldr	r0, [pc, #244]	; (f994 <am_hal_uart_configure+0x244>)
    f89e:	e79b      	b.n	f7d8 <am_hal_uart_configure+0x88>
    f8a0:	69b1      	ldr	r1, [r6, #24]
    f8a2:	6a37      	ldr	r7, [r6, #32]
    f8a4:	f8d6 8024 	ldr.w	r8, [r6, #36]	; 0x24
    f8a8:	b109      	cbz	r1, f8ae <am_hal_uart_configure+0x15e>
    f8aa:	69f3      	ldr	r3, [r6, #28]
    f8ac:	bb3b      	cbnz	r3, f8fe <am_hal_uart_configure+0x1ae>
    f8ae:	6a63      	ldr	r3, [r4, #36]	; 0x24
    f8b0:	f503 2380 	add.w	r3, r3, #262144	; 0x40000
    f8b4:	f103 021c 	add.w	r2, r3, #28
    f8b8:	0312      	lsls	r2, r2, #12
    f8ba:	2100      	movs	r1, #0
    f8bc:	f884 1028 	strb.w	r1, [r4, #40]	; 0x28
    f8c0:	6b91      	ldr	r1, [r2, #56]	; 0x38
    f8c2:	f021 0120 	bic.w	r1, r1, #32
    f8c6:	6391      	str	r1, [r2, #56]	; 0x38
    f8c8:	b1b7      	cbz	r7, f8f8 <am_hal_uart_configure+0x1a8>
    f8ca:	f1b8 0f00 	cmp.w	r8, #0
    f8ce:	d12e      	bne.n	f92e <am_hal_uart_configure+0x1de>
    f8d0:	6823      	ldr	r3, [r4, #0]
    f8d2:	4a24      	ldr	r2, [pc, #144]	; (f964 <am_hal_uart_configure+0x214>)
    f8d4:	f023 437e 	bic.w	r3, r3, #4261412864	; 0xfe000000
    f8d8:	2100      	movs	r1, #0
    f8da:	4293      	cmp	r3, r2
    f8dc:	f884 1044 	strb.w	r1, [r4, #68]	; 0x44
    f8e0:	d1d8      	bne.n	f894 <am_hal_uart_configure+0x144>
    f8e2:	6a63      	ldr	r3, [r4, #36]	; 0x24
    f8e4:	f503 2380 	add.w	r3, r3, #262144	; 0x40000
    f8e8:	331c      	adds	r3, #28
    f8ea:	031b      	lsls	r3, r3, #12
    f8ec:	2000      	movs	r0, #0
    f8ee:	6b9a      	ldr	r2, [r3, #56]	; 0x38
    f8f0:	f022 0250 	bic.w	r2, r2, #80	; 0x50
    f8f4:	639a      	str	r2, [r3, #56]	; 0x38
    f8f6:	e76f      	b.n	f7d8 <am_hal_uart_configure+0x88>
    f8f8:	f884 7044 	strb.w	r7, [r4, #68]	; 0x44
    f8fc:	e7f4      	b.n	f8e8 <am_hal_uart_configure+0x198>
    f8fe:	2201      	movs	r2, #1
    f900:	f884 2028 	strb.w	r2, [r4, #40]	; 0x28
    f904:	f104 002c 	add.w	r0, r4, #44	; 0x2c
    f908:	f000 fa80 	bl	fe0c <am_hal_queue_init>
    f90c:	6823      	ldr	r3, [r4, #0]
    f90e:	f023 437e 	bic.w	r3, r3, #4261412864	; 0xfe000000
    f912:	42ab      	cmp	r3, r5
    f914:	d1be      	bne.n	f894 <am_hal_uart_configure+0x144>
    f916:	6a63      	ldr	r3, [r4, #36]	; 0x24
    f918:	f503 2380 	add.w	r3, r3, #262144	; 0x40000
    f91c:	331c      	adds	r3, #28
    f91e:	031b      	lsls	r3, r3, #12
    f920:	6b9a      	ldr	r2, [r3, #56]	; 0x38
    f922:	f042 0220 	orr.w	r2, r2, #32
    f926:	639a      	str	r2, [r3, #56]	; 0x38
    f928:	2f00      	cmp	r7, #0
    f92a:	d1ce      	bne.n	f8ca <am_hal_uart_configure+0x17a>
    f92c:	e7d0      	b.n	f8d0 <am_hal_uart_configure+0x180>
    f92e:	2201      	movs	r2, #1
    f930:	4643      	mov	r3, r8
    f932:	f884 2044 	strb.w	r2, [r4, #68]	; 0x44
    f936:	4639      	mov	r1, r7
    f938:	f104 0048 	add.w	r0, r4, #72	; 0x48
    f93c:	f000 fa66 	bl	fe0c <am_hal_queue_init>
    f940:	6823      	ldr	r3, [r4, #0]
    f942:	4a08      	ldr	r2, [pc, #32]	; (f964 <am_hal_uart_configure+0x214>)
    f944:	f023 437e 	bic.w	r3, r3, #4261412864	; 0xfe000000
    f948:	4293      	cmp	r3, r2
    f94a:	d1a3      	bne.n	f894 <am_hal_uart_configure+0x144>
    f94c:	6a63      	ldr	r3, [r4, #36]	; 0x24
    f94e:	f503 2380 	add.w	r3, r3, #262144	; 0x40000
    f952:	331c      	adds	r3, #28
    f954:	031b      	lsls	r3, r3, #12
    f956:	2000      	movs	r0, #0
    f958:	6b9a      	ldr	r2, [r3, #56]	; 0x38
    f95a:	f042 0250 	orr.w	r2, r2, #80	; 0x50
    f95e:	639a      	str	r2, [r3, #56]	; 0x38
    f960:	e73a      	b.n	f7d8 <am_hal_uart_configure+0x88>
    f962:	bf00      	nop
    f964:	01ea9e06 	.word	0x01ea9e06
    f968:	40020000 	.word	0x40020000
    f96c:	0016e360 	.word	0x0016e360
    f970:	08000003 	.word	0x08000003
    f974:	2dc6c000 	.word	0x2dc6c000
    f978:	00b71b00 	.word	0x00b71b00
    f97c:	5b8d8000 	.word	0x5b8d8000
    f980:	016e3600 	.word	0x016e3600
    f984:	0b71b000 	.word	0x0b71b000
    f988:	002dc6c0 	.word	0x002dc6c0
    f98c:	16e36000 	.word	0x16e36000
    f990:	005b8d80 	.word	0x005b8d80
    f994:	08000002 	.word	0x08000002

0000f998 <am_hal_uart_transfer>:
    f998:	e92d 4ff0 	stmdb	sp!, {r4, r5, r6, r7, r8, r9, sl, fp, lr}
    f99c:	680f      	ldr	r7, [r1, #0]
    f99e:	b091      	sub	sp, #68	; 0x44
    f9a0:	4605      	mov	r5, r0
    f9a2:	b13f      	cbz	r7, f9b4 <am_hal_uart_transfer+0x1c>
    f9a4:	2f01      	cmp	r7, #1
    f9a6:	bf18      	it	ne
    f9a8:	2707      	movne	r7, #7
    f9aa:	d024      	beq.n	f9f6 <am_hal_uart_transfer+0x5e>
    f9ac:	4638      	mov	r0, r7
    f9ae:	b011      	add	sp, #68	; 0x44
    f9b0:	e8bd 8ff0 	ldmia.w	sp!, {r4, r5, r6, r7, r8, r9, sl, fp, pc}
    f9b4:	f8d1 900c 	ldr.w	r9, [r1, #12]
    f9b8:	690b      	ldr	r3, [r1, #16]
    f9ba:	f8d1 a004 	ldr.w	sl, [r1, #4]
    f9be:	688e      	ldr	r6, [r1, #8]
    f9c0:	9300      	str	r3, [sp, #0]
    f9c2:	f1b9 0f00 	cmp.w	r9, #0
    f9c6:	d031      	beq.n	fa2c <am_hal_uart_transfer+0x94>
    f9c8:	2e00      	cmp	r6, #0
    f9ca:	f000 819c 	beq.w	fd06 <am_hal_uart_transfer+0x36e>
    f9ce:	2800      	cmp	r0, #0
    f9d0:	f000 8097 	beq.w	fb02 <am_hal_uart_transfer+0x16a>
    f9d4:	6803      	ldr	r3, [r0, #0]
    f9d6:	4aa9      	ldr	r2, [pc, #676]	; (fc7c <am_hal_uart_transfer+0x2e4>)
    f9d8:	f023 437e 	bic.w	r3, r3, #4261412864	; 0xfe000000
    f9dc:	4293      	cmp	r3, r2
    f9de:	f000 8092 	beq.w	fb06 <am_hal_uart_transfer+0x16e>
    f9e2:	46b8      	mov	r8, r7
    f9e4:	9b00      	ldr	r3, [sp, #0]
    f9e6:	b10b      	cbz	r3, f9ec <am_hal_uart_transfer+0x54>
    f9e8:	f8c3 8000 	str.w	r8, [r3]
    f9ec:	2702      	movs	r7, #2
    f9ee:	4638      	mov	r0, r7
    f9f0:	b011      	add	sp, #68	; 0x44
    f9f2:	e8bd 8ff0 	ldmia.w	sp!, {r4, r5, r6, r7, r8, r9, sl, fp, pc}
    f9f6:	1d0b      	adds	r3, r1, #4
    f9f8:	e893 0a88 	ldmia.w	r3, {r3, r7, r9, fp}
    f9fc:	f1b9 0f00 	cmp.w	r9, #0
    fa00:	d043      	beq.n	fa8a <am_hal_uart_transfer+0xf2>
    fa02:	2f00      	cmp	r7, #0
    fa04:	f000 8185 	beq.w	fd12 <am_hal_uart_transfer+0x37a>
    fa08:	2800      	cmp	r0, #0
    fa0a:	f000 80eb 	beq.w	fbe4 <am_hal_uart_transfer+0x24c>
    fa0e:	6802      	ldr	r2, [r0, #0]
    fa10:	499a      	ldr	r1, [pc, #616]	; (fc7c <am_hal_uart_transfer+0x2e4>)
    fa12:	f022 427e 	bic.w	r2, r2, #4261412864	; 0xfe000000
    fa16:	428a      	cmp	r2, r1
    fa18:	f000 80e7 	beq.w	fbea <am_hal_uart_transfer+0x252>
    fa1c:	2600      	movs	r6, #0
    fa1e:	2702      	movs	r7, #2
    fa20:	f1bb 0f00 	cmp.w	fp, #0
    fa24:	d0c2      	beq.n	f9ac <am_hal_uart_transfer+0x14>
    fa26:	f8cb 6000 	str.w	r6, [fp]
    fa2a:	e7bf      	b.n	f9ac <am_hal_uart_transfer+0x14>
    fa2c:	2800      	cmp	r0, #0
    fa2e:	d0dd      	beq.n	f9ec <am_hal_uart_transfer+0x54>
    fa30:	6803      	ldr	r3, [r0, #0]
    fa32:	4a92      	ldr	r2, [pc, #584]	; (fc7c <am_hal_uart_transfer+0x2e4>)
    fa34:	f023 437e 	bic.w	r3, r3, #4261412864	; 0xfe000000
    fa38:	4293      	cmp	r3, r2
    fa3a:	d1d7      	bne.n	f9ec <am_hal_uart_transfer+0x54>
    fa3c:	9b00      	ldr	r3, [sp, #0]
    fa3e:	b10b      	cbz	r3, fa44 <am_hal_uart_transfer+0xac>
    fa40:	f8c3 9000 	str.w	r9, [r3]
    fa44:	b1fe      	cbz	r6, fa86 <am_hal_uart_transfer+0xee>
    fa46:	f895 3028 	ldrb.w	r3, [r5, #40]	; 0x28
    fa4a:	2b00      	cmp	r3, #0
    fa4c:	f040 8165 	bne.w	fd1a <am_hal_uart_transfer+0x382>
    fa50:	6a69      	ldr	r1, [r5, #36]	; 0x24
    fa52:	f501 2180 	add.w	r1, r1, #262144	; 0x40000
    fa56:	311c      	adds	r1, #28
    fa58:	0309      	lsls	r1, r1, #12
    fa5a:	698a      	ldr	r2, [r1, #24]
    fa5c:	f3c2 1240 	ubfx	r2, r2, #5, #1
    fa60:	2a00      	cmp	r2, #0
    fa62:	f040 818d 	bne.w	fd80 <am_hal_uart_transfer+0x3e8>
    fa66:	f10a 33ff 	add.w	r3, sl, #4294967295	; 0xffffffff
    fa6a:	e003      	b.n	fa74 <am_hal_uart_transfer+0xdc>
    fa6c:	6988      	ldr	r0, [r1, #24]
    fa6e:	0680      	lsls	r0, r0, #26
    fa70:	f100 8151 	bmi.w	fd16 <am_hal_uart_transfer+0x37e>
    fa74:	3201      	adds	r2, #1
    fa76:	f813 0f01 	ldrb.w	r0, [r3, #1]!
    fa7a:	6008      	str	r0, [r1, #0]
    fa7c:	4296      	cmp	r6, r2
    fa7e:	d1f5      	bne.n	fa6c <am_hal_uart_transfer+0xd4>
    fa80:	9b00      	ldr	r3, [sp, #0]
    fa82:	b103      	cbz	r3, fa86 <am_hal_uart_transfer+0xee>
    fa84:	601e      	str	r6, [r3, #0]
    fa86:	2700      	movs	r7, #0
    fa88:	e790      	b.n	f9ac <am_hal_uart_transfer+0x14>
    fa8a:	2800      	cmp	r0, #0
    fa8c:	d0ae      	beq.n	f9ec <am_hal_uart_transfer+0x54>
    fa8e:	6802      	ldr	r2, [r0, #0]
    fa90:	497a      	ldr	r1, [pc, #488]	; (fc7c <am_hal_uart_transfer+0x2e4>)
    fa92:	f022 427e 	bic.w	r2, r2, #4261412864	; 0xfe000000
    fa96:	428a      	cmp	r2, r1
    fa98:	d1a8      	bne.n	f9ec <am_hal_uart_transfer+0x54>
    fa9a:	f1bb 0f00 	cmp.w	fp, #0
    fa9e:	d001      	beq.n	faa4 <am_hal_uart_transfer+0x10c>
    faa0:	f8cb 9000 	str.w	r9, [fp]
    faa4:	2f00      	cmp	r7, #0
    faa6:	d0ee      	beq.n	fa86 <am_hal_uart_transfer+0xee>
    faa8:	f895 4044 	ldrb.w	r4, [r5, #68]	; 0x44
    faac:	2c00      	cmp	r4, #0
    faae:	f040 816c 	bne.w	fd8a <am_hal_uart_transfer+0x3f2>
    fab2:	6a6a      	ldr	r2, [r5, #36]	; 0x24
    fab4:	f502 2280 	add.w	r2, r2, #262144	; 0x40000
    fab8:	321c      	adds	r2, #28
    faba:	0312      	lsls	r2, r2, #12
    fabc:	6990      	ldr	r0, [r2, #24]
    fabe:	f3c0 1000 	ubfx	r0, r0, #4, #1
    fac2:	2800      	cmp	r0, #0
    fac4:	f040 819d 	bne.w	fe02 <am_hal_uart_transfer+0x46a>
    fac8:	6811      	ldr	r1, [r2, #0]
    faca:	f411 6470 	ands.w	r4, r1, #3840	; 0xf00
    face:	bf08      	it	eq
    fad0:	f103 33ff 	addeq.w	r3, r3, #4294967295	; 0xffffffff
    fad4:	d008      	beq.n	fae8 <am_hal_uart_transfer+0x150>
    fad6:	e190      	b.n	fdfa <am_hal_uart_transfer+0x462>
    fad8:	6991      	ldr	r1, [r2, #24]
    fada:	06c8      	lsls	r0, r1, #27
    fadc:	d409      	bmi.n	faf2 <am_hal_uart_transfer+0x15a>
    fade:	6811      	ldr	r1, [r2, #0]
    fae0:	f411 6f70 	tst.w	r1, #3840	; 0xf00
    fae4:	f040 814e 	bne.w	fd84 <am_hal_uart_transfer+0x3ec>
    fae8:	3401      	adds	r4, #1
    faea:	42a7      	cmp	r7, r4
    faec:	f803 1f01 	strb.w	r1, [r3, #1]!
    faf0:	d1f2      	bne.n	fad8 <am_hal_uart_transfer+0x140>
    faf2:	2700      	movs	r7, #0
    faf4:	f1bb 0f00 	cmp.w	fp, #0
    faf8:	f43f af58 	beq.w	f9ac <am_hal_uart_transfer+0x14>
    fafc:	f8cb 4000 	str.w	r4, [fp]
    fb00:	e754      	b.n	f9ac <am_hal_uart_transfer+0x14>
    fb02:	4680      	mov	r8, r0
    fb04:	e76e      	b.n	f9e4 <am_hal_uart_transfer+0x4c>
    fb06:	9301      	str	r3, [sp, #4]
    fb08:	4651      	mov	r1, sl
    fb0a:	46bb      	mov	fp, r7
    fb0c:	46b8      	mov	r8, r7
    fb0e:	f895 2028 	ldrb.w	r2, [r5, #40]	; 0x28
    fb12:	b9f2      	cbnz	r2, fb52 <am_hal_uart_transfer+0x1ba>
    fb14:	6a6a      	ldr	r2, [r5, #36]	; 0x24
    fb16:	b19e      	cbz	r6, fb40 <am_hal_uart_transfer+0x1a8>
    fb18:	f502 2280 	add.w	r2, r2, #262144	; 0x40000
    fb1c:	321c      	adds	r2, #28
    fb1e:	0312      	lsls	r2, r2, #12
    fb20:	3901      	subs	r1, #1
    fb22:	6994      	ldr	r4, [r2, #24]
    fb24:	f3c4 1440 	ubfx	r4, r4, #5, #1
    fb28:	b11c      	cbz	r4, fb32 <am_hal_uart_transfer+0x19a>
    fb2a:	e047      	b.n	fbbc <am_hal_uart_transfer+0x224>
    fb2c:	6993      	ldr	r3, [r2, #24]
    fb2e:	069b      	lsls	r3, r3, #26
    fb30:	d441      	bmi.n	fbb6 <am_hal_uart_transfer+0x21e>
    fb32:	3401      	adds	r4, #1
    fb34:	f811 3f01 	ldrb.w	r3, [r1, #1]!
    fb38:	6013      	str	r3, [r2, #0]
    fb3a:	42b4      	cmp	r4, r6
    fb3c:	d1f6      	bne.n	fb2c <am_hal_uart_transfer+0x194>
    fb3e:	44a0      	add	r8, r4
    fb40:	9b00      	ldr	r3, [sp, #0]
    fb42:	2b00      	cmp	r3, #0
    fb44:	d09f      	beq.n	fa86 <am_hal_uart_transfer+0xee>
    fb46:	4638      	mov	r0, r7
    fb48:	f8c3 8000 	str.w	r8, [r3]
    fb4c:	b011      	add	sp, #68	; 0x44
    fb4e:	e8bd 8ff0 	ldmia.w	sp!, {r4, r5, r6, r7, r8, r9, sl, fp, pc}
    fb52:	6baa      	ldr	r2, [r5, #56]	; 0x38
    fb54:	6b6c      	ldr	r4, [r5, #52]	; 0x34
    fb56:	1b14      	subs	r4, r2, r4
    fb58:	42b4      	cmp	r4, r6
    fb5a:	f105 032c 	add.w	r3, r5, #44	; 0x2c
    fb5e:	bf28      	it	cs
    fb60:	4634      	movcs	r4, r6
    fb62:	4622      	mov	r2, r4
    fb64:	4618      	mov	r0, r3
    fb66:	9302      	str	r3, [sp, #8]
    fb68:	f000 f95c 	bl	fe24 <am_hal_queue_item_add>
    fb6c:	6a6b      	ldr	r3, [r5, #36]	; 0x24
    fb6e:	9303      	str	r3, [sp, #12]
    fb70:	f7ff fa48 	bl	f004 <am_hal_interrupt_master_disable>
    fb74:	9b03      	ldr	r3, [sp, #12]
    fb76:	9008      	str	r0, [sp, #32]
    fb78:	f503 2380 	add.w	r3, r3, #262144	; 0x40000
    fb7c:	331c      	adds	r3, #28
    fb7e:	031b      	lsls	r3, r3, #12
    fb80:	9303      	str	r3, [sp, #12]
    fb82:	e00d      	b.n	fba0 <am_hal_uart_transfer+0x208>
    fb84:	f000 f986 	bl	fe94 <am_hal_queue_item_get>
    fb88:	b190      	cbz	r0, fbb0 <am_hal_uart_transfer+0x218>
    fb8a:	6a6b      	ldr	r3, [r5, #36]	; 0x24
    fb8c:	f503 2380 	add.w	r3, r3, #262144	; 0x40000
    fb90:	331c      	adds	r3, #28
    fb92:	031b      	lsls	r3, r3, #12
    fb94:	699a      	ldr	r2, [r3, #24]
    fb96:	0692      	lsls	r2, r2, #26
    fb98:	bf5c      	itt	pl
    fb9a:	f89d 201c 	ldrbpl.w	r2, [sp, #28]
    fb9e:	601a      	strpl	r2, [r3, #0]
    fba0:	9b03      	ldr	r3, [sp, #12]
    fba2:	9802      	ldr	r0, [sp, #8]
    fba4:	699b      	ldr	r3, [r3, #24]
    fba6:	069b      	lsls	r3, r3, #26
    fba8:	f04f 0201 	mov.w	r2, #1
    fbac:	a907      	add	r1, sp, #28
    fbae:	d5e9      	bpl.n	fb84 <am_hal_uart_transfer+0x1ec>
    fbb0:	9808      	ldr	r0, [sp, #32]
    fbb2:	f7ff fa2b 	bl	f00c <am_hal_interrupt_master_set>
    fbb6:	1b36      	subs	r6, r6, r4
    fbb8:	44a0      	add	r8, r4
    fbba:	d0c1      	beq.n	fb40 <am_hal_uart_transfer+0x1a8>
    fbbc:	2010      	movs	r0, #16
    fbbe:	f7fe ffd5 	bl	eb6c <am_hal_flash_delay>
    fbc2:	f1b9 3fff 	cmp.w	r9, #4294967295	; 0xffffffff
    fbc6:	d001      	beq.n	fbcc <am_hal_uart_transfer+0x234>
    fbc8:	f10b 0b01 	add.w	fp, fp, #1
    fbcc:	45d9      	cmp	r9, fp
    fbce:	d9b7      	bls.n	fb40 <am_hal_uart_transfer+0x1a8>
    fbd0:	682a      	ldr	r2, [r5, #0]
    fbd2:	9b01      	ldr	r3, [sp, #4]
    fbd4:	f022 427e 	bic.w	r2, r2, #4261412864	; 0xfe000000
    fbd8:	429a      	cmp	r2, r3
    fbda:	eb0a 0108 	add.w	r1, sl, r8
    fbde:	f47f af01 	bne.w	f9e4 <am_hal_uart_transfer+0x4c>
    fbe2:	e794      	b.n	fb0e <am_hal_uart_transfer+0x176>
    fbe4:	4606      	mov	r6, r0
    fbe6:	2702      	movs	r7, #2
    fbe8:	e71a      	b.n	fa20 <am_hal_uart_transfer+0x88>
    fbea:	9200      	str	r2, [sp, #0]
    fbec:	f100 0248 	add.w	r2, r0, #72	; 0x48
    fbf0:	f04f 0a00 	mov.w	sl, #0
    fbf4:	9202      	str	r2, [sp, #8]
    fbf6:	465a      	mov	r2, fp
    fbf8:	4698      	mov	r8, r3
    fbfa:	469b      	mov	fp, r3
    fbfc:	4656      	mov	r6, sl
    fbfe:	4613      	mov	r3, r2
    fc00:	f895 2044 	ldrb.w	r2, [r5, #68]	; 0x44
    fc04:	2a00      	cmp	r2, #0
    fc06:	d152      	bne.n	fcae <am_hal_uart_transfer+0x316>
    fc08:	6a69      	ldr	r1, [r5, #36]	; 0x24
    fc0a:	b3a7      	cbz	r7, fc76 <am_hal_uart_transfer+0x2de>
    fc0c:	f501 2180 	add.w	r1, r1, #262144	; 0x40000
    fc10:	311c      	adds	r1, #28
    fc12:	0309      	lsls	r1, r1, #12
    fc14:	698a      	ldr	r2, [r1, #24]
    fc16:	06d0      	lsls	r0, r2, #27
    fc18:	d432      	bmi.n	fc80 <am_hal_uart_transfer+0x2e8>
    fc1a:	680a      	ldr	r2, [r1, #0]
    fc1c:	f412 6470 	ands.w	r4, r2, #3840	; 0xf00
    fc20:	f040 80aa 	bne.w	fd78 <am_hal_uart_transfer+0x3e0>
    fc24:	f108 38ff 	add.w	r8, r8, #4294967295	; 0xffffffff
    fc28:	e006      	b.n	fc38 <am_hal_uart_transfer+0x2a0>
    fc2a:	698a      	ldr	r2, [r1, #24]
    fc2c:	06d2      	lsls	r2, r2, #27
    fc2e:	d41f      	bmi.n	fc70 <am_hal_uart_transfer+0x2d8>
    fc30:	680a      	ldr	r2, [r1, #0]
    fc32:	f412 6f70 	tst.w	r2, #3840	; 0xf00
    fc36:	d161      	bne.n	fcfc <am_hal_uart_transfer+0x364>
    fc38:	3401      	adds	r4, #1
    fc3a:	42bc      	cmp	r4, r7
    fc3c:	f808 2f01 	strb.w	r2, [r8, #1]!
    fc40:	d1f3      	bne.n	fc2a <am_hal_uart_transfer+0x292>
    fc42:	469b      	mov	fp, r3
    fc44:	4426      	add	r6, r4
    fc46:	f1bb 0f00 	cmp.w	fp, #0
    fc4a:	f43f af1c 	beq.w	fa86 <am_hal_uart_transfer+0xee>
    fc4e:	f8cb 6000 	str.w	r6, [fp]
    fc52:	2700      	movs	r7, #0
    fc54:	e6aa      	b.n	f9ac <am_hal_uart_transfer+0x14>
    fc56:	9807      	ldr	r0, [sp, #28]
    fc58:	f7ff f9d8 	bl	f00c <am_hal_interrupt_master_set>
    fc5c:	6d2c      	ldr	r4, [r5, #80]	; 0x50
    fc5e:	9802      	ldr	r0, [sp, #8]
    fc60:	42bc      	cmp	r4, r7
    fc62:	bf28      	it	cs
    fc64:	463c      	movcs	r4, r7
    fc66:	4641      	mov	r1, r8
    fc68:	4622      	mov	r2, r4
    fc6a:	f000 f913 	bl	fe94 <am_hal_queue_item_get>
    fc6e:	9b01      	ldr	r3, [sp, #4]
    fc70:	1b3f      	subs	r7, r7, r4
    fc72:	4426      	add	r6, r4
    fc74:	d104      	bne.n	fc80 <am_hal_uart_transfer+0x2e8>
    fc76:	469b      	mov	fp, r3
    fc78:	e7e5      	b.n	fc46 <am_hal_uart_transfer+0x2ae>
    fc7a:	bf00      	nop
    fc7c:	01ea9e06 	.word	0x01ea9e06
    fc80:	2010      	movs	r0, #16
    fc82:	9301      	str	r3, [sp, #4]
    fc84:	f7fe ff72 	bl	eb6c <am_hal_flash_delay>
    fc88:	f1b9 3fff 	cmp.w	r9, #4294967295	; 0xffffffff
    fc8c:	9b01      	ldr	r3, [sp, #4]
    fc8e:	d001      	beq.n	fc94 <am_hal_uart_transfer+0x2fc>
    fc90:	f10a 0a01 	add.w	sl, sl, #1
    fc94:	45d1      	cmp	r9, sl
    fc96:	d9ee      	bls.n	fc76 <am_hal_uart_transfer+0x2de>
    fc98:	682a      	ldr	r2, [r5, #0]
    fc9a:	9900      	ldr	r1, [sp, #0]
    fc9c:	f022 427e 	bic.w	r2, r2, #4261412864	; 0xfe000000
    fca0:	428a      	cmp	r2, r1
    fca2:	eb0b 0806 	add.w	r8, fp, r6
    fca6:	d0ab      	beq.n	fc00 <am_hal_uart_transfer+0x268>
    fca8:	469b      	mov	fp, r3
    fcaa:	2702      	movs	r7, #2
    fcac:	e6b8      	b.n	fa20 <am_hal_uart_transfer+0x88>
    fcae:	9301      	str	r3, [sp, #4]
    fcb0:	f7ff f9a8 	bl	f004 <am_hal_interrupt_master_disable>
    fcb4:	6a6a      	ldr	r2, [r5, #36]	; 0x24
    fcb6:	9007      	str	r0, [sp, #28]
    fcb8:	f502 2080 	add.w	r0, r2, #262144	; 0x40000
    fcbc:	301c      	adds	r0, #28
    fcbe:	9b01      	ldr	r3, [sp, #4]
    fcc0:	0300      	lsls	r0, r0, #12
    fcc2:	ac08      	add	r4, sp, #32
    fcc4:	2200      	movs	r2, #0
    fcc6:	6981      	ldr	r1, [r0, #24]
    fcc8:	06c9      	lsls	r1, r1, #27
    fcca:	d409      	bmi.n	fce0 <am_hal_uart_transfer+0x348>
    fccc:	6801      	ldr	r1, [r0, #0]
    fcce:	f411 6f70 	tst.w	r1, #3840	; 0xf00
    fcd2:	f102 0201 	add.w	r2, r2, #1
    fcd6:	d118      	bne.n	fd0a <am_hal_uart_transfer+0x372>
    fcd8:	2a20      	cmp	r2, #32
    fcda:	f804 1b01 	strb.w	r1, [r4], #1
    fcde:	d1f2      	bne.n	fcc6 <am_hal_uart_transfer+0x32e>
    fce0:	a908      	add	r1, sp, #32
    fce2:	9802      	ldr	r0, [sp, #8]
    fce4:	9301      	str	r3, [sp, #4]
    fce6:	f000 f89d 	bl	fe24 <am_hal_queue_item_add>
    fcea:	9b01      	ldr	r3, [sp, #4]
    fcec:	2800      	cmp	r0, #0
    fcee:	d1b2      	bne.n	fc56 <am_hal_uart_transfer+0x2be>
    fcf0:	4f45      	ldr	r7, [pc, #276]	; (fe08 <am_hal_uart_transfer+0x470>)
    fcf2:	469b      	mov	fp, r3
    fcf4:	9807      	ldr	r0, [sp, #28]
    fcf6:	f7ff f989 	bl	f00c <am_hal_interrupt_master_set>
    fcfa:	e691      	b.n	fa20 <am_hal_uart_transfer+0x88>
    fcfc:	469b      	mov	fp, r3
    fcfe:	4426      	add	r6, r4
    fd00:	f04f 6700 	mov.w	r7, #134217728	; 0x8000000
    fd04:	e68c      	b.n	fa20 <am_hal_uart_transfer+0x88>
    fd06:	46b8      	mov	r8, r7
    fd08:	e71a      	b.n	fb40 <am_hal_uart_transfer+0x1a8>
    fd0a:	469b      	mov	fp, r3
    fd0c:	f04f 6700 	mov.w	r7, #134217728	; 0x8000000
    fd10:	e7f0      	b.n	fcf4 <am_hal_uart_transfer+0x35c>
    fd12:	463e      	mov	r6, r7
    fd14:	e797      	b.n	fc46 <am_hal_uart_transfer+0x2ae>
    fd16:	4616      	mov	r6, r2
    fd18:	e6b2      	b.n	fa80 <am_hal_uart_transfer+0xe8>
    fd1a:	6b6a      	ldr	r2, [r5, #52]	; 0x34
    fd1c:	6bab      	ldr	r3, [r5, #56]	; 0x38
    fd1e:	1a9b      	subs	r3, r3, r2
    fd20:	429e      	cmp	r6, r3
    fd22:	bf28      	it	cs
    fd24:	461e      	movcs	r6, r3
    fd26:	f105 042c 	add.w	r4, r5, #44	; 0x2c
    fd2a:	4651      	mov	r1, sl
    fd2c:	4632      	mov	r2, r6
    fd2e:	4620      	mov	r0, r4
    fd30:	f000 f878 	bl	fe24 <am_hal_queue_item_add>
    fd34:	6a6f      	ldr	r7, [r5, #36]	; 0x24
    fd36:	f7ff f965 	bl	f004 <am_hal_interrupt_master_disable>
    fd3a:	f507 2780 	add.w	r7, r7, #262144	; 0x40000
    fd3e:	371c      	adds	r7, #28
    fd40:	033f      	lsls	r7, r7, #12
    fd42:	9005      	str	r0, [sp, #20]
    fd44:	e00d      	b.n	fd62 <am_hal_uart_transfer+0x3ca>
    fd46:	f000 f8a5 	bl	fe94 <am_hal_queue_item_get>
    fd4a:	b188      	cbz	r0, fd70 <am_hal_uart_transfer+0x3d8>
    fd4c:	6a6b      	ldr	r3, [r5, #36]	; 0x24
    fd4e:	f503 2380 	add.w	r3, r3, #262144	; 0x40000
    fd52:	331c      	adds	r3, #28
    fd54:	031b      	lsls	r3, r3, #12
    fd56:	699a      	ldr	r2, [r3, #24]
    fd58:	0692      	lsls	r2, r2, #26
    fd5a:	bf5c      	itt	pl
    fd5c:	f89d 2020 	ldrbpl.w	r2, [sp, #32]
    fd60:	601a      	strpl	r2, [r3, #0]
    fd62:	69bb      	ldr	r3, [r7, #24]
    fd64:	069b      	lsls	r3, r3, #26
    fd66:	f04f 0201 	mov.w	r2, #1
    fd6a:	a908      	add	r1, sp, #32
    fd6c:	4620      	mov	r0, r4
    fd6e:	d5ea      	bpl.n	fd46 <am_hal_uart_transfer+0x3ae>
    fd70:	9805      	ldr	r0, [sp, #20]
    fd72:	f7ff f94b 	bl	f00c <am_hal_interrupt_master_set>
    fd76:	e683      	b.n	fa80 <am_hal_uart_transfer+0xe8>
    fd78:	469b      	mov	fp, r3
    fd7a:	f04f 6700 	mov.w	r7, #134217728	; 0x8000000
    fd7e:	e64f      	b.n	fa20 <am_hal_uart_transfer+0x88>
    fd80:	461e      	mov	r6, r3
    fd82:	e67d      	b.n	fa80 <am_hal_uart_transfer+0xe8>
    fd84:	f04f 6700 	mov.w	r7, #134217728	; 0x8000000
    fd88:	e6b4      	b.n	faf4 <am_hal_uart_transfer+0x15c>
    fd8a:	9300      	str	r3, [sp, #0]
    fd8c:	f7ff f93a 	bl	f004 <am_hal_interrupt_master_disable>
    fd90:	6a6a      	ldr	r2, [r5, #36]	; 0x24
    fd92:	9006      	str	r0, [sp, #24]
    fd94:	f502 2280 	add.w	r2, r2, #262144	; 0x40000
    fd98:	321c      	adds	r2, #28
    fd9a:	0311      	lsls	r1, r2, #12
    fd9c:	a808      	add	r0, sp, #32
    fd9e:	2200      	movs	r2, #0
    fda0:	9b00      	ldr	r3, [sp, #0]
    fda2:	e009      	b.n	fdb8 <am_hal_uart_transfer+0x420>
    fda4:	680c      	ldr	r4, [r1, #0]
    fda6:	f414 6f70 	tst.w	r4, #3840	; 0xf00
    fdaa:	f102 0201 	add.w	r2, r2, #1
    fdae:	d121      	bne.n	fdf4 <am_hal_uart_transfer+0x45c>
    fdb0:	2a20      	cmp	r2, #32
    fdb2:	f800 4b01 	strb.w	r4, [r0], #1
    fdb6:	d002      	beq.n	fdbe <am_hal_uart_transfer+0x426>
    fdb8:	698c      	ldr	r4, [r1, #24]
    fdba:	06e4      	lsls	r4, r4, #27
    fdbc:	d5f2      	bpl.n	fda4 <am_hal_uart_transfer+0x40c>
    fdbe:	f105 0648 	add.w	r6, r5, #72	; 0x48
    fdc2:	a908      	add	r1, sp, #32
    fdc4:	4630      	mov	r0, r6
    fdc6:	9300      	str	r3, [sp, #0]
    fdc8:	f000 f82c 	bl	fe24 <am_hal_queue_item_add>
    fdcc:	b920      	cbnz	r0, fdd8 <am_hal_uart_transfer+0x440>
    fdce:	4f0e      	ldr	r7, [pc, #56]	; (fe08 <am_hal_uart_transfer+0x470>)
    fdd0:	9806      	ldr	r0, [sp, #24]
    fdd2:	f7ff f91b 	bl	f00c <am_hal_interrupt_master_set>
    fdd6:	e5e9      	b.n	f9ac <am_hal_uart_transfer+0x14>
    fdd8:	9806      	ldr	r0, [sp, #24]
    fdda:	f7ff f917 	bl	f00c <am_hal_interrupt_master_set>
    fdde:	6d2c      	ldr	r4, [r5, #80]	; 0x50
    fde0:	9b00      	ldr	r3, [sp, #0]
    fde2:	42bc      	cmp	r4, r7
    fde4:	bf28      	it	cs
    fde6:	463c      	movcs	r4, r7
    fde8:	4619      	mov	r1, r3
    fdea:	4630      	mov	r0, r6
    fdec:	4622      	mov	r2, r4
    fdee:	f000 f851 	bl	fe94 <am_hal_queue_item_get>
    fdf2:	e67e      	b.n	faf2 <am_hal_uart_transfer+0x15a>
    fdf4:	f04f 6700 	mov.w	r7, #134217728	; 0x8000000
    fdf8:	e7ea      	b.n	fdd0 <am_hal_uart_transfer+0x438>
    fdfa:	4604      	mov	r4, r0
    fdfc:	f04f 6700 	mov.w	r7, #134217728	; 0x8000000
    fe00:	e678      	b.n	faf4 <am_hal_uart_transfer+0x15c>
    fe02:	4627      	mov	r7, r4
    fe04:	e676      	b.n	faf4 <am_hal_uart_transfer+0x15c>
    fe06:	bf00      	nop
    fe08:	08000001 	.word	0x08000001

0000fe0c <am_hal_queue_init>:
    fe0c:	b410      	push	{r4}
    fe0e:	2400      	movs	r4, #0
    fe10:	6004      	str	r4, [r0, #0]
    fe12:	6044      	str	r4, [r0, #4]
    fe14:	6084      	str	r4, [r0, #8]
    fe16:	60c3      	str	r3, [r0, #12]
    fe18:	6102      	str	r2, [r0, #16]
    fe1a:	6141      	str	r1, [r0, #20]
    fe1c:	f85d 4b04 	ldr.w	r4, [sp], #4
    fe20:	4770      	bx	lr
    fe22:	bf00      	nop

0000fe24 <am_hal_queue_item_add>:
    fe24:	b5f0      	push	{r4, r5, r6, r7, lr}
    fe26:	4604      	mov	r4, r0
    fe28:	6906      	ldr	r6, [r0, #16]
    fe2a:	b083      	sub	sp, #12
    fe2c:	fb06 f602 	mul.w	r6, r6, r2
    fe30:	460d      	mov	r5, r1
    fe32:	f7ff f8e7 	bl	f004 <am_hal_interrupt_master_disable>
    fe36:	68e7      	ldr	r7, [r4, #12]
    fe38:	68a2      	ldr	r2, [r4, #8]
    fe3a:	9001      	str	r0, [sp, #4]
    fe3c:	1abb      	subs	r3, r7, r2
    fe3e:	429e      	cmp	r6, r3
    fe40:	d826      	bhi.n	fe90 <am_hal_queue_item_add+0x6c>
    fe42:	b196      	cbz	r6, fe6a <am_hal_queue_item_add+0x46>
    fe44:	6823      	ldr	r3, [r4, #0]
    fe46:	4629      	mov	r1, r5
    fe48:	b1c5      	cbz	r5, fe7c <am_hal_queue_item_add+0x58>
    fe4a:	19af      	adds	r7, r5, r6
    fe4c:	6962      	ldr	r2, [r4, #20]
    fe4e:	f811 0b01 	ldrb.w	r0, [r1], #1
    fe52:	54d0      	strb	r0, [r2, r3]
    fe54:	6823      	ldr	r3, [r4, #0]
    fe56:	68e5      	ldr	r5, [r4, #12]
    fe58:	3301      	adds	r3, #1
    fe5a:	42b9      	cmp	r1, r7
    fe5c:	fbb3 f0f5 	udiv	r0, r3, r5
    fe60:	fb05 3310 	mls	r3, r5, r0, r3
    fe64:	6023      	str	r3, [r4, #0]
    fe66:	d1f1      	bne.n	fe4c <am_hal_queue_item_add+0x28>
    fe68:	68a2      	ldr	r2, [r4, #8]
    fe6a:	4432      	add	r2, r6
    fe6c:	60a2      	str	r2, [r4, #8]
    fe6e:	2401      	movs	r4, #1
    fe70:	9801      	ldr	r0, [sp, #4]
    fe72:	f7ff f8cb 	bl	f00c <am_hal_interrupt_master_set>
    fe76:	4620      	mov	r0, r4
    fe78:	b003      	add	sp, #12
    fe7a:	bdf0      	pop	{r4, r5, r6, r7, pc}
    fe7c:	3101      	adds	r1, #1
    fe7e:	3301      	adds	r3, #1
    fe80:	428e      	cmp	r6, r1
    fe82:	fbb3 f0f7 	udiv	r0, r3, r7
    fe86:	fb07 3310 	mls	r3, r7, r0, r3
    fe8a:	d1f7      	bne.n	fe7c <am_hal_queue_item_add+0x58>
    fe8c:	6023      	str	r3, [r4, #0]
    fe8e:	e7ec      	b.n	fe6a <am_hal_queue_item_add+0x46>
    fe90:	2400      	movs	r4, #0
    fe92:	e7ed      	b.n	fe70 <am_hal_queue_item_add+0x4c>

0000fe94 <am_hal_queue_item_get>:
    fe94:	b5f0      	push	{r4, r5, r6, r7, lr}
    fe96:	4604      	mov	r4, r0
    fe98:	6906      	ldr	r6, [r0, #16]
    fe9a:	b083      	sub	sp, #12
    fe9c:	fb06 f602 	mul.w	r6, r6, r2
    fea0:	460d      	mov	r5, r1
    fea2:	f7ff f8af 	bl	f004 <am_hal_interrupt_master_disable>
    fea6:	68a2      	ldr	r2, [r4, #8]
    fea8:	9001      	str	r0, [sp, #4]
    feaa:	4296      	cmp	r6, r2
    feac:	d81c      	bhi.n	fee8 <am_hal_queue_item_get+0x54>
    feae:	b196      	cbz	r6, fed6 <am_hal_queue_item_get+0x42>
    feb0:	6863      	ldr	r3, [r4, #4]
    feb2:	b1dd      	cbz	r5, feec <am_hal_queue_item_get+0x58>
    feb4:	4629      	mov	r1, r5
    feb6:	19af      	adds	r7, r5, r6
    feb8:	6962      	ldr	r2, [r4, #20]
    feba:	5cd3      	ldrb	r3, [r2, r3]
    febc:	f801 3b01 	strb.w	r3, [r1], #1
    fec0:	6863      	ldr	r3, [r4, #4]
    fec2:	68e5      	ldr	r5, [r4, #12]
    fec4:	3301      	adds	r3, #1
    fec6:	428f      	cmp	r7, r1
    fec8:	fbb3 f0f5 	udiv	r0, r3, r5
    fecc:	fb05 3310 	mls	r3, r5, r0, r3
    fed0:	6063      	str	r3, [r4, #4]
    fed2:	d1f1      	bne.n	feb8 <am_hal_queue_item_get+0x24>
    fed4:	68a2      	ldr	r2, [r4, #8]
    fed6:	1b92      	subs	r2, r2, r6
    fed8:	60a2      	str	r2, [r4, #8]
    feda:	2401      	movs	r4, #1
    fedc:	9801      	ldr	r0, [sp, #4]
    fede:	f7ff f895 	bl	f00c <am_hal_interrupt_master_set>
    fee2:	4620      	mov	r0, r4
    fee4:	b003      	add	sp, #12
    fee6:	bdf0      	pop	{r4, r5, r6, r7, pc}
    fee8:	2400      	movs	r4, #0
    feea:	e7f7      	b.n	fedc <am_hal_queue_item_get+0x48>
    feec:	68e0      	ldr	r0, [r4, #12]
    feee:	4629      	mov	r1, r5
    fef0:	3101      	adds	r1, #1
    fef2:	3301      	adds	r3, #1
    fef4:	428e      	cmp	r6, r1
    fef6:	fbb3 f5f0 	udiv	r5, r3, r0
    fefa:	fb00 3315 	mls	r3, r0, r5, r3
    fefe:	d1f7      	bne.n	fef0 <am_hal_queue_item_get+0x5c>
    ff00:	6063      	str	r3, [r4, #4]
    ff02:	e7e8      	b.n	fed6 <am_hal_queue_item_get+0x42>

0000ff04 <arm_rfft_fast_init_f32>:
    ff04:	084b      	lsrs	r3, r1, #1
    ff06:	2b80      	cmp	r3, #128	; 0x80
    ff08:	b410      	push	{r4}
    ff0a:	8201      	strh	r1, [r0, #16]
    ff0c:	8003      	strh	r3, [r0, #0]
    ff0e:	d046      	beq.n	ff9e <arm_rfft_fast_init_f32+0x9a>
    ff10:	d916      	bls.n	ff40 <arm_rfft_fast_init_f32+0x3c>
    ff12:	f5b3 7f00 	cmp.w	r3, #512	; 0x200
    ff16:	d03c      	beq.n	ff92 <arm_rfft_fast_init_f32+0x8e>
    ff18:	d928      	bls.n	ff6c <arm_rfft_fast_init_f32+0x68>
    ff1a:	f5b3 6f80 	cmp.w	r3, #1024	; 0x400
    ff1e:	d01f      	beq.n	ff60 <arm_rfft_fast_init_f32+0x5c>
    ff20:	f5b3 6f00 	cmp.w	r3, #2048	; 0x800
    ff24:	d112      	bne.n	ff4c <arm_rfft_fast_init_f32+0x48>
    ff26:	4920      	ldr	r1, [pc, #128]	; (ffa8 <arm_rfft_fast_init_f32+0xa4>)
    ff28:	4a20      	ldr	r2, [pc, #128]	; (ffac <arm_rfft_fast_init_f32+0xa8>)
    ff2a:	4b21      	ldr	r3, [pc, #132]	; (ffb0 <arm_rfft_fast_init_f32+0xac>)
    ff2c:	f44f 646e 	mov.w	r4, #3808	; 0xee0
    ff30:	8184      	strh	r4, [r0, #12]
    ff32:	6081      	str	r1, [r0, #8]
    ff34:	6042      	str	r2, [r0, #4]
    ff36:	6143      	str	r3, [r0, #20]
    ff38:	f85d 4b04 	ldr.w	r4, [sp], #4
    ff3c:	2000      	movs	r0, #0
    ff3e:	4770      	bx	lr
    ff40:	2b20      	cmp	r3, #32
    ff42:	d01c      	beq.n	ff7e <arm_rfft_fast_init_f32+0x7a>
    ff44:	2b40      	cmp	r3, #64	; 0x40
    ff46:	d006      	beq.n	ff56 <arm_rfft_fast_init_f32+0x52>
    ff48:	2b10      	cmp	r3, #16
    ff4a:	d01d      	beq.n	ff88 <arm_rfft_fast_init_f32+0x84>
    ff4c:	f04f 30ff 	mov.w	r0, #4294967295	; 0xffffffff
    ff50:	f85d 4b04 	ldr.w	r4, [sp], #4
    ff54:	4770      	bx	lr
    ff56:	2438      	movs	r4, #56	; 0x38
    ff58:	4916      	ldr	r1, [pc, #88]	; (ffb4 <arm_rfft_fast_init_f32+0xb0>)
    ff5a:	4a17      	ldr	r2, [pc, #92]	; (ffb8 <arm_rfft_fast_init_f32+0xb4>)
    ff5c:	4b17      	ldr	r3, [pc, #92]	; (ffbc <arm_rfft_fast_init_f32+0xb8>)
    ff5e:	e7e7      	b.n	ff30 <arm_rfft_fast_init_f32+0x2c>
    ff60:	f44f 64e1 	mov.w	r4, #1800	; 0x708
    ff64:	4916      	ldr	r1, [pc, #88]	; (ffc0 <arm_rfft_fast_init_f32+0xbc>)
    ff66:	4a17      	ldr	r2, [pc, #92]	; (ffc4 <arm_rfft_fast_init_f32+0xc0>)
    ff68:	4b17      	ldr	r3, [pc, #92]	; (ffc8 <arm_rfft_fast_init_f32+0xc4>)
    ff6a:	e7e1      	b.n	ff30 <arm_rfft_fast_init_f32+0x2c>
    ff6c:	f5b3 7f80 	cmp.w	r3, #256	; 0x100
    ff70:	d1ec      	bne.n	ff4c <arm_rfft_fast_init_f32+0x48>
    ff72:	f44f 74dc 	mov.w	r4, #440	; 0x1b8
    ff76:	4915      	ldr	r1, [pc, #84]	; (ffcc <arm_rfft_fast_init_f32+0xc8>)
    ff78:	4a15      	ldr	r2, [pc, #84]	; (ffd0 <arm_rfft_fast_init_f32+0xcc>)
    ff7a:	4b16      	ldr	r3, [pc, #88]	; (ffd4 <arm_rfft_fast_init_f32+0xd0>)
    ff7c:	e7d8      	b.n	ff30 <arm_rfft_fast_init_f32+0x2c>
    ff7e:	2430      	movs	r4, #48	; 0x30
    ff80:	4915      	ldr	r1, [pc, #84]	; (ffd8 <arm_rfft_fast_init_f32+0xd4>)
    ff82:	4a16      	ldr	r2, [pc, #88]	; (ffdc <arm_rfft_fast_init_f32+0xd8>)
    ff84:	4b16      	ldr	r3, [pc, #88]	; (ffe0 <arm_rfft_fast_init_f32+0xdc>)
    ff86:	e7d3      	b.n	ff30 <arm_rfft_fast_init_f32+0x2c>
    ff88:	2414      	movs	r4, #20
    ff8a:	4916      	ldr	r1, [pc, #88]	; (ffe4 <arm_rfft_fast_init_f32+0xe0>)
    ff8c:	4a16      	ldr	r2, [pc, #88]	; (ffe8 <arm_rfft_fast_init_f32+0xe4>)
    ff8e:	4b17      	ldr	r3, [pc, #92]	; (ffec <arm_rfft_fast_init_f32+0xe8>)
    ff90:	e7ce      	b.n	ff30 <arm_rfft_fast_init_f32+0x2c>
    ff92:	f44f 74e0 	mov.w	r4, #448	; 0x1c0
    ff96:	4916      	ldr	r1, [pc, #88]	; (fff0 <arm_rfft_fast_init_f32+0xec>)
    ff98:	4a16      	ldr	r2, [pc, #88]	; (fff4 <arm_rfft_fast_init_f32+0xf0>)
    ff9a:	4b17      	ldr	r3, [pc, #92]	; (fff8 <arm_rfft_fast_init_f32+0xf4>)
    ff9c:	e7c8      	b.n	ff30 <arm_rfft_fast_init_f32+0x2c>
    ff9e:	24d0      	movs	r4, #208	; 0xd0
    ffa0:	4916      	ldr	r1, [pc, #88]	; (fffc <arm_rfft_fast_init_f32+0xf8>)
    ffa2:	4a17      	ldr	r2, [pc, #92]	; (10000 <arm_rfft_fast_init_f32+0xfc>)
    ffa4:	4b17      	ldr	r3, [pc, #92]	; (10004 <arm_rfft_fast_init_f32+0x100>)
    ffa6:	e7c3      	b.n	ff30 <arm_rfft_fast_init_f32+0x2c>
    ffa8:	00020bb0 	.word	0x00020bb0
    ffac:	00011da8 	.word	0x00011da8
    ffb0:	00017f18 	.word	0x00017f18
    ffb4:	00015ea8 	.word	0x00015ea8
    ffb8:	00022970 	.word	0x00022970
    ffbc:	00024e60 	.word	0x00024e60
    ffc0:	0001e898 	.word	0x0001e898
    ffc4:	0001c798 	.word	0x0001c798
    ffc8:	00015f18 	.word	0x00015f18
    ffcc:	00024af0 	.word	0x00024af0
    ffd0:	0001bf18 	.word	0x0001bf18
    ffd4:	00022b70 	.word	0x00022b70
    ffd8:	0001f750 	.word	0x0001f750
    ffdc:	0001e798 	.word	0x0001e798
    ffe0:	00015da8 	.word	0x00015da8
    ffe4:	0001f6a8 	.word	0x0001f6a8
    ffe8:	0001c718 	.word	0x0001c718
    ffec:	0001f6d0 	.word	0x0001f6d0
    fff0:	00023370 	.word	0x00023370
    fff4:	0001fbb0 	.word	0x0001fbb0
    fff8:	000236f0 	.word	0x000236f0
    fffc:	00025060 	.word	0x00025060
   10000:	0001f7b0 	.word	0x0001f7b0
   10004:	000246f0 	.word	0x000246f0

00010008 <arm_rfft_fast_f32>:
   10008:	e92d 41f0 	stmdb	sp!, {r4, r5, r6, r7, r8, lr}
   1000c:	8a06      	ldrh	r6, [r0, #16]
   1000e:	0876      	lsrs	r6, r6, #1
   10010:	4607      	mov	r7, r0
   10012:	4615      	mov	r5, r2
   10014:	8006      	strh	r6, [r0, #0]
   10016:	460c      	mov	r4, r1
   10018:	2b00      	cmp	r3, #0
   1001a:	d15c      	bne.n	100d6 <arm_rfft_fast_f32+0xce>
   1001c:	461a      	mov	r2, r3
   1001e:	2301      	movs	r3, #1
   10020:	f000 fbe4 	bl	107ec <arm_cfft_f32>
   10024:	edd4 7a00 	vldr	s15, [r4]
   10028:	ed94 7a01 	vldr	s14, [r4, #4]
   1002c:	883e      	ldrh	r6, [r7, #0]
   1002e:	6978      	ldr	r0, [r7, #20]
   10030:	ee37 7a07 	vadd.f32	s14, s14, s14
   10034:	ee77 7aa7 	vadd.f32	s15, s15, s15
   10038:	eeb6 3a00 	vmov.f32	s6, #96	; 0x3f000000  0.5
   1003c:	ee77 6a87 	vadd.f32	s13, s15, s14
   10040:	ee77 7ac7 	vsub.f32	s15, s15, s14
   10044:	3e01      	subs	r6, #1
   10046:	ee26 7a83 	vmul.f32	s14, s13, s6
   1004a:	ee67 7a83 	vmul.f32	s15, s15, s6
   1004e:	eb04 03c6 	add.w	r3, r4, r6, lsl #3
   10052:	ed85 7a00 	vstr	s14, [r5]
   10056:	edc5 7a01 	vstr	s15, [r5, #4]
   1005a:	3010      	adds	r0, #16
   1005c:	f105 0210 	add.w	r2, r5, #16
   10060:	3b08      	subs	r3, #8
   10062:	f104 0110 	add.w	r1, r4, #16
   10066:	ed93 7a02 	vldr	s14, [r3, #8]
   1006a:	ed51 6a02 	vldr	s13, [r1, #-8]
   1006e:	ed10 6a02 	vldr	s12, [r0, #-8]
   10072:	edd3 3a03 	vldr	s7, [r3, #12]
   10076:	ed11 5a01 	vldr	s10, [r1, #-4]
   1007a:	ed50 5a01 	vldr	s11, [r0, #-4]
   1007e:	ee77 7a66 	vsub.f32	s15, s14, s13
   10082:	ee77 4a26 	vadd.f32	s9, s14, s13
   10086:	ee33 4a85 	vadd.f32	s8, s7, s10
   1008a:	ee66 6a27 	vmul.f32	s13, s12, s15
   1008e:	ee25 7aa7 	vmul.f32	s14, s11, s15
   10092:	ee35 5a63 	vsub.f32	s10, s10, s7
   10096:	ee76 6aa4 	vadd.f32	s13, s13, s9
   1009a:	ee77 7a05 	vadd.f32	s15, s14, s10
   1009e:	ee26 6a04 	vmul.f32	s12, s12, s8
   100a2:	ee65 5a84 	vmul.f32	s11, s11, s8
   100a6:	ee77 7ac6 	vsub.f32	s15, s15, s12
   100aa:	ee36 7aa5 	vadd.f32	s14, s13, s11
   100ae:	ee67 7a83 	vmul.f32	s15, s15, s6
   100b2:	ee27 7a03 	vmul.f32	s14, s14, s6
   100b6:	3e01      	subs	r6, #1
   100b8:	ed02 7a02 	vstr	s14, [r2, #-8]
   100bc:	ed42 7a01 	vstr	s15, [r2, #-4]
   100c0:	f1a3 0308 	sub.w	r3, r3, #8
   100c4:	f101 0108 	add.w	r1, r1, #8
   100c8:	f100 0008 	add.w	r0, r0, #8
   100cc:	f102 0208 	add.w	r2, r2, #8
   100d0:	d1c9      	bne.n	10066 <arm_rfft_fast_f32+0x5e>
   100d2:	e8bd 81f0 	ldmia.w	sp!, {r4, r5, r6, r7, r8, pc}
   100d6:	edd1 7a00 	vldr	s15, [r1]
   100da:	edd1 6a01 	vldr	s13, [r1, #4]
   100de:	6941      	ldr	r1, [r0, #20]
   100e0:	ee37 7aa6 	vadd.f32	s14, s15, s13
   100e4:	ee77 7ae6 	vsub.f32	s15, s15, s13
   100e8:	eef6 3a00 	vmov.f32	s7, #96	; 0x3f000000  0.5
   100ec:	ee27 7a23 	vmul.f32	s14, s14, s7
   100f0:	ee67 7aa3 	vmul.f32	s15, s15, s7
   100f4:	3e01      	subs	r6, #1
   100f6:	ed82 7a00 	vstr	s14, [r2]
   100fa:	edc2 7a01 	vstr	s15, [r2, #4]
   100fe:	00f0      	lsls	r0, r6, #3
   10100:	b3ee      	cbz	r6, 1017e <arm_rfft_fast_f32+0x176>
   10102:	3808      	subs	r0, #8
   10104:	f101 0e10 	add.w	lr, r1, #16
   10108:	4420      	add	r0, r4
   1010a:	f104 0110 	add.w	r1, r4, #16
   1010e:	f102 0c10 	add.w	ip, r2, #16
   10112:	ed90 7a02 	vldr	s14, [r0, #8]
   10116:	ed51 6a02 	vldr	s13, [r1, #-8]
   1011a:	ed1e 6a02 	vldr	s12, [lr, #-8]
   1011e:	ed90 4a03 	vldr	s8, [r0, #12]
   10122:	ed11 5a01 	vldr	s10, [r1, #-4]
   10126:	ed5e 5a01 	vldr	s11, [lr, #-4]
   1012a:	ee76 7ac7 	vsub.f32	s15, s13, s14
   1012e:	ee74 4a05 	vadd.f32	s9, s8, s10
   10132:	ee26 3a27 	vmul.f32	s6, s12, s15
   10136:	ee77 6a26 	vadd.f32	s13, s14, s13
   1013a:	ee35 5a44 	vsub.f32	s10, s10, s8
   1013e:	ee25 7aa7 	vmul.f32	s14, s11, s15
   10142:	ee76 6ac3 	vsub.f32	s13, s13, s6
   10146:	ee77 7a05 	vadd.f32	s15, s14, s10
   1014a:	ee26 6a24 	vmul.f32	s12, s12, s9
   1014e:	ee65 5aa4 	vmul.f32	s11, s11, s9
   10152:	ee77 7ac6 	vsub.f32	s15, s15, s12
   10156:	ee36 7ae5 	vsub.f32	s14, s13, s11
   1015a:	ee67 7aa3 	vmul.f32	s15, s15, s7
   1015e:	ee27 7a23 	vmul.f32	s14, s14, s7
   10162:	3e01      	subs	r6, #1
   10164:	ed0c 7a02 	vstr	s14, [ip, #-8]
   10168:	ed4c 7a01 	vstr	s15, [ip, #-4]
   1016c:	f1a0 0008 	sub.w	r0, r0, #8
   10170:	f101 0108 	add.w	r1, r1, #8
   10174:	f10e 0e08 	add.w	lr, lr, #8
   10178:	f10c 0c08 	add.w	ip, ip, #8
   1017c:	d1c9      	bne.n	10112 <arm_rfft_fast_f32+0x10a>
   1017e:	461a      	mov	r2, r3
   10180:	4629      	mov	r1, r5
   10182:	4638      	mov	r0, r7
   10184:	2301      	movs	r3, #1
   10186:	e8bd 41f0 	ldmia.w	sp!, {r4, r5, r6, r7, r8, lr}
   1018a:	f000 bb2f 	b.w	107ec <arm_cfft_f32>
   1018e:	bf00      	nop

00010190 <arm_cfft_radix8by2_f32>:
   10190:	e92d 41f0 	stmdb	sp!, {r4, r5, r6, r7, r8, lr}
   10194:	ed2d 8b08 	vpush	{d8-d11}
   10198:	4607      	mov	r7, r0
   1019a:	4608      	mov	r0, r1
   1019c:	f8b7 e000 	ldrh.w	lr, [r7]
   101a0:	687a      	ldr	r2, [r7, #4]
   101a2:	ea4f 015e 	mov.w	r1, lr, lsr #1
   101a6:	eb00 088e 	add.w	r8, r0, lr, lsl #2
   101aa:	ea5f 0ede 	movs.w	lr, lr, lsr #3
   101ae:	f000 80b0 	beq.w	10312 <arm_cfft_radix8by2_f32+0x182>
   101b2:	008b      	lsls	r3, r1, #2
   101b4:	3310      	adds	r3, #16
   101b6:	18c6      	adds	r6, r0, r3
   101b8:	3210      	adds	r2, #16
   101ba:	4443      	add	r3, r8
   101bc:	f100 0510 	add.w	r5, r0, #16
   101c0:	f108 0410 	add.w	r4, r8, #16
   101c4:	ed54 1a04 	vldr	s3, [r4, #-16]
   101c8:	ed54 6a03 	vldr	s13, [r4, #-12]
   101cc:	ed13 4a04 	vldr	s8, [r3, #-16]
   101d0:	ed53 3a03 	vldr	s7, [r3, #-12]
   101d4:	ed53 5a02 	vldr	s11, [r3, #-8]
   101d8:	ed13 5a01 	vldr	s10, [r3, #-4]
   101dc:	ed14 0a02 	vldr	s0, [r4, #-8]
   101e0:	ed54 7a01 	vldr	s15, [r4, #-4]
   101e4:	ed16 2a04 	vldr	s4, [r6, #-16]
   101e8:	ed56 2a03 	vldr	s5, [r6, #-12]
   101ec:	ed15 6a03 	vldr	s12, [r5, #-12]
   101f0:	ed15 7a01 	vldr	s14, [r5, #-4]
   101f4:	ed15 3a04 	vldr	s6, [r5, #-16]
   101f8:	ed56 0a02 	vldr	s1, [r6, #-8]
   101fc:	ed16 1a01 	vldr	s2, [r6, #-4]
   10200:	ed55 4a02 	vldr	s9, [r5, #-8]
   10204:	ee73 ba21 	vadd.f32	s23, s6, s3
   10208:	ee36 ba26 	vadd.f32	s22, s12, s13
   1020c:	ee37 aa27 	vadd.f32	s20, s14, s15
   10210:	ee72 9a04 	vadd.f32	s19, s4, s8
   10214:	ee32 9aa3 	vadd.f32	s18, s5, s7
   10218:	ee31 8a05 	vadd.f32	s16, s2, s10
   1021c:	ee74 aa80 	vadd.f32	s21, s9, s0
   10220:	ee70 8aa5 	vadd.f32	s17, s1, s11
   10224:	ed45 ba04 	vstr	s23, [r5, #-16]
   10228:	ed05 ba03 	vstr	s22, [r5, #-12]
   1022c:	ed45 aa02 	vstr	s21, [r5, #-8]
   10230:	ed05 aa01 	vstr	s20, [r5, #-4]
   10234:	ed06 8a01 	vstr	s16, [r6, #-4]
   10238:	ed46 9a04 	vstr	s19, [r6, #-16]
   1023c:	ed06 9a03 	vstr	s18, [r6, #-12]
   10240:	ed46 8a02 	vstr	s17, [r6, #-8]
   10244:	ee76 6a66 	vsub.f32	s13, s12, s13
   10248:	ee73 3ae2 	vsub.f32	s7, s7, s5
   1024c:	ed12 6a03 	vldr	s12, [r2, #-12]
   10250:	ed52 2a04 	vldr	s5, [r2, #-16]
   10254:	ee33 3a61 	vsub.f32	s6, s6, s3
   10258:	ee34 4a42 	vsub.f32	s8, s8, s4
   1025c:	ee26 8a86 	vmul.f32	s16, s13, s12
   10260:	ee24 2a06 	vmul.f32	s4, s8, s12
   10264:	ee63 1a22 	vmul.f32	s3, s6, s5
   10268:	ee24 4a22 	vmul.f32	s8, s8, s5
   1026c:	ee23 3a06 	vmul.f32	s6, s6, s12
   10270:	ee66 6aa2 	vmul.f32	s13, s13, s5
   10274:	ee23 6a86 	vmul.f32	s12, s7, s12
   10278:	ee63 3aa2 	vmul.f32	s7, s7, s5
   1027c:	ee36 6a04 	vadd.f32	s12, s12, s8
   10280:	ee76 6ac3 	vsub.f32	s13, s13, s6
   10284:	ee72 3a63 	vsub.f32	s7, s4, s7
   10288:	ee71 2a88 	vadd.f32	s5, s3, s16
   1028c:	ed44 6a03 	vstr	s13, [r4, #-12]
   10290:	ed44 2a04 	vstr	s5, [r4, #-16]
   10294:	ed43 3a04 	vstr	s7, [r3, #-16]
   10298:	ed03 6a03 	vstr	s12, [r3, #-12]
   1029c:	ee77 7a67 	vsub.f32	s15, s14, s15
   102a0:	ee75 6ae0 	vsub.f32	s13, s11, s1
   102a4:	ed12 7a01 	vldr	s14, [r2, #-4]
   102a8:	ed52 5a02 	vldr	s11, [r2, #-8]
   102ac:	ee35 6a41 	vsub.f32	s12, s10, s2
   102b0:	ee74 4ac0 	vsub.f32	s9, s9, s0
   102b4:	ee67 3a87 	vmul.f32	s7, s15, s14
   102b8:	ee26 5a87 	vmul.f32	s10, s13, s14
   102bc:	ee24 4aa5 	vmul.f32	s8, s9, s11
   102c0:	ee67 7aa5 	vmul.f32	s15, s15, s11
   102c4:	ee64 4a87 	vmul.f32	s9, s9, s14
   102c8:	ee66 6aa5 	vmul.f32	s13, s13, s11
   102cc:	ee26 7a07 	vmul.f32	s14, s12, s14
   102d0:	ee26 6a25 	vmul.f32	s12, s12, s11
   102d4:	ee77 7ae4 	vsub.f32	s15, s15, s9
   102d8:	ee74 5a23 	vadd.f32	s11, s8, s7
   102dc:	ee35 6a46 	vsub.f32	s12, s10, s12
   102e0:	ee37 7a26 	vadd.f32	s14, s14, s13
   102e4:	f1be 0e01 	subs.w	lr, lr, #1
   102e8:	ed44 5a02 	vstr	s11, [r4, #-8]
   102ec:	f105 0510 	add.w	r5, r5, #16
   102f0:	ed44 7a01 	vstr	s15, [r4, #-4]
   102f4:	f106 0610 	add.w	r6, r6, #16
   102f8:	ed03 6a02 	vstr	s12, [r3, #-8]
   102fc:	ed03 7a01 	vstr	s14, [r3, #-4]
   10300:	f102 0210 	add.w	r2, r2, #16
   10304:	f104 0410 	add.w	r4, r4, #16
   10308:	f103 0310 	add.w	r3, r3, #16
   1030c:	f47f af5a 	bne.w	101c4 <arm_cfft_radix8by2_f32+0x34>
   10310:	687a      	ldr	r2, [r7, #4]
   10312:	b28c      	uxth	r4, r1
   10314:	4621      	mov	r1, r4
   10316:	2302      	movs	r3, #2
   10318:	f000 fae2 	bl	108e0 <arm_radix8_butterfly_f32>
   1031c:	ecbd 8b08 	vpop	{d8-d11}
   10320:	4621      	mov	r1, r4
   10322:	687a      	ldr	r2, [r7, #4]
   10324:	4640      	mov	r0, r8
   10326:	2302      	movs	r3, #2
   10328:	e8bd 41f0 	ldmia.w	sp!, {r4, r5, r6, r7, r8, lr}
   1032c:	f000 bad8 	b.w	108e0 <arm_radix8_butterfly_f32>

00010330 <arm_cfft_radix8by4_f32>:
   10330:	e92d 4ff0 	stmdb	sp!, {r4, r5, r6, r7, r8, r9, sl, fp, lr}
   10334:	ed2d 8b0a 	vpush	{d8-d12}
   10338:	8802      	ldrh	r2, [r0, #0]
   1033a:	ed91 6a00 	vldr	s12, [r1]
   1033e:	b08f      	sub	sp, #60	; 0x3c
   10340:	460f      	mov	r7, r1
   10342:	0852      	lsrs	r2, r2, #1
   10344:	6841      	ldr	r1, [r0, #4]
   10346:	900c      	str	r0, [sp, #48]	; 0x30
   10348:	0093      	lsls	r3, r2, #2
   1034a:	4638      	mov	r0, r7
   1034c:	4418      	add	r0, r3
   1034e:	4606      	mov	r6, r0
   10350:	9009      	str	r0, [sp, #36]	; 0x24
   10352:	4418      	add	r0, r3
   10354:	edd0 6a00 	vldr	s13, [r0]
   10358:	ed96 4a00 	vldr	s8, [r6]
   1035c:	edd6 2a01 	vldr	s5, [r6, #4]
   10360:	edd0 7a01 	vldr	s15, [r0, #4]
   10364:	900a      	str	r0, [sp, #40]	; 0x28
   10366:	ee76 5a26 	vadd.f32	s11, s12, s13
   1036a:	4604      	mov	r4, r0
   1036c:	4625      	mov	r5, r4
   1036e:	441c      	add	r4, r3
   10370:	edd4 4a00 	vldr	s9, [r4]
   10374:	ed97 7a01 	vldr	s14, [r7, #4]
   10378:	ed94 3a01 	vldr	s6, [r4, #4]
   1037c:	9401      	str	r4, [sp, #4]
   1037e:	ee35 5a84 	vadd.f32	s10, s11, s8
   10382:	4630      	mov	r0, r6
   10384:	ee35 5a24 	vadd.f32	s10, s10, s9
   10388:	463e      	mov	r6, r7
   1038a:	ee15 ea10 	vmov	lr, s10
   1038e:	ee76 6a66 	vsub.f32	s13, s12, s13
   10392:	f846 eb08 	str.w	lr, [r6], #8
   10396:	ee37 6a27 	vadd.f32	s12, s14, s15
   1039a:	ed90 5a01 	vldr	s10, [r0, #4]
   1039e:	9605      	str	r6, [sp, #20]
   103a0:	ee77 7a67 	vsub.f32	s15, s14, s15
   103a4:	9e01      	ldr	r6, [sp, #4]
   103a6:	9707      	str	r7, [sp, #28]
   103a8:	ee76 3aa2 	vadd.f32	s7, s13, s5
   103ac:	ed96 2a01 	vldr	s4, [r6, #4]
   103b0:	ee36 7a05 	vadd.f32	s14, s12, s10
   103b4:	ee75 5ac4 	vsub.f32	s11, s11, s8
   103b8:	ee37 5ac4 	vsub.f32	s10, s15, s8
   103bc:	ee77 7a84 	vadd.f32	s15, s15, s8
   103c0:	ee33 4ac3 	vsub.f32	s8, s7, s6
   103c4:	4604      	mov	r4, r0
   103c6:	46a3      	mov	fp, r4
   103c8:	ee37 7a02 	vadd.f32	s14, s14, s4
   103cc:	ee35 5a24 	vadd.f32	s10, s10, s9
   103d0:	ee14 8a10 	vmov	r8, s8
   103d4:	46a4      	mov	ip, r4
   103d6:	ee75 5ae4 	vsub.f32	s11, s11, s9
   103da:	ed87 7a01 	vstr	s14, [r7, #4]
   103de:	f84b 8b08 	str.w	r8, [fp], #8
   103e2:	f1ac 0704 	sub.w	r7, ip, #4
   103e6:	ed8c 5a01 	vstr	s10, [ip, #4]
   103ea:	f101 0c08 	add.w	ip, r1, #8
   103ee:	462c      	mov	r4, r5
   103f0:	f8cd c010 	str.w	ip, [sp, #16]
   103f4:	ee15 ca90 	vmov	ip, s11
   103f8:	ee36 6a62 	vsub.f32	s12, s12, s5
   103fc:	f844 cb08 	str.w	ip, [r4], #8
   10400:	ee76 6ae2 	vsub.f32	s13, s13, s5
   10404:	ee36 6a43 	vsub.f32	s12, s12, s6
   10408:	9406      	str	r4, [sp, #24]
   1040a:	ee76 6a83 	vadd.f32	s13, s13, s6
   1040e:	f101 0410 	add.w	r4, r1, #16
   10412:	0852      	lsrs	r2, r2, #1
   10414:	9402      	str	r4, [sp, #8]
   10416:	ed85 6a01 	vstr	s12, [r5, #4]
   1041a:	462c      	mov	r4, r5
   1041c:	f101 0518 	add.w	r5, r1, #24
   10420:	920b      	str	r2, [sp, #44]	; 0x2c
   10422:	46b2      	mov	sl, r6
   10424:	9503      	str	r5, [sp, #12]
   10426:	ee77 7ae4 	vsub.f32	s15, s15, s9
   1042a:	3a02      	subs	r2, #2
   1042c:	ee16 5a90 	vmov	r5, s13
   10430:	46b6      	mov	lr, r6
   10432:	4630      	mov	r0, r6
   10434:	0852      	lsrs	r2, r2, #1
   10436:	f84a 5b08 	str.w	r5, [sl], #8
   1043a:	f1a0 0604 	sub.w	r6, r0, #4
   1043e:	edce 7a01 	vstr	s15, [lr, #4]
   10442:	9208      	str	r2, [sp, #32]
   10444:	f000 8130 	beq.w	106a8 <arm_cfft_radix8by4_f32+0x378>
   10448:	4691      	mov	r9, r2
   1044a:	9a07      	ldr	r2, [sp, #28]
   1044c:	f8dd 8008 	ldr.w	r8, [sp, #8]
   10450:	f8cd a034 	str.w	sl, [sp, #52]	; 0x34
   10454:	3b08      	subs	r3, #8
   10456:	f102 0510 	add.w	r5, r2, #16
   1045a:	f101 0c20 	add.w	ip, r1, #32
   1045e:	f1a4 020c 	sub.w	r2, r4, #12
   10462:	f101 0e30 	add.w	lr, r1, #48	; 0x30
   10466:	4433      	add	r3, r6
   10468:	3410      	adds	r4, #16
   1046a:	4650      	mov	r0, sl
   1046c:	4659      	mov	r1, fp
   1046e:	ed55 3a02 	vldr	s7, [r5, #-8]
   10472:	ed14 5a02 	vldr	s10, [r4, #-8]
   10476:	ed91 7a00 	vldr	s14, [r1]
   1047a:	edd0 7a00 	vldr	s15, [r0]
   1047e:	ed54 5a01 	vldr	s11, [r4, #-4]
   10482:	ed15 4a01 	vldr	s8, [r5, #-4]
   10486:	edd0 6a01 	vldr	s13, [r0, #4]
   1048a:	ed91 6a01 	vldr	s12, [r1, #4]
   1048e:	ee33 8a85 	vadd.f32	s16, s7, s10
   10492:	ee34 0a25 	vadd.f32	s0, s8, s11
   10496:	ee78 4a07 	vadd.f32	s9, s16, s14
   1049a:	ee74 5a65 	vsub.f32	s11, s8, s11
   1049e:	ee74 4aa7 	vadd.f32	s9, s9, s15
   104a2:	ee33 5ac5 	vsub.f32	s10, s7, s10
   104a6:	ed45 4a02 	vstr	s9, [r5, #-8]
   104aa:	edd1 4a01 	vldr	s9, [r1, #4]
   104ae:	ed90 4a01 	vldr	s8, [r0, #4]
   104b2:	ee70 4a24 	vadd.f32	s9, s0, s9
   104b6:	ee75 aa06 	vadd.f32	s21, s10, s12
   104ba:	ee74 4a84 	vadd.f32	s9, s9, s8
   104be:	ee35 aac7 	vsub.f32	s20, s11, s14
   104c2:	ed45 4a01 	vstr	s9, [r5, #-4]
   104c6:	edd6 1a00 	vldr	s3, [r6]
   104ca:	edd7 0a00 	vldr	s1, [r7]
   104ce:	ed92 4a02 	vldr	s8, [r2, #8]
   104d2:	edd3 3a02 	vldr	s7, [r3, #8]
   104d6:	ed93 2a01 	vldr	s4, [r3, #4]
   104da:	ed16 1a01 	vldr	s2, [r6, #-4]
   104de:	edd2 2a01 	vldr	s5, [r2, #4]
   104e2:	ed57 9a01 	vldr	s19, [r7, #-4]
   104e6:	ee70 4aa1 	vadd.f32	s9, s1, s3
   104ea:	ee39 3a81 	vadd.f32	s6, s19, s2
   104ee:	ee74 8a84 	vadd.f32	s17, s9, s8
   104f2:	ee70 1ae1 	vsub.f32	s3, s1, s3
   104f6:	ee78 8aa3 	vadd.f32	s17, s17, s7
   104fa:	ee7a aae6 	vsub.f32	s21, s21, s13
   104fe:	ee18 aa90 	vmov	sl, s17
   10502:	f847 a908 	str.w	sl, [r7], #-8
   10506:	edd2 8a01 	vldr	s17, [r2, #4]
   1050a:	ed93 9a01 	vldr	s18, [r3, #4]
   1050e:	ee73 8a28 	vadd.f32	s17, s6, s17
   10512:	ee3a aa27 	vadd.f32	s20, s20, s15
   10516:	ee78 8a89 	vadd.f32	s17, s17, s18
   1051a:	ee74 0a63 	vsub.f32	s1, s8, s7
   1051e:	edc7 8a01 	vstr	s17, [r7, #4]
   10522:	ed18 ba02 	vldr	s22, [r8, #-8]
   10526:	ed58 8a01 	vldr	s17, [r8, #-4]
   1052a:	ee39 1ac1 	vsub.f32	s2, s19, s2
   1052e:	ee6a ba28 	vmul.f32	s23, s20, s17
   10532:	ee2a ca8b 	vmul.f32	s24, s21, s22
   10536:	ee71 9ae2 	vsub.f32	s19, s3, s5
   1053a:	ee31 9a20 	vadd.f32	s18, s2, s1
   1053e:	ee79 9a82 	vadd.f32	s19, s19, s4
   10542:	ee3c ca2b 	vadd.f32	s24, s24, s23
   10546:	ee6a aaa8 	vmul.f32	s21, s21, s17
   1054a:	ee69 baa8 	vmul.f32	s23, s19, s17
   1054e:	ee2a aa0b 	vmul.f32	s20, s20, s22
   10552:	ee69 9a8b 	vmul.f32	s19, s19, s22
   10556:	ee69 8a28 	vmul.f32	s17, s18, s17
   1055a:	ee29 ba0b 	vmul.f32	s22, s18, s22
   1055e:	ee1c aa10 	vmov	sl, s24
   10562:	ee78 8aa9 	vadd.f32	s17, s17, s19
   10566:	f841 ab08 	str.w	sl, [r1], #8
   1056a:	ee3a aa6a 	vsub.f32	s20, s20, s21
   1056e:	ee3b bacb 	vsub.f32	s22, s23, s22
   10572:	ee34 4ac4 	vsub.f32	s8, s9, s8
   10576:	ee33 3a62 	vsub.f32	s6, s6, s5
   1057a:	ed01 aa01 	vstr	s20, [r1, #-4]
   1057e:	edc2 8a01 	vstr	s17, [r2, #4]
   10582:	ed82 ba02 	vstr	s22, [r2, #8]
   10586:	ed5c 4a04 	vldr	s9, [ip, #-16]
   1058a:	ee74 3a63 	vsub.f32	s7, s8, s7
   1058e:	ee38 8a47 	vsub.f32	s16, s16, s14
   10592:	ed1c 4a03 	vldr	s8, [ip, #-12]
   10596:	ee30 0a46 	vsub.f32	s0, s0, s12
   1059a:	ee33 3a42 	vsub.f32	s6, s6, s4
   1059e:	ee38 8a67 	vsub.f32	s16, s16, s15
   105a2:	ee30 0a66 	vsub.f32	s0, s0, s13
   105a6:	ee23 9ae4 	vnmul.f32	s18, s7, s9
   105aa:	ee63 8a04 	vmul.f32	s17, s6, s8
   105ae:	ee28 aa24 	vmul.f32	s20, s16, s9
   105b2:	ee60 9a04 	vmul.f32	s19, s0, s8
   105b6:	ee28 8a04 	vmul.f32	s16, s16, s8
   105ba:	ee20 0a24 	vmul.f32	s0, s0, s9
   105be:	ee63 3a84 	vmul.f32	s7, s7, s8
   105c2:	ee39 4a68 	vsub.f32	s8, s18, s17
   105c6:	ee7a 9a29 	vadd.f32	s19, s20, s19
   105ca:	ee14 aa10 	vmov	sl, s8
   105ce:	ee30 0a48 	vsub.f32	s0, s0, s16
   105d2:	ee63 4a24 	vmul.f32	s9, s6, s9
   105d6:	ed44 9a02 	vstr	s19, [r4, #-8]
   105da:	ee73 3ae4 	vsub.f32	s7, s7, s9
   105de:	ed04 0a01 	vstr	s0, [r4, #-4]
   105e2:	f846 a908 	str.w	sl, [r6], #-8
   105e6:	ee35 6a46 	vsub.f32	s12, s10, s12
   105ea:	ee35 7a87 	vadd.f32	s14, s11, s14
   105ee:	edc6 3a01 	vstr	s7, [r6, #4]
   105f2:	ee76 6a26 	vadd.f32	s13, s12, s13
   105f6:	ee77 7a67 	vsub.f32	s15, s14, s15
   105fa:	ed1e 6a05 	vldr	s12, [lr, #-20]	; 0xffffffec
   105fe:	ed1e 7a06 	vldr	s14, [lr, #-24]	; 0xffffffe8
   10602:	ee67 5a86 	vmul.f32	s11, s15, s12
   10606:	ee26 5a87 	vmul.f32	s10, s13, s14
   1060a:	ee72 2a62 	vsub.f32	s5, s4, s5
   1060e:	ee30 1ac1 	vsub.f32	s2, s1, s2
   10612:	ee72 2ae1 	vsub.f32	s5, s5, s3
   10616:	ee75 5a25 	vadd.f32	s11, s10, s11
   1061a:	ee62 0a86 	vmul.f32	s1, s5, s12
   1061e:	ee66 6a86 	vmul.f32	s13, s13, s12
   10622:	ee67 7a87 	vmul.f32	s15, s15, s14
   10626:	ee21 6a06 	vmul.f32	s12, s2, s12
   1062a:	ee62 2a87 	vmul.f32	s5, s5, s14
   1062e:	ee21 1a07 	vmul.f32	s2, s2, s14
   10632:	ee15 aa90 	vmov	sl, s11
   10636:	ee77 7ae6 	vsub.f32	s15, s15, s13
   1063a:	f840 ab08 	str.w	sl, [r0], #8
   1063e:	ee30 1ac1 	vsub.f32	s2, s1, s2
   10642:	ee76 2a22 	vadd.f32	s5, s12, s5
   10646:	f1b9 0901 	subs.w	r9, r9, #1
   1064a:	ed40 7a01 	vstr	s15, [r0, #-4]
   1064e:	f105 0508 	add.w	r5, r5, #8
   10652:	ed83 1a02 	vstr	s2, [r3, #8]
   10656:	edc3 2a01 	vstr	s5, [r3, #4]
   1065a:	f108 0808 	add.w	r8, r8, #8
   1065e:	f1a2 0208 	sub.w	r2, r2, #8
   10662:	f10c 0c10 	add.w	ip, ip, #16
   10666:	f104 0408 	add.w	r4, r4, #8
   1066a:	f10e 0e18 	add.w	lr, lr, #24
   1066e:	f1a3 0308 	sub.w	r3, r3, #8
   10672:	f47f aefc 	bne.w	1046e <arm_cfft_radix8by4_f32+0x13e>
   10676:	9908      	ldr	r1, [sp, #32]
   10678:	9802      	ldr	r0, [sp, #8]
   1067a:	f8dd a034 	ldr.w	sl, [sp, #52]	; 0x34
   1067e:	00cb      	lsls	r3, r1, #3
   10680:	eb01 0241 	add.w	r2, r1, r1, lsl #1
   10684:	eb00 1101 	add.w	r1, r0, r1, lsl #4
   10688:	9102      	str	r1, [sp, #8]
   1068a:	9905      	ldr	r1, [sp, #20]
   1068c:	4419      	add	r1, r3
   1068e:	9105      	str	r1, [sp, #20]
   10690:	9904      	ldr	r1, [sp, #16]
   10692:	4419      	add	r1, r3
   10694:	9104      	str	r1, [sp, #16]
   10696:	9906      	ldr	r1, [sp, #24]
   10698:	449b      	add	fp, r3
   1069a:	4419      	add	r1, r3
   1069c:	449a      	add	sl, r3
   1069e:	9b03      	ldr	r3, [sp, #12]
   106a0:	9106      	str	r1, [sp, #24]
   106a2:	eb03 03c2 	add.w	r3, r3, r2, lsl #3
   106a6:	9303      	str	r3, [sp, #12]
   106a8:	9a05      	ldr	r2, [sp, #20]
   106aa:	9806      	ldr	r0, [sp, #24]
   106ac:	ed92 4a00 	vldr	s8, [r2]
   106b0:	ed90 7a00 	vldr	s14, [r0]
   106b4:	ed9b 3a00 	vldr	s6, [fp]
   106b8:	edda 3a00 	vldr	s7, [sl]
   106bc:	edd2 4a01 	vldr	s9, [r2, #4]
   106c0:	edd0 6a01 	vldr	s13, [r0, #4]
   106c4:	ed9a 2a01 	vldr	s4, [sl, #4]
   106c8:	eddb 7a01 	vldr	s15, [fp, #4]
   106cc:	f8bd 402c 	ldrh.w	r4, [sp, #44]	; 0x2c
   106d0:	9e0c      	ldr	r6, [sp, #48]	; 0x30
   106d2:	ee34 6a07 	vadd.f32	s12, s8, s14
   106d6:	ee74 5aa6 	vadd.f32	s11, s9, s13
   106da:	ee36 5a03 	vadd.f32	s10, s12, s6
   106de:	ee74 6ae6 	vsub.f32	s13, s9, s13
   106e2:	ee35 5a23 	vadd.f32	s10, s10, s7
   106e6:	ee34 7a47 	vsub.f32	s14, s8, s14
   106ea:	ed82 5a00 	vstr	s10, [r2]
   106ee:	ed9b 5a01 	vldr	s10, [fp, #4]
   106f2:	edda 4a01 	vldr	s9, [sl, #4]
   106f6:	ee35 5a85 	vadd.f32	s10, s11, s10
   106fa:	ee37 4a27 	vadd.f32	s8, s14, s15
   106fe:	ee35 5a24 	vadd.f32	s10, s10, s9
   10702:	ee76 4ac3 	vsub.f32	s9, s13, s6
   10706:	ed82 5a01 	vstr	s10, [r2, #4]
   1070a:	9a04      	ldr	r2, [sp, #16]
   1070c:	ee34 5aa3 	vadd.f32	s10, s9, s7
   10710:	edd2 1a00 	vldr	s3, [r2]
   10714:	edd2 2a01 	vldr	s5, [r2, #4]
   10718:	9a02      	ldr	r2, [sp, #8]
   1071a:	ee34 4a42 	vsub.f32	s8, s8, s4
   1071e:	ee36 6a43 	vsub.f32	s12, s12, s6
   10722:	ee64 4a21 	vmul.f32	s9, s8, s3
   10726:	ee24 4a22 	vmul.f32	s8, s8, s5
   1072a:	ee65 2a22 	vmul.f32	s5, s10, s5
   1072e:	ee25 5a21 	vmul.f32	s10, s10, s3
   10732:	ee74 2aa2 	vadd.f32	s5, s9, s5
   10736:	ee35 5a44 	vsub.f32	s10, s10, s8
   1073a:	ee75 5ae7 	vsub.f32	s11, s11, s15
   1073e:	edcb 2a00 	vstr	s5, [fp]
   10742:	ed8b 5a01 	vstr	s10, [fp, #4]
   10746:	ed92 4a01 	vldr	s8, [r2, #4]
   1074a:	ed92 5a00 	vldr	s10, [r2]
   1074e:	9a03      	ldr	r2, [sp, #12]
   10750:	ee36 6a63 	vsub.f32	s12, s12, s7
   10754:	ee75 5ac2 	vsub.f32	s11, s11, s4
   10758:	ee66 4a05 	vmul.f32	s9, s12, s10
   1075c:	ee25 5a85 	vmul.f32	s10, s11, s10
   10760:	ee26 6a04 	vmul.f32	s12, s12, s8
   10764:	ee65 5a84 	vmul.f32	s11, s11, s8
   10768:	ee35 6a46 	vsub.f32	s12, s10, s12
   1076c:	ee74 5aa5 	vadd.f32	s11, s9, s11
   10770:	ee76 6a83 	vadd.f32	s13, s13, s6
   10774:	ee37 7a67 	vsub.f32	s14, s14, s15
   10778:	ed80 6a01 	vstr	s12, [r0, #4]
   1077c:	edc0 5a00 	vstr	s11, [r0]
   10780:	edd2 5a01 	vldr	s11, [r2, #4]
   10784:	9807      	ldr	r0, [sp, #28]
   10786:	ee77 7a02 	vadd.f32	s15, s14, s4
   1078a:	ee36 7ae3 	vsub.f32	s14, s13, s7
   1078e:	edd2 6a00 	vldr	s13, [r2]
   10792:	ee27 6aa6 	vmul.f32	s12, s15, s13
   10796:	ee67 6a26 	vmul.f32	s13, s14, s13
   1079a:	ee67 7aa5 	vmul.f32	s15, s15, s11
   1079e:	ee27 7a25 	vmul.f32	s14, s14, s11
   107a2:	ee76 7ae7 	vsub.f32	s15, s13, s15
   107a6:	ee36 7a07 	vadd.f32	s14, s12, s14
   107aa:	edca 7a01 	vstr	s15, [sl, #4]
   107ae:	ed8a 7a00 	vstr	s14, [sl]
   107b2:	6872      	ldr	r2, [r6, #4]
   107b4:	4621      	mov	r1, r4
   107b6:	2304      	movs	r3, #4
   107b8:	f000 f892 	bl	108e0 <arm_radix8_butterfly_f32>
   107bc:	9809      	ldr	r0, [sp, #36]	; 0x24
   107be:	6872      	ldr	r2, [r6, #4]
   107c0:	4621      	mov	r1, r4
   107c2:	2304      	movs	r3, #4
   107c4:	f000 f88c 	bl	108e0 <arm_radix8_butterfly_f32>
   107c8:	980a      	ldr	r0, [sp, #40]	; 0x28
   107ca:	6872      	ldr	r2, [r6, #4]
   107cc:	4621      	mov	r1, r4
   107ce:	2304      	movs	r3, #4
   107d0:	f000 f886 	bl	108e0 <arm_radix8_butterfly_f32>
   107d4:	6872      	ldr	r2, [r6, #4]
   107d6:	9801      	ldr	r0, [sp, #4]
   107d8:	4621      	mov	r1, r4
   107da:	2304      	movs	r3, #4
   107dc:	b00f      	add	sp, #60	; 0x3c
   107de:	ecbd 8b0a 	vpop	{d8-d12}
   107e2:	e8bd 4ff0 	ldmia.w	sp!, {r4, r5, r6, r7, r8, r9, sl, fp, lr}
   107e6:	f000 b87b 	b.w	108e0 <arm_radix8_butterfly_f32>
   107ea:	bf00      	nop

000107ec <arm_cfft_f32>:
   107ec:	e92d 41f0 	stmdb	sp!, {r4, r5, r6, r7, r8, lr}
   107f0:	2a01      	cmp	r2, #1
   107f2:	4606      	mov	r6, r0
   107f4:	4617      	mov	r7, r2
   107f6:	460c      	mov	r4, r1
   107f8:	4698      	mov	r8, r3
   107fa:	8805      	ldrh	r5, [r0, #0]
   107fc:	d054      	beq.n	108a8 <arm_cfft_f32+0xbc>
   107fe:	f5b5 7f80 	cmp.w	r5, #256	; 0x100
   10802:	d04c      	beq.n	1089e <arm_cfft_f32+0xb2>
   10804:	d916      	bls.n	10834 <arm_cfft_f32+0x48>
   10806:	f5b5 6f80 	cmp.w	r5, #1024	; 0x400
   1080a:	d01a      	beq.n	10842 <arm_cfft_f32+0x56>
   1080c:	d95c      	bls.n	108c8 <arm_cfft_f32+0xdc>
   1080e:	f5b5 6f00 	cmp.w	r5, #2048	; 0x800
   10812:	d044      	beq.n	1089e <arm_cfft_f32+0xb2>
   10814:	f5b5 5f80 	cmp.w	r5, #4096	; 0x1000
   10818:	d105      	bne.n	10826 <arm_cfft_f32+0x3a>
   1081a:	2301      	movs	r3, #1
   1081c:	6872      	ldr	r2, [r6, #4]
   1081e:	4629      	mov	r1, r5
   10820:	4620      	mov	r0, r4
   10822:	f000 f85d 	bl	108e0 <arm_radix8_butterfly_f32>
   10826:	f1b8 0f00 	cmp.w	r8, #0
   1082a:	d111      	bne.n	10850 <arm_cfft_f32+0x64>
   1082c:	2f01      	cmp	r7, #1
   1082e:	d016      	beq.n	1085e <arm_cfft_f32+0x72>
   10830:	e8bd 81f0 	ldmia.w	sp!, {r4, r5, r6, r7, r8, pc}
   10834:	2d20      	cmp	r5, #32
   10836:	d032      	beq.n	1089e <arm_cfft_f32+0xb2>
   10838:	d94a      	bls.n	108d0 <arm_cfft_f32+0xe4>
   1083a:	2d40      	cmp	r5, #64	; 0x40
   1083c:	d0ed      	beq.n	1081a <arm_cfft_f32+0x2e>
   1083e:	2d80      	cmp	r5, #128	; 0x80
   10840:	d1f1      	bne.n	10826 <arm_cfft_f32+0x3a>
   10842:	4621      	mov	r1, r4
   10844:	4630      	mov	r0, r6
   10846:	f7ff fca3 	bl	10190 <arm_cfft_radix8by2_f32>
   1084a:	f1b8 0f00 	cmp.w	r8, #0
   1084e:	d0ed      	beq.n	1082c <arm_cfft_f32+0x40>
   10850:	68b2      	ldr	r2, [r6, #8]
   10852:	89b1      	ldrh	r1, [r6, #12]
   10854:	4620      	mov	r0, r4
   10856:	f7fb fc53 	bl	c100 <arm_bitreversal_32>
   1085a:	2f01      	cmp	r7, #1
   1085c:	d1e8      	bne.n	10830 <arm_cfft_f32+0x44>
   1085e:	ee07 5a90 	vmov	s15, r5
   10862:	eef8 7a67 	vcvt.f32.u32	s15, s15
   10866:	eeb7 7a00 	vmov.f32	s14, #112	; 0x3f800000  1.0
   1086a:	eec7 6a27 	vdiv.f32	s13, s14, s15
   1086e:	2d00      	cmp	r5, #0
   10870:	d0de      	beq.n	10830 <arm_cfft_f32+0x44>
   10872:	f104 0108 	add.w	r1, r4, #8
   10876:	2300      	movs	r3, #0
   10878:	3301      	adds	r3, #1
   1087a:	429d      	cmp	r5, r3
   1087c:	f101 0108 	add.w	r1, r1, #8
   10880:	ed11 7a04 	vldr	s14, [r1, #-16]
   10884:	ed51 7a03 	vldr	s15, [r1, #-12]
   10888:	ee27 7a26 	vmul.f32	s14, s14, s13
   1088c:	ee67 7ae6 	vnmul.f32	s15, s15, s13
   10890:	ed01 7a04 	vstr	s14, [r1, #-16]
   10894:	ed41 7a03 	vstr	s15, [r1, #-12]
   10898:	d1ee      	bne.n	10878 <arm_cfft_f32+0x8c>
   1089a:	e8bd 81f0 	ldmia.w	sp!, {r4, r5, r6, r7, r8, pc}
   1089e:	4621      	mov	r1, r4
   108a0:	4630      	mov	r0, r6
   108a2:	f7ff fd45 	bl	10330 <arm_cfft_radix8by4_f32>
   108a6:	e7be      	b.n	10826 <arm_cfft_f32+0x3a>
   108a8:	b1ad      	cbz	r5, 108d6 <arm_cfft_f32+0xea>
   108aa:	f101 030c 	add.w	r3, r1, #12
   108ae:	2200      	movs	r2, #0
   108b0:	ed53 7a02 	vldr	s15, [r3, #-8]
   108b4:	3201      	adds	r2, #1
   108b6:	eef1 7a67 	vneg.f32	s15, s15
   108ba:	4295      	cmp	r5, r2
   108bc:	ed43 7a02 	vstr	s15, [r3, #-8]
   108c0:	f103 0308 	add.w	r3, r3, #8
   108c4:	d1f4      	bne.n	108b0 <arm_cfft_f32+0xc4>
   108c6:	e79a      	b.n	107fe <arm_cfft_f32+0x12>
   108c8:	f5b5 7f00 	cmp.w	r5, #512	; 0x200
   108cc:	d0a5      	beq.n	1081a <arm_cfft_f32+0x2e>
   108ce:	e7aa      	b.n	10826 <arm_cfft_f32+0x3a>
   108d0:	2d10      	cmp	r5, #16
   108d2:	d0b6      	beq.n	10842 <arm_cfft_f32+0x56>
   108d4:	e7a7      	b.n	10826 <arm_cfft_f32+0x3a>
   108d6:	f5b5 7f80 	cmp.w	r5, #256	; 0x100
   108da:	d894      	bhi.n	10806 <arm_cfft_f32+0x1a>
   108dc:	e7aa      	b.n	10834 <arm_cfft_f32+0x48>
   108de:	bf00      	nop

000108e0 <arm_radix8_butterfly_f32>:
   108e0:	e92d 4ff0 	stmdb	sp!, {r4, r5, r6, r7, r8, r9, sl, fp, lr}
   108e4:	ed2d 8b10 	vpush	{d8-d15}
   108e8:	461c      	mov	r4, r3
   108ea:	b09d      	sub	sp, #116	; 0x74
   108ec:	4603      	mov	r3, r0
   108ee:	3304      	adds	r3, #4
   108f0:	ed9f bac4 	vldr	s22, [pc, #784]	; 10c04 <arm_radix8_butterfly_f32+0x324>
   108f4:	9019      	str	r0, [sp, #100]	; 0x64
   108f6:	921a      	str	r2, [sp, #104]	; 0x68
   108f8:	468b      	mov	fp, r1
   108fa:	931b      	str	r3, [sp, #108]	; 0x6c
   108fc:	468a      	mov	sl, r1
   108fe:	46a1      	mov	r9, r4
   10900:	4607      	mov	r7, r0
   10902:	ea4f 03db 	mov.w	r3, fp, lsr #3
   10906:	ea4f 0843 	mov.w	r8, r3, lsl #1
   1090a:	eb03 0508 	add.w	r5, r3, r8
   1090e:	195c      	adds	r4, r3, r5
   10910:	00de      	lsls	r6, r3, #3
   10912:	191a      	adds	r2, r3, r4
   10914:	9600      	str	r6, [sp, #0]
   10916:	1898      	adds	r0, r3, r2
   10918:	4619      	mov	r1, r3
   1091a:	9e00      	ldr	r6, [sp, #0]
   1091c:	9311      	str	r3, [sp, #68]	; 0x44
   1091e:	4401      	add	r1, r0
   10920:	eb07 02c2 	add.w	r2, r7, r2, lsl #3
   10924:	eb07 01c1 	add.w	r1, r7, r1, lsl #3
   10928:	19be      	adds	r6, r7, r6
   1092a:	eb07 05c5 	add.w	r5, r7, r5, lsl #3
   1092e:	eb07 04c4 	add.w	r4, r7, r4, lsl #3
   10932:	eb07 00c0 	add.w	r0, r7, r0, lsl #3
   10936:	9f00      	ldr	r7, [sp, #0]
   10938:	011b      	lsls	r3, r3, #4
   1093a:	eb06 0e07 	add.w	lr, r6, r7
   1093e:	9f1b      	ldr	r7, [sp, #108]	; 0x6c
   10940:	9302      	str	r3, [sp, #8]
   10942:	3204      	adds	r2, #4
   10944:	3104      	adds	r1, #4
   10946:	ea4f 03cb 	mov.w	r3, fp, lsl #3
   1094a:	f04f 0c00 	mov.w	ip, #0
   1094e:	edde 7a00 	vldr	s15, [lr]
   10952:	edd6 6a00 	vldr	s13, [r6]
   10956:	ed95 2a00 	vldr	s4, [r5]
   1095a:	ed17 aa01 	vldr	s20, [r7, #-4]
   1095e:	edd4 4a00 	vldr	s9, [r4]
   10962:	ed90 5a00 	vldr	s10, [r0]
   10966:	ed12 7a01 	vldr	s14, [r2, #-4]
   1096a:	ed51 0a01 	vldr	s1, [r1, #-4]
   1096e:	ee77 8a85 	vadd.f32	s17, s15, s10
   10972:	ee76 3a87 	vadd.f32	s7, s13, s14
   10976:	ee32 4a20 	vadd.f32	s8, s4, s1
   1097a:	ee3a 3a24 	vadd.f32	s6, s20, s9
   1097e:	ee33 6a84 	vadd.f32	s12, s7, s8
   10982:	ee73 5a28 	vadd.f32	s11, s6, s17
   10986:	ee36 7ac7 	vsub.f32	s14, s13, s14
   1098a:	ee75 6a86 	vadd.f32	s13, s11, s12
   1098e:	ee75 5ac6 	vsub.f32	s11, s11, s12
   10992:	ed47 6a01 	vstr	s13, [r7, #-4]
   10996:	edc4 5a00 	vstr	s11, [r4]
   1099a:	ed92 9a00 	vldr	s18, [r2]
   1099e:	ed95 1a01 	vldr	s2, [r5, #4]
   109a2:	edd6 5a01 	vldr	s11, [r6, #4]
   109a6:	ed91 6a00 	vldr	s12, [r1]
   109aa:	edd7 2a00 	vldr	s5, [r7]
   109ae:	edd4 1a01 	vldr	s3, [r4, #4]
   109b2:	edde 6a01 	vldr	s13, [lr, #4]
   109b6:	edd0 9a01 	vldr	s19, [r0, #4]
   109ba:	ee72 0a60 	vsub.f32	s1, s4, s1
   109be:	ee71 aa46 	vsub.f32	s21, s2, s12
   109c2:	ee35 2ac9 	vsub.f32	s4, s11, s18
   109c6:	ee37 0a60 	vsub.f32	s0, s14, s1
   109ca:	ee32 8a2a 	vadd.f32	s16, s4, s21
   109ce:	ee37 7a20 	vadd.f32	s14, s14, s1
   109d2:	ee32 2a6a 	vsub.f32	s4, s4, s21
   109d6:	ee37 5ac5 	vsub.f32	s10, s15, s10
   109da:	ee75 5a89 	vadd.f32	s11, s11, s18
   109de:	ee60 0a0b 	vmul.f32	s1, s0, s22
   109e2:	ee7a 4a64 	vsub.f32	s9, s20, s9
   109e6:	ee31 6a06 	vadd.f32	s12, s2, s12
   109ea:	ee36 9aa9 	vadd.f32	s18, s13, s19
   109ee:	ee32 1aa1 	vadd.f32	s2, s5, s3
   109f2:	ee76 6ae9 	vsub.f32	s13, s13, s19
   109f6:	ee72 1ae1 	vsub.f32	s3, s5, s3
   109fa:	ee28 8a0b 	vmul.f32	s16, s16, s22
   109fe:	ee62 2a0b 	vmul.f32	s5, s4, s22
   10a02:	ee67 7a0b 	vmul.f32	s15, s14, s22
   10a06:	ee33 3a68 	vsub.f32	s6, s6, s17
   10a0a:	ee36 0a88 	vadd.f32	s0, s13, s16
   10a0e:	ee75 8a86 	vadd.f32	s17, s11, s12
   10a12:	ee36 7ac8 	vsub.f32	s14, s13, s16
   10a16:	ee33 4ac4 	vsub.f32	s8, s7, s8
   10a1a:	ee74 6ae0 	vsub.f32	s13, s9, s1
   10a1e:	ee74 3aa0 	vadd.f32	s7, s9, s1
   10a22:	ee35 6ac6 	vsub.f32	s12, s11, s12
   10a26:	ee75 4a27 	vadd.f32	s9, s10, s15
   10a2a:	ee71 5a49 	vsub.f32	s11, s2, s18
   10a2e:	ee31 2a09 	vadd.f32	s4, s2, s18
   10a32:	ee75 7a67 	vsub.f32	s15, s10, s15
   10a36:	ee31 1aa2 	vadd.f32	s2, s3, s5
   10a3a:	ee71 2ae2 	vsub.f32	s5, s3, s5
   10a3e:	ee73 0a06 	vadd.f32	s1, s6, s12
   10a42:	ee75 1ac4 	vsub.f32	s3, s11, s8
   10a46:	ee36 5a87 	vadd.f32	s10, s13, s14
   10a4a:	ee32 8a28 	vadd.f32	s16, s4, s17
   10a4e:	ee33 6a46 	vsub.f32	s12, s6, s12
   10a52:	ee34 4a25 	vadd.f32	s8, s8, s11
   10a56:	ee33 3a80 	vadd.f32	s6, s7, s0
   10a5a:	ee36 7ac7 	vsub.f32	s14, s13, s14
   10a5e:	ee71 5a64 	vsub.f32	s11, s2, s9
   10a62:	ee72 6ae7 	vsub.f32	s13, s5, s15
   10a66:	ee32 2a68 	vsub.f32	s4, s4, s17
   10a6a:	ee73 3ac0 	vsub.f32	s7, s7, s0
   10a6e:	ee74 4a81 	vadd.f32	s9, s9, s2
   10a72:	ee77 7aa2 	vadd.f32	s15, s15, s5
   10a76:	44dc      	add	ip, fp
   10a78:	45e2      	cmp	sl, ip
   10a7a:	ed87 8a00 	vstr	s16, [r7]
   10a7e:	ed84 2a01 	vstr	s4, [r4, #4]
   10a82:	441f      	add	r7, r3
   10a84:	edce 0a00 	vstr	s1, [lr]
   10a88:	441c      	add	r4, r3
   10a8a:	ed80 6a00 	vstr	s12, [r0]
   10a8e:	edce 1a01 	vstr	s3, [lr, #4]
   10a92:	ed80 4a01 	vstr	s8, [r0, #4]
   10a96:	449e      	add	lr, r3
   10a98:	ed86 3a00 	vstr	s6, [r6]
   10a9c:	4418      	add	r0, r3
   10a9e:	ed41 3a01 	vstr	s7, [r1, #-4]
   10aa2:	ed02 5a01 	vstr	s10, [r2, #-4]
   10aa6:	ed85 7a00 	vstr	s14, [r5]
   10aaa:	edc6 5a01 	vstr	s11, [r6, #4]
   10aae:	edc1 4a00 	vstr	s9, [r1]
   10ab2:	441e      	add	r6, r3
   10ab4:	edc2 6a00 	vstr	s13, [r2]
   10ab8:	4419      	add	r1, r3
   10aba:	edc5 7a01 	vstr	s15, [r5, #4]
   10abe:	441a      	add	r2, r3
   10ac0:	441d      	add	r5, r3
   10ac2:	f63f af44 	bhi.w	1094e <arm_radix8_butterfly_f32+0x6e>
   10ac6:	9a11      	ldr	r2, [sp, #68]	; 0x44
   10ac8:	2a07      	cmp	r2, #7
   10aca:	f240 81f5 	bls.w	10eb8 <arm_radix8_butterfly_f32+0x5d8>
   10ace:	f108 0101 	add.w	r1, r8, #1
   10ad2:	188f      	adds	r7, r1, r2
   10ad4:	eb09 0849 	add.w	r8, r9, r9, lsl #1
   10ad8:	19d6      	adds	r6, r2, r7
   10ada:	eb08 0c09 	add.w	ip, r8, r9
   10ade:	1994      	adds	r4, r2, r6
   10ae0:	eb0c 0e09 	add.w	lr, ip, r9
   10ae4:	4610      	mov	r0, r2
   10ae6:	9701      	str	r7, [sp, #4]
   10ae8:	4420      	add	r0, r4
   10aea:	eb0e 0709 	add.w	r7, lr, r9
   10aee:	1815      	adds	r5, r2, r0
   10af0:	eb07 0209 	add.w	r2, r7, r9
   10af4:	9203      	str	r2, [sp, #12]
   10af6:	9a1a      	ldr	r2, [sp, #104]	; 0x68
   10af8:	ea4f 01c9 	mov.w	r1, r9, lsl #3
   10afc:	9117      	str	r1, [sp, #92]	; 0x5c
   10afe:	440a      	add	r2, r1
   10b00:	9900      	ldr	r1, [sp, #0]
   10b02:	3108      	adds	r1, #8
   10b04:	9100      	str	r1, [sp, #0]
   10b06:	9902      	ldr	r1, [sp, #8]
   10b08:	3108      	adds	r1, #8
   10b0a:	9102      	str	r1, [sp, #8]
   10b0c:	9919      	ldr	r1, [sp, #100]	; 0x64
   10b0e:	00ff      	lsls	r7, r7, #3
   10b10:	9715      	str	r7, [sp, #84]	; 0x54
   10b12:	eb01 04c4 	add.w	r4, r1, r4, lsl #3
   10b16:	eb01 05c5 	add.w	r5, r1, r5, lsl #3
   10b1a:	eb01 00c0 	add.w	r0, r1, r0, lsl #3
   10b1e:	9f17      	ldr	r7, [sp, #92]	; 0x5c
   10b20:	9903      	ldr	r1, [sp, #12]
   10b22:	19d7      	adds	r7, r2, r7
   10b24:	00c9      	lsls	r1, r1, #3
   10b26:	9114      	str	r1, [sp, #80]	; 0x50
   10b28:	9710      	str	r7, [sp, #64]	; 0x40
   10b2a:	9919      	ldr	r1, [sp, #100]	; 0x64
   10b2c:	9f00      	ldr	r7, [sp, #0]
   10b2e:	19cf      	adds	r7, r1, r7
   10b30:	970d      	str	r7, [sp, #52]	; 0x34
   10b32:	9f02      	ldr	r7, [sp, #8]
   10b34:	19cf      	adds	r7, r1, r7
   10b36:	ea4f 0ece 	mov.w	lr, lr, lsl #3
   10b3a:	970c      	str	r7, [sp, #48]	; 0x30
   10b3c:	9f01      	ldr	r7, [sp, #4]
   10b3e:	f8cd e058 	str.w	lr, [sp, #88]	; 0x58
   10b42:	3504      	adds	r5, #4
   10b44:	3004      	adds	r0, #4
   10b46:	eb01 0ec7 	add.w	lr, r1, r7, lsl #3
   10b4a:	9508      	str	r5, [sp, #32]
   10b4c:	9009      	str	r0, [sp, #36]	; 0x24
   10b4e:	9d16      	ldr	r5, [sp, #88]	; 0x58
   10b50:	981a      	ldr	r0, [sp, #104]	; 0x68
   10b52:	f8cd e02c 	str.w	lr, [sp, #44]	; 0x2c
   10b56:	ea4f 08c8 	mov.w	r8, r8, lsl #3
   10b5a:	eb01 0ec6 	add.w	lr, r1, r6, lsl #3
   10b5e:	9e14      	ldr	r6, [sp, #80]	; 0x50
   10b60:	f8cd e038 	str.w	lr, [sp, #56]	; 0x38
   10b64:	1945      	adds	r5, r0, r5
   10b66:	ea4f 0ccc 	mov.w	ip, ip, lsl #3
   10b6a:	460f      	mov	r7, r1
   10b6c:	3404      	adds	r4, #4
   10b6e:	4641      	mov	r1, r8
   10b70:	1841      	adds	r1, r0, r1
   10b72:	f8cd c048 	str.w	ip, [sp, #72]	; 0x48
   10b76:	940a      	str	r4, [sp, #40]	; 0x28
   10b78:	eb00 0c06 	add.w	ip, r0, r6
   10b7c:	f8cd 804c 	str.w	r8, [sp, #76]	; 0x4c
   10b80:	9e15      	ldr	r6, [sp, #84]	; 0x54
   10b82:	9506      	str	r5, [sp, #24]
   10b84:	9c12      	ldr	r4, [sp, #72]	; 0x48
   10b86:	9105      	str	r1, [sp, #20]
   10b88:	4639      	mov	r1, r7
   10b8a:	1905      	adds	r5, r0, r4
   10b8c:	3108      	adds	r1, #8
   10b8e:	9c10      	ldr	r4, [sp, #64]	; 0x40
   10b90:	9507      	str	r5, [sp, #28]
   10b92:	910f      	str	r1, [sp, #60]	; 0x3c
   10b94:	ea4f 1509 	mov.w	r5, r9, lsl #4
   10b98:	2101      	movs	r1, #1
   10b9a:	eb00 0e06 	add.w	lr, r0, r6
   10b9e:	9518      	str	r5, [sp, #96]	; 0x60
   10ba0:	9404      	str	r4, [sp, #16]
   10ba2:	9103      	str	r1, [sp, #12]
   10ba4:	4620      	mov	r0, r4
   10ba6:	4689      	mov	r9, r1
   10ba8:	9e06      	ldr	r6, [sp, #24]
   10baa:	ed90 fa00 	vldr	s30, [r0]
   10bae:	edd6 7a01 	vldr	s15, [r6, #4]
   10bb2:	edd0 ba01 	vldr	s23, [r0, #4]
   10bb6:	edcd 7a00 	vstr	s15, [sp]
   10bba:	a80d      	add	r0, sp, #52	; 0x34
   10bbc:	edde 7a01 	vldr	s15, [lr, #4]
   10bc0:	9c05      	ldr	r4, [sp, #20]
   10bc2:	9d07      	ldr	r5, [sp, #28]
   10bc4:	edd2 fa00 	vldr	s31, [r2]
   10bc8:	ed92 ca01 	vldr	s24, [r2, #4]
   10bcc:	edcd 7a01 	vstr	s15, [sp, #4]
   10bd0:	c807      	ldmia	r0, {r0, r1, r2}
   10bd2:	eddc 7a01 	vldr	s15, [ip, #4]
   10bd6:	edd4 ea00 	vldr	s29, [r4]
   10bda:	ed95 ea00 	vldr	s28, [r5]
   10bde:	edd6 da00 	vldr	s27, [r6]
   10be2:	edd4 aa01 	vldr	s21, [r4, #4]
   10be6:	ed95 aa01 	vldr	s20, [r5, #4]
   10bea:	ed9e da00 	vldr	s26, [lr]
   10bee:	eddc ca00 	vldr	s25, [ip]
   10bf2:	f8dd 8020 	ldr.w	r8, [sp, #32]
   10bf6:	9f09      	ldr	r7, [sp, #36]	; 0x24
   10bf8:	9e0a      	ldr	r6, [sp, #40]	; 0x28
   10bfa:	9d0b      	ldr	r5, [sp, #44]	; 0x2c
   10bfc:	9c0c      	ldr	r4, [sp, #48]	; 0x30
   10bfe:	edcd 7a02 	vstr	s15, [sp, #8]
   10c02:	e001      	b.n	10c08 <arm_radix8_butterfly_f32+0x328>
   10c04:	3f3504f3 	.word	0x3f3504f3
   10c08:	ed16 6a01 	vldr	s12, [r6, #-4]
   10c0c:	ed91 5a00 	vldr	s10, [r1]
   10c10:	ed57 9a01 	vldr	s19, [r7, #-4]
   10c14:	edd5 7a00 	vldr	s15, [r5]
   10c18:	ed18 7a01 	vldr	s14, [r8, #-4]
   10c1c:	edd2 3a00 	vldr	s7, [r2]
   10c20:	ed94 3a00 	vldr	s6, [r4]
   10c24:	ed90 2a00 	vldr	s4, [r0]
   10c28:	ed92 0a01 	vldr	s0, [r2, #4]
   10c2c:	ee33 8a85 	vadd.f32	s16, s7, s10
   10c30:	ee32 1a06 	vadd.f32	s2, s4, s12
   10c34:	ee33 4a29 	vadd.f32	s8, s6, s19
   10c38:	ee77 4a87 	vadd.f32	s9, s15, s14
   10c3c:	ee78 1a04 	vadd.f32	s3, s16, s8
   10c40:	ee71 6a24 	vadd.f32	s13, s2, s9
   10c44:	ee32 2a46 	vsub.f32	s4, s4, s12
   10c48:	ee31 6aa6 	vadd.f32	s12, s3, s13
   10c4c:	ee77 7ac7 	vsub.f32	s15, s15, s14
   10c50:	ed82 6a00 	vstr	s12, [r2]
   10c54:	edd5 8a01 	vldr	s17, [r5, #4]
   10c58:	ed90 9a01 	vldr	s18, [r0, #4]
   10c5c:	edd6 2a00 	vldr	s5, [r6]
   10c60:	ed98 7a00 	vldr	s14, [r8]
   10c64:	edd4 0a01 	vldr	s1, [r4, #4]
   10c68:	ed91 6a01 	vldr	s12, [r1, #4]
   10c6c:	edd7 5a00 	vldr	s11, [r7]
   10c70:	ee73 3ac5 	vsub.f32	s7, s7, s10
   10c74:	ee33 3a69 	vsub.f32	s6, s6, s19
   10c78:	ee39 5a62 	vsub.f32	s10, s18, s5
   10c7c:	ee78 9ac7 	vsub.f32	s19, s17, s14
   10c80:	ee38 4a44 	vsub.f32	s8, s16, s8
   10c84:	ee38 7a87 	vadd.f32	s14, s17, s14
   10c88:	ee30 8aa5 	vadd.f32	s16, s1, s11
   10c8c:	ee79 2a22 	vadd.f32	s5, s18, s5
   10c90:	ee75 8a69 	vsub.f32	s17, s10, s19
   10c94:	ee32 9a27 	vadd.f32	s18, s4, s15
   10c98:	ee35 5a29 	vadd.f32	s10, s10, s19
   10c9c:	ee72 7a67 	vsub.f32	s15, s4, s15
   10ca0:	ee30 2a06 	vadd.f32	s4, s0, s12
   10ca4:	ee69 9a0b 	vmul.f32	s19, s18, s22
   10ca8:	ee70 5ae5 	vsub.f32	s11, s1, s11
   10cac:	ee32 9a08 	vadd.f32	s18, s4, s16
   10cb0:	ee68 8a8b 	vmul.f32	s17, s17, s22
   10cb4:	ee32 2a48 	vsub.f32	s4, s4, s16
   10cb8:	ee71 4a64 	vsub.f32	s9, s2, s9
   10cbc:	ee25 5a0b 	vmul.f32	s10, s10, s22
   10cc0:	ee32 1a87 	vadd.f32	s2, s5, s14
   10cc4:	ee67 7a8b 	vmul.f32	s15, s15, s22
   10cc8:	ee72 2ac7 	vsub.f32	s5, s5, s14
   10ccc:	ee30 6a46 	vsub.f32	s12, s0, s12
   10cd0:	ee73 0a29 	vadd.f32	s1, s6, s19
   10cd4:	ee36 0a28 	vadd.f32	s0, s12, s17
   10cd8:	ee33 3a69 	vsub.f32	s6, s6, s19
   10cdc:	ee32 7a64 	vsub.f32	s14, s4, s9
   10ce0:	ee73 9aa7 	vadd.f32	s19, s7, s15
   10ce4:	ee36 6a68 	vsub.f32	s12, s12, s17
   10ce8:	ee73 7ae7 	vsub.f32	s15, s7, s15
   10cec:	ee75 8a85 	vadd.f32	s17, s11, s10
   10cf0:	ee74 3a22 	vadd.f32	s7, s8, s5
   10cf4:	ee35 5ac5 	vsub.f32	s10, s11, s10
   10cf8:	ee71 6ae6 	vsub.f32	s13, s3, s13
   10cfc:	ee79 1a41 	vsub.f32	s3, s18, s2
   10d00:	ee39 8aa8 	vadd.f32	s16, s19, s17
   10d04:	ee76 5a43 	vsub.f32	s11, s12, s6
   10d08:	ee74 2a62 	vsub.f32	s5, s8, s5
   10d0c:	ee74 4a82 	vadd.f32	s9, s9, s4
   10d10:	ee30 4a60 	vsub.f32	s8, s0, s1
   10d14:	ee79 8ae8 	vsub.f32	s17, s19, s17
   10d18:	ee30 0a80 	vadd.f32	s0, s1, s0
   10d1c:	ee77 9a85 	vadd.f32	s19, s15, s10
   10d20:	ee33 6a06 	vadd.f32	s12, s6, s12
   10d24:	ee77 7ac5 	vsub.f32	s15, s15, s10
   10d28:	ee2e 2a21 	vmul.f32	s4, s28, s3
   10d2c:	ee2e 5a26 	vmul.f32	s10, s28, s13
   10d30:	ee6f 0a23 	vmul.f32	s1, s30, s7
   10d34:	ee2a 3a21 	vmul.f32	s6, s20, s3
   10d38:	ee39 1a01 	vadd.f32	s2, s18, s2
   10d3c:	ee6a 6a26 	vmul.f32	s13, s20, s13
   10d40:	ee2b 9a87 	vmul.f32	s18, s23, s14
   10d44:	ee6b 3aa3 	vmul.f32	s7, s23, s7
   10d48:	ee2f 7a07 	vmul.f32	s14, s30, s14
   10d4c:	ee6f 1a84 	vmul.f32	s3, s31, s8
   10d50:	ee35 3a03 	vadd.f32	s6, s10, s6
   10d54:	ee72 6a66 	vsub.f32	s13, s4, s13
   10d58:	ee2c 5a04 	vmul.f32	s10, s24, s8
   10d5c:	ee2f 2a88 	vmul.f32	s4, s31, s16
   10d60:	ed9d 4a02 	vldr	s8, [sp, #8]
   10d64:	ed82 1a01 	vstr	s2, [r2, #4]
   10d68:	ee77 3a63 	vsub.f32	s7, s14, s7
   10d6c:	ee2c 8a08 	vmul.f32	s16, s24, s16
   10d70:	ed9d 7a01 	vldr	s14, [sp, #4]
   10d74:	ed81 3a00 	vstr	s6, [r1]
   10d78:	ee30 9a89 	vadd.f32	s18, s1, s18
   10d7c:	ee32 2a05 	vadd.f32	s4, s4, s10
   10d80:	ee6d 0a22 	vmul.f32	s1, s26, s5
   10d84:	ee31 8ac8 	vsub.f32	s16, s3, s16
   10d88:	ee67 2a22 	vmul.f32	s5, s14, s5
   10d8c:	ee64 1a00 	vmul.f32	s3, s8, s0
   10d90:	ee27 7a24 	vmul.f32	s14, s14, s9
   10d94:	ee2c 5aa8 	vmul.f32	s10, s25, s17
   10d98:	ee6d 4a24 	vmul.f32	s9, s26, s9
   10d9c:	ee64 8a28 	vmul.f32	s17, s8, s17
   10da0:	ed9d 4a00 	vldr	s8, [sp]
   10da4:	edc1 6a01 	vstr	s13, [r1, #4]
   10da8:	ee74 2ae2 	vsub.f32	s5, s9, s5
   10dac:	ee6d 4aa9 	vmul.f32	s9, s27, s19
   10db0:	ee64 9a29 	vmul.f32	s19, s8, s19
   10db4:	ee24 4a25 	vmul.f32	s8, s8, s11
   10db8:	ee30 7a87 	vadd.f32	s14, s1, s14
   10dbc:	ee74 4a84 	vadd.f32	s9, s9, s8
   10dc0:	ee6e 0aa7 	vmul.f32	s1, s29, s15
   10dc4:	ee2a 4a86 	vmul.f32	s8, s21, s12
   10dc8:	ee2c 0a80 	vmul.f32	s0, s25, s0
   10dcc:	ee6d 5aa5 	vmul.f32	s11, s27, s11
   10dd0:	ee6a 7aa7 	vmul.f32	s15, s21, s15
   10dd4:	ee2e 6a86 	vmul.f32	s12, s29, s12
   10dd8:	ee75 1a21 	vadd.f32	s3, s10, s3
   10ddc:	ee30 0a68 	vsub.f32	s0, s0, s17
   10de0:	ee75 9ae9 	vsub.f32	s19, s11, s19
   10de4:	ee70 0a84 	vadd.f32	s1, s1, s8
   10de8:	ee36 6a67 	vsub.f32	s12, s12, s15
   10dec:	44d9      	add	r9, fp
   10dee:	45ca      	cmp	sl, r9
   10df0:	ed84 9a00 	vstr	s18, [r4]
   10df4:	edc4 3a01 	vstr	s7, [r4, #4]
   10df8:	441a      	add	r2, r3
   10dfa:	ed07 7a01 	vstr	s14, [r7, #-4]
   10dfe:	edc7 2a00 	vstr	s5, [r7]
   10e02:	4419      	add	r1, r3
   10e04:	ed80 2a00 	vstr	s4, [r0]
   10e08:	ed80 8a01 	vstr	s16, [r0, #4]
   10e0c:	441c      	add	r4, r3
   10e0e:	ed48 1a01 	vstr	s3, [r8, #-4]
   10e12:	ed88 0a00 	vstr	s0, [r8]
   10e16:	441f      	add	r7, r3
   10e18:	ed46 4a01 	vstr	s9, [r6, #-4]
   10e1c:	4418      	add	r0, r3
   10e1e:	edc6 9a00 	vstr	s19, [r6]
   10e22:	4498      	add	r8, r3
   10e24:	edc5 0a00 	vstr	s1, [r5]
   10e28:	ed85 6a01 	vstr	s12, [r5, #4]
   10e2c:	441e      	add	r6, r3
   10e2e:	441d      	add	r5, r3
   10e30:	f63f aeea 	bhi.w	10c08 <arm_radix8_butterfly_f32+0x328>
   10e34:	9a03      	ldr	r2, [sp, #12]
   10e36:	9818      	ldr	r0, [sp, #96]	; 0x60
   10e38:	3201      	adds	r2, #1
   10e3a:	4611      	mov	r1, r2
   10e3c:	9203      	str	r2, [sp, #12]
   10e3e:	9a04      	ldr	r2, [sp, #16]
   10e40:	4402      	add	r2, r0
   10e42:	9204      	str	r2, [sp, #16]
   10e44:	9813      	ldr	r0, [sp, #76]	; 0x4c
   10e46:	9a05      	ldr	r2, [sp, #20]
   10e48:	4402      	add	r2, r0
   10e4a:	9205      	str	r2, [sp, #20]
   10e4c:	9812      	ldr	r0, [sp, #72]	; 0x48
   10e4e:	9a07      	ldr	r2, [sp, #28]
   10e50:	4402      	add	r2, r0
   10e52:	9207      	str	r2, [sp, #28]
   10e54:	9816      	ldr	r0, [sp, #88]	; 0x58
   10e56:	9a06      	ldr	r2, [sp, #24]
   10e58:	4402      	add	r2, r0
   10e5a:	9206      	str	r2, [sp, #24]
   10e5c:	9a15      	ldr	r2, [sp, #84]	; 0x54
   10e5e:	4496      	add	lr, r2
   10e60:	9a14      	ldr	r2, [sp, #80]	; 0x50
   10e62:	4494      	add	ip, r2
   10e64:	9a0f      	ldr	r2, [sp, #60]	; 0x3c
   10e66:	3208      	adds	r2, #8
   10e68:	920f      	str	r2, [sp, #60]	; 0x3c
   10e6a:	9a0e      	ldr	r2, [sp, #56]	; 0x38
   10e6c:	3208      	adds	r2, #8
   10e6e:	920e      	str	r2, [sp, #56]	; 0x38
   10e70:	9a0d      	ldr	r2, [sp, #52]	; 0x34
   10e72:	3208      	adds	r2, #8
   10e74:	920d      	str	r2, [sp, #52]	; 0x34
   10e76:	9a0c      	ldr	r2, [sp, #48]	; 0x30
   10e78:	3208      	adds	r2, #8
   10e7a:	920c      	str	r2, [sp, #48]	; 0x30
   10e7c:	9a0b      	ldr	r2, [sp, #44]	; 0x2c
   10e7e:	3208      	adds	r2, #8
   10e80:	920b      	str	r2, [sp, #44]	; 0x2c
   10e82:	9a0a      	ldr	r2, [sp, #40]	; 0x28
   10e84:	3208      	adds	r2, #8
   10e86:	920a      	str	r2, [sp, #40]	; 0x28
   10e88:	9a09      	ldr	r2, [sp, #36]	; 0x24
   10e8a:	3208      	adds	r2, #8
   10e8c:	9209      	str	r2, [sp, #36]	; 0x24
   10e8e:	9a08      	ldr	r2, [sp, #32]
   10e90:	3208      	adds	r2, #8
   10e92:	9208      	str	r2, [sp, #32]
   10e94:	9c10      	ldr	r4, [sp, #64]	; 0x40
   10e96:	9811      	ldr	r0, [sp, #68]	; 0x44
   10e98:	4288      	cmp	r0, r1
   10e9a:	4622      	mov	r2, r4
   10e9c:	d007      	beq.n	10eae <arm_radix8_butterfly_f32+0x5ce>
   10e9e:	9817      	ldr	r0, [sp, #92]	; 0x5c
   10ea0:	f8dd 900c 	ldr.w	r9, [sp, #12]
   10ea4:	4621      	mov	r1, r4
   10ea6:	4401      	add	r1, r0
   10ea8:	9110      	str	r1, [sp, #64]	; 0x40
   10eaa:	9804      	ldr	r0, [sp, #16]
   10eac:	e67c      	b.n	10ba8 <arm_radix8_butterfly_f32+0x2c8>
   10eae:	4683      	mov	fp, r0
   10eb0:	f8bd 905c 	ldrh.w	r9, [sp, #92]	; 0x5c
   10eb4:	9f19      	ldr	r7, [sp, #100]	; 0x64
   10eb6:	e524      	b.n	10902 <arm_radix8_butterfly_f32+0x22>
   10eb8:	b01d      	add	sp, #116	; 0x74
   10eba:	ecbd 8b10 	vpop	{d8-d15}
   10ebe:	e8bd 8ff0 	ldmia.w	sp!, {r4, r5, r6, r7, r8, r9, sl, fp, pc}
   10ec2:	bf00      	nop

00010ec4 <memset>:
   10ec4:	b4f0      	push	{r4, r5, r6, r7}
   10ec6:	0786      	lsls	r6, r0, #30
   10ec8:	d043      	beq.n	10f52 <memset+0x8e>
   10eca:	1e54      	subs	r4, r2, #1
   10ecc:	2a00      	cmp	r2, #0
   10ece:	d03e      	beq.n	10f4e <memset+0x8a>
   10ed0:	b2ca      	uxtb	r2, r1
   10ed2:	4603      	mov	r3, r0
   10ed4:	e002      	b.n	10edc <memset+0x18>
   10ed6:	f114 34ff 	adds.w	r4, r4, #4294967295	; 0xffffffff
   10eda:	d338      	bcc.n	10f4e <memset+0x8a>
   10edc:	f803 2b01 	strb.w	r2, [r3], #1
   10ee0:	079d      	lsls	r5, r3, #30
   10ee2:	d1f8      	bne.n	10ed6 <memset+0x12>
   10ee4:	2c03      	cmp	r4, #3
   10ee6:	d92b      	bls.n	10f40 <memset+0x7c>
   10ee8:	b2cd      	uxtb	r5, r1
   10eea:	ea45 2505 	orr.w	r5, r5, r5, lsl #8
   10eee:	2c0f      	cmp	r4, #15
   10ef0:	ea45 4505 	orr.w	r5, r5, r5, lsl #16
   10ef4:	d916      	bls.n	10f24 <memset+0x60>
   10ef6:	f1a4 0710 	sub.w	r7, r4, #16
   10efa:	093f      	lsrs	r7, r7, #4
   10efc:	f103 0620 	add.w	r6, r3, #32
   10f00:	eb06 1607 	add.w	r6, r6, r7, lsl #4
   10f04:	f103 0210 	add.w	r2, r3, #16
   10f08:	e942 5504 	strd	r5, r5, [r2, #-16]
   10f0c:	e942 5502 	strd	r5, r5, [r2, #-8]
   10f10:	3210      	adds	r2, #16
   10f12:	42b2      	cmp	r2, r6
   10f14:	d1f8      	bne.n	10f08 <memset+0x44>
   10f16:	f004 040f 	and.w	r4, r4, #15
   10f1a:	3701      	adds	r7, #1
   10f1c:	2c03      	cmp	r4, #3
   10f1e:	eb03 1307 	add.w	r3, r3, r7, lsl #4
   10f22:	d90d      	bls.n	10f40 <memset+0x7c>
   10f24:	461e      	mov	r6, r3
   10f26:	4622      	mov	r2, r4
   10f28:	3a04      	subs	r2, #4
   10f2a:	2a03      	cmp	r2, #3
   10f2c:	f846 5b04 	str.w	r5, [r6], #4
   10f30:	d8fa      	bhi.n	10f28 <memset+0x64>
   10f32:	1f22      	subs	r2, r4, #4
   10f34:	f022 0203 	bic.w	r2, r2, #3
   10f38:	3204      	adds	r2, #4
   10f3a:	4413      	add	r3, r2
   10f3c:	f004 0403 	and.w	r4, r4, #3
   10f40:	b12c      	cbz	r4, 10f4e <memset+0x8a>
   10f42:	b2c9      	uxtb	r1, r1
   10f44:	441c      	add	r4, r3
   10f46:	f803 1b01 	strb.w	r1, [r3], #1
   10f4a:	429c      	cmp	r4, r3
   10f4c:	d1fb      	bne.n	10f46 <memset+0x82>
   10f4e:	bcf0      	pop	{r4, r5, r6, r7}
   10f50:	4770      	bx	lr
   10f52:	4614      	mov	r4, r2
   10f54:	4603      	mov	r3, r0
   10f56:	e7c5      	b.n	10ee4 <memset+0x20>
   10f58:	69647541 	.word	0x69647541
   10f5c:	6574206f 	.word	0x6574206f
   10f60:	73207473 	.word	0x73207473
   10f64:	74726174 	.word	0x74726174
   10f68:	0a0d2173 	.word	0x0a0d2173
   10f6c:	0000000a 	.word	0x0000000a
   10f70:	6e697355 	.word	0x6e697355
   10f74:	6f6c2067 	.word	0x6f6c2067
   10f78:	206c6163 	.word	0x206c6163
   10f7c:	61746164 	.word	0x61746164
   10f80:	206f7420 	.word	0x206f7420
   10f84:	74736574 	.word	0x74736574
   10f88:	46545320 	.word	0x46545320
   10f8c:	2e2e2e54 	.word	0x2e2e2e54
   10f90:	00000d0a 	.word	0x00000d0a
   10f94:	46545349 	.word	0x46545349
   10f98:	65722054 	.word	0x65722054
   10f9c:	746c7573 	.word	0x746c7573
   10fa0:	20666f20 	.word	0x20666f20
   10fa4:	6f6c2031 	.word	0x6f6c2031
   10fa8:	206c6163 	.word	0x206c6163
   10fac:	6d617266 	.word	0x6d617266
   10fb0:	0a0d3a65 	.word	0x0a0d3a65
   10fb4:	00000000 	.word	0x00000000
   10fb8:	00000d0a 	.word	0x00000d0a
   10fbc:	0000202c 	.word	0x0000202c
   10fc0:	20656854 	.word	0x20656854
   10fc4:	2e646e45 	.word	0x2e646e45
   10fc8:	0d0a2e2e 	.word	0x0d0a2e2e
   10fcc:	00000000 	.word	0x00000000
   10fd0:	7370696d 	.word	0x7370696d
   10fd4:	25203d20 	.word	0x25203d20
   10fd8:	000d0a66 	.word	0x000d0a66
   10fdc:	00007325 	.word	0x00007325
   10fe0:	00006425 	.word	0x00006425
   10fe4:	38257830 	.word	0x38257830
   10fe8:	00000078 	.word	0x00000078
   10fec:	00006625 	.word	0x00006625
   10ff0:	6c6f7041 	.word	0x6c6f7041
   10ff4:	20336f6c 	.word	0x20336f6c
   10ff8:	73727542 	.word	0x73727542
   10ffc:	6f4d2074 	.word	0x6f4d2074
   11000:	69206564 	.word	0x69206564
   11004:	76412073 	.word	0x76412073
   11008:	616c6961 	.word	0x616c6961
   1100c:	0d656c62 	.word	0x0d656c62
   11010:	0000000a 	.word	0x0000000a
   11014:	6c6f7041 	.word	0x6c6f7041
   11018:	20336f6c 	.word	0x20336f6c
   1101c:	73727542 	.word	0x73727542
   11020:	6f4d2074 	.word	0x6f4d2074
   11024:	69206564 	.word	0x69206564
   11028:	6f4e2073 	.word	0x6f4e2073
   1102c:	76412074 	.word	0x76412074
   11030:	616c6961 	.word	0x616c6961
   11034:	0d656c62 	.word	0x0d656c62
   11038:	0000000a 	.word	0x0000000a
   1103c:	6c696146 	.word	0x6c696146
   11040:	74206465 	.word	0x74206465
   11044:	6e49206f 	.word	0x6e49206f
   11048:	61697469 	.word	0x61697469
   1104c:	657a696c 	.word	0x657a696c
   11050:	726f6620 	.word	0x726f6620
   11054:	72754220 	.word	0x72754220
   11058:	4d207473 	.word	0x4d207473
   1105c:	2065646f 	.word	0x2065646f
   11060:	7265706f 	.word	0x7265706f
   11064:	6f697461 	.word	0x6f697461
   11068:	000a0d6e 	.word	0x000a0d6e
   1106c:	6c6f7041 	.word	0x6c6f7041
   11070:	20336f6c 	.word	0x20336f6c
   11074:	7265706f 	.word	0x7265706f
   11078:	6e697461 	.word	0x6e697461
   1107c:	6e692067 	.word	0x6e692067
   11080:	72754220 	.word	0x72754220
   11084:	4d207473 	.word	0x4d207473
   11088:	2065646f 	.word	0x2065646f
   1108c:	4d363928 	.word	0x4d363928
   11090:	0d297a48 	.word	0x0d297a48
   11094:	0000000a 	.word	0x0000000a
   11098:	6c696146 	.word	0x6c696146
   1109c:	74206465 	.word	0x74206465
   110a0:	6e45206f 	.word	0x6e45206f
   110a4:	656c6261 	.word	0x656c6261
   110a8:	72754220 	.word	0x72754220
   110ac:	4d207473 	.word	0x4d207473
   110b0:	2065646f 	.word	0x2065646f
   110b4:	7265706f 	.word	0x7265706f
   110b8:	6f697461 	.word	0x6f697461
   110bc:	000a0d6e 	.word	0x000a0d6e

000110c0 <g_SysRingBuffSetup>:
   110c0:	00000001 1000c188 0000fa00              ............

000110cc <g_deepsleep_button0>:
   110cc:	00001003                                ....

000110d0 <g_in16TestInput_2KHZ_SR16K>:
   110d0:	5a810000 5a817fff a57f0000 a57f8001     ...Z...Z........
   110e0:	5a810000 5a817fff a57f0000 a57f8001     ...Z...Z........
   110f0:	5a810000 5a817fff a57f0000 a57f8001     ...Z...Z........
   11100:	5a810000 5a817fff a57f0000 a57f8001     ...Z...Z........
   11110:	5a810000 5a817fff a57f0000 a57f8001     ...Z...Z........
   11120:	5a810000 5a817fff a57f0000 a57f8001     ...Z...Z........
   11130:	5a810000 5a817fff a57f0000 a57f8001     ...Z...Z........
   11140:	5a810000 5a817fff a57f0000 a57f8001     ...Z...Z........
   11150:	5a810000 5a817fff a57f0000 a57f8001     ...Z...Z........
   11160:	5a810000 5a817fff a57f0000 a57f8001     ...Z...Z........
   11170:	5a810000 5a817fff a57f0000 a57f8001     ...Z...Z........
   11180:	5a810000 5a817fff a57f0000 a57f8001     ...Z...Z........
   11190:	5a810000 5a817fff a57f0000 a57f8001     ...Z...Z........
   111a0:	5a810000 5a817fff a57f0000 a57f8001     ...Z...Z........
   111b0:	5a810000 5a817fff a57f0000 a57f8001     ...Z...Z........
   111c0:	5a810000 5a817fff a57f0000 a57f8001     ...Z...Z........
   111d0:	5a810000 5a817fff a57f0000 a57f8001     ...Z...Z........
   111e0:	5a810000 5a817fff a57f0000 a57f8001     ...Z...Z........
   111f0:	5a810000 5a817fff a57f0000 a57f8001     ...Z...Z........
   11200:	5a810000 5a817fff a57f0000 a57f8001     ...Z...Z........
   11210:	5a810000 5a817fff a57f0000 a57f8001     ...Z...Z........
   11220:	5a810000 5a817fff a57f0000 a57f8001     ...Z...Z........
   11230:	5a810000 5a817fff a57f0000 a57f8001     ...Z...Z........
   11240:	5a810000 5a817fff a57f0000 a57f8001     ...Z...Z........
   11250:	5a810000 5a817fff a57f0000 a57f8001     ...Z...Z........
   11260:	5a810000 5a817fff a57f0000 a57f8001     ...Z...Z........
   11270:	5a810000 5a817fff a57f0000 a57f8001     ...Z...Z........
   11280:	5a810000 5a817fff a57f0000 a57f8001     ...Z...Z........
   11290:	5a810000 5a817fff a57f0000 a57f8001     ...Z...Z........
   112a0:	5a810000 5a817fff a57f0000 a57f8001     ...Z...Z........
   112b0:	5a810000 5a817fff a57f0000 a57f8001     ...Z...Z........
   112c0:	5a810000 5a817fff a57f0000 a57f8001     ...Z...Z........
   112d0:	5a810000 5a817fff a57f0000 a57f8001     ...Z...Z........
   112e0:	5a810000 5a817fff a57f0000 a57f8001     ...Z...Z........
   112f0:	5a810000 5a817fff a57f0000 a57f8001     ...Z...Z........
   11300:	5a810000 5a817fff a57f0000 a57f8001     ...Z...Z........
   11310:	5a810000 5a817fff a57f0000 a57f8001     ...Z...Z........
   11320:	5a810000 5a817fff a57f0000 a57f8001     ...Z...Z........
   11330:	5a810000 5a817fff a57f0000 a57f8001     ...Z...Z........
   11340:	5a810000 5a817fff a57f0000 a57f8001     ...Z...Z........
   11350:	5a810000 5a817fff a57f0000 a57f8001     ...Z...Z........
   11360:	5a810000 5a817fff a57f0000 a57f8001     ...Z...Z........
   11370:	5a810000 5a817fff a57f0000 a57f8001     ...Z...Z........
   11380:	5a810000 5a817fff a57f0000 a57f8001     ...Z...Z........
   11390:	5a810000 5a817fff a57f0000 a57f8001     ...Z...Z........
   113a0:	5a810000 5a817fff a57f0000 a57f8001     ...Z...Z........
   113b0:	5a810000 5a817fff a57f0000 a57f8001     ...Z...Z........
   113c0:	5a810000 5a817fff a57f0000 a57f8001     ...Z...Z........
   113d0:	5a810000 5a817fff a57f0000 a57f8001     ...Z...Z........
   113e0:	5a810000 5a817fff a57f0000 a57f8001     ...Z...Z........
   113f0:	5a810000 5a817fff a57f0000 a57f8001     ...Z...Z........
   11400:	5a810000 5a817fff a57f0000 a57f8001     ...Z...Z........
   11410:	5a810000 5a817fff a57f0000 a57f8001     ...Z...Z........
   11420:	5a810000 5a817fff a57f0000 a57f8001     ...Z...Z........
   11430:	5a810000 5a817fff a57f0000 a57f8001     ...Z...Z........
   11440:	5a810000 5a817fff a57f0000 a57f8001     ...Z...Z........
   11450:	5a810000 5a817fff a57f0000 a57f8001     ...Z...Z........
   11460:	5a810000 5a817fff a57f0000 a57f8001     ...Z...Z........
   11470:	5a810000 5a817fff a57f0000 a57f8001     ...Z...Z........
   11480:	5a810000 5a817fff a57f0000 a57f8001     ...Z...Z........
   11490:	5a810000 5a817fff a57f0000 a57f8001     ...Z...Z........
   114a0:	5a810000 5a817fff a57f0000 a57f8001     ...Z...Z........
   114b0:	5a810000 5a817fff a57f0000 a57f8001     ...Z...Z........
   114c0:	5a810000 5a817fff a57f0000 a57f8001     ...Z...Z........
   114d0:	5a810000 5a817fff a57f0000 a57f8001     ...Z...Z........
   114e0:	5a810000 5a817fff a57f0000 a57f8001     ...Z...Z........
   114f0:	5a810000 5a817fff a57f0000 a57f8001     ...Z...Z........
   11500:	5a810000 5a817fff a57f0000 a57f8001     ...Z...Z........
   11510:	5a810000 5a817fff a57f0000 a57f8001     ...Z...Z........
   11520:	5a810000 5a817fff a57f0000 a57f8001     ...Z...Z........
   11530:	5a810000 5a817fff a57f0000 a57f8001     ...Z...Z........
   11540:	5a810000 5a817fff a57f0000 a57f8001     ...Z...Z........
   11550:	5a810000 5a817fff a57f0000 a57f8001     ...Z...Z........
   11560:	5a810000 5a817fff a57f0000 a57f8001     ...Z...Z........
   11570:	5a810000 5a817fff a57f0000 a57f8001     ...Z...Z........
   11580:	5a810000 5a817fff a57f0000 a57f8001     ...Z...Z........
   11590:	5a810000 5a817fff a57f0000 a57f8001     ...Z...Z........
   115a0:	5a810000 5a817fff a57f0000 a57f8001     ...Z...Z........
   115b0:	5a810000 5a817fff a57f0000 a57f8001     ...Z...Z........
   115c0:	5a810000 5a817fff a57f0000 a57f8001     ...Z...Z........
   115d0:	5a810000 5a817fff a57f0000 a57f8001     ...Z...Z........
   115e0:	5a810000 5a817fff a57f0000 a57f8001     ...Z...Z........
   115f0:	5a810000 5a817fff a57f0000 a57f8001     ...Z...Z........
   11600:	5a810000 5a817fff a57f0000 a57f8001     ...Z...Z........
   11610:	5a810000 5a817fff a57f0000 a57f8001     ...Z...Z........
   11620:	5a810000 5a817fff a57f0000 a57f8001     ...Z...Z........
   11630:	5a810000 5a817fff a57f0000 a57f8001     ...Z...Z........
   11640:	5a810000 5a817fff a57f0000 a57f8001     ...Z...Z........
   11650:	5a810000 5a817fff a57f0000 a57f8001     ...Z...Z........
   11660:	5a810000 5a817fff a57f0000 a57f8001     ...Z...Z........
   11670:	5a810000 5a817fff a57f0000 a57f8001     ...Z...Z........
   11680:	5a810000 5a817fff a57f0000 a57f8001     ...Z...Z........
   11690:	5a810000 5a817fff a57f0000 a57f8001     ...Z...Z........
   116a0:	5a810000 5a817fff a57f0000 a57f8001     ...Z...Z........
   116b0:	5a810000 5a817fff a57f0000 a57f8001     ...Z...Z........
   116c0:	5a810000 5a817fff a57f0000 a57f8001     ...Z...Z........
   116d0:	5a810000 5a817fff a57f0000 a57f8001     ...Z...Z........
   116e0:	5a810000 5a817fff a57f0000 a57f8001     ...Z...Z........
   116f0:	5a810000 5a817fff a57f0000 a57f8001     ...Z...Z........
   11700:	5a810000 5a817fff a57f0000 a57f8001     ...Z...Z........
   11710:	5a810000 5a817fff a57f0000 a57f8001     ...Z...Z........
   11720:	5a810000 5a817fff a57f0000 a57f8001     ...Z...Z........
   11730:	5a810000 5a817fff a57f0000 a57f8001     ...Z...Z........
   11740:	5a810000 5a817fff a57f0000 a57f8001     ...Z...Z........
   11750:	5a810000 5a817fff a57f0000 a57f8001     ...Z...Z........
   11760:	5a810000 5a817fff a57f0000 a57f8001     ...Z...Z........
   11770:	5a810000 5a817fff a57f0000 a57f8001     ...Z...Z........
   11780:	5a810000 5a817fff a57f0000 a57f8001     ...Z...Z........
   11790:	5a810000 5a817fff a57f0000 a57f8001     ...Z...Z........
   117a0:	5a810000 5a817fff a57f0000 a57f8001     ...Z...Z........
   117b0:	5a810000 5a817fff a57f0000 a57f8001     ...Z...Z........
   117c0:	5a810000 5a817fff a57f0000 a57f8001     ...Z...Z........
   117d0:	5a810000 5a817fff a57f0000 a57f8001     ...Z...Z........
   117e0:	5a810000 5a817fff a57f0000 a57f8001     ...Z...Z........
   117f0:	5a810000 5a817fff a57f0000 a57f8001     ...Z...Z........
   11800:	5a810000 5a817fff a57f0000 a57f8001     ...Z...Z........
   11810:	5a810000 5a817fff a57f0000 a57f8001     ...Z...Z........
   11820:	5a810000 5a817fff a57f0000 a57f8001     ...Z...Z........
   11830:	5a810000 5a817fff a57f0000 a57f8001     ...Z...Z........
   11840:	5a810000 5a817fff a57f0000 a57f8001     ...Z...Z........
   11850:	5a810000 5a817fff a57f0000 a57f8001     ...Z...Z........
   11860:	5a810000 5a817fff a57f0000 a57f8001     ...Z...Z........
   11870:	5a810000 5a817fff a57f0000 a57f8001     ...Z...Z........
   11880:	5a810000 5a817fff a57f0000 a57f8001     ...Z...Z........
   11890:	5a810000 5a817fff a57f0000 a57f8001     ...Z...Z........
   118a0:	5a810000 5a817fff a57f0000 a57f8001     ...Z...Z........
   118b0:	5a810000 5a817fff a57f0000 a57f8001     ...Z...Z........
   118c0:	5a810000 5a817fff a57f0000 a57f8001     ...Z...Z........

000118d0 <g_f32HanningWindow>:
   118d0:	00000000 3a1dcf89 3b1dcf89 3bb15726     .......:...;&W.;
   118e0:	3c1d66ae 3c757f73 3cb05faf 3cef6f8f     .f.<s.u<._.<.o.<
   118f0:	3d1be4cd 3d44a0e4 3d71d2e1 3d91afc0     ...=..D=..q=...=
   11900:	3dac9321 3dc983d8 3de87011 3e04a1f1     !..=...=.p.=...>
   11910:	3e15f634 3e28298d 3e3b30b6 3e4f0069     4..>.)(>.0;>i.O>
   11920:	3e638c54 3e78c79f 3e875297 3e928bb1     T.c>..x>.R.>...>
   11930:	3e9e086c 3ea9c194 3eb5aff3 3ec1cc10     l..>...>...>...>
   11940:	3ece0e95 3eda6fe7 3ee6e84b 3ef37048     ...>.o.>K..>Hp.>
   11950:	3f000000 3f0647dc 3f0c8bdb 3f12c80c     ...?.G.?...?...?
   11960:	3f18f8b6 3f1f19f8 3f252807 3f2b1f36     ...?...?.(%?6.+?
   11970:	3f30fbca 3f36ba28 3f3c56b4 3f41ce18     ..0?(.6?.V<?..A?
   11980:	3f471ceb 3f4c3fe6 3f5133d3 3f55f59d     ..G?.?L?.3Q?..U?
   11990:	3f5a8273 3f5ed784 3f62f1fe 3f66cf85     s.Z?..^?..b?..f?
   119a0:	3f6a6d9c 3f6dca08 3f70e2d2 3f73b5f2     .mj?..m?..p?..s?
   119b0:	3f7641b3 3f788484 3f7a7d03 3f7c2a02     .Av?..x?.}z?.*|?
   119c0:	3f7d8a65 3f7e9d52 3f7f6230 3f7fd88c     e.}?R.~?0b.?...?
   119d0:	3f800000 3f7fd88c 3f7f6230 3f7e9d52     ...?...?0b.?R.~?
   119e0:	3f7d8a65 3f7c2a02 3f7a7d03 3f788484     e.}?.*|?.}z?..x?
   119f0:	3f7641b3 3f73b5f2 3f70e2d2 3f6dca08     .Av?..s?..p?..m?
   11a00:	3f6a6d9c 3f66cf85 3f62f1fe 3f5ed784     .mj?..f?..b?..^?
   11a10:	3f5a8273 3f55f59d 3f5133d3 3f4c3fe6     s.Z?..U?.3Q?.?L?
   11a20:	3f471ceb 3f41ce18 3f3c56b4 3f36ba28     ..G?..A?.V<?(.6?
   11a30:	3f30fbca 3f2b1f36 3f252807 3f1f19f8     ..0?6.+?.(%?...?
   11a40:	3f18f8b6 3f12c80c 3f0c8bdb 3f0647dc     ...?...?...?.G.?
   11a50:	3f000000 3ef37048 3ee6e84b 3eda6fe7     ...?Hp.>K..>.o.>
   11a60:	3ece0e95 3ec1cc10 3eb5aff3 3ea9c194     ...>...>...>...>
   11a70:	3e9e086c 3e928bb1 3e875297 3e78c79f     l..>...>.R.>..x>
   11a80:	3e638c54 3e4f0069 3e3b30b6 3e28298d     T.c>i.O>.0;>.)(>
   11a90:	3e15f634 3e04a1f1 3de87011 3dc983d8     4..>...>.p.=...=
   11aa0:	3dac9321 3d91afc0 3d71d2e1 3d44a0e4     !..=...=..q=..D=
   11ab0:	3d1be4cd 3cef6f8f 3cb05faf 3c757f73     ...=.o.<._.<s.u<
   11ac0:	3c1d66ae 3bb15726 3b1dcf89 3a1dcf89     .f.<&W.;...;...:

00011ad0 <g_sBspUartConfig>:
   11ad0:	0001c200 00000060 00000000 00000000     ....`...........
   11ae0:	00000000 00000012 00000000 00000000     ................
	...

00011af8 <g_AM_BSP_GPIO_COM_UART_TX>:
   11af8:	00000000                                ....

00011afc <g_AM_BSP_GPIO_COM_UART_RX>:
   11afc:	00000000                                ....

00011b00 <am_hal_cachectrl_defaults>:
   11b00:	00000308                                ....

00011b04 <g_AM_HAL_GPIO_TRISTATE>:
   11b04:	00000c03                                ....

00011b08 <g_ui8Bit76Capabilities>:
   11b08:	02800101 80010180 80800101 80808080     ................
   11b18:	80808080 80808008 01800180 80808080     ................
   11b28:	80808080 01800402 01010401 80808080     ................
   11b38:	00000101                                ....

00011b3c <g_ui8NCEtable>:
   11b3c:	13524232 60221202 21534333 20504030     2BR..."`3CS!0@P 
   11b4c:	11514131 ffffffff ffffffff 60514131     1AQ.........1AQ`
   11b5c:	00504030 23534333 60524232 30201000     0@P.3CS#2BR`.. 0
   11b6c:	61504030 01514131 42221202 60231303     0@Pa1AQ..."B..#`
   11b7c:	50201000 41211101 32221202 60331303     .. P..!A.."2..3`
   11b8c:	21514131 22524232 03534333 40201000     1AQ!2BR"3CS... @
   11b9c:	51211101 02524232 13534333 10504030     ..!Q2BR.3CS.0@P.
   11bac:	60514131 12524232 03534333 40201000     1AQ`2BR.3CS... @
   11bbc:	61211101 52221202 33231303 30201000     ..!a.."R..#3.. 0
   11bcc:	61514131 02524232 53331303 ffffffff     1AQa2BR...3S....
   11bdc:	ffffffff 61211101 50201000 61211101     ......!a.. P..!a
   11bec:	52221202 13534333 61504030 31211101     .."R3CS.0@Pa..!1
   11bfc:	32221202 43231303                       .."2..#C

00011c04 <g_ui8Inpen>:
   11c04:	62272323 108703a1 e1005303 55418151     ##'b.....S..Q.AU
   11c14:	4080c405 4140b101 31a03114 1180f100     ...@..@A.1.1....
   11c24:	11c12191 304511e5 31300037 40007100     .!....E07.01.q.@
   11c34:	00003130                                01..

00011c38 <g_AM_HAL_GPIO_DISABLE>:
   11c38:	00000003                                ....

00011c3c <g_AM_HAL_GPIO_OUTPUT>:
   11c3c:	00000403                                ....

00011c40 <g_ui8nCEpins>:
   11c40:	02070707 00080802 01020202 01010101     ................
   11c50:	01010101 01010101 01010101 01010101     ................
   11c60:	01010101 08010101 01010008 01010101     ................
   11c70:	00000101                                ....

00011c74 <g_am_hal_mcuctrl_flash_size>:
   11c74:	00004000 00008000 00010000 00020000     .@..............
   11c84:	00040000 00080000 00100000 00200000     .............. .
   11c94:	00180000 00000000 00000000 00000000     ................
	...

00011cb4 <g_am_hal_mcuctrl_sram_size>:
   11cb4:	00004000 00008000 00010000 00020000     .@..............
   11cc4:	00040000 00080000 00100000 00060000     ................
   11cd4:	000c0000 00000000 00000000 00000000     ................
	...

00011cf4 <am_hal_pwrctrl_peripheral_control>:
	...
   11d00:	00000001 00000004 00000004 00000002     ................
   11d10:	00000008 00000008 00000004 00000008     ................
   11d20:	00000008 00000008 00000008 00000008     ................
   11d30:	00000010 00000010 00000010 00000020     ............ ...
   11d40:	00000010 00000010 00000040 00000010     ........@.......
   11d50:	00000010 00000080 00000004 00000004     ................
   11d60:	00000100 00000004 00000004 00000200     ................
   11d70:	00000020 00000020 00000400 00000004      ... ...........
   11d80:	00000004 00000800 00000040 00000040     ........@...@...
   11d90:	00001000 00000080 00000080 00002000     ............. ..
   11da0:	00000100 00000100                       ........

00011da8 <twiddleCoef_2048>:
   11da8:	3f800000 00000000 3f7fffb1 3b490fc7     ...?.......?..I;
   11db8:	3f7ffec4 3bc90f89 3f7ffd39 3c16cb59     ...?...;9..?Y..<
   11dc8:	3f7ffb11 3c490e90 3f7ff84a 3c7b514b     ...?..I<J..?KQ{<
   11dd8:	3f7ff4e6 3c96c9b6 3f7ff0e3 3cafea69     ...?...<...?i..<
   11de8:	3f7fec43 3cc90ab0 3f7fe705 3ce22a7b     C..?...<...?{*.<
   11df8:	3f7fe129 3cfb49b9 3f7fdaaf 3d0a342f     )..?.I.<...?/4.=
   11e08:	3f7fd398 3d16c32c 3f7fcbe2 3d2351cc     ...?,..=...?.Q#=
   11e18:	3f7fc38f 3d2fe007 3f7fba9e 3d3c6dd5     ...?../=...?.m<=
   11e28:	3f7fb10f 3d48fb2f 3f7fa6e3 3d55880e     ...?/.H=...?..U=
   11e38:	3f7f9c18 3d621468 3f7f90b1 3d6ea038     ...?h.b=...?8.n=
   11e48:	3f7f84ab 3d7b2b74 3f7f7808 3d83db0a     ...?t+{=.x.?...=
   11e58:	3f7f6ac7 3d8a200a 3f7f5ce9 3d9064b4     .j.?. .=.\.?.d.=
   11e68:	3f7f4e6d 3d96a905 3f7f3f54 3d9cecf9     mN.?...=T?.?...=
   11e78:	3f7f2f9d 3da3308c 3f7f1f49 3da973ba     ./.?.0.=I..?.s.=
   11e88:	3f7f0e58 3dafb680 3f7efcc9 3db5f8da     X..?...=..~?...=
   11e98:	3f7eea9d 3dbc3ac3 3f7ed7d4 3dc27c39     ..~?.:.=..~?9|.=
   11ea8:	3f7ec46d 3dc8bd36 3f7eb069 3dcefdb7     m.~?6..=i.~?...=
   11eb8:	3f7e9bc9 3dd53db9 3f7e868b 3ddb7d37     ..~?.=.=..~?7}.=
   11ec8:	3f7e70b0 3de1bc2e 3f7e5a38 3de7fa9a     .p~?...=8Z~?...=
   11ed8:	3f7e4323 3dee3876 3f7e2b72 3df475c0     #C~?v8.=r+~?.u.=
   11ee8:	3f7e1324 3dfab273 3f7dfa38 3e007745     $.~?s..=8.}?Ew.>
   11ef8:	3f7de0b1 3e039502 3f7dc68c 3e06b26e     ..}?...>..}?n..>
   11f08:	3f7dabcc 3e09cf86 3f7d906e 3e0cec4a     ..}?...>n.}?J..>
   11f18:	3f7d7474 3e1008b7 3f7d57de 3e1324ca     tt}?...>.W}?.$.>
   11f28:	3f7d3aac 3e164083 3f7d1cdd 3e195be0     .:}?.@.>..}?.[.>
   11f38:	3f7cfe73 3e1c76de 3f7cdf6c 3e1f917b     s.|?.v.>l.|?{..>
   11f48:	3f7cbfc9 3e22abb6 3f7c9f8a 3e25c58c     ..|?..">..|?..%>
   11f58:	3f7c7eb0 3e28defc 3f7c5d3a 3e2bf804     .~|?..(>:]|?..+>
   11f68:	3f7c3b28 3e2f10a2 3f7c187a 3e3228d4     (;|?../>z.|?.(2>
   11f78:	3f7bf531 3e354098 3f7bd14d 3e3857ec     1.{?.@5>M.{?.W8>
   11f88:	3f7baccd 3e3b6ecf 3f7b87b2 3e3e853e     ..{?.n;>..{?>.>>
   11f98:	3f7b61fc 3e419b37 3f7b3bab 3e44b0b9     .a{?7.A>.;{?..D>
   11fa8:	3f7b14be 3e47c5c2 3f7aed37 3e4ada4f     ..{?..G>7.z?O.J>
   11fb8:	3f7ac516 3e4dee60 3f7a9c59 3e5101f1     ..z?`.M>Y.z?..Q>
   11fc8:	3f7a7302 3e541501 3f7a4910 3e57278f     .sz?..T>.Iz?.'W>
   11fd8:	3f7a1e84 3e5a3997 3f79f35e 3e5d4b1a     ..z?.9Z>^.y?.K]>
   11fe8:	3f79c79d 3e605c13 3f799b43 3e636c83     ..y?.\`>C.y?.lc>
   11ff8:	3f796e4e 3e667c66 3f7940c0 3e698bba     Nny?f|f>.@y?..i>
   12008:	3f791298 3e6c9a7f 3f78e3d6 3e6fa8b2     ..y?..l>..x?..o>
   12018:	3f78b47b 3e72b651 3f788486 3e75c35a     {.x?Q.r>..x?Z.u>
   12028:	3f7853f8 3e78cfcc 3f7822d1 3e7bdba4     .Sx?..x>."x?..{>
   12038:	3f77f110 3e7ee6e1 3f77beb7 3e80f8c0     ..w?..~>..w?...>
   12048:	3f778bc5 3e827dc0 3f77583a 3e840270     ..w?.}.>:Xw?p..>
   12058:	3f772417 3e8586ce 3f76ef5b 3e870ada     .$w?...>[.v?...>
   12068:	3f76ba07 3e888e93 3f76841b 3e8a11f8     ..v?...>..v?...>
   12078:	3f764d97 3e8b9507 3f76167a 3e8d17c0     .Mv?...>z.v?...>
   12088:	3f75dec6 3e8e9a22 3f75a67b 3e901c2c     ..u?"..>{.u?,..>
   12098:	3f756d97 3e919ddd 3f75341d 3e931f35     .mu?...>.4u?5..>
   120a8:	3f74fa0b 3e94a031 3f74bf62 3e9620d2     ..t?1..>b.t?. .>
   120b8:	3f748422 3e97a117 3f74484b 3e9920fe     ".t?...>KHt?. .>
   120c8:	3f740bdd 3e9aa086 3f73ced9 3e9c1faf     ..t?...>..s?...>
   120d8:	3f73913f 3e9d9e78 3f73530e 3e9f1cdf     ?.s?x..>.Ss?...>
   120e8:	3f731447 3ea09ae5 3f72d4eb 3ea21887     G.s?...>..r?...>
   120f8:	3f7294f8 3ea395c5 3f725470 3ea5129f     ..r?...>pTr?...>
   12108:	3f721352 3ea68f12 3f71d19f 3ea80b1f     R.r?...>..q?...>
   12118:	3f718f57 3ea986c4 3f714c7a 3eab0201     W.q?...>zLq?...>
   12128:	3f710908 3eac7cd4 3f70c502 3eadf73c     ..q?.|.>..p?<..>
   12138:	3f708066 3eaf713a 3f703b37 3eb0eacb     f.p?:q.>7;p?...>
   12148:	3f6ff573 3eb263ef 3f6faf1b 3eb3dca5     s.o?.c.>..o?...>
   12158:	3f6f6830 3eb554ec 3f6f20b0 3eb6ccc3     0ho?.T.>. o?...>
   12168:	3f6ed89e 3eb8442a 3f6e8ff8 3eb9bb1e     ..n?*D.>..n?...>
   12178:	3f6e46be 3ebb31a0 3f6dfcf2 3ebca7af     .Fn?.1.>..m?...>
   12188:	3f6db293 3ebe1d4a 3f6d67a1 3ebf926f     ..m?J..>.gm?o..>
   12198:	3f6d1c1d 3ec1071e 3f6cd007 3ec27b55     ..m?...>..l?U{.>
   121a8:	3f6c835e 3ec3ef15 3f6c3624 3ec5625c     ^.l?...>$6l?\b.>
   121b8:	3f6be858 3ec6d529 3f6b99fb 3ec8477c     X.k?)..>..k?|G.>
   121c8:	3f6b4b0c 3ec9b953 3f6afb8c 3ecb2aae     .Kk?S..>..j?.*.>
   121d8:	3f6aab7b 3ecc9b8b 3f6a5ad9 3ece0bea     {.j?...>.Zj?...>
   121e8:	3f6a09a7 3ecf7bca 3f69b7e4 3ed0eb2a     ..j?.{.>..i?*..>
   121f8:	3f696591 3ed25a09 3f6912ae 3ed3c867     .ei?.Z.>..i?g..>
   12208:	3f68bf3c 3ed53641 3f686b39 3ed6a399     <.h?A6.>9kh?...>
   12218:	3f6816a8 3ed8106b 3f67c187 3ed97cb9     ..h?k..>..g?.|.>
   12228:	3f676bd8 3edae880 3f671599 3edc53c1     .kg?...>..g?.S.>
   12238:	3f66becc 3eddbe79 3f666771 3edf28a9     ..f?y..>qgf?.(.>
   12248:	3f660f88 3ee0924f 3f65b710 3ee1fb6a     ..f?O..>..e?j..>
   12258:	3f655e0b 3ee363fa 3f650479 3ee4cbfe     .^e?.c.>y.e?...>
   12268:	3f64aa59 3ee63375 3f644fac 3ee79a5d     Y.d?u3.>.Od?]..>
   12278:	3f63f473 3ee900b7 3f6398ac 3eea6681     s.c?...>..c?.f.>
   12288:	3f633c5a 3eebcbbb 3f62df7b 3eed3063     Z<c?...>{.b?c0.>
   12298:	3f628210 3eee9479 3f62241a 3eeff7fb     ..b?y..>.$b?...>
   122a8:	3f61c598 3ef15aea 3f61668a 3ef2bd43     ..a?.Z.>.fa?C..>
   122b8:	3f6106f2 3ef41f07 3f60a6cf 3ef58035     ..a?...>..`?5..>
   122c8:	3f604621 3ef6e0cb 3f5fe4e9 3ef840c8     !F`?...>.._?.@.>
   122d8:	3f5f8327 3ef9a02d 3f5f20db 3efafef7     '._?-..>. _?...>
   122e8:	3f5ebe05 3efc5d27 3f5e5aa6 3efdbabb     ..^?'].>.Z^?...>
   122f8:	3f5df6be 3eff17b2 3f5d924d 3f003a06     ..]?...>M.]?.:.?
   12308:	3f5d2d53 3f00e7e4 3f5cc7d1 3f019573     S-]?...?..\?s..?
   12318:	3f5c61c7 3f0242b1 3f5bfb34 3f02ef9f     .a\?.B.?4.[?...?
   12328:	3f5b941a 3f039c3d 3f5b2c79 3f044889     ..[?=..?y,[?.H.?
   12338:	3f5ac450 3f04f484 3f5a5ba0 3f05a02c     P.Z?...?.[Z?,..?
   12348:	3f59f26a 3f064b82 3f5988ad 3f06f686     j.Y?.K.?..Y?...?
   12358:	3f591e6a 3f07a136 3f58b3a1 3f084b92     j.Y?6..?..X?.K.?
   12368:	3f584853 3f08f59b 3f57dc7f 3f099f4e     SHX?...?..W?N..?
   12378:	3f577026 3f0a48ad 3f570348 3f0af1b7     &pW?.H.?H.W?...?
   12388:	3f5695e5 3f0b9a6b 3f5627fe 3f0c42c9     ..V?k..?.'V?.B.?
   12398:	3f55b993 3f0cead0 3f554aa4 3f0d9281     ..U?...?.JU?...?
   123a8:	3f54db31 3f0e39da 3f546b3b 3f0ee0db     1.T?.9.?;kT?...?
   123b8:	3f53fac3 3f0f8784 3f5389c7 3f102dd5     ..S?...?..S?.-.?
   123c8:	3f531849 3f10d3cd 3f52a649 3f11796b     I.S?...?I.R?ky.?
   123d8:	3f5233c6 3f121eb0 3f51c0c2 3f12c39a     .3R?...?..Q?...?
   123e8:	3f514d3d 3f13682a 3f50d937 3f140c5f     =MQ?*h.?7.P?_..?
   123f8:	3f5064af 3f14b039 3f4fefa8 3f1553b7     .dP?9..?..O?.S.?
   12408:	3f4f7a1f 3f15f6d9 3f4f0417 3f16999f     .zO?...?..O?...?
   12418:	3f4e8d90 3f173c07 3f4e1689 3f17de12     ..N?.<.?..N?...?
   12428:	3f4d9f02 3f187fc0 3f4d26fd 3f19210f     ..M?...?.&M?.!.?
   12438:	3f4cae79 3f19c200 3f4c3578 3f1a6293     y.L?...?x5L?.b.?
   12448:	3f4bbbf8 3f1b02c6 3f4b41fa 3f1ba299     ..K?...?.AK?...?
   12458:	3f4ac77f 3f1c420c 3f4a4c87 3f1ce11f     ..J?.B.?.LJ?...?
   12468:	3f49d112 3f1d7fd1 3f495521 3f1e1e22     ..I?...?!UI?"..?
   12478:	3f48d8b3 3f1ebc12 3f485bca 3f1f599f     ..H?...?.[H?.Y.?
   12488:	3f47de65 3f1ff6cb 3f476085 3f209393     e.G?...?.`G?.. ?
   12498:	3f46e22a 3f212ff9 3f466354 3f21cbfb     *.F?./!?TcF?..!?
   124a8:	3f45e403 3f226799 3f456439 3f2302d3     ..E?.g"?9dE?..#?
   124b8:	3f44e3f5 3f239da9 3f446337 3f24381a     ..D?..#?7cD?.8$?
   124c8:	3f43e200 3f24d225 3f436051 3f256bcb     ..C?%.$?Q`C?.k%?
   124d8:	3f42de29 3f26050a 3f425b89 3f269de3     ).B?..&?.[B?..&?
   124e8:	3f41d870 3f273656 3f4154e1 3f27ce61     p.A?V6'?.TA?a.'?
   124f8:	3f40d0da 3f286605 3f404c5c 3f28fd41     ..@?.f(?\L@?A.(?
   12508:	3f3fc767 3f299415 3f3f41fc 3f2a2a80     g.??..)?.A??.**?
   12518:	3f3ebc1b 3f2ac082 3f3e35c5 3f2b561b     ..>?..*?.5>?.V+?
   12528:	3f3daef9 3f2beb4a 3f3d27b8 3f2c800f     ..=?J.+?.'=?..,?
   12538:	3f3ca003 3f2d1469 3f3c17d9 3f2da859     ..<?i.-?..<?Y.-?
   12548:	3f3b8f3b 3f2e3bde 3f3b0629 3f2ecef7     ;.;?.;.?).;?...?
   12558:	3f3a7ca4 3f2f61a5 3f39f2ac 3f2ff3e6     .|:?.a/?..9?../?
   12568:	3f396842 3f3085bb 3f38dd65 3f311722     Bh9?..0?e.8?".1?
   12578:	3f385216 3f31a81d 3f37c655 3f3238aa     .R8?..1?U.7?.82?
   12588:	3f373a23 3f32c8c9 3f36ad7f 3f33587a     #:7?..2?..6?zX3?
   12598:	3f36206c 3f33e7bc 3f3592e7 3f34768f     l 6?..3?..5?.v4?
   125a8:	3f3504f3 3f3504f3 3f34768f 3f3592e7     ..5?..5?.v4?..5?
   125b8:	3f33e7bc 3f36206c 3f33587a 3f36ad7f     ..3?l 6?zX3?..6?
   125c8:	3f32c8c9 3f373a23 3f3238aa 3f37c655     ..2?#:7?.82?U.7?
   125d8:	3f31a81d 3f385216 3f311722 3f38dd65     ..1?.R8?".1?e.8?
   125e8:	3f3085bb 3f396842 3f2ff3e6 3f39f2ac     ..0?Bh9?../?..9?
   125f8:	3f2f61a5 3f3a7ca4 3f2ecef7 3f3b0629     .a/?.|:?...?).;?
   12608:	3f2e3bde 3f3b8f3b 3f2da859 3f3c17d9     .;.?;.;?Y.-?..<?
   12618:	3f2d1469 3f3ca003 3f2c800f 3f3d27b8     i.-?..<?..,?.'=?
   12628:	3f2beb4a 3f3daef9 3f2b561b 3f3e35c5     J.+?..=?.V+?.5>?
   12638:	3f2ac082 3f3ebc1b 3f2a2a80 3f3f41fc     ..*?..>?.**?.A??
   12648:	3f299415 3f3fc767 3f28fd41 3f404c5c     ..)?g.??A.(?\L@?
   12658:	3f286605 3f40d0da 3f27ce61 3f4154e1     .f(?..@?a.'?.TA?
   12668:	3f273656 3f41d870 3f269de3 3f425b89     V6'?p.A?..&?.[B?
   12678:	3f26050a 3f42de29 3f256bcb 3f436051     ..&?).B?.k%?Q`C?
   12688:	3f24d225 3f43e200 3f24381a 3f446337     %.$?..C?.8$?7cD?
   12698:	3f239da9 3f44e3f5 3f2302d3 3f456439     ..#?..D?..#?9dE?
   126a8:	3f226799 3f45e403 3f21cbfb 3f466354     .g"?..E?..!?TcF?
   126b8:	3f212ff9 3f46e22a 3f209393 3f476085     ./!?*.F?.. ?.`G?
   126c8:	3f1ff6cb 3f47de65 3f1f599f 3f485bca     ...?e.G?.Y.?.[H?
   126d8:	3f1ebc12 3f48d8b3 3f1e1e22 3f495521     ...?..H?"..?!UI?
   126e8:	3f1d7fd1 3f49d112 3f1ce11f 3f4a4c87     ...?..I?...?.LJ?
   126f8:	3f1c420c 3f4ac77f 3f1ba299 3f4b41fa     .B.?..J?...?.AK?
   12708:	3f1b02c6 3f4bbbf8 3f1a6293 3f4c3578     ...?..K?.b.?x5L?
   12718:	3f19c200 3f4cae79 3f19210f 3f4d26fd     ...?y.L?.!.?.&M?
   12728:	3f187fc0 3f4d9f02 3f17de12 3f4e1689     ...?..M?...?..N?
   12738:	3f173c07 3f4e8d90 3f16999f 3f4f0417     .<.?..N?...?..O?
   12748:	3f15f6d9 3f4f7a1f 3f1553b7 3f4fefa8     ...?.zO?.S.?..O?
   12758:	3f14b039 3f5064af 3f140c5f 3f50d937     9..?.dP?_..?7.P?
   12768:	3f13682a 3f514d3d 3f12c39a 3f51c0c2     *h.?=MQ?...?..Q?
   12778:	3f121eb0 3f5233c6 3f11796b 3f52a649     ...?.3R?ky.?I.R?
   12788:	3f10d3cd 3f531849 3f102dd5 3f5389c7     ...?I.S?.-.?..S?
   12798:	3f0f8784 3f53fac3 3f0ee0db 3f546b3b     ...?..S?...?;kT?
   127a8:	3f0e39da 3f54db31 3f0d9281 3f554aa4     .9.?1.T?...?.JU?
   127b8:	3f0cead0 3f55b993 3f0c42c9 3f5627fe     ...?..U?.B.?.'V?
   127c8:	3f0b9a6b 3f5695e5 3f0af1b7 3f570348     k..?..V?...?H.W?
   127d8:	3f0a48ad 3f577026 3f099f4e 3f57dc7f     .H.?&pW?N..?..W?
   127e8:	3f08f59b 3f584853 3f084b92 3f58b3a1     ...?SHX?.K.?..X?
   127f8:	3f07a136 3f591e6a 3f06f686 3f5988ad     6..?j.Y?...?..Y?
   12808:	3f064b82 3f59f26a 3f05a02c 3f5a5ba0     .K.?j.Y?,..?.[Z?
   12818:	3f04f484 3f5ac450 3f044889 3f5b2c79     ...?P.Z?.H.?y,[?
   12828:	3f039c3d 3f5b941a 3f02ef9f 3f5bfb34     =..?..[?...?4.[?
   12838:	3f0242b1 3f5c61c7 3f019573 3f5cc7d1     .B.?.a\?s..?..\?
   12848:	3f00e7e4 3f5d2d53 3f003a06 3f5d924d     ...?S-]?.:.?M.]?
   12858:	3eff17b2 3f5df6be 3efdbabb 3f5e5aa6     ...>..]?...>.Z^?
   12868:	3efc5d27 3f5ebe05 3efafef7 3f5f20db     '].>..^?...>. _?
   12878:	3ef9a02d 3f5f8327 3ef840c8 3f5fe4e9     -..>'._?.@.>.._?
   12888:	3ef6e0cb 3f604621 3ef58035 3f60a6cf     ...>!F`?5..>..`?
   12898:	3ef41f07 3f6106f2 3ef2bd43 3f61668a     ...>..a?C..>.fa?
   128a8:	3ef15aea 3f61c598 3eeff7fb 3f62241a     .Z.>..a?...>.$b?
   128b8:	3eee9479 3f628210 3eed3063 3f62df7b     y..>..b?c0.>{.b?
   128c8:	3eebcbbb 3f633c5a 3eea6681 3f6398ac     ...>Z<c?.f.>..c?
   128d8:	3ee900b7 3f63f473 3ee79a5d 3f644fac     ...>s.c?]..>.Od?
   128e8:	3ee63375 3f64aa59 3ee4cbfe 3f650479     u3.>Y.d?...>y.e?
   128f8:	3ee363fa 3f655e0b 3ee1fb6a 3f65b710     .c.>.^e?j..>..e?
   12908:	3ee0924f 3f660f88 3edf28a9 3f666771     O..>..f?.(.>qgf?
   12918:	3eddbe79 3f66becc 3edc53c1 3f671599     y..>..f?.S.>..g?
   12928:	3edae880 3f676bd8 3ed97cb9 3f67c187     ...>.kg?.|.>..g?
   12938:	3ed8106b 3f6816a8 3ed6a399 3f686b39     k..>..h?...>9kh?
   12948:	3ed53641 3f68bf3c 3ed3c867 3f6912ae     A6.><.h?g..>..i?
   12958:	3ed25a09 3f696591 3ed0eb2a 3f69b7e4     .Z.>.ei?*..>..i?
   12968:	3ecf7bca 3f6a09a7 3ece0bea 3f6a5ad9     .{.>..j?...>.Zj?
   12978:	3ecc9b8b 3f6aab7b 3ecb2aae 3f6afb8c     ...>{.j?.*.>..j?
   12988:	3ec9b953 3f6b4b0c 3ec8477c 3f6b99fb     S..>.Kk?|G.>..k?
   12998:	3ec6d529 3f6be858 3ec5625c 3f6c3624     )..>X.k?\b.>$6l?
   129a8:	3ec3ef15 3f6c835e 3ec27b55 3f6cd007     ...>^.l?U{.>..l?
   129b8:	3ec1071e 3f6d1c1d 3ebf926f 3f6d67a1     ...>..m?o..>.gm?
   129c8:	3ebe1d4a 3f6db293 3ebca7af 3f6dfcf2     J..>..m?...>..m?
   129d8:	3ebb31a0 3f6e46be 3eb9bb1e 3f6e8ff8     .1.>.Fn?...>..n?
   129e8:	3eb8442a 3f6ed89e 3eb6ccc3 3f6f20b0     *D.>..n?...>. o?
   129f8:	3eb554ec 3f6f6830 3eb3dca5 3f6faf1b     .T.>0ho?...>..o?
   12a08:	3eb263ef 3f6ff573 3eb0eacb 3f703b37     .c.>s.o?...>7;p?
   12a18:	3eaf713a 3f708066 3eadf73c 3f70c502     :q.>f.p?<..>..p?
   12a28:	3eac7cd4 3f710908 3eab0201 3f714c7a     .|.>..q?...>zLq?
   12a38:	3ea986c4 3f718f57 3ea80b1f 3f71d19f     ...>W.q?...>..q?
   12a48:	3ea68f12 3f721352 3ea5129f 3f725470     ...>R.r?...>pTr?
   12a58:	3ea395c5 3f7294f8 3ea21887 3f72d4eb     ...>..r?...>..r?
   12a68:	3ea09ae5 3f731447 3e9f1cdf 3f73530e     ...>G.s?...>.Ss?
   12a78:	3e9d9e78 3f73913f 3e9c1faf 3f73ced9     x..>?.s?...>..s?
   12a88:	3e9aa086 3f740bdd 3e9920fe 3f74484b     ...>..t?. .>KHt?
   12a98:	3e97a117 3f748422 3e9620d2 3f74bf62     ...>".t?. .>b.t?
   12aa8:	3e94a031 3f74fa0b 3e931f35 3f75341d     1..>..t?5..>.4u?
   12ab8:	3e919ddd 3f756d97 3e901c2c 3f75a67b     ...>.mu?,..>{.u?
   12ac8:	3e8e9a22 3f75dec6 3e8d17c0 3f76167a     "..>..u?...>z.v?
   12ad8:	3e8b9507 3f764d97 3e8a11f8 3f76841b     ...>.Mv?...>..v?
   12ae8:	3e888e93 3f76ba07 3e870ada 3f76ef5b     ...>..v?...>[.v?
   12af8:	3e8586ce 3f772417 3e840270 3f77583a     ...>.$w?p..>:Xw?
   12b08:	3e827dc0 3f778bc5 3e80f8c0 3f77beb7     .}.>..w?...>..w?
   12b18:	3e7ee6e1 3f77f110 3e7bdba4 3f7822d1     ..~>..w?..{>."x?
   12b28:	3e78cfcc 3f7853f8 3e75c35a 3f788486     ..x>.Sx?Z.u>..x?
   12b38:	3e72b651 3f78b47b 3e6fa8b2 3f78e3d6     Q.r>{.x?..o>..x?
   12b48:	3e6c9a7f 3f791298 3e698bba 3f7940c0     ..l>..y?..i>.@y?
   12b58:	3e667c66 3f796e4e 3e636c83 3f799b43     f|f>Nny?.lc>C.y?
   12b68:	3e605c13 3f79c79d 3e5d4b1a 3f79f35e     .\`>..y?.K]>^.y?
   12b78:	3e5a3997 3f7a1e84 3e57278f 3f7a4910     .9Z>..z?.'W>.Iz?
   12b88:	3e541501 3f7a7302 3e5101f1 3f7a9c59     ..T>.sz?..Q>Y.z?
   12b98:	3e4dee60 3f7ac516 3e4ada4f 3f7aed37     `.M>..z?O.J>7.z?
   12ba8:	3e47c5c2 3f7b14be 3e44b0b9 3f7b3bab     ..G>..{?..D>.;{?
   12bb8:	3e419b37 3f7b61fc 3e3e853e 3f7b87b2     7.A>.a{?>.>>..{?
   12bc8:	3e3b6ecf 3f7baccd 3e3857ec 3f7bd14d     .n;>..{?.W8>M.{?
   12bd8:	3e354098 3f7bf531 3e3228d4 3f7c187a     .@5>1.{?.(2>z.|?
   12be8:	3e2f10a2 3f7c3b28 3e2bf804 3f7c5d3a     ../>(;|?..+>:]|?
   12bf8:	3e28defc 3f7c7eb0 3e25c58c 3f7c9f8a     ..(>.~|?..%>..|?
   12c08:	3e22abb6 3f7cbfc9 3e1f917b 3f7cdf6c     ..">..|?{..>l.|?
   12c18:	3e1c76de 3f7cfe73 3e195be0 3f7d1cdd     .v.>s.|?.[.>..}?
   12c28:	3e164083 3f7d3aac 3e1324ca 3f7d57de     .@.>.:}?.$.>.W}?
   12c38:	3e1008b7 3f7d7474 3e0cec4a 3f7d906e     ...>tt}?J..>n.}?
   12c48:	3e09cf86 3f7dabcc 3e06b26e 3f7dc68c     ...>..}?n..>..}?
   12c58:	3e039502 3f7de0b1 3e007745 3f7dfa38     ...>..}?Ew.>8.}?
   12c68:	3dfab273 3f7e1324 3df475c0 3f7e2b72     s..=$.~?.u.=r+~?
   12c78:	3dee3876 3f7e4323 3de7fa9a 3f7e5a38     v8.=#C~?...=8Z~?
   12c88:	3de1bc2e 3f7e70b0 3ddb7d37 3f7e868b     ...=.p~?7}.=..~?
   12c98:	3dd53db9 3f7e9bc9 3dcefdb7 3f7eb069     .=.=..~?...=i.~?
   12ca8:	3dc8bd36 3f7ec46d 3dc27c39 3f7ed7d4     6..=m.~?9|.=..~?
   12cb8:	3dbc3ac3 3f7eea9d 3db5f8da 3f7efcc9     .:.=..~?...=..~?
   12cc8:	3dafb680 3f7f0e58 3da973ba 3f7f1f49     ...=X..?.s.=I..?
   12cd8:	3da3308c 3f7f2f9d 3d9cecf9 3f7f3f54     .0.=./.?...=T?.?
   12ce8:	3d96a905 3f7f4e6d 3d9064b4 3f7f5ce9     ...=mN.?.d.=.\.?
   12cf8:	3d8a200a 3f7f6ac7 3d83db0a 3f7f7808     . .=.j.?...=.x.?
   12d08:	3d7b2b74 3f7f84ab 3d6ea038 3f7f90b1     t+{=...?8.n=...?
   12d18:	3d621468 3f7f9c18 3d55880e 3f7fa6e3     h.b=...?..U=...?
   12d28:	3d48fb2f 3f7fb10f 3d3c6dd5 3f7fba9e     /.H=...?.m<=...?
   12d38:	3d2fe007 3f7fc38f 3d2351cc 3f7fcbe2     ../=...?.Q#=...?
   12d48:	3d16c32c 3f7fd398 3d0a342f 3f7fdaaf     ,..=...?/4.=...?
   12d58:	3cfb49b9 3f7fe129 3ce22a7b 3f7fe705     .I.<)..?{*.<...?
   12d68:	3cc90ab0 3f7fec43 3cafea69 3f7ff0e3     ...<C..?i..<...?
   12d78:	3c96c9b6 3f7ff4e6 3c7b514b 3f7ff84a     ...<...?KQ{<J..?
   12d88:	3c490e90 3f7ffb11 3c16cb59 3f7ffd39     ..I<...?Y..<9..?
   12d98:	3bc90f89 3f7ffec4 3b490fc7 3f7fffb1     ...;...?..I;...?
   12da8:	00000000 3f800000 bb490fc7 3f7fffb1     .......?..I....?
   12db8:	bbc90f89 3f7ffec4 bc16cb59 3f7ffd39     .......?Y...9..?
   12dc8:	bc490e90 3f7ffb11 bc7b514b 3f7ff84a     ..I....?KQ{.J..?
   12dd8:	bc96c9b6 3f7ff4e6 bcafea69 3f7ff0e3     .......?i......?
   12de8:	bcc90ab0 3f7fec43 bce22a7b 3f7fe705     ....C..?{*.....?
   12df8:	bcfb49b9 3f7fe129 bd0a342f 3f7fdaaf     .I..)..?/4.....?
   12e08:	bd16c32c 3f7fd398 bd2351cc 3f7fcbe2     ,......?.Q#....?
   12e18:	bd2fe007 3f7fc38f bd3c6dd5 3f7fba9e     ../....?.m<....?
   12e28:	bd48fb2f 3f7fb10f bd55880e 3f7fa6e3     /.H....?..U....?
   12e38:	bd621468 3f7f9c18 bd6ea038 3f7f90b1     h.b....?8.n....?
   12e48:	bd7b2b74 3f7f84ab bd83db0a 3f7f7808     t+{....?.....x.?
   12e58:	bd8a200a 3f7f6ac7 bd9064b4 3f7f5ce9     . ...j.?.d...\.?
   12e68:	bd96a905 3f7f4e6d bd9cecf9 3f7f3f54     ....mN.?....T?.?
   12e78:	bda3308c 3f7f2f9d bda973ba 3f7f1f49     .0.../.?.s..I..?
   12e88:	bdafb680 3f7f0e58 bdb5f8da 3f7efcc9     ....X..?......~?
   12e98:	bdbc3ac3 3f7eea9d bdc27c39 3f7ed7d4     .:....~?9|....~?
   12ea8:	bdc8bd36 3f7ec46d bdcefdb7 3f7eb069     6...m.~?....i.~?
   12eb8:	bdd53db9 3f7e9bc9 bddb7d37 3f7e868b     .=....~?7}....~?
   12ec8:	bde1bc2e 3f7e70b0 bde7fa9a 3f7e5a38     .....p~?....8Z~?
   12ed8:	bdee3876 3f7e4323 bdf475c0 3f7e2b72     v8..#C~?.u..r+~?
   12ee8:	bdfab273 3f7e1324 be007745 3f7dfa38     s...$.~?Ew..8.}?
   12ef8:	be039502 3f7de0b1 be06b26e 3f7dc68c     ......}?n.....}?
   12f08:	be09cf86 3f7dabcc be0cec4a 3f7d906e     ......}?J...n.}?
   12f18:	be1008b7 3f7d7474 be1324ca 3f7d57de     ....tt}?.$...W}?
   12f28:	be164083 3f7d3aac be195be0 3f7d1cdd     .@...:}?.[....}?
   12f38:	be1c76de 3f7cfe73 be1f917b 3f7cdf6c     .v..s.|?{...l.|?
   12f48:	be22abb6 3f7cbfc9 be25c58c 3f7c9f8a     .."...|?..%...|?
   12f58:	be28defc 3f7c7eb0 be2bf804 3f7c5d3a     ..(..~|?..+.:]|?
   12f68:	be2f10a2 3f7c3b28 be3228d4 3f7c187a     ../.(;|?.(2.z.|?
   12f78:	be354098 3f7bf531 be3857ec 3f7bd14d     .@5.1.{?.W8.M.{?
   12f88:	be3b6ecf 3f7baccd be3e853e 3f7b87b2     .n;...{?>.>...{?
   12f98:	be419b37 3f7b61fc be44b0b9 3f7b3bab     7.A..a{?..D..;{?
   12fa8:	be47c5c2 3f7b14be be4ada4f 3f7aed37     ..G...{?O.J.7.z?
   12fb8:	be4dee60 3f7ac516 be5101f1 3f7a9c59     `.M...z?..Q.Y.z?
   12fc8:	be541501 3f7a7302 be57278f 3f7a4910     ..T..sz?.'W..Iz?
   12fd8:	be5a3997 3f7a1e84 be5d4b1a 3f79f35e     .9Z...z?.K].^.y?
   12fe8:	be605c13 3f79c79d be636c83 3f799b43     .\`...y?.lc.C.y?
   12ff8:	be667c66 3f796e4e be698bba 3f7940c0     f|f.Nny?..i..@y?
   13008:	be6c9a7f 3f791298 be6fa8b2 3f78e3d6     ..l...y?..o...x?
   13018:	be72b651 3f78b47b be75c35a 3f788486     Q.r.{.x?Z.u...x?
   13028:	be78cfcc 3f7853f8 be7bdba4 3f7822d1     ..x..Sx?..{.."x?
   13038:	be7ee6e1 3f77f110 be80f8c0 3f77beb7     ..~...w?......w?
   13048:	be827dc0 3f778bc5 be840270 3f77583a     .}....w?p...:Xw?
   13058:	be8586ce 3f772417 be870ada 3f76ef5b     .....$w?....[.v?
   13068:	be888e93 3f76ba07 be8a11f8 3f76841b     ......v?......v?
   13078:	be8b9507 3f764d97 be8d17c0 3f76167a     .....Mv?....z.v?
   13088:	be8e9a22 3f75dec6 be901c2c 3f75a67b     ".....u?,...{.u?
   13098:	be919ddd 3f756d97 be931f35 3f75341d     .....mu?5....4u?
   130a8:	be94a031 3f74fa0b be9620d2 3f74bf62     1.....t?. ..b.t?
   130b8:	be97a117 3f748422 be9920fe 3f74484b     ....".t?. ..KHt?
   130c8:	be9aa086 3f740bdd be9c1faf 3f73ced9     ......t?......s?
   130d8:	be9d9e78 3f73913f be9f1cdf 3f73530e     x...?.s?.....Ss?
   130e8:	bea09ae5 3f731447 bea21887 3f72d4eb     ....G.s?......r?
   130f8:	bea395c5 3f7294f8 bea5129f 3f725470     ......r?....pTr?
   13108:	bea68f12 3f721352 bea80b1f 3f71d19f     ....R.r?......q?
   13118:	bea986c4 3f718f57 beab0201 3f714c7a     ....W.q?....zLq?
   13128:	beac7cd4 3f710908 beadf73c 3f70c502     .|....q?<.....p?
   13138:	beaf713a 3f708066 beb0eacb 3f703b37     :q..f.p?....7;p?
   13148:	beb263ef 3f6ff573 beb3dca5 3f6faf1b     .c..s.o?......o?
   13158:	beb554ec 3f6f6830 beb6ccc3 3f6f20b0     .T..0ho?..... o?
   13168:	beb8442a 3f6ed89e beb9bb1e 3f6e8ff8     *D....n?......n?
   13178:	bebb31a0 3f6e46be bebca7af 3f6dfcf2     .1...Fn?......m?
   13188:	bebe1d4a 3f6db293 bebf926f 3f6d67a1     J.....m?o....gm?
   13198:	bec1071e 3f6d1c1d bec27b55 3f6cd007     ......m?U{....l?
   131a8:	bec3ef15 3f6c835e bec5625c 3f6c3624     ....^.l?\b..$6l?
   131b8:	bec6d529 3f6be858 bec8477c 3f6b99fb     )...X.k?|G....k?
   131c8:	bec9b953 3f6b4b0c becb2aae 3f6afb8c     S....Kk?.*....j?
   131d8:	becc9b8b 3f6aab7b bece0bea 3f6a5ad9     ....{.j?.....Zj?
   131e8:	becf7bca 3f6a09a7 bed0eb2a 3f69b7e4     .{....j?*.....i?
   131f8:	bed25a09 3f696591 bed3c867 3f6912ae     .Z...ei?g.....i?
   13208:	bed53641 3f68bf3c bed6a399 3f686b39     A6..<.h?....9kh?
   13218:	bed8106b 3f6816a8 bed97cb9 3f67c187     k.....h?.|....g?
   13228:	bedae880 3f676bd8 bedc53c1 3f671599     .....kg?.S....g?
   13238:	beddbe79 3f66becc bedf28a9 3f666771     y.....f?.(..qgf?
   13248:	bee0924f 3f660f88 bee1fb6a 3f65b710     O.....f?j.....e?
   13258:	bee363fa 3f655e0b bee4cbfe 3f650479     .c...^e?....y.e?
   13268:	bee63375 3f64aa59 bee79a5d 3f644fac     u3..Y.d?]....Od?
   13278:	bee900b7 3f63f473 beea6681 3f6398ac     ....s.c?.f....c?
   13288:	beebcbbb 3f633c5a beed3063 3f62df7b     ....Z<c?c0..{.b?
   13298:	beee9479 3f628210 beeff7fb 3f62241a     y.....b?.....$b?
   132a8:	bef15aea 3f61c598 bef2bd43 3f61668a     .Z....a?C....fa?
   132b8:	bef41f07 3f6106f2 bef58035 3f60a6cf     ......a?5.....`?
   132c8:	bef6e0cb 3f604621 bef840c8 3f5fe4e9     ....!F`?.@...._?
   132d8:	bef9a02d 3f5f8327 befafef7 3f5f20db     -...'._?..... _?
   132e8:	befc5d27 3f5ebe05 befdbabb 3f5e5aa6     ']....^?.....Z^?
   132f8:	beff17b2 3f5df6be bf003a06 3f5d924d     ......]?.:..M.]?
   13308:	bf00e7e4 3f5d2d53 bf019573 3f5cc7d1     ....S-]?s.....\?
   13318:	bf0242b1 3f5c61c7 bf02ef9f 3f5bfb34     .B...a\?....4.[?
   13328:	bf039c3d 3f5b941a bf044889 3f5b2c79     =.....[?.H..y,[?
   13338:	bf04f484 3f5ac450 bf05a02c 3f5a5ba0     ....P.Z?,....[Z?
   13348:	bf064b82 3f59f26a bf06f686 3f5988ad     .K..j.Y?......Y?
   13358:	bf07a136 3f591e6a bf084b92 3f58b3a1     6...j.Y?.K....X?
   13368:	bf08f59b 3f584853 bf099f4e 3f57dc7f     ....SHX?N.....W?
   13378:	bf0a48ad 3f577026 bf0af1b7 3f570348     .H..&pW?....H.W?
   13388:	bf0b9a6b 3f5695e5 bf0c42c9 3f5627fe     k.....V?.B...'V?
   13398:	bf0cead0 3f55b993 bf0d9281 3f554aa4     ......U?.....JU?
   133a8:	bf0e39da 3f54db31 bf0ee0db 3f546b3b     .9..1.T?....;kT?
   133b8:	bf0f8784 3f53fac3 bf102dd5 3f5389c7     ......S?.-....S?
   133c8:	bf10d3cd 3f531849 bf11796b 3f52a649     ....I.S?ky..I.R?
   133d8:	bf121eb0 3f5233c6 bf12c39a 3f51c0c2     .....3R?......Q?
   133e8:	bf13682a 3f514d3d bf140c5f 3f50d937     *h..=MQ?_...7.P?
   133f8:	bf14b039 3f5064af bf1553b7 3f4fefa8     9....dP?.S....O?
   13408:	bf15f6d9 3f4f7a1f bf16999f 3f4f0417     .....zO?......O?
   13418:	bf173c07 3f4e8d90 bf17de12 3f4e1689     .<....N?......N?
   13428:	bf187fc0 3f4d9f02 bf19210f 3f4d26fd     ......M?.!...&M?
   13438:	bf19c200 3f4cae79 bf1a6293 3f4c3578     ....y.L?.b..x5L?
   13448:	bf1b02c6 3f4bbbf8 bf1ba299 3f4b41fa     ......K?.....AK?
   13458:	bf1c420c 3f4ac77f bf1ce11f 3f4a4c87     .B....J?.....LJ?
   13468:	bf1d7fd1 3f49d112 bf1e1e22 3f495521     ......I?"...!UI?
   13478:	bf1ebc12 3f48d8b3 bf1f599f 3f485bca     ......H?.Y...[H?
   13488:	bf1ff6cb 3f47de65 bf209393 3f476085     ....e.G?.. ..`G?
   13498:	bf212ff9 3f46e22a bf21cbfb 3f466354     ./!.*.F?..!.TcF?
   134a8:	bf226799 3f45e403 bf2302d3 3f456439     .g"...E?..#.9dE?
   134b8:	bf239da9 3f44e3f5 bf24381a 3f446337     ..#...D?.8$.7cD?
   134c8:	bf24d225 3f43e200 bf256bcb 3f436051     %.$...C?.k%.Q`C?
   134d8:	bf26050a 3f42de29 bf269de3 3f425b89     ..&.).B?..&..[B?
   134e8:	bf273656 3f41d870 bf27ce61 3f4154e1     V6'.p.A?a.'..TA?
   134f8:	bf286605 3f40d0da bf28fd41 3f404c5c     .f(...@?A.(.\L@?
   13508:	bf299415 3f3fc767 bf2a2a80 3f3f41fc     ..).g.??.**..A??
   13518:	bf2ac082 3f3ebc1b bf2b561b 3f3e35c5     ..*...>?.V+..5>?
   13528:	bf2beb4a 3f3daef9 bf2c800f 3f3d27b8     J.+...=?..,..'=?
   13538:	bf2d1469 3f3ca003 bf2da859 3f3c17d9     i.-...<?Y.-...<?
   13548:	bf2e3bde 3f3b8f3b bf2ecef7 3f3b0629     .;..;.;?....).;?
   13558:	bf2f61a5 3f3a7ca4 bf2ff3e6 3f39f2ac     .a/..|:?../...9?
   13568:	bf3085bb 3f396842 bf311722 3f38dd65     ..0.Bh9?".1.e.8?
   13578:	bf31a81d 3f385216 bf3238aa 3f37c655     ..1..R8?.82.U.7?
   13588:	bf32c8c9 3f373a23 bf33587a 3f36ad7f     ..2.#:7?zX3...6?
   13598:	bf33e7bc 3f36206c bf34768f 3f3592e7     ..3.l 6?.v4...5?
   135a8:	bf3504f3 3f3504f3 bf3592e7 3f34768f     ..5...5?..5..v4?
   135b8:	bf36206c 3f33e7bc bf36ad7f 3f33587a     l 6...3?..6.zX3?
   135c8:	bf373a23 3f32c8c9 bf37c655 3f3238aa     #:7...2?U.7..82?
   135d8:	bf385216 3f31a81d bf38dd65 3f311722     .R8...1?e.8.".1?
   135e8:	bf396842 3f3085bb bf39f2ac 3f2ff3e6     Bh9...0?..9.../?
   135f8:	bf3a7ca4 3f2f61a5 bf3b0629 3f2ecef7     .|:..a/?).;....?
   13608:	bf3b8f3b 3f2e3bde bf3c17d9 3f2da859     ;.;..;.?..<.Y.-?
   13618:	bf3ca003 3f2d1469 bf3d27b8 3f2c800f     ..<.i.-?.'=...,?
   13628:	bf3daef9 3f2beb4a bf3e35c5 3f2b561b     ..=.J.+?.5>..V+?
   13638:	bf3ebc1b 3f2ac082 bf3f41fc 3f2a2a80     ..>...*?.A?..**?
   13648:	bf3fc767 3f299415 bf404c5c 3f28fd41     g.?...)?\L@.A.(?
   13658:	bf40d0da 3f286605 bf4154e1 3f27ce61     ..@..f(?.TA.a.'?
   13668:	bf41d870 3f273656 bf425b89 3f269de3     p.A.V6'?.[B...&?
   13678:	bf42de29 3f26050a bf436051 3f256bcb     ).B...&?Q`C..k%?
   13688:	bf43e200 3f24d225 bf446337 3f24381a     ..C.%.$?7cD..8$?
   13698:	bf44e3f5 3f239da9 bf456439 3f2302d3     ..D...#?9dE...#?
   136a8:	bf45e403 3f226799 bf466354 3f21cbfb     ..E..g"?TcF...!?
   136b8:	bf46e22a 3f212ff9 bf476085 3f209393     *.F../!?.`G... ?
   136c8:	bf47de65 3f1ff6cb bf485bca 3f1f599f     e.G....?.[H..Y.?
   136d8:	bf48d8b3 3f1ebc12 bf495521 3f1e1e22     ..H....?!UI."..?
   136e8:	bf49d112 3f1d7fd1 bf4a4c87 3f1ce11f     ..I....?.LJ....?
   136f8:	bf4ac77f 3f1c420c bf4b41fa 3f1ba299     ..J..B.?.AK....?
   13708:	bf4bbbf8 3f1b02c6 bf4c3578 3f1a6293     ..K....?x5L..b.?
   13718:	bf4cae79 3f19c200 bf4d26fd 3f19210f     y.L....?.&M..!.?
   13728:	bf4d9f02 3f187fc0 bf4e1689 3f17de12     ..M....?..N....?
   13738:	bf4e8d90 3f173c07 bf4f0417 3f16999f     ..N..<.?..O....?
   13748:	bf4f7a1f 3f15f6d9 bf4fefa8 3f1553b7     .zO....?..O..S.?
   13758:	bf5064af 3f14b039 bf50d937 3f140c5f     .dP.9..?7.P._..?
   13768:	bf514d3d 3f13682a bf51c0c2 3f12c39a     =MQ.*h.?..Q....?
   13778:	bf5233c6 3f121eb0 bf52a649 3f11796b     .3R....?I.R.ky.?
   13788:	bf531849 3f10d3cd bf5389c7 3f102dd5     I.S....?..S..-.?
   13798:	bf53fac3 3f0f8784 bf546b3b 3f0ee0db     ..S....?;kT....?
   137a8:	bf54db31 3f0e39da bf554aa4 3f0d9281     1.T..9.?.JU....?
   137b8:	bf55b993 3f0cead0 bf5627fe 3f0c42c9     ..U....?.'V..B.?
   137c8:	bf5695e5 3f0b9a6b bf570348 3f0af1b7     ..V.k..?H.W....?
   137d8:	bf577026 3f0a48ad bf57dc7f 3f099f4e     &pW..H.?..W.N..?
   137e8:	bf584853 3f08f59b bf58b3a1 3f084b92     SHX....?..X..K.?
   137f8:	bf591e6a 3f07a136 bf5988ad 3f06f686     j.Y.6..?..Y....?
   13808:	bf59f26a 3f064b82 bf5a5ba0 3f05a02c     j.Y..K.?.[Z.,..?
   13818:	bf5ac450 3f04f484 bf5b2c79 3f044889     P.Z....?y,[..H.?
   13828:	bf5b941a 3f039c3d bf5bfb34 3f02ef9f     ..[.=..?4.[....?
   13838:	bf5c61c7 3f0242b1 bf5cc7d1 3f019573     .a\..B.?..\.s..?
   13848:	bf5d2d53 3f00e7e4 bf5d924d 3f003a06     S-]....?M.]..:.?
   13858:	bf5df6be 3eff17b2 bf5e5aa6 3efdbabb     ..]....>.Z^....>
   13868:	bf5ebe05 3efc5d27 bf5f20db 3efafef7     ..^.'].>. _....>
   13878:	bf5f8327 3ef9a02d bf5fe4e9 3ef840c8     '._.-..>.._..@.>
   13888:	bf604621 3ef6e0cb bf60a6cf 3ef58035     !F`....>..`.5..>
   13898:	bf6106f2 3ef41f07 bf61668a 3ef2bd43     ..a....>.fa.C..>
   138a8:	bf61c598 3ef15aea bf62241a 3eeff7fb     ..a..Z.>.$b....>
   138b8:	bf628210 3eee9479 bf62df7b 3eed3063     ..b.y..>{.b.c0.>
   138c8:	bf633c5a 3eebcbbb bf6398ac 3eea6681     Z<c....>..c..f.>
   138d8:	bf63f473 3ee900b7 bf644fac 3ee79a5d     s.c....>.Od.]..>
   138e8:	bf64aa59 3ee63375 bf650479 3ee4cbfe     Y.d.u3.>y.e....>
   138f8:	bf655e0b 3ee363fa bf65b710 3ee1fb6a     .^e..c.>..e.j..>
   13908:	bf660f88 3ee0924f bf666771 3edf28a9     ..f.O..>qgf..(.>
   13918:	bf66becc 3eddbe79 bf671599 3edc53c1     ..f.y..>..g..S.>
   13928:	bf676bd8 3edae880 bf67c187 3ed97cb9     .kg....>..g..|.>
   13938:	bf6816a8 3ed8106b bf686b39 3ed6a399     ..h.k..>9kh....>
   13948:	bf68bf3c 3ed53641 bf6912ae 3ed3c867     <.h.A6.>..i.g..>
   13958:	bf696591 3ed25a09 bf69b7e4 3ed0eb2a     .ei..Z.>..i.*..>
   13968:	bf6a09a7 3ecf7bca bf6a5ad9 3ece0bea     ..j..{.>.Zj....>
   13978:	bf6aab7b 3ecc9b8b bf6afb8c 3ecb2aae     {.j....>..j..*.>
   13988:	bf6b4b0c 3ec9b953 bf6b99fb 3ec8477c     .Kk.S..>..k.|G.>
   13998:	bf6be858 3ec6d529 bf6c3624 3ec5625c     X.k.)..>$6l.\b.>
   139a8:	bf6c835e 3ec3ef15 bf6cd007 3ec27b55     ^.l....>..l.U{.>
   139b8:	bf6d1c1d 3ec1071e bf6d67a1 3ebf926f     ..m....>.gm.o..>
   139c8:	bf6db293 3ebe1d4a bf6dfcf2 3ebca7af     ..m.J..>..m....>
   139d8:	bf6e46be 3ebb31a0 bf6e8ff8 3eb9bb1e     .Fn..1.>..n....>
   139e8:	bf6ed89e 3eb8442a bf6f20b0 3eb6ccc3     ..n.*D.>. o....>
   139f8:	bf6f6830 3eb554ec bf6faf1b 3eb3dca5     0ho..T.>..o....>
   13a08:	bf6ff573 3eb263ef bf703b37 3eb0eacb     s.o..c.>7;p....>
   13a18:	bf708066 3eaf713a bf70c502 3eadf73c     f.p.:q.>..p.<..>
   13a28:	bf710908 3eac7cd4 bf714c7a 3eab0201     ..q..|.>zLq....>
   13a38:	bf718f57 3ea986c4 bf71d19f 3ea80b1f     W.q....>..q....>
   13a48:	bf721352 3ea68f12 bf725470 3ea5129f     R.r....>pTr....>
   13a58:	bf7294f8 3ea395c5 bf72d4eb 3ea21887     ..r....>..r....>
   13a68:	bf731447 3ea09ae5 bf73530e 3e9f1cdf     G.s....>.Ss....>
   13a78:	bf73913f 3e9d9e78 bf73ced9 3e9c1faf     ?.s.x..>..s....>
   13a88:	bf740bdd 3e9aa086 bf74484b 3e9920fe     ..t....>KHt.. .>
   13a98:	bf748422 3e97a117 bf74bf62 3e9620d2     ".t....>b.t.. .>
   13aa8:	bf74fa0b 3e94a031 bf75341d 3e931f35     ..t.1..>.4u.5..>
   13ab8:	bf756d97 3e919ddd bf75a67b 3e901c2c     .mu....>{.u.,..>
   13ac8:	bf75dec6 3e8e9a22 bf76167a 3e8d17c0     ..u."..>z.v....>
   13ad8:	bf764d97 3e8b9507 bf76841b 3e8a11f8     .Mv....>..v....>
   13ae8:	bf76ba07 3e888e93 bf76ef5b 3e870ada     ..v....>[.v....>
   13af8:	bf772417 3e8586ce bf77583a 3e840270     .$w....>:Xw.p..>
   13b08:	bf778bc5 3e827dc0 bf77beb7 3e80f8c0     ..w..}.>..w....>
   13b18:	bf77f110 3e7ee6e1 bf7822d1 3e7bdba4     ..w...~>."x...{>
   13b28:	bf7853f8 3e78cfcc bf788486 3e75c35a     .Sx...x>..x.Z.u>
   13b38:	bf78b47b 3e72b651 bf78e3d6 3e6fa8b2     {.x.Q.r>..x...o>
   13b48:	bf791298 3e6c9a7f bf7940c0 3e698bba     ..y...l>.@y...i>
   13b58:	bf796e4e 3e667c66 bf799b43 3e636c83     Nny.f|f>C.y..lc>
   13b68:	bf79c79d 3e605c13 bf79f35e 3e5d4b1a     ..y..\`>^.y..K]>
   13b78:	bf7a1e84 3e5a3997 bf7a4910 3e57278f     ..z..9Z>.Iz..'W>
   13b88:	bf7a7302 3e541501 bf7a9c59 3e5101f1     .sz...T>Y.z...Q>
   13b98:	bf7ac516 3e4dee60 bf7aed37 3e4ada4f     ..z.`.M>7.z.O.J>
   13ba8:	bf7b14be 3e47c5c2 bf7b3bab 3e44b0b9     ..{...G>.;{...D>
   13bb8:	bf7b61fc 3e419b37 bf7b87b2 3e3e853e     .a{.7.A>..{.>.>>
   13bc8:	bf7baccd 3e3b6ecf bf7bd14d 3e3857ec     ..{..n;>M.{..W8>
   13bd8:	bf7bf531 3e354098 bf7c187a 3e3228d4     1.{..@5>z.|..(2>
   13be8:	bf7c3b28 3e2f10a2 bf7c5d3a 3e2bf804     (;|.../>:]|...+>
   13bf8:	bf7c7eb0 3e28defc bf7c9f8a 3e25c58c     .~|...(>..|...%>
   13c08:	bf7cbfc9 3e22abb6 bf7cdf6c 3e1f917b     ..|...">l.|.{..>
   13c18:	bf7cfe73 3e1c76de bf7d1cdd 3e195be0     s.|..v.>..}..[.>
   13c28:	bf7d3aac 3e164083 bf7d57de 3e1324ca     .:}..@.>.W}..$.>
   13c38:	bf7d7474 3e1008b7 bf7d906e 3e0cec4a     tt}....>n.}.J..>
   13c48:	bf7dabcc 3e09cf86 bf7dc68c 3e06b26e     ..}....>..}.n..>
   13c58:	bf7de0b1 3e039502 bf7dfa38 3e007745     ..}....>8.}.Ew.>
   13c68:	bf7e1324 3dfab273 bf7e2b72 3df475c0     $.~.s..=r+~..u.=
   13c78:	bf7e4323 3dee3876 bf7e5a38 3de7fa9a     #C~.v8.=8Z~....=
   13c88:	bf7e70b0 3de1bc2e bf7e868b 3ddb7d37     .p~....=..~.7}.=
   13c98:	bf7e9bc9 3dd53db9 bf7eb069 3dcefdb7     ..~..=.=i.~....=
   13ca8:	bf7ec46d 3dc8bd36 bf7ed7d4 3dc27c39     m.~.6..=..~.9|.=
   13cb8:	bf7eea9d 3dbc3ac3 bf7efcc9 3db5f8da     ..~..:.=..~....=
   13cc8:	bf7f0e58 3dafb680 bf7f1f49 3da973ba     X......=I....s.=
   13cd8:	bf7f2f9d 3da3308c bf7f3f54 3d9cecf9     ./...0.=T?.....=
   13ce8:	bf7f4e6d 3d96a905 bf7f5ce9 3d9064b4     mN.....=.\...d.=
   13cf8:	bf7f6ac7 3d8a200a bf7f7808 3d83db0a     .j... .=.x.....=
   13d08:	bf7f84ab 3d7b2b74 bf7f90b1 3d6ea038     ....t+{=....8.n=
   13d18:	bf7f9c18 3d621468 bf7fa6e3 3d55880e     ....h.b=......U=
   13d28:	bf7fb10f 3d48fb2f bf7fba9e 3d3c6dd5     ..../.H=.....m<=
   13d38:	bf7fc38f 3d2fe007 bf7fcbe2 3d2351cc     ....../=.....Q#=
   13d48:	bf7fd398 3d16c32c bf7fdaaf 3d0a342f     ....,..=..../4.=
   13d58:	bf7fe129 3cfb49b9 bf7fe705 3ce22a7b     )....I.<....{*.<
   13d68:	bf7fec43 3cc90ab0 bf7ff0e3 3cafea69     C......<....i..<
   13d78:	bf7ff4e6 3c96c9b6 bf7ff84a 3c7b514b     .......<J...KQ{<
   13d88:	bf7ffb11 3c490e90 bf7ffd39 3c16cb59     ......I<9...Y..<
   13d98:	bf7ffec4 3bc90f89 bf7fffb1 3b490fc7     .......;......I;
   13da8:	bf800000 00000000 bf7fffb1 bb490fc7     ..............I.
   13db8:	bf7ffec4 bbc90f89 bf7ffd39 bc16cb59     ........9...Y...
   13dc8:	bf7ffb11 bc490e90 bf7ff84a bc7b514b     ......I.J...KQ{.
   13dd8:	bf7ff4e6 bc96c9b6 bf7ff0e3 bcafea69     ............i...
   13de8:	bf7fec43 bcc90ab0 bf7fe705 bce22a7b     C...........{*..
   13df8:	bf7fe129 bcfb49b9 bf7fdaaf bd0a342f     )....I....../4..
   13e08:	bf7fd398 bd16c32c bf7fcbe2 bd2351cc     ....,........Q#.
   13e18:	bf7fc38f bd2fe007 bf7fba9e bd3c6dd5     ....../......m<.
   13e28:	bf7fb10f bd48fb2f bf7fa6e3 bd55880e     ..../.H.......U.
   13e38:	bf7f9c18 bd621468 bf7f90b1 bd6ea038     ....h.b.....8.n.
   13e48:	bf7f84ab bd7b2b74 bf7f7808 bd83db0a     ....t+{..x......
   13e58:	bf7f6ac7 bd8a200a bf7f5ce9 bd9064b4     .j... ...\...d..
   13e68:	bf7f4e6d bd96a905 bf7f3f54 bd9cecf9     mN......T?......
   13e78:	bf7f2f9d bda3308c bf7f1f49 bda973ba     ./...0..I....s..
   13e88:	bf7f0e58 bdafb680 bf7efcc9 bdb5f8da     X.........~.....
   13e98:	bf7eea9d bdbc3ac3 bf7ed7d4 bdc27c39     ..~..:....~.9|..
   13ea8:	bf7ec46d bdc8bd36 bf7eb069 bdcefdb7     m.~.6...i.~.....
   13eb8:	bf7e9bc9 bdd53db9 bf7e868b bddb7d37     ..~..=....~.7}..
   13ec8:	bf7e70b0 bde1bc2e bf7e5a38 bde7fa9a     .p~.....8Z~.....
   13ed8:	bf7e4323 bdee3876 bf7e2b72 bdf475c0     #C~.v8..r+~..u..
   13ee8:	bf7e1324 bdfab273 bf7dfa38 be007745     $.~.s...8.}.Ew..
   13ef8:	bf7de0b1 be039502 bf7dc68c be06b26e     ..}.......}.n...
   13f08:	bf7dabcc be09cf86 bf7d906e be0cec4a     ..}.....n.}.J...
   13f18:	bf7d7474 be1008b7 bf7d57de be1324ca     tt}......W}..$..
   13f28:	bf7d3aac be164083 bf7d1cdd be195be0     .:}..@....}..[..
   13f38:	bf7cfe73 be1c76de bf7cdf6c be1f917b     s.|..v..l.|.{...
   13f48:	bf7cbfc9 be22abb6 bf7c9f8a be25c58c     ..|..."...|...%.
   13f58:	bf7c7eb0 be28defc bf7c5d3a be2bf804     .~|...(.:]|...+.
   13f68:	bf7c3b28 be2f10a2 bf7c187a be3228d4     (;|.../.z.|..(2.
   13f78:	bf7bf531 be354098 bf7bd14d be3857ec     1.{..@5.M.{..W8.
   13f88:	bf7baccd be3b6ecf bf7b87b2 be3e853e     ..{..n;...{.>.>.
   13f98:	bf7b61fc be419b37 bf7b3bab be44b0b9     .a{.7.A..;{...D.
   13fa8:	bf7b14be be47c5c2 bf7aed37 be4ada4f     ..{...G.7.z.O.J.
   13fb8:	bf7ac516 be4dee60 bf7a9c59 be5101f1     ..z.`.M.Y.z...Q.
   13fc8:	bf7a7302 be541501 bf7a4910 be57278f     .sz...T..Iz..'W.
   13fd8:	bf7a1e84 be5a3997 bf79f35e be5d4b1a     ..z..9Z.^.y..K].
   13fe8:	bf79c79d be605c13 bf799b43 be636c83     ..y..\`.C.y..lc.
   13ff8:	bf796e4e be667c66 bf7940c0 be698bba     Nny.f|f..@y...i.
   14008:	bf791298 be6c9a7f bf78e3d6 be6fa8b2     ..y...l...x...o.
   14018:	bf78b47b be72b651 bf788486 be75c35a     {.x.Q.r...x.Z.u.
   14028:	bf7853f8 be78cfcc bf7822d1 be7bdba4     .Sx...x.."x...{.
   14038:	bf77f110 be7ee6e1 bf77beb7 be80f8c0     ..w...~...w.....
   14048:	bf778bc5 be827dc0 bf77583a be840270     ..w..}..:Xw.p...
   14058:	bf772417 be8586ce bf76ef5b be870ada     .$w.....[.v.....
   14068:	bf76ba07 be888e93 bf76841b be8a11f8     ..v.......v.....
   14078:	bf764d97 be8b9507 bf76167a be8d17c0     .Mv.....z.v.....
   14088:	bf75dec6 be8e9a22 bf75a67b be901c2c     ..u."...{.u.,...
   14098:	bf756d97 be919ddd bf75341d be931f35     .mu......4u.5...
   140a8:	bf74fa0b be94a031 bf74bf62 be9620d2     ..t.1...b.t.. ..
   140b8:	bf748422 be97a117 bf74484b be9920fe     ".t.....KHt.. ..
   140c8:	bf740bdd be9aa086 bf73ced9 be9c1faf     ..t.......s.....
   140d8:	bf73913f be9d9e78 bf73530e be9f1cdf     ?.s.x....Ss.....
   140e8:	bf731447 bea09ae5 bf72d4eb bea21887     G.s.......r.....
   140f8:	bf7294f8 bea395c5 bf725470 bea5129f     ..r.....pTr.....
   14108:	bf721352 bea68f12 bf71d19f bea80b1f     R.r.......q.....
   14118:	bf718f57 bea986c4 bf714c7a beab0201     W.q.....zLq.....
   14128:	bf710908 beac7cd4 bf70c502 beadf73c     ..q..|....p.<...
   14138:	bf708066 beaf713a bf703b37 beb0eacb     f.p.:q..7;p.....
   14148:	bf6ff573 beb263ef bf6faf1b beb3dca5     s.o..c....o.....
   14158:	bf6f6830 beb554ec bf6f20b0 beb6ccc3     0ho..T... o.....
   14168:	bf6ed89e beb8442a bf6e8ff8 beb9bb1e     ..n.*D....n.....
   14178:	bf6e46be bebb31a0 bf6dfcf2 bebca7af     .Fn..1....m.....
   14188:	bf6db293 bebe1d4a bf6d67a1 bebf926f     ..m.J....gm.o...
   14198:	bf6d1c1d bec1071e bf6cd007 bec27b55     ..m.......l.U{..
   141a8:	bf6c835e bec3ef15 bf6c3624 bec5625c     ^.l.....$6l.\b..
   141b8:	bf6be858 bec6d529 bf6b99fb bec8477c     X.k.).....k.|G..
   141c8:	bf6b4b0c bec9b953 bf6afb8c becb2aae     .Kk.S.....j..*..
   141d8:	bf6aab7b becc9b8b bf6a5ad9 bece0bea     {.j......Zj.....
   141e8:	bf6a09a7 becf7bca bf69b7e4 bed0eb2a     ..j..{....i.*...
   141f8:	bf696591 bed25a09 bf6912ae bed3c867     .ei..Z....i.g...
   14208:	bf68bf3c bed53641 bf686b39 bed6a399     <.h.A6..9kh.....
   14218:	bf6816a8 bed8106b bf67c187 bed97cb9     ..h.k.....g..|..
   14228:	bf676bd8 bedae880 bf671599 bedc53c1     .kg.......g..S..
   14238:	bf66becc beddbe79 bf666771 bedf28a9     ..f.y...qgf..(..
   14248:	bf660f88 bee0924f bf65b710 bee1fb6a     ..f.O.....e.j...
   14258:	bf655e0b bee363fa bf650479 bee4cbfe     .^e..c..y.e.....
   14268:	bf64aa59 bee63375 bf644fac bee79a5d     Y.d.u3...Od.]...
   14278:	bf63f473 bee900b7 bf6398ac beea6681     s.c.......c..f..
   14288:	bf633c5a beebcbbb bf62df7b beed3063     Z<c.....{.b.c0..
   14298:	bf628210 beee9479 bf62241a beeff7fb     ..b.y....$b.....
   142a8:	bf61c598 bef15aea bf61668a bef2bd43     ..a..Z...fa.C...
   142b8:	bf6106f2 bef41f07 bf60a6cf bef58035     ..a.......`.5...
   142c8:	bf604621 bef6e0cb bf5fe4e9 bef840c8     !F`......._..@..
   142d8:	bf5f8327 bef9a02d bf5f20db befafef7     '._.-.... _.....
   142e8:	bf5ebe05 befc5d27 bf5e5aa6 befdbabb     ..^.']...Z^.....
   142f8:	bf5df6be beff17b2 bf5d924d bf003a06     ..].....M.]..:..
   14308:	bf5d2d53 bf00e7e4 bf5cc7d1 bf019573     S-].......\.s...
   14318:	bf5c61c7 bf0242b1 bf5bfb34 bf02ef9f     .a\..B..4.[.....
   14328:	bf5b941a bf039c3d bf5b2c79 bf044889     ..[.=...y,[..H..
   14338:	bf5ac450 bf04f484 bf5a5ba0 bf05a02c     P.Z......[Z.,...
   14348:	bf59f26a bf064b82 bf5988ad bf06f686     j.Y..K....Y.....
   14358:	bf591e6a bf07a136 bf58b3a1 bf084b92     j.Y.6.....X..K..
   14368:	bf584853 bf08f59b bf57dc7f bf099f4e     SHX.......W.N...
   14378:	bf577026 bf0a48ad bf570348 bf0af1b7     &pW..H..H.W.....
   14388:	bf5695e5 bf0b9a6b bf5627fe bf0c42c9     ..V.k....'V..B..
   14398:	bf55b993 bf0cead0 bf554aa4 bf0d9281     ..U......JU.....
   143a8:	bf54db31 bf0e39da bf546b3b bf0ee0db     1.T..9..;kT.....
   143b8:	bf53fac3 bf0f8784 bf5389c7 bf102dd5     ..S.......S..-..
   143c8:	bf531849 bf10d3cd bf52a649 bf11796b     I.S.....I.R.ky..
   143d8:	bf5233c6 bf121eb0 bf51c0c2 bf12c39a     .3R.......Q.....
   143e8:	bf514d3d bf13682a bf50d937 bf140c5f     =MQ.*h..7.P._...
   143f8:	bf5064af bf14b039 bf4fefa8 bf1553b7     .dP.9.....O..S..
   14408:	bf4f7a1f bf15f6d9 bf4f0417 bf16999f     .zO.......O.....
   14418:	bf4e8d90 bf173c07 bf4e1689 bf17de12     ..N..<....N.....
   14428:	bf4d9f02 bf187fc0 bf4d26fd bf19210f     ..M......&M..!..
   14438:	bf4cae79 bf19c200 bf4c3578 bf1a6293     y.L.....x5L..b..
   14448:	bf4bbbf8 bf1b02c6 bf4b41fa bf1ba299     ..K......AK.....
   14458:	bf4ac77f bf1c420c bf4a4c87 bf1ce11f     ..J..B...LJ.....
   14468:	bf49d112 bf1d7fd1 bf495521 bf1e1e22     ..I.....!UI."...
   14478:	bf48d8b3 bf1ebc12 bf485bca bf1f599f     ..H......[H..Y..
   14488:	bf47de65 bf1ff6cb bf476085 bf209393     e.G......`G... .
   14498:	bf46e22a bf212ff9 bf466354 bf21cbfb     *.F../!.TcF...!.
   144a8:	bf45e403 bf226799 bf456439 bf2302d3     ..E..g".9dE...#.
   144b8:	bf44e3f5 bf239da9 bf446337 bf24381a     ..D...#.7cD..8$.
   144c8:	bf43e200 bf24d225 bf436051 bf256bcb     ..C.%.$.Q`C..k%.
   144d8:	bf42de29 bf26050a bf425b89 bf269de3     ).B...&..[B...&.
   144e8:	bf41d870 bf273656 bf4154e1 bf27ce61     p.A.V6'..TA.a.'.
   144f8:	bf40d0da bf286605 bf404c5c bf28fd41     ..@..f(.\L@.A.(.
   14508:	bf3fc767 bf299415 bf3f41fc bf2a2a80     g.?...)..A?..**.
   14518:	bf3ebc1b bf2ac082 bf3e35c5 bf2b561b     ..>...*..5>..V+.
   14528:	bf3daef9 bf2beb4a bf3d27b8 bf2c800f     ..=.J.+..'=...,.
   14538:	bf3ca003 bf2d1469 bf3c17d9 bf2da859     ..<.i.-...<.Y.-.
   14548:	bf3b8f3b bf2e3bde bf3b0629 bf2ecef7     ;.;..;..).;.....
   14558:	bf3a7ca4 bf2f61a5 bf39f2ac bf2ff3e6     .|:..a/...9.../.
   14568:	bf396842 bf3085bb bf38dd65 bf311722     Bh9...0.e.8.".1.
   14578:	bf385216 bf31a81d bf37c655 bf3238aa     .R8...1.U.7..82.
   14588:	bf373a23 bf32c8c9 bf36ad7f bf33587a     #:7...2...6.zX3.
   14598:	bf36206c bf33e7bc bf3592e7 bf34768f     l 6...3...5..v4.
   145a8:	bf3504f3 bf3504f3 bf34768f bf3592e7     ..5...5..v4...5.
   145b8:	bf33e7bc bf36206c bf33587a bf36ad7f     ..3.l 6.zX3...6.
   145c8:	bf32c8c9 bf373a23 bf3238aa bf37c655     ..2.#:7..82.U.7.
   145d8:	bf31a81d bf385216 bf311722 bf38dd65     ..1..R8.".1.e.8.
   145e8:	bf3085bb bf396842 bf2ff3e6 bf39f2ac     ..0.Bh9.../...9.
   145f8:	bf2f61a5 bf3a7ca4 bf2ecef7 bf3b0629     .a/..|:.....).;.
   14608:	bf2e3bde bf3b8f3b bf2da859 bf3c17d9     .;..;.;.Y.-...<.
   14618:	bf2d1469 bf3ca003 bf2c800f bf3d27b8     i.-...<...,..'=.
   14628:	bf2beb4a bf3daef9 bf2b561b bf3e35c5     J.+...=..V+..5>.
   14638:	bf2ac082 bf3ebc1b bf2a2a80 bf3f41fc     ..*...>..**..A?.
   14648:	bf299415 bf3fc767 bf28fd41 bf404c5c     ..).g.?.A.(.\L@.
   14658:	bf286605 bf40d0da bf27ce61 bf4154e1     .f(...@.a.'..TA.
   14668:	bf273656 bf41d870 bf269de3 bf425b89     V6'.p.A...&..[B.
   14678:	bf26050a bf42de29 bf256bcb bf436051     ..&.).B..k%.Q`C.
   14688:	bf24d225 bf43e200 bf24381a bf446337     %.$...C..8$.7cD.
   14698:	bf239da9 bf44e3f5 bf2302d3 bf456439     ..#...D...#.9dE.
   146a8:	bf226799 bf45e403 bf21cbfb bf466354     .g"...E...!.TcF.
   146b8:	bf212ff9 bf46e22a bf209393 bf476085     ./!.*.F... ..`G.
   146c8:	bf1ff6cb bf47de65 bf1f599f bf485bca     ....e.G..Y...[H.
   146d8:	bf1ebc12 bf48d8b3 bf1e1e22 bf495521     ......H."...!UI.
   146e8:	bf1d7fd1 bf49d112 bf1ce11f bf4a4c87     ......I......LJ.
   146f8:	bf1c420c bf4ac77f bf1ba299 bf4b41fa     .B....J......AK.
   14708:	bf1b02c6 bf4bbbf8 bf1a6293 bf4c3578     ......K..b..x5L.
   14718:	bf19c200 bf4cae79 bf19210f bf4d26fd     ....y.L..!...&M.
   14728:	bf187fc0 bf4d9f02 bf17de12 bf4e1689     ......M.......N.
   14738:	bf173c07 bf4e8d90 bf16999f bf4f0417     .<....N.......O.
   14748:	bf15f6d9 bf4f7a1f bf1553b7 bf4fefa8     .....zO..S....O.
   14758:	bf14b039 bf5064af bf140c5f bf50d937     9....dP._...7.P.
   14768:	bf13682a bf514d3d bf12c39a bf51c0c2     *h..=MQ.......Q.
   14778:	bf121eb0 bf5233c6 bf11796b bf52a649     .....3R.ky..I.R.
   14788:	bf10d3cd bf531849 bf102dd5 bf5389c7     ....I.S..-....S.
   14798:	bf0f8784 bf53fac3 bf0ee0db bf546b3b     ......S.....;kT.
   147a8:	bf0e39da bf54db31 bf0d9281 bf554aa4     .9..1.T......JU.
   147b8:	bf0cead0 bf55b993 bf0c42c9 bf5627fe     ......U..B...'V.
   147c8:	bf0b9a6b bf5695e5 bf0af1b7 bf570348     k.....V.....H.W.
   147d8:	bf0a48ad bf577026 bf099f4e bf57dc7f     .H..&pW.N.....W.
   147e8:	bf08f59b bf584853 bf084b92 bf58b3a1     ....SHX..K....X.
   147f8:	bf07a136 bf591e6a bf06f686 bf5988ad     6...j.Y.......Y.
   14808:	bf064b82 bf59f26a bf05a02c bf5a5ba0     .K..j.Y.,....[Z.
   14818:	bf04f484 bf5ac450 bf044889 bf5b2c79     ....P.Z..H..y,[.
   14828:	bf039c3d bf5b941a bf02ef9f bf5bfb34     =.....[.....4.[.
   14838:	bf0242b1 bf5c61c7 bf019573 bf5cc7d1     .B...a\.s.....\.
   14848:	bf00e7e4 bf5d2d53 bf003a06 bf5d924d     ....S-]..:..M.].
   14858:	beff17b2 bf5df6be befdbabb bf5e5aa6     ......]......Z^.
   14868:	befc5d27 bf5ebe05 befafef7 bf5f20db     ']....^...... _.
   14878:	bef9a02d bf5f8327 bef840c8 bf5fe4e9     -...'._..@...._.
   14888:	bef6e0cb bf604621 bef58035 bf60a6cf     ....!F`.5.....`.
   14898:	bef41f07 bf6106f2 bef2bd43 bf61668a     ......a.C....fa.
   148a8:	bef15aea bf61c598 beeff7fb bf62241a     .Z....a......$b.
   148b8:	beee9479 bf628210 beed3063 bf62df7b     y.....b.c0..{.b.
   148c8:	beebcbbb bf633c5a beea6681 bf6398ac     ....Z<c..f....c.
   148d8:	bee900b7 bf63f473 bee79a5d bf644fac     ....s.c.]....Od.
   148e8:	bee63375 bf64aa59 bee4cbfe bf650479     u3..Y.d.....y.e.
   148f8:	bee363fa bf655e0b bee1fb6a bf65b710     .c...^e.j.....e.
   14908:	bee0924f bf660f88 bedf28a9 bf666771     O.....f..(..qgf.
   14918:	beddbe79 bf66becc bedc53c1 bf671599     y.....f..S....g.
   14928:	bedae880 bf676bd8 bed97cb9 bf67c187     .....kg..|....g.
   14938:	bed8106b bf6816a8 bed6a399 bf686b39     k.....h.....9kh.
   14948:	bed53641 bf68bf3c bed3c867 bf6912ae     A6..<.h.g.....i.
   14958:	bed25a09 bf696591 bed0eb2a bf69b7e4     .Z...ei.*.....i.
   14968:	becf7bca bf6a09a7 bece0bea bf6a5ad9     .{....j......Zj.
   14978:	becc9b8b bf6aab7b becb2aae bf6afb8c     ....{.j..*....j.
   14988:	bec9b953 bf6b4b0c bec8477c bf6b99fb     S....Kk.|G....k.
   14998:	bec6d529 bf6be858 bec5625c bf6c3624     )...X.k.\b..$6l.
   149a8:	bec3ef15 bf6c835e bec27b55 bf6cd007     ....^.l.U{....l.
   149b8:	bec1071e bf6d1c1d bebf926f bf6d67a1     ......m.o....gm.
   149c8:	bebe1d4a bf6db293 bebca7af bf6dfcf2     J.....m.......m.
   149d8:	bebb31a0 bf6e46be beb9bb1e bf6e8ff8     .1...Fn.......n.
   149e8:	beb8442a bf6ed89e beb6ccc3 bf6f20b0     *D....n...... o.
   149f8:	beb554ec bf6f6830 beb3dca5 bf6faf1b     .T..0ho.......o.
   14a08:	beb263ef bf6ff573 beb0eacb bf703b37     .c..s.o.....7;p.
   14a18:	beaf713a bf708066 beadf73c bf70c502     :q..f.p.<.....p.
   14a28:	beac7cd4 bf710908 beab0201 bf714c7a     .|....q.....zLq.
   14a38:	bea986c4 bf718f57 bea80b1f bf71d19f     ....W.q.......q.
   14a48:	bea68f12 bf721352 bea5129f bf725470     ....R.r.....pTr.
   14a58:	bea395c5 bf7294f8 bea21887 bf72d4eb     ......r.......r.
   14a68:	bea09ae5 bf731447 be9f1cdf bf73530e     ....G.s......Ss.
   14a78:	be9d9e78 bf73913f be9c1faf bf73ced9     x...?.s.......s.
   14a88:	be9aa086 bf740bdd be9920fe bf74484b     ......t.. ..KHt.
   14a98:	be97a117 bf748422 be9620d2 bf74bf62     ....".t.. ..b.t.
   14aa8:	be94a031 bf74fa0b be931f35 bf75341d     1.....t.5....4u.
   14ab8:	be919ddd bf756d97 be901c2c bf75a67b     .....mu.,...{.u.
   14ac8:	be8e9a22 bf75dec6 be8d17c0 bf76167a     ".....u.....z.v.
   14ad8:	be8b9507 bf764d97 be8a11f8 bf76841b     .....Mv.......v.
   14ae8:	be888e93 bf76ba07 be870ada bf76ef5b     ......v.....[.v.
   14af8:	be8586ce bf772417 be840270 bf77583a     .....$w.p...:Xw.
   14b08:	be827dc0 bf778bc5 be80f8c0 bf77beb7     .}....w.......w.
   14b18:	be7ee6e1 bf77f110 be7bdba4 bf7822d1     ..~...w...{.."x.
   14b28:	be78cfcc bf7853f8 be75c35a bf788486     ..x..Sx.Z.u...x.
   14b38:	be72b651 bf78b47b be6fa8b2 bf78e3d6     Q.r.{.x...o...x.
   14b48:	be6c9a7f bf791298 be698bba bf7940c0     ..l...y...i..@y.
   14b58:	be667c66 bf796e4e be636c83 bf799b43     f|f.Nny..lc.C.y.
   14b68:	be605c13 bf79c79d be5d4b1a bf79f35e     .\`...y..K].^.y.
   14b78:	be5a3997 bf7a1e84 be57278f bf7a4910     .9Z...z..'W..Iz.
   14b88:	be541501 bf7a7302 be5101f1 bf7a9c59     ..T..sz...Q.Y.z.
   14b98:	be4dee60 bf7ac516 be4ada4f bf7aed37     `.M...z.O.J.7.z.
   14ba8:	be47c5c2 bf7b14be be44b0b9 bf7b3bab     ..G...{...D..;{.
   14bb8:	be419b37 bf7b61fc be3e853e bf7b87b2     7.A..a{.>.>...{.
   14bc8:	be3b6ecf bf7baccd be3857ec bf7bd14d     .n;...{..W8.M.{.
   14bd8:	be354098 bf7bf531 be3228d4 bf7c187a     .@5.1.{..(2.z.|.
   14be8:	be2f10a2 bf7c3b28 be2bf804 bf7c5d3a     ../.(;|...+.:]|.
   14bf8:	be28defc bf7c7eb0 be25c58c bf7c9f8a     ..(..~|...%...|.
   14c08:	be22abb6 bf7cbfc9 be1f917b bf7cdf6c     .."...|.{...l.|.
   14c18:	be1c76de bf7cfe73 be195be0 bf7d1cdd     .v..s.|..[....}.
   14c28:	be164083 bf7d3aac be1324ca bf7d57de     .@...:}..$...W}.
   14c38:	be1008b7 bf7d7474 be0cec4a bf7d906e     ....tt}.J...n.}.
   14c48:	be09cf86 bf7dabcc be06b26e bf7dc68c     ......}.n.....}.
   14c58:	be039502 bf7de0b1 be007745 bf7dfa38     ......}.Ew..8.}.
   14c68:	bdfab273 bf7e1324 bdf475c0 bf7e2b72     s...$.~..u..r+~.
   14c78:	bdee3876 bf7e4323 bde7fa9a bf7e5a38     v8..#C~.....8Z~.
   14c88:	bde1bc2e bf7e70b0 bddb7d37 bf7e868b     .....p~.7}....~.
   14c98:	bdd53db9 bf7e9bc9 bdcefdb7 bf7eb069     .=....~.....i.~.
   14ca8:	bdc8bd36 bf7ec46d bdc27c39 bf7ed7d4     6...m.~.9|....~.
   14cb8:	bdbc3ac3 bf7eea9d bdb5f8da bf7efcc9     .:....~.......~.
   14cc8:	bdafb680 bf7f0e58 bda973ba bf7f1f49     ....X....s..I...
   14cd8:	bda3308c bf7f2f9d bd9cecf9 bf7f3f54     .0.../......T?..
   14ce8:	bd96a905 bf7f4e6d bd9064b4 bf7f5ce9     ....mN...d...\..
   14cf8:	bd8a200a bf7f6ac7 bd83db0a bf7f7808     . ...j.......x..
   14d08:	bd7b2b74 bf7f84ab bd6ea038 bf7f90b1     t+{.....8.n.....
   14d18:	bd621468 bf7f9c18 bd55880e bf7fa6e3     h.b.......U.....
   14d28:	bd48fb2f bf7fb10f bd3c6dd5 bf7fba9e     /.H......m<.....
   14d38:	bd2fe007 bf7fc38f bd2351cc bf7fcbe2     ../......Q#.....
   14d48:	bd16c32c bf7fd398 bd0a342f bf7fdaaf     ,......./4......
   14d58:	bcfb49b9 bf7fe129 bce22a7b bf7fe705     .I..)...{*......
   14d68:	bcc90ab0 bf7fec43 bcafea69 bf7ff0e3     ....C...i.......
   14d78:	bc96c9b6 bf7ff4e6 bc7b514b bf7ff84a     ........KQ{.J...
   14d88:	bc490e90 bf7ffb11 bc16cb59 bf7ffd39     ..I.....Y...9...
   14d98:	bbc90f89 bf7ffec4 bb490fc7 bf7fffb1     ..........I.....
   14da8:	80000000 bf800000 3b490fc7 bf7fffb1     ..........I;....
   14db8:	3bc90f89 bf7ffec4 3c16cb59 bf7ffd39     ...;....Y..<9...
   14dc8:	3c490e90 bf7ffb11 3c7b514b bf7ff84a     ..I<....KQ{<J...
   14dd8:	3c96c9b6 bf7ff4e6 3cafea69 bf7ff0e3     ...<....i..<....
   14de8:	3cc90ab0 bf7fec43 3ce22a7b bf7fe705     ...<C...{*.<....
   14df8:	3cfb49b9 bf7fe129 3d0a342f bf7fdaaf     .I.<).../4.=....
   14e08:	3d16c32c bf7fd398 3d2351cc bf7fcbe2     ,..=.....Q#=....
   14e18:	3d2fe007 bf7fc38f 3d3c6dd5 bf7fba9e     ../=.....m<=....
   14e28:	3d48fb2f bf7fb10f 3d55880e bf7fa6e3     /.H=......U=....
   14e38:	3d621468 bf7f9c18 3d6ea038 bf7f90b1     h.b=....8.n=....
   14e48:	3d7b2b74 bf7f84ab 3d83db0a bf7f7808     t+{=.......=.x..
   14e58:	3d8a200a bf7f6ac7 3d9064b4 bf7f5ce9     . .=.j...d.=.\..
   14e68:	3d96a905 bf7f4e6d 3d9cecf9 bf7f3f54     ...=mN.....=T?..
   14e78:	3da3308c bf7f2f9d 3da973ba bf7f1f49     .0.=./...s.=I...
   14e88:	3dafb680 bf7f0e58 3db5f8da bf7efcc9     ...=X......=..~.
   14e98:	3dbc3ac3 bf7eea9d 3dc27c39 bf7ed7d4     .:.=..~.9|.=..~.
   14ea8:	3dc8bd36 bf7ec46d 3dcefdb7 bf7eb069     6..=m.~....=i.~.
   14eb8:	3dd53db9 bf7e9bc9 3ddb7d37 bf7e868b     .=.=..~.7}.=..~.
   14ec8:	3de1bc2e bf7e70b0 3de7fa9a bf7e5a38     ...=.p~....=8Z~.
   14ed8:	3dee3876 bf7e4323 3df475c0 bf7e2b72     v8.=#C~..u.=r+~.
   14ee8:	3dfab273 bf7e1324 3e007745 bf7dfa38     s..=$.~.Ew.>8.}.
   14ef8:	3e039502 bf7de0b1 3e06b26e bf7dc68c     ...>..}.n..>..}.
   14f08:	3e09cf86 bf7dabcc 3e0cec4a bf7d906e     ...>..}.J..>n.}.
   14f18:	3e1008b7 bf7d7474 3e1324ca bf7d57de     ...>tt}..$.>.W}.
   14f28:	3e164083 bf7d3aac 3e195be0 bf7d1cdd     .@.>.:}..[.>..}.
   14f38:	3e1c76de bf7cfe73 3e1f917b bf7cdf6c     .v.>s.|.{..>l.|.
   14f48:	3e22abb6 bf7cbfc9 3e25c58c bf7c9f8a     ..">..|...%>..|.
   14f58:	3e28defc bf7c7eb0 3e2bf804 bf7c5d3a     ..(>.~|...+>:]|.
   14f68:	3e2f10a2 bf7c3b28 3e3228d4 bf7c187a     ../>(;|..(2>z.|.
   14f78:	3e354098 bf7bf531 3e3857ec bf7bd14d     .@5>1.{..W8>M.{.
   14f88:	3e3b6ecf bf7baccd 3e3e853e bf7b87b2     .n;>..{.>.>>..{.
   14f98:	3e419b37 bf7b61fc 3e44b0b9 bf7b3bab     7.A>.a{...D>.;{.
   14fa8:	3e47c5c2 bf7b14be 3e4ada4f bf7aed37     ..G>..{.O.J>7.z.
   14fb8:	3e4dee60 bf7ac516 3e5101f1 bf7a9c59     `.M>..z...Q>Y.z.
   14fc8:	3e541501 bf7a7302 3e57278f bf7a4910     ..T>.sz..'W>.Iz.
   14fd8:	3e5a3997 bf7a1e84 3e5d4b1a bf79f35e     .9Z>..z..K]>^.y.
   14fe8:	3e605c13 bf79c79d 3e636c83 bf799b43     .\`>..y..lc>C.y.
   14ff8:	3e667c66 bf796e4e 3e698bba bf7940c0     f|f>Nny...i>.@y.
   15008:	3e6c9a7f bf791298 3e6fa8b2 bf78e3d6     ..l>..y...o>..x.
   15018:	3e72b651 bf78b47b 3e75c35a bf788486     Q.r>{.x.Z.u>..x.
   15028:	3e78cfcc bf7853f8 3e7bdba4 bf7822d1     ..x>.Sx...{>."x.
   15038:	3e7ee6e1 bf77f110 3e80f8c0 bf77beb7     ..~>..w....>..w.
   15048:	3e827dc0 bf778bc5 3e840270 bf77583a     .}.>..w.p..>:Xw.
   15058:	3e8586ce bf772417 3e870ada bf76ef5b     ...>.$w....>[.v.
   15068:	3e888e93 bf76ba07 3e8a11f8 bf76841b     ...>..v....>..v.
   15078:	3e8b9507 bf764d97 3e8d17c0 bf76167a     ...>.Mv....>z.v.
   15088:	3e8e9a22 bf75dec6 3e901c2c bf75a67b     "..>..u.,..>{.u.
   15098:	3e919ddd bf756d97 3e931f35 bf75341d     ...>.mu.5..>.4u.
   150a8:	3e94a031 bf74fa0b 3e9620d2 bf74bf62     1..>..t.. .>b.t.
   150b8:	3e97a117 bf748422 3e9920fe bf74484b     ...>".t.. .>KHt.
   150c8:	3e9aa086 bf740bdd 3e9c1faf bf73ced9     ...>..t....>..s.
   150d8:	3e9d9e78 bf73913f 3e9f1cdf bf73530e     x..>?.s....>.Ss.
   150e8:	3ea09ae5 bf731447 3ea21887 bf72d4eb     ...>G.s....>..r.
   150f8:	3ea395c5 bf7294f8 3ea5129f bf725470     ...>..r....>pTr.
   15108:	3ea68f12 bf721352 3ea80b1f bf71d19f     ...>R.r....>..q.
   15118:	3ea986c4 bf718f57 3eab0201 bf714c7a     ...>W.q....>zLq.
   15128:	3eac7cd4 bf710908 3eadf73c bf70c502     .|.>..q.<..>..p.
   15138:	3eaf713a bf708066 3eb0eacb bf703b37     :q.>f.p....>7;p.
   15148:	3eb263ef bf6ff573 3eb3dca5 bf6faf1b     .c.>s.o....>..o.
   15158:	3eb554ec bf6f6830 3eb6ccc3 bf6f20b0     .T.>0ho....>. o.
   15168:	3eb8442a bf6ed89e 3eb9bb1e bf6e8ff8     *D.>..n....>..n.
   15178:	3ebb31a0 bf6e46be 3ebca7af bf6dfcf2     .1.>.Fn....>..m.
   15188:	3ebe1d4a bf6db293 3ebf926f bf6d67a1     J..>..m.o..>.gm.
   15198:	3ec1071e bf6d1c1d 3ec27b55 bf6cd007     ...>..m.U{.>..l.
   151a8:	3ec3ef15 bf6c835e 3ec5625c bf6c3624     ...>^.l.\b.>$6l.
   151b8:	3ec6d529 bf6be858 3ec8477c bf6b99fb     )..>X.k.|G.>..k.
   151c8:	3ec9b953 bf6b4b0c 3ecb2aae bf6afb8c     S..>.Kk..*.>..j.
   151d8:	3ecc9b8b bf6aab7b 3ece0bea bf6a5ad9     ...>{.j....>.Zj.
   151e8:	3ecf7bca bf6a09a7 3ed0eb2a bf69b7e4     .{.>..j.*..>..i.
   151f8:	3ed25a09 bf696591 3ed3c867 bf6912ae     .Z.>.ei.g..>..i.
   15208:	3ed53641 bf68bf3c 3ed6a399 bf686b39     A6.><.h....>9kh.
   15218:	3ed8106b bf6816a8 3ed97cb9 bf67c187     k..>..h..|.>..g.
   15228:	3edae880 bf676bd8 3edc53c1 bf671599     ...>.kg..S.>..g.
   15238:	3eddbe79 bf66becc 3edf28a9 bf666771     y..>..f..(.>qgf.
   15248:	3ee0924f bf660f88 3ee1fb6a bf65b710     O..>..f.j..>..e.
   15258:	3ee363fa bf655e0b 3ee4cbfe bf650479     .c.>.^e....>y.e.
   15268:	3ee63375 bf64aa59 3ee79a5d bf644fac     u3.>Y.d.]..>.Od.
   15278:	3ee900b7 bf63f473 3eea6681 bf6398ac     ...>s.c..f.>..c.
   15288:	3eebcbbb bf633c5a 3eed3063 bf62df7b     ...>Z<c.c0.>{.b.
   15298:	3eee9479 bf628210 3eeff7fb bf62241a     y..>..b....>.$b.
   152a8:	3ef15aea bf61c598 3ef2bd43 bf61668a     .Z.>..a.C..>.fa.
   152b8:	3ef41f07 bf6106f2 3ef58035 bf60a6cf     ...>..a.5..>..`.
   152c8:	3ef6e0cb bf604621 3ef840c8 bf5fe4e9     ...>!F`..@.>.._.
   152d8:	3ef9a02d bf5f8327 3efafef7 bf5f20db     -..>'._....>. _.
   152e8:	3efc5d27 bf5ebe05 3efdbabb bf5e5aa6     '].>..^....>.Z^.
   152f8:	3eff17b2 bf5df6be 3f003a06 bf5d924d     ...>..]..:.?M.].
   15308:	3f00e7e4 bf5d2d53 3f019573 bf5cc7d1     ...?S-].s..?..\.
   15318:	3f0242b1 bf5c61c7 3f02ef9f bf5bfb34     .B.?.a\....?4.[.
   15328:	3f039c3d bf5b941a 3f044889 bf5b2c79     =..?..[..H.?y,[.
   15338:	3f04f484 bf5ac450 3f05a02c bf5a5ba0     ...?P.Z.,..?.[Z.
   15348:	3f064b82 bf59f26a 3f06f686 bf5988ad     .K.?j.Y....?..Y.
   15358:	3f07a136 bf591e6a 3f084b92 bf58b3a1     6..?j.Y..K.?..X.
   15368:	3f08f59b bf584853 3f099f4e bf57dc7f     ...?SHX.N..?..W.
   15378:	3f0a48ad bf577026 3f0af1b7 bf570348     .H.?&pW....?H.W.
   15388:	3f0b9a6b bf5695e5 3f0c42c9 bf5627fe     k..?..V..B.?.'V.
   15398:	3f0cead0 bf55b993 3f0d9281 bf554aa4     ...?..U....?.JU.
   153a8:	3f0e39da bf54db31 3f0ee0db bf546b3b     .9.?1.T....?;kT.
   153b8:	3f0f8784 bf53fac3 3f102dd5 bf5389c7     ...?..S..-.?..S.
   153c8:	3f10d3cd bf531849 3f11796b bf52a649     ...?I.S.ky.?I.R.
   153d8:	3f121eb0 bf5233c6 3f12c39a bf51c0c2     ...?.3R....?..Q.
   153e8:	3f13682a bf514d3d 3f140c5f bf50d937     *h.?=MQ._..?7.P.
   153f8:	3f14b039 bf5064af 3f1553b7 bf4fefa8     9..?.dP..S.?..O.
   15408:	3f15f6d9 bf4f7a1f 3f16999f bf4f0417     ...?.zO....?..O.
   15418:	3f173c07 bf4e8d90 3f17de12 bf4e1689     .<.?..N....?..N.
   15428:	3f187fc0 bf4d9f02 3f19210f bf4d26fd     ...?..M..!.?.&M.
   15438:	3f19c200 bf4cae79 3f1a6293 bf4c3578     ...?y.L..b.?x5L.
   15448:	3f1b02c6 bf4bbbf8 3f1ba299 bf4b41fa     ...?..K....?.AK.
   15458:	3f1c420c bf4ac77f 3f1ce11f bf4a4c87     .B.?..J....?.LJ.
   15468:	3f1d7fd1 bf49d112 3f1e1e22 bf495521     ...?..I."..?!UI.
   15478:	3f1ebc12 bf48d8b3 3f1f599f bf485bca     ...?..H..Y.?.[H.
   15488:	3f1ff6cb bf47de65 3f209393 bf476085     ...?e.G... ?.`G.
   15498:	3f212ff9 bf46e22a 3f21cbfb bf466354     ./!?*.F...!?TcF.
   154a8:	3f226799 bf45e403 3f2302d3 bf456439     .g"?..E...#?9dE.
   154b8:	3f239da9 bf44e3f5 3f24381a bf446337     ..#?..D..8$?7cD.
   154c8:	3f24d225 bf43e200 3f256bcb bf436051     %.$?..C..k%?Q`C.
   154d8:	3f26050a bf42de29 3f269de3 bf425b89     ..&?).B...&?.[B.
   154e8:	3f273656 bf41d870 3f27ce61 bf4154e1     V6'?p.A.a.'?.TA.
   154f8:	3f286605 bf40d0da 3f28fd41 bf404c5c     .f(?..@.A.(?\L@.
   15508:	3f299415 bf3fc767 3f2a2a80 bf3f41fc     ..)?g.?..**?.A?.
   15518:	3f2ac082 bf3ebc1b 3f2b561b bf3e35c5     ..*?..>..V+?.5>.
   15528:	3f2beb4a bf3daef9 3f2c800f bf3d27b8     J.+?..=...,?.'=.
   15538:	3f2d1469 bf3ca003 3f2da859 bf3c17d9     i.-?..<.Y.-?..<.
   15548:	3f2e3bde bf3b8f3b 3f2ecef7 bf3b0629     .;.?;.;....?).;.
   15558:	3f2f61a5 bf3a7ca4 3f2ff3e6 bf39f2ac     .a/?.|:.../?..9.
   15568:	3f3085bb bf396842 3f311722 bf38dd65     ..0?Bh9.".1?e.8.
   15578:	3f31a81d bf385216 3f3238aa bf37c655     ..1?.R8..82?U.7.
   15588:	3f32c8c9 bf373a23 3f33587a bf36ad7f     ..2?#:7.zX3?..6.
   15598:	3f33e7bc bf36206c 3f34768f bf3592e7     ..3?l 6..v4?..5.
   155a8:	3f3504f3 bf3504f3 3f3592e7 bf34768f     ..5?..5...5?.v4.
   155b8:	3f36206c bf33e7bc 3f36ad7f bf33587a     l 6?..3...6?zX3.
   155c8:	3f373a23 bf32c8c9 3f37c655 bf3238aa     #:7?..2.U.7?.82.
   155d8:	3f385216 bf31a81d 3f38dd65 bf311722     .R8?..1.e.8?".1.
   155e8:	3f396842 bf3085bb 3f39f2ac bf2ff3e6     Bh9?..0...9?../.
   155f8:	3f3a7ca4 bf2f61a5 3f3b0629 bf2ecef7     .|:?.a/.).;?....
   15608:	3f3b8f3b bf2e3bde 3f3c17d9 bf2da859     ;.;?.;....<?Y.-.
   15618:	3f3ca003 bf2d1469 3f3d27b8 bf2c800f     ..<?i.-..'=?..,.
   15628:	3f3daef9 bf2beb4a 3f3e35c5 bf2b561b     ..=?J.+..5>?.V+.
   15638:	3f3ebc1b bf2ac082 3f3f41fc bf2a2a80     ..>?..*..A??.**.
   15648:	3f3fc767 bf299415 3f404c5c bf28fd41     g.??..).\L@?A.(.
   15658:	3f40d0da bf286605 3f4154e1 bf27ce61     ..@?.f(..TA?a.'.
   15668:	3f41d870 bf273656 3f425b89 bf269de3     p.A?V6'..[B?..&.
   15678:	3f42de29 bf26050a 3f436051 bf256bcb     ).B?..&.Q`C?.k%.
   15688:	3f43e200 bf24d225 3f446337 bf24381a     ..C?%.$.7cD?.8$.
   15698:	3f44e3f5 bf239da9 3f456439 bf2302d3     ..D?..#.9dE?..#.
   156a8:	3f45e403 bf226799 3f466354 bf21cbfb     ..E?.g".TcF?..!.
   156b8:	3f46e22a bf212ff9 3f476085 bf209393     *.F?./!..`G?.. .
   156c8:	3f47de65 bf1ff6cb 3f485bca bf1f599f     e.G?.....[H?.Y..
   156d8:	3f48d8b3 bf1ebc12 3f495521 bf1e1e22     ..H?....!UI?"...
   156e8:	3f49d112 bf1d7fd1 3f4a4c87 bf1ce11f     ..I?.....LJ?....
   156f8:	3f4ac77f bf1c420c 3f4b41fa bf1ba299     ..J?.B...AK?....
   15708:	3f4bbbf8 bf1b02c6 3f4c3578 bf1a6293     ..K?....x5L?.b..
   15718:	3f4cae79 bf19c200 3f4d26fd bf19210f     y.L?.....&M?.!..
   15728:	3f4d9f02 bf187fc0 3f4e1689 bf17de12     ..M?......N?....
   15738:	3f4e8d90 bf173c07 3f4f0417 bf16999f     ..N?.<....O?....
   15748:	3f4f7a1f bf15f6d9 3f4fefa8 bf1553b7     .zO?......O?.S..
   15758:	3f5064af bf14b039 3f50d937 bf140c5f     .dP?9...7.P?_...
   15768:	3f514d3d bf13682a 3f51c0c2 bf12c39a     =MQ?*h....Q?....
   15778:	3f5233c6 bf121eb0 3f52a649 bf11796b     .3R?....I.R?ky..
   15788:	3f531849 bf10d3cd 3f5389c7 bf102dd5     I.S?......S?.-..
   15798:	3f53fac3 bf0f8784 3f546b3b bf0ee0db     ..S?....;kT?....
   157a8:	3f54db31 bf0e39da 3f554aa4 bf0d9281     1.T?.9...JU?....
   157b8:	3f55b993 bf0cead0 3f5627fe bf0c42c9     ..U?.....'V?.B..
   157c8:	3f5695e5 bf0b9a6b 3f570348 bf0af1b7     ..V?k...H.W?....
   157d8:	3f577026 bf0a48ad 3f57dc7f bf099f4e     &pW?.H....W?N...
   157e8:	3f584853 bf08f59b 3f58b3a1 bf084b92     SHX?......X?.K..
   157f8:	3f591e6a bf07a136 3f5988ad bf06f686     j.Y?6.....Y?....
   15808:	3f59f26a bf064b82 3f5a5ba0 bf05a02c     j.Y?.K...[Z?,...
   15818:	3f5ac450 bf04f484 3f5b2c79 bf044889     P.Z?....y,[?.H..
   15828:	3f5b941a bf039c3d 3f5bfb34 bf02ef9f     ..[?=...4.[?....
   15838:	3f5c61c7 bf0242b1 3f5cc7d1 bf019573     .a\?.B....\?s...
   15848:	3f5d2d53 bf00e7e4 3f5d924d bf003a06     S-]?....M.]?.:..
   15858:	3f5df6be beff17b2 3f5e5aa6 befdbabb     ..]?.....Z^?....
   15868:	3f5ebe05 befc5d27 3f5f20db befafef7     ..^?']... _?....
   15878:	3f5f8327 bef9a02d 3f5fe4e9 bef840c8     '._?-....._?.@..
   15888:	3f604621 bef6e0cb 3f60a6cf bef58035     !F`?......`?5...
   15898:	3f6106f2 bef41f07 3f61668a bef2bd43     ..a?.....fa?C...
   158a8:	3f61c598 bef15aea 3f62241a beeff7fb     ..a?.Z...$b?....
   158b8:	3f628210 beee9479 3f62df7b beed3063     ..b?y...{.b?c0..
   158c8:	3f633c5a beebcbbb 3f6398ac beea6681     Z<c?......c?.f..
   158d8:	3f63f473 bee900b7 3f644fac bee79a5d     s.c?.....Od?]...
   158e8:	3f64aa59 bee63375 3f650479 bee4cbfe     Y.d?u3..y.e?....
   158f8:	3f655e0b bee363fa 3f65b710 bee1fb6a     .^e?.c....e?j...
   15908:	3f660f88 bee0924f 3f666771 bedf28a9     ..f?O...qgf?.(..
   15918:	3f66becc beddbe79 3f671599 bedc53c1     ..f?y.....g?.S..
   15928:	3f676bd8 bedae880 3f67c187 bed97cb9     .kg?......g?.|..
   15938:	3f6816a8 bed8106b 3f686b39 bed6a399     ..h?k...9kh?....
   15948:	3f68bf3c bed53641 3f6912ae bed3c867     <.h?A6....i?g...
   15958:	3f696591 bed25a09 3f69b7e4 bed0eb2a     .ei?.Z....i?*...
   15968:	3f6a09a7 becf7bca 3f6a5ad9 bece0bea     ..j?.{...Zj?....
   15978:	3f6aab7b becc9b8b 3f6afb8c becb2aae     {.j?......j?.*..
   15988:	3f6b4b0c bec9b953 3f6b99fb bec8477c     .Kk?S.....k?|G..
   15998:	3f6be858 bec6d529 3f6c3624 bec5625c     X.k?)...$6l?\b..
   159a8:	3f6c835e bec3ef15 3f6cd007 bec27b55     ^.l?......l?U{..
   159b8:	3f6d1c1d bec1071e 3f6d67a1 bebf926f     ..m?.....gm?o...
   159c8:	3f6db293 bebe1d4a 3f6dfcf2 bebca7af     ..m?J.....m?....
   159d8:	3f6e46be bebb31a0 3f6e8ff8 beb9bb1e     .Fn?.1....n?....
   159e8:	3f6ed89e beb8442a 3f6f20b0 beb6ccc3     ..n?*D... o?....
   159f8:	3f6f6830 beb554ec 3f6faf1b beb3dca5     0ho?.T....o?....
   15a08:	3f6ff573 beb263ef 3f703b37 beb0eacb     s.o?.c..7;p?....
   15a18:	3f708066 beaf713a 3f70c502 beadf73c     f.p?:q....p?<...
   15a28:	3f710908 beac7cd4 3f714c7a beab0201     ..q?.|..zLq?....
   15a38:	3f718f57 bea986c4 3f71d19f bea80b1f     W.q?......q?....
   15a48:	3f721352 bea68f12 3f725470 bea5129f     R.r?....pTr?....
   15a58:	3f7294f8 bea395c5 3f72d4eb bea21887     ..r?......r?....
   15a68:	3f731447 bea09ae5 3f73530e be9f1cdf     G.s?.....Ss?....
   15a78:	3f73913f be9d9e78 3f73ced9 be9c1faf     ?.s?x.....s?....
   15a88:	3f740bdd be9aa086 3f74484b be9920fe     ..t?....KHt?. ..
   15a98:	3f748422 be97a117 3f74bf62 be9620d2     ".t?....b.t?. ..
   15aa8:	3f74fa0b be94a031 3f75341d be931f35     ..t?1....4u?5...
   15ab8:	3f756d97 be919ddd 3f75a67b be901c2c     .mu?....{.u?,...
   15ac8:	3f75dec6 be8e9a22 3f76167a be8d17c0     ..u?"...z.v?....
   15ad8:	3f764d97 be8b9507 3f76841b be8a11f8     .Mv?......v?....
   15ae8:	3f76ba07 be888e93 3f76ef5b be870ada     ..v?....[.v?....
   15af8:	3f772417 be8586ce 3f77583a be840270     .$w?....:Xw?p...
   15b08:	3f778bc5 be827dc0 3f77beb7 be80f8c0     ..w?.}....w?....
   15b18:	3f77f110 be7ee6e1 3f7822d1 be7bdba4     ..w?..~.."x?..{.
   15b28:	3f7853f8 be78cfcc 3f788486 be75c35a     .Sx?..x...x?Z.u.
   15b38:	3f78b47b be72b651 3f78e3d6 be6fa8b2     {.x?Q.r...x?..o.
   15b48:	3f791298 be6c9a7f 3f7940c0 be698bba     ..y?..l..@y?..i.
   15b58:	3f796e4e be667c66 3f799b43 be636c83     Nny?f|f.C.y?.lc.
   15b68:	3f79c79d be605c13 3f79f35e be5d4b1a     ..y?.\`.^.y?.K].
   15b78:	3f7a1e84 be5a3997 3f7a4910 be57278f     ..z?.9Z..Iz?.'W.
   15b88:	3f7a7302 be541501 3f7a9c59 be5101f1     .sz?..T.Y.z?..Q.
   15b98:	3f7ac516 be4dee60 3f7aed37 be4ada4f     ..z?`.M.7.z?O.J.
   15ba8:	3f7b14be be47c5c2 3f7b3bab be44b0b9     ..{?..G..;{?..D.
   15bb8:	3f7b61fc be419b37 3f7b87b2 be3e853e     .a{?7.A...{?>.>.
   15bc8:	3f7baccd be3b6ecf 3f7bd14d be3857ec     ..{?.n;.M.{?.W8.
   15bd8:	3f7bf531 be354098 3f7c187a be3228d4     1.{?.@5.z.|?.(2.
   15be8:	3f7c3b28 be2f10a2 3f7c5d3a be2bf804     (;|?../.:]|?..+.
   15bf8:	3f7c7eb0 be28defc 3f7c9f8a be25c58c     .~|?..(...|?..%.
   15c08:	3f7cbfc9 be22abb6 3f7cdf6c be1f917b     ..|?..".l.|?{...
   15c18:	3f7cfe73 be1c76de 3f7d1cdd be195be0     s.|?.v....}?.[..
   15c28:	3f7d3aac be164083 3f7d57de be1324ca     .:}?.@...W}?.$..
   15c38:	3f7d7474 be1008b7 3f7d906e be0cec4a     tt}?....n.}?J...
   15c48:	3f7dabcc be09cf86 3f7dc68c be06b26e     ..}?......}?n...
   15c58:	3f7de0b1 be039502 3f7dfa38 be007745     ..}?....8.}?Ew..
   15c68:	3f7e1324 bdfab273 3f7e2b72 bdf475c0     $.~?s...r+~?.u..
   15c78:	3f7e4323 bdee3876 3f7e5a38 bde7fa9a     #C~?v8..8Z~?....
   15c88:	3f7e70b0 bde1bc2e 3f7e868b bddb7d37     .p~?......~?7}..
   15c98:	3f7e9bc9 bdd53db9 3f7eb069 bdcefdb7     ..~?.=..i.~?....
   15ca8:	3f7ec46d bdc8bd36 3f7ed7d4 bdc27c39     m.~?6.....~?9|..
   15cb8:	3f7eea9d bdbc3ac3 3f7efcc9 bdb5f8da     ..~?.:....~?....
   15cc8:	3f7f0e58 bdafb680 3f7f1f49 bda973ba     X..?....I..?.s..
   15cd8:	3f7f2f9d bda3308c 3f7f3f54 bd9cecf9     ./.?.0..T?.?....
   15ce8:	3f7f4e6d bd96a905 3f7f5ce9 bd9064b4     mN.?.....\.?.d..
   15cf8:	3f7f6ac7 bd8a200a 3f7f7808 bd83db0a     .j.?. ...x.?....
   15d08:	3f7f84ab bd7b2b74 3f7f90b1 bd6ea038     ...?t+{....?8.n.
   15d18:	3f7f9c18 bd621468 3f7fa6e3 bd55880e     ...?h.b....?..U.
   15d28:	3f7fb10f bd48fb2f 3f7fba9e bd3c6dd5     ...?/.H....?.m<.
   15d38:	3f7fc38f bd2fe007 3f7fcbe2 bd2351cc     ...?../....?.Q#.
   15d48:	3f7fd398 bd16c32c 3f7fdaaf bd0a342f     ...?,......?/4..
   15d58:	3f7fe129 bcfb49b9 3f7fe705 bce22a7b     )..?.I.....?{*..
   15d68:	3f7fec43 bcc90ab0 3f7ff0e3 bcafea69     C..?.......?i...
   15d78:	3f7ff4e6 bc96c9b6 3f7ff84a bc7b514b     ...?....J..?KQ{.
   15d88:	3f7ffb11 bc490e90 3f7ffd39 bc16cb59     ...?..I.9..?Y...
   15d98:	3f7ffec4 bbc90f89 3f7fffb1 bb490fc7     ...?.......?..I.

00015da8 <twiddleCoef_rfft_64>:
   15da8:	00000000 3f800000 3dc8bd36 3f7ec46d     .......?6..=m.~?
   15db8:	3e47c5c2 3f7b14be 3e94a031 3f74fa0b     ..G>..{?1..>..t?
   15dc8:	3ec3ef15 3f6c835e 3ef15aea 3f61c598     ...>^.l?.Z.>..a?
   15dd8:	3f0e39da 3f54db31 3f226799 3f45e403     .9.?1.T?.g"?..E?
   15de8:	3f3504f3 3f3504f3 3f45e403 3f226799     ..5?..5?..E?.g"?
   15df8:	3f54db31 3f0e39da 3f61c598 3ef15aea     1.T?.9.?..a?.Z.>
   15e08:	3f6c835e 3ec3ef15 3f74fa0b 3e94a031     ^.l?...>..t?1..>
   15e18:	3f7b14be 3e47c5c2 3f7ec46d 3dc8bd36     ..{?..G>m.~?6..=
   15e28:	3f800000 00000000 3f7ec46d bdc8bd36     ...?....m.~?6...
   15e38:	3f7b14be be47c5c2 3f74fa0b be94a031     ..{?..G...t?1...
   15e48:	3f6c835e bec3ef15 3f61c598 bef15aea     ^.l?......a?.Z..
   15e58:	3f54db31 bf0e39da 3f45e403 bf226799     1.T?.9....E?.g".
   15e68:	3f3504f3 bf3504f3 3f226799 bf45e403     ..5?..5..g"?..E.
   15e78:	3f0e39da bf54db31 3ef15aea bf61c598     .9.?1.T..Z.>..a.
   15e88:	3ec3ef15 bf6c835e 3e94a031 bf74fa0b     ...>^.l.1..>..t.
   15e98:	3e47c5c2 bf7b14be 3dc8bd36 bf7ec46d     ..G>..{.6..=m.~.

00015ea8 <armBitRevIndexTable64>:
   15ea8:	00400008 00800010 00c00018 01000020     ..@......... ...
   15eb8:	01400028 01800030 01c00038 00880050     (.@.0...8...P...
   15ec8:	00c80058 01080060 01480068 01880070     X...`...h.H.p...
   15ed8:	01c80078 00d00098 011000a0 015000a8     x.............P.
   15ee8:	019000b0 01d000b8 011800e0 015800e8     ..............X.
   15ef8:	019800f0 01d800f8 01600128 01a00130     ........(.`.0...
   15f08:	01e00138 01a80170 01e80178 01f001b8     8...p...x.......

00015f18 <twiddleCoef_rfft_2048>:
   15f18:	00000000 3f800000 3b490fc7 3f7fffb1     .......?..I;...?
   15f28:	3bc90f89 3f7ffec4 3c16cb59 3f7ffd39     ...;...?Y..<9..?
   15f38:	3c490e90 3f7ffb11 3c7b514b 3f7ff84a     ..I<...?KQ{<J..?
   15f48:	3c96c9b6 3f7ff4e6 3cafea69 3f7ff0e3     ...<...?i..<...?
   15f58:	3cc90ab0 3f7fec43 3ce22a7b 3f7fe705     ...<C..?{*.<...?
   15f68:	3cfb49b9 3f7fe129 3d0a342f 3f7fdaaf     .I.<)..?/4.=...?
   15f78:	3d16c32c 3f7fd398 3d2351cc 3f7fcbe2     ,..=...?.Q#=...?
   15f88:	3d2fe007 3f7fc38f 3d3c6dd5 3f7fba9e     ../=...?.m<=...?
   15f98:	3d48fb2f 3f7fb10f 3d55880e 3f7fa6e3     /.H=...?..U=...?
   15fa8:	3d621468 3f7f9c18 3d6ea038 3f7f90b1     h.b=...?8.n=...?
   15fb8:	3d7b2b74 3f7f84ab 3d83db0a 3f7f7808     t+{=...?...=.x.?
   15fc8:	3d8a200a 3f7f6ac7 3d9064b4 3f7f5ce9     . .=.j.?.d.=.\.?
   15fd8:	3d96a905 3f7f4e6d 3d9cecf9 3f7f3f54     ...=mN.?...=T?.?
   15fe8:	3da3308c 3f7f2f9d 3da973ba 3f7f1f49     .0.=./.?.s.=I..?
   15ff8:	3dafb680 3f7f0e58 3db5f8da 3f7efcc9     ...=X..?...=..~?
   16008:	3dbc3ac3 3f7eea9d 3dc27c39 3f7ed7d4     .:.=..~?9|.=..~?
   16018:	3dc8bd36 3f7ec46d 3dcefdb7 3f7eb069     6..=m.~?...=i.~?
   16028:	3dd53db9 3f7e9bc9 3ddb7d37 3f7e868b     .=.=..~?7}.=..~?
   16038:	3de1bc2e 3f7e70b0 3de7fa9a 3f7e5a38     ...=.p~?...=8Z~?
   16048:	3dee3876 3f7e4323 3df475c0 3f7e2b72     v8.=#C~?.u.=r+~?
   16058:	3dfab273 3f7e1324 3e007745 3f7dfa38     s..=$.~?Ew.>8.}?
   16068:	3e039502 3f7de0b1 3e06b26e 3f7dc68c     ...>..}?n..>..}?
   16078:	3e09cf86 3f7dabcc 3e0cec4a 3f7d906e     ...>..}?J..>n.}?
   16088:	3e1008b7 3f7d7474 3e1324ca 3f7d57de     ...>tt}?.$.>.W}?
   16098:	3e164083 3f7d3aac 3e195be0 3f7d1cdd     .@.>.:}?.[.>..}?
   160a8:	3e1c76de 3f7cfe73 3e1f917b 3f7cdf6c     .v.>s.|?{..>l.|?
   160b8:	3e22abb6 3f7cbfc9 3e25c58c 3f7c9f8a     ..">..|?..%>..|?
   160c8:	3e28defc 3f7c7eb0 3e2bf804 3f7c5d3a     ..(>.~|?..+>:]|?
   160d8:	3e2f10a2 3f7c3b28 3e3228d4 3f7c187a     ../>(;|?.(2>z.|?
   160e8:	3e354098 3f7bf531 3e3857ec 3f7bd14d     .@5>1.{?.W8>M.{?
   160f8:	3e3b6ecf 3f7baccd 3e3e853e 3f7b87b2     .n;>..{?>.>>..{?
   16108:	3e419b37 3f7b61fc 3e44b0b9 3f7b3bab     7.A>.a{?..D>.;{?
   16118:	3e47c5c2 3f7b14be 3e4ada4f 3f7aed37     ..G>..{?O.J>7.z?
   16128:	3e4dee60 3f7ac516 3e5101f1 3f7a9c59     `.M>..z?..Q>Y.z?
   16138:	3e541501 3f7a7302 3e57278f 3f7a4910     ..T>.sz?.'W>.Iz?
   16148:	3e5a3997 3f7a1e84 3e5d4b1a 3f79f35e     .9Z>..z?.K]>^.y?
   16158:	3e605c13 3f79c79d 3e636c83 3f799b43     .\`>..y?.lc>C.y?
   16168:	3e667c66 3f796e4e 3e698bba 3f7940c0     f|f>Nny?..i>.@y?
   16178:	3e6c9a7f 3f791298 3e6fa8b2 3f78e3d6     ..l>..y?..o>..x?
   16188:	3e72b651 3f78b47b 3e75c35a 3f788486     Q.r>{.x?Z.u>..x?
   16198:	3e78cfcc 3f7853f8 3e7bdba4 3f7822d1     ..x>.Sx?..{>."x?
   161a8:	3e7ee6e1 3f77f110 3e80f8c0 3f77beb7     ..~>..w?...>..w?
   161b8:	3e827dc0 3f778bc5 3e840270 3f77583a     .}.>..w?p..>:Xw?
   161c8:	3e8586ce 3f772417 3e870ada 3f76ef5b     ...>.$w?...>[.v?
   161d8:	3e888e93 3f76ba07 3e8a11f8 3f76841b     ...>..v?...>..v?
   161e8:	3e8b9507 3f764d97 3e8d17c0 3f76167a     ...>.Mv?...>z.v?
   161f8:	3e8e9a22 3f75dec6 3e901c2c 3f75a67b     "..>..u?,..>{.u?
   16208:	3e919ddd 3f756d97 3e931f35 3f75341d     ...>.mu?5..>.4u?
   16218:	3e94a031 3f74fa0b 3e9620d2 3f74bf62     1..>..t?. .>b.t?
   16228:	3e97a117 3f748422 3e9920fe 3f74484b     ...>".t?. .>KHt?
   16238:	3e9aa086 3f740bdd 3e9c1faf 3f73ced9     ...>..t?...>..s?
   16248:	3e9d9e78 3f73913f 3e9f1cdf 3f73530e     x..>?.s?...>.Ss?
   16258:	3ea09ae5 3f731447 3ea21887 3f72d4eb     ...>G.s?...>..r?
   16268:	3ea395c5 3f7294f8 3ea5129f 3f725470     ...>..r?...>pTr?
   16278:	3ea68f12 3f721352 3ea80b1f 3f71d19f     ...>R.r?...>..q?
   16288:	3ea986c4 3f718f57 3eab0201 3f714c7a     ...>W.q?...>zLq?
   16298:	3eac7cd4 3f710908 3eadf73c 3f70c502     .|.>..q?<..>..p?
   162a8:	3eaf713a 3f708066 3eb0eacb 3f703b37     :q.>f.p?...>7;p?
   162b8:	3eb263ef 3f6ff573 3eb3dca5 3f6faf1b     .c.>s.o?...>..o?
   162c8:	3eb554ec 3f6f6830 3eb6ccc3 3f6f20b0     .T.>0ho?...>. o?
   162d8:	3eb8442a 3f6ed89e 3eb9bb1e 3f6e8ff8     *D.>..n?...>..n?
   162e8:	3ebb31a0 3f6e46be 3ebca7af 3f6dfcf2     .1.>.Fn?...>..m?
   162f8:	3ebe1d4a 3f6db293 3ebf926f 3f6d67a1     J..>..m?o..>.gm?
   16308:	3ec1071e 3f6d1c1d 3ec27b55 3f6cd007     ...>..m?U{.>..l?
   16318:	3ec3ef15 3f6c835e 3ec5625c 3f6c3624     ...>^.l?\b.>$6l?
   16328:	3ec6d529 3f6be858 3ec8477c 3f6b99fb     )..>X.k?|G.>..k?
   16338:	3ec9b953 3f6b4b0c 3ecb2aae 3f6afb8c     S..>.Kk?.*.>..j?
   16348:	3ecc9b8b 3f6aab7b 3ece0bea 3f6a5ad9     ...>{.j?...>.Zj?
   16358:	3ecf7bca 3f6a09a7 3ed0eb2a 3f69b7e4     .{.>..j?*..>..i?
   16368:	3ed25a09 3f696591 3ed3c867 3f6912ae     .Z.>.ei?g..>..i?
   16378:	3ed53641 3f68bf3c 3ed6a399 3f686b39     A6.><.h?...>9kh?
   16388:	3ed8106b 3f6816a8 3ed97cb9 3f67c187     k..>..h?.|.>..g?
   16398:	3edae880 3f676bd8 3edc53c1 3f671599     ...>.kg?.S.>..g?
   163a8:	3eddbe79 3f66becc 3edf28a9 3f666771     y..>..f?.(.>qgf?
   163b8:	3ee0924f 3f660f88 3ee1fb6a 3f65b710     O..>..f?j..>..e?
   163c8:	3ee363fa 3f655e0b 3ee4cbfe 3f650479     .c.>.^e?...>y.e?
   163d8:	3ee63375 3f64aa59 3ee79a5d 3f644fac     u3.>Y.d?]..>.Od?
   163e8:	3ee900b7 3f63f473 3eea6681 3f6398ac     ...>s.c?.f.>..c?
   163f8:	3eebcbbb 3f633c5a 3eed3063 3f62df7b     ...>Z<c?c0.>{.b?
   16408:	3eee9479 3f628210 3eeff7fb 3f62241a     y..>..b?...>.$b?
   16418:	3ef15aea 3f61c598 3ef2bd43 3f61668a     .Z.>..a?C..>.fa?
   16428:	3ef41f07 3f6106f2 3ef58035 3f60a6cf     ...>..a?5..>..`?
   16438:	3ef6e0cb 3f604621 3ef840c8 3f5fe4e9     ...>!F`?.@.>.._?
   16448:	3ef9a02d 3f5f8327 3efafef7 3f5f20db     -..>'._?...>. _?
   16458:	3efc5d27 3f5ebe05 3efdbabb 3f5e5aa6     '].>..^?...>.Z^?
   16468:	3eff17b2 3f5df6be 3f003a06 3f5d924d     ...>..]?.:.?M.]?
   16478:	3f00e7e4 3f5d2d53 3f019573 3f5cc7d1     ...?S-]?s..?..\?
   16488:	3f0242b1 3f5c61c7 3f02ef9f 3f5bfb34     .B.?.a\?...?4.[?
   16498:	3f039c3d 3f5b941a 3f044889 3f5b2c79     =..?..[?.H.?y,[?
   164a8:	3f04f484 3f5ac450 3f05a02c 3f5a5ba0     ...?P.Z?,..?.[Z?
   164b8:	3f064b82 3f59f26a 3f06f686 3f5988ad     .K.?j.Y?...?..Y?
   164c8:	3f07a136 3f591e6a 3f084b92 3f58b3a1     6..?j.Y?.K.?..X?
   164d8:	3f08f59b 3f584853 3f099f4e 3f57dc7f     ...?SHX?N..?..W?
   164e8:	3f0a48ad 3f577026 3f0af1b7 3f570348     .H.?&pW?...?H.W?
   164f8:	3f0b9a6b 3f5695e5 3f0c42c9 3f5627fe     k..?..V?.B.?.'V?
   16508:	3f0cead0 3f55b993 3f0d9281 3f554aa4     ...?..U?...?.JU?
   16518:	3f0e39da 3f54db31 3f0ee0db 3f546b3b     .9.?1.T?...?;kT?
   16528:	3f0f8784 3f53fac3 3f102dd5 3f5389c7     ...?..S?.-.?..S?
   16538:	3f10d3cd 3f531849 3f11796b 3f52a649     ...?I.S?ky.?I.R?
   16548:	3f121eb0 3f5233c6 3f12c39a 3f51c0c2     ...?.3R?...?..Q?
   16558:	3f13682a 3f514d3d 3f140c5f 3f50d937     *h.?=MQ?_..?7.P?
   16568:	3f14b039 3f5064af 3f1553b7 3f4fefa8     9..?.dP?.S.?..O?
   16578:	3f15f6d9 3f4f7a1f 3f16999f 3f4f0417     ...?.zO?...?..O?
   16588:	3f173c07 3f4e8d90 3f17de12 3f4e1689     .<.?..N?...?..N?
   16598:	3f187fc0 3f4d9f02 3f19210f 3f4d26fd     ...?..M?.!.?.&M?
   165a8:	3f19c200 3f4cae79 3f1a6293 3f4c3578     ...?y.L?.b.?x5L?
   165b8:	3f1b02c6 3f4bbbf8 3f1ba299 3f4b41fa     ...?..K?...?.AK?
   165c8:	3f1c420c 3f4ac77f 3f1ce11f 3f4a4c87     .B.?..J?...?.LJ?
   165d8:	3f1d7fd1 3f49d112 3f1e1e22 3f495521     ...?..I?"..?!UI?
   165e8:	3f1ebc12 3f48d8b3 3f1f599f 3f485bca     ...?..H?.Y.?.[H?
   165f8:	3f1ff6cb 3f47de65 3f209393 3f476085     ...?e.G?.. ?.`G?
   16608:	3f212ff9 3f46e22a 3f21cbfb 3f466354     ./!?*.F?..!?TcF?
   16618:	3f226799 3f45e403 3f2302d3 3f456439     .g"?..E?..#?9dE?
   16628:	3f239da9 3f44e3f5 3f24381a 3f446337     ..#?..D?.8$?7cD?
   16638:	3f24d225 3f43e200 3f256bcb 3f436051     %.$?..C?.k%?Q`C?
   16648:	3f26050a 3f42de29 3f269de3 3f425b89     ..&?).B?..&?.[B?
   16658:	3f273656 3f41d870 3f27ce61 3f4154e1     V6'?p.A?a.'?.TA?
   16668:	3f286605 3f40d0da 3f28fd41 3f404c5c     .f(?..@?A.(?\L@?
   16678:	3f299415 3f3fc767 3f2a2a80 3f3f41fc     ..)?g.??.**?.A??
   16688:	3f2ac082 3f3ebc1b 3f2b561b 3f3e35c5     ..*?..>?.V+?.5>?
   16698:	3f2beb4a 3f3daef9 3f2c800f 3f3d27b8     J.+?..=?..,?.'=?
   166a8:	3f2d1469 3f3ca003 3f2da859 3f3c17d9     i.-?..<?Y.-?..<?
   166b8:	3f2e3bde 3f3b8f3b 3f2ecef7 3f3b0629     .;.?;.;?...?).;?
   166c8:	3f2f61a5 3f3a7ca4 3f2ff3e6 3f39f2ac     .a/?.|:?../?..9?
   166d8:	3f3085bb 3f396842 3f311722 3f38dd65     ..0?Bh9?".1?e.8?
   166e8:	3f31a81d 3f385216 3f3238aa 3f37c655     ..1?.R8?.82?U.7?
   166f8:	3f32c8c9 3f373a23 3f33587a 3f36ad7f     ..2?#:7?zX3?..6?
   16708:	3f33e7bc 3f36206c 3f34768f 3f3592e7     ..3?l 6?.v4?..5?
   16718:	3f3504f3 3f3504f3 3f3592e7 3f34768f     ..5?..5?..5?.v4?
   16728:	3f36206c 3f33e7bc 3f36ad7f 3f33587a     l 6?..3?..6?zX3?
   16738:	3f373a23 3f32c8c9 3f37c655 3f3238aa     #:7?..2?U.7?.82?
   16748:	3f385216 3f31a81d 3f38dd65 3f311722     .R8?..1?e.8?".1?
   16758:	3f396842 3f3085bb 3f39f2ac 3f2ff3e6     Bh9?..0?..9?../?
   16768:	3f3a7ca4 3f2f61a5 3f3b0629 3f2ecef7     .|:?.a/?).;?...?
   16778:	3f3b8f3b 3f2e3bde 3f3c17d9 3f2da859     ;.;?.;.?..<?Y.-?
   16788:	3f3ca003 3f2d1469 3f3d27b8 3f2c800f     ..<?i.-?.'=?..,?
   16798:	3f3daef9 3f2beb4a 3f3e35c5 3f2b561b     ..=?J.+?.5>?.V+?
   167a8:	3f3ebc1b 3f2ac082 3f3f41fc 3f2a2a80     ..>?..*?.A??.**?
   167b8:	3f3fc767 3f299415 3f404c5c 3f28fd41     g.??..)?\L@?A.(?
   167c8:	3f40d0da 3f286605 3f4154e1 3f27ce61     ..@?.f(?.TA?a.'?
   167d8:	3f41d870 3f273656 3f425b89 3f269de3     p.A?V6'?.[B?..&?
   167e8:	3f42de29 3f26050a 3f436051 3f256bcb     ).B?..&?Q`C?.k%?
   167f8:	3f43e200 3f24d225 3f446337 3f24381a     ..C?%.$?7cD?.8$?
   16808:	3f44e3f5 3f239da9 3f456439 3f2302d3     ..D?..#?9dE?..#?
   16818:	3f45e403 3f226799 3f466354 3f21cbfb     ..E?.g"?TcF?..!?
   16828:	3f46e22a 3f212ff9 3f476085 3f209393     *.F?./!?.`G?.. ?
   16838:	3f47de65 3f1ff6cb 3f485bca 3f1f599f     e.G?...?.[H?.Y.?
   16848:	3f48d8b3 3f1ebc12 3f495521 3f1e1e22     ..H?...?!UI?"..?
   16858:	3f49d112 3f1d7fd1 3f4a4c87 3f1ce11f     ..I?...?.LJ?...?
   16868:	3f4ac77f 3f1c420c 3f4b41fa 3f1ba299     ..J?.B.?.AK?...?
   16878:	3f4bbbf8 3f1b02c6 3f4c3578 3f1a6293     ..K?...?x5L?.b.?
   16888:	3f4cae79 3f19c200 3f4d26fd 3f19210f     y.L?...?.&M?.!.?
   16898:	3f4d9f02 3f187fc0 3f4e1689 3f17de12     ..M?...?..N?...?
   168a8:	3f4e8d90 3f173c07 3f4f0417 3f16999f     ..N?.<.?..O?...?
   168b8:	3f4f7a1f 3f15f6d9 3f4fefa8 3f1553b7     .zO?...?..O?.S.?
   168c8:	3f5064af 3f14b039 3f50d937 3f140c5f     .dP?9..?7.P?_..?
   168d8:	3f514d3d 3f13682a 3f51c0c2 3f12c39a     =MQ?*h.?..Q?...?
   168e8:	3f5233c6 3f121eb0 3f52a649 3f11796b     .3R?...?I.R?ky.?
   168f8:	3f531849 3f10d3cd 3f5389c7 3f102dd5     I.S?...?..S?.-.?
   16908:	3f53fac3 3f0f8784 3f546b3b 3f0ee0db     ..S?...?;kT?...?
   16918:	3f54db31 3f0e39da 3f554aa4 3f0d9281     1.T?.9.?.JU?...?
   16928:	3f55b993 3f0cead0 3f5627fe 3f0c42c9     ..U?...?.'V?.B.?
   16938:	3f5695e5 3f0b9a6b 3f570348 3f0af1b7     ..V?k..?H.W?...?
   16948:	3f577026 3f0a48ad 3f57dc7f 3f099f4e     &pW?.H.?..W?N..?
   16958:	3f584853 3f08f59b 3f58b3a1 3f084b92     SHX?...?..X?.K.?
   16968:	3f591e6a 3f07a136 3f5988ad 3f06f686     j.Y?6..?..Y?...?
   16978:	3f59f26a 3f064b82 3f5a5ba0 3f05a02c     j.Y?.K.?.[Z?,..?
   16988:	3f5ac450 3f04f484 3f5b2c79 3f044889     P.Z?...?y,[?.H.?
   16998:	3f5b941a 3f039c3d 3f5bfb34 3f02ef9f     ..[?=..?4.[?...?
   169a8:	3f5c61c7 3f0242b1 3f5cc7d1 3f019573     .a\?.B.?..\?s..?
   169b8:	3f5d2d53 3f00e7e4 3f5d924d 3f003a06     S-]?...?M.]?.:.?
   169c8:	3f5df6be 3eff17b2 3f5e5aa6 3efdbabb     ..]?...>.Z^?...>
   169d8:	3f5ebe05 3efc5d27 3f5f20db 3efafef7     ..^?'].>. _?...>
   169e8:	3f5f8327 3ef9a02d 3f5fe4e9 3ef840c8     '._?-..>.._?.@.>
   169f8:	3f604621 3ef6e0cb 3f60a6cf 3ef58035     !F`?...>..`?5..>
   16a08:	3f6106f2 3ef41f07 3f61668a 3ef2bd43     ..a?...>.fa?C..>
   16a18:	3f61c598 3ef15aea 3f62241a 3eeff7fb     ..a?.Z.>.$b?...>
   16a28:	3f628210 3eee9479 3f62df7b 3eed3063     ..b?y..>{.b?c0.>
   16a38:	3f633c5a 3eebcbbb 3f6398ac 3eea6681     Z<c?...>..c?.f.>
   16a48:	3f63f473 3ee900b7 3f644fac 3ee79a5d     s.c?...>.Od?]..>
   16a58:	3f64aa59 3ee63375 3f650479 3ee4cbfe     Y.d?u3.>y.e?...>
   16a68:	3f655e0b 3ee363fa 3f65b710 3ee1fb6a     .^e?.c.>..e?j..>
   16a78:	3f660f88 3ee0924f 3f666771 3edf28a9     ..f?O..>qgf?.(.>
   16a88:	3f66becc 3eddbe79 3f671599 3edc53c1     ..f?y..>..g?.S.>
   16a98:	3f676bd8 3edae880 3f67c187 3ed97cb9     .kg?...>..g?.|.>
   16aa8:	3f6816a8 3ed8106b 3f686b39 3ed6a399     ..h?k..>9kh?...>
   16ab8:	3f68bf3c 3ed53641 3f6912ae 3ed3c867     <.h?A6.>..i?g..>
   16ac8:	3f696591 3ed25a09 3f69b7e4 3ed0eb2a     .ei?.Z.>..i?*..>
   16ad8:	3f6a09a7 3ecf7bca 3f6a5ad9 3ece0bea     ..j?.{.>.Zj?...>
   16ae8:	3f6aab7b 3ecc9b8b 3f6afb8c 3ecb2aae     {.j?...>..j?.*.>
   16af8:	3f6b4b0c 3ec9b953 3f6b99fb 3ec8477c     .Kk?S..>..k?|G.>
   16b08:	3f6be858 3ec6d529 3f6c3624 3ec5625c     X.k?)..>$6l?\b.>
   16b18:	3f6c835e 3ec3ef15 3f6cd007 3ec27b55     ^.l?...>..l?U{.>
   16b28:	3f6d1c1d 3ec1071e 3f6d67a1 3ebf926f     ..m?...>.gm?o..>
   16b38:	3f6db293 3ebe1d4a 3f6dfcf2 3ebca7af     ..m?J..>..m?...>
   16b48:	3f6e46be 3ebb31a0 3f6e8ff8 3eb9bb1e     .Fn?.1.>..n?...>
   16b58:	3f6ed89e 3eb8442a 3f6f20b0 3eb6ccc3     ..n?*D.>. o?...>
   16b68:	3f6f6830 3eb554ec 3f6faf1b 3eb3dca5     0ho?.T.>..o?...>
   16b78:	3f6ff573 3eb263ef 3f703b37 3eb0eacb     s.o?.c.>7;p?...>
   16b88:	3f708066 3eaf713a 3f70c502 3eadf73c     f.p?:q.>..p?<..>
   16b98:	3f710908 3eac7cd4 3f714c7a 3eab0201     ..q?.|.>zLq?...>
   16ba8:	3f718f57 3ea986c4 3f71d19f 3ea80b1f     W.q?...>..q?...>
   16bb8:	3f721352 3ea68f12 3f725470 3ea5129f     R.r?...>pTr?...>
   16bc8:	3f7294f8 3ea395c5 3f72d4eb 3ea21887     ..r?...>..r?...>
   16bd8:	3f731447 3ea09ae5 3f73530e 3e9f1cdf     G.s?...>.Ss?...>
   16be8:	3f73913f 3e9d9e78 3f73ced9 3e9c1faf     ?.s?x..>..s?...>
   16bf8:	3f740bdd 3e9aa086 3f74484b 3e9920fe     ..t?...>KHt?. .>
   16c08:	3f748422 3e97a117 3f74bf62 3e9620d2     ".t?...>b.t?. .>
   16c18:	3f74fa0b 3e94a031 3f75341d 3e931f35     ..t?1..>.4u?5..>
   16c28:	3f756d97 3e919ddd 3f75a67b 3e901c2c     .mu?...>{.u?,..>
   16c38:	3f75dec6 3e8e9a22 3f76167a 3e8d17c0     ..u?"..>z.v?...>
   16c48:	3f764d97 3e8b9507 3f76841b 3e8a11f8     .Mv?...>..v?...>
   16c58:	3f76ba07 3e888e93 3f76ef5b 3e870ada     ..v?...>[.v?...>
   16c68:	3f772417 3e8586ce 3f77583a 3e840270     .$w?...>:Xw?p..>
   16c78:	3f778bc5 3e827dc0 3f77beb7 3e80f8c0     ..w?.}.>..w?...>
   16c88:	3f77f110 3e7ee6e1 3f7822d1 3e7bdba4     ..w?..~>."x?..{>
   16c98:	3f7853f8 3e78cfcc 3f788486 3e75c35a     .Sx?..x>..x?Z.u>
   16ca8:	3f78b47b 3e72b651 3f78e3d6 3e6fa8b2     {.x?Q.r>..x?..o>
   16cb8:	3f791298 3e6c9a7f 3f7940c0 3e698bba     ..y?..l>.@y?..i>
   16cc8:	3f796e4e 3e667c66 3f799b43 3e636c83     Nny?f|f>C.y?.lc>
   16cd8:	3f79c79d 3e605c13 3f79f35e 3e5d4b1a     ..y?.\`>^.y?.K]>
   16ce8:	3f7a1e84 3e5a3997 3f7a4910 3e57278f     ..z?.9Z>.Iz?.'W>
   16cf8:	3f7a7302 3e541501 3f7a9c59 3e5101f1     .sz?..T>Y.z?..Q>
   16d08:	3f7ac516 3e4dee60 3f7aed37 3e4ada4f     ..z?`.M>7.z?O.J>
   16d18:	3f7b14be 3e47c5c2 3f7b3bab 3e44b0b9     ..{?..G>.;{?..D>
   16d28:	3f7b61fc 3e419b37 3f7b87b2 3e3e853e     .a{?7.A>..{?>.>>
   16d38:	3f7baccd 3e3b6ecf 3f7bd14d 3e3857ec     ..{?.n;>M.{?.W8>
   16d48:	3f7bf531 3e354098 3f7c187a 3e3228d4     1.{?.@5>z.|?.(2>
   16d58:	3f7c3b28 3e2f10a2 3f7c5d3a 3e2bf804     (;|?../>:]|?..+>
   16d68:	3f7c7eb0 3e28defc 3f7c9f8a 3e25c58c     .~|?..(>..|?..%>
   16d78:	3f7cbfc9 3e22abb6 3f7cdf6c 3e1f917b     ..|?..">l.|?{..>
   16d88:	3f7cfe73 3e1c76de 3f7d1cdd 3e195be0     s.|?.v.>..}?.[.>
   16d98:	3f7d3aac 3e164083 3f7d57de 3e1324ca     .:}?.@.>.W}?.$.>
   16da8:	3f7d7474 3e1008b7 3f7d906e 3e0cec4a     tt}?...>n.}?J..>
   16db8:	3f7dabcc 3e09cf86 3f7dc68c 3e06b26e     ..}?...>..}?n..>
   16dc8:	3f7de0b1 3e039502 3f7dfa38 3e007745     ..}?...>8.}?Ew.>
   16dd8:	3f7e1324 3dfab273 3f7e2b72 3df475c0     $.~?s..=r+~?.u.=
   16de8:	3f7e4323 3dee3876 3f7e5a38 3de7fa9a     #C~?v8.=8Z~?...=
   16df8:	3f7e70b0 3de1bc2e 3f7e868b 3ddb7d37     .p~?...=..~?7}.=
   16e08:	3f7e9bc9 3dd53db9 3f7eb069 3dcefdb7     ..~?.=.=i.~?...=
   16e18:	3f7ec46d 3dc8bd36 3f7ed7d4 3dc27c39     m.~?6..=..~?9|.=
   16e28:	3f7eea9d 3dbc3ac3 3f7efcc9 3db5f8da     ..~?.:.=..~?...=
   16e38:	3f7f0e58 3dafb680 3f7f1f49 3da973ba     X..?...=I..?.s.=
   16e48:	3f7f2f9d 3da3308c 3f7f3f54 3d9cecf9     ./.?.0.=T?.?...=
   16e58:	3f7f4e6d 3d96a905 3f7f5ce9 3d9064b4     mN.?...=.\.?.d.=
   16e68:	3f7f6ac7 3d8a200a 3f7f7808 3d83db0a     .j.?. .=.x.?...=
   16e78:	3f7f84ab 3d7b2b74 3f7f90b1 3d6ea038     ...?t+{=...?8.n=
   16e88:	3f7f9c18 3d621468 3f7fa6e3 3d55880e     ...?h.b=...?..U=
   16e98:	3f7fb10f 3d48fb2f 3f7fba9e 3d3c6dd5     ...?/.H=...?.m<=
   16ea8:	3f7fc38f 3d2fe007 3f7fcbe2 3d2351cc     ...?../=...?.Q#=
   16eb8:	3f7fd398 3d16c32c 3f7fdaaf 3d0a342f     ...?,..=...?/4.=
   16ec8:	3f7fe129 3cfb49b9 3f7fe705 3ce22a7b     )..?.I.<...?{*.<
   16ed8:	3f7fec43 3cc90ab0 3f7ff0e3 3cafea69     C..?...<...?i..<
   16ee8:	3f7ff4e6 3c96c9b6 3f7ff84a 3c7b514b     ...?...<J..?KQ{<
   16ef8:	3f7ffb11 3c490e90 3f7ffd39 3c16cb59     ...?..I<9..?Y..<
   16f08:	3f7ffec4 3bc90f89 3f7fffb1 3b490fc7     ...?...;...?..I;
   16f18:	3f800000 00000000 3f7fffb1 bb490fc7     ...?.......?..I.
   16f28:	3f7ffec4 bbc90f89 3f7ffd39 bc16cb59     ...?....9..?Y...
   16f38:	3f7ffb11 bc490e90 3f7ff84a bc7b514b     ...?..I.J..?KQ{.
   16f48:	3f7ff4e6 bc96c9b6 3f7ff0e3 bcafea69     ...?.......?i...
   16f58:	3f7fec43 bcc90ab0 3f7fe705 bce22a7b     C..?.......?{*..
   16f68:	3f7fe129 bcfb49b9 3f7fdaaf bd0a342f     )..?.I.....?/4..
   16f78:	3f7fd398 bd16c32c 3f7fcbe2 bd2351cc     ...?,......?.Q#.
   16f88:	3f7fc38f bd2fe007 3f7fba9e bd3c6dd5     ...?../....?.m<.
   16f98:	3f7fb10f bd48fb2f 3f7fa6e3 bd55880e     ...?/.H....?..U.
   16fa8:	3f7f9c18 bd621468 3f7f90b1 bd6ea038     ...?h.b....?8.n.
   16fb8:	3f7f84ab bd7b2b74 3f7f7808 bd83db0a     ...?t+{..x.?....
   16fc8:	3f7f6ac7 bd8a200a 3f7f5ce9 bd9064b4     .j.?. ...\.?.d..
   16fd8:	3f7f4e6d bd96a905 3f7f3f54 bd9cecf9     mN.?....T?.?....
   16fe8:	3f7f2f9d bda3308c 3f7f1f49 bda973ba     ./.?.0..I..?.s..
   16ff8:	3f7f0e58 bdafb680 3f7efcc9 bdb5f8da     X..?......~?....
   17008:	3f7eea9d bdbc3ac3 3f7ed7d4 bdc27c39     ..~?.:....~?9|..
   17018:	3f7ec46d bdc8bd36 3f7eb069 bdcefdb7     m.~?6...i.~?....
   17028:	3f7e9bc9 bdd53db9 3f7e868b bddb7d37     ..~?.=....~?7}..
   17038:	3f7e70b0 bde1bc2e 3f7e5a38 bde7fa9a     .p~?....8Z~?....
   17048:	3f7e4323 bdee3876 3f7e2b72 bdf475c0     #C~?v8..r+~?.u..
   17058:	3f7e1324 bdfab273 3f7dfa38 be007745     $.~?s...8.}?Ew..
   17068:	3f7de0b1 be039502 3f7dc68c be06b26e     ..}?......}?n...
   17078:	3f7dabcc be09cf86 3f7d906e be0cec4a     ..}?....n.}?J...
   17088:	3f7d7474 be1008b7 3f7d57de be1324ca     tt}?.....W}?.$..
   17098:	3f7d3aac be164083 3f7d1cdd be195be0     .:}?.@....}?.[..
   170a8:	3f7cfe73 be1c76de 3f7cdf6c be1f917b     s.|?.v..l.|?{...
   170b8:	3f7cbfc9 be22abb6 3f7c9f8a be25c58c     ..|?.."...|?..%.
   170c8:	3f7c7eb0 be28defc 3f7c5d3a be2bf804     .~|?..(.:]|?..+.
   170d8:	3f7c3b28 be2f10a2 3f7c187a be3228d4     (;|?../.z.|?.(2.
   170e8:	3f7bf531 be354098 3f7bd14d be3857ec     1.{?.@5.M.{?.W8.
   170f8:	3f7baccd be3b6ecf 3f7b87b2 be3e853e     ..{?.n;...{?>.>.
   17108:	3f7b61fc be419b37 3f7b3bab be44b0b9     .a{?7.A..;{?..D.
   17118:	3f7b14be be47c5c2 3f7aed37 be4ada4f     ..{?..G.7.z?O.J.
   17128:	3f7ac516 be4dee60 3f7a9c59 be5101f1     ..z?`.M.Y.z?..Q.
   17138:	3f7a7302 be541501 3f7a4910 be57278f     .sz?..T..Iz?.'W.
   17148:	3f7a1e84 be5a3997 3f79f35e be5d4b1a     ..z?.9Z.^.y?.K].
   17158:	3f79c79d be605c13 3f799b43 be636c83     ..y?.\`.C.y?.lc.
   17168:	3f796e4e be667c66 3f7940c0 be698bba     Nny?f|f..@y?..i.
   17178:	3f791298 be6c9a7f 3f78e3d6 be6fa8b2     ..y?..l...x?..o.
   17188:	3f78b47b be72b651 3f788486 be75c35a     {.x?Q.r...x?Z.u.
   17198:	3f7853f8 be78cfcc 3f7822d1 be7bdba4     .Sx?..x.."x?..{.
   171a8:	3f77f110 be7ee6e1 3f77beb7 be80f8c0     ..w?..~...w?....
   171b8:	3f778bc5 be827dc0 3f77583a be840270     ..w?.}..:Xw?p...
   171c8:	3f772417 be8586ce 3f76ef5b be870ada     .$w?....[.v?....
   171d8:	3f76ba07 be888e93 3f76841b be8a11f8     ..v?......v?....
   171e8:	3f764d97 be8b9507 3f76167a be8d17c0     .Mv?....z.v?....
   171f8:	3f75dec6 be8e9a22 3f75a67b be901c2c     ..u?"...{.u?,...
   17208:	3f756d97 be919ddd 3f75341d be931f35     .mu?.....4u?5...
   17218:	3f74fa0b be94a031 3f74bf62 be9620d2     ..t?1...b.t?. ..
   17228:	3f748422 be97a117 3f74484b be9920fe     ".t?....KHt?. ..
   17238:	3f740bdd be9aa086 3f73ced9 be9c1faf     ..t?......s?....
   17248:	3f73913f be9d9e78 3f73530e be9f1cdf     ?.s?x....Ss?....
   17258:	3f731447 bea09ae5 3f72d4eb bea21887     G.s?......r?....
   17268:	3f7294f8 bea395c5 3f725470 bea5129f     ..r?....pTr?....
   17278:	3f721352 bea68f12 3f71d19f bea80b1f     R.r?......q?....
   17288:	3f718f57 bea986c4 3f714c7a beab0201     W.q?....zLq?....
   17298:	3f710908 beac7cd4 3f70c502 beadf73c     ..q?.|....p?<...
   172a8:	3f708066 beaf713a 3f703b37 beb0eacb     f.p?:q..7;p?....
   172b8:	3f6ff573 beb263ef 3f6faf1b beb3dca5     s.o?.c....o?....
   172c8:	3f6f6830 beb554ec 3f6f20b0 beb6ccc3     0ho?.T... o?....
   172d8:	3f6ed89e beb8442a 3f6e8ff8 beb9bb1e     ..n?*D....n?....
   172e8:	3f6e46be bebb31a0 3f6dfcf2 bebca7af     .Fn?.1....m?....
   172f8:	3f6db293 bebe1d4a 3f6d67a1 bebf926f     ..m?J....gm?o...
   17308:	3f6d1c1d bec1071e 3f6cd007 bec27b55     ..m?......l?U{..
   17318:	3f6c835e bec3ef15 3f6c3624 bec5625c     ^.l?....$6l?\b..
   17328:	3f6be858 bec6d529 3f6b99fb bec8477c     X.k?).....k?|G..
   17338:	3f6b4b0c bec9b953 3f6afb8c becb2aae     .Kk?S.....j?.*..
   17348:	3f6aab7b becc9b8b 3f6a5ad9 bece0bea     {.j?.....Zj?....
   17358:	3f6a09a7 becf7bca 3f69b7e4 bed0eb2a     ..j?.{....i?*...
   17368:	3f696591 bed25a09 3f6912ae bed3c867     .ei?.Z....i?g...
   17378:	3f68bf3c bed53641 3f686b39 bed6a399     <.h?A6..9kh?....
   17388:	3f6816a8 bed8106b 3f67c187 bed97cb9     ..h?k.....g?.|..
   17398:	3f676bd8 bedae880 3f671599 bedc53c1     .kg?......g?.S..
   173a8:	3f66becc beddbe79 3f666771 bedf28a9     ..f?y...qgf?.(..
   173b8:	3f660f88 bee0924f 3f65b710 bee1fb6a     ..f?O.....e?j...
   173c8:	3f655e0b bee363fa 3f650479 bee4cbfe     .^e?.c..y.e?....
   173d8:	3f64aa59 bee63375 3f644fac bee79a5d     Y.d?u3...Od?]...
   173e8:	3f63f473 bee900b7 3f6398ac beea6681     s.c?......c?.f..
   173f8:	3f633c5a beebcbbb 3f62df7b beed3063     Z<c?....{.b?c0..
   17408:	3f628210 beee9479 3f62241a beeff7fb     ..b?y....$b?....
   17418:	3f61c598 bef15aea 3f61668a bef2bd43     ..a?.Z...fa?C...
   17428:	3f6106f2 bef41f07 3f60a6cf bef58035     ..a?......`?5...
   17438:	3f604621 bef6e0cb 3f5fe4e9 bef840c8     !F`?......_?.@..
   17448:	3f5f8327 bef9a02d 3f5f20db befafef7     '._?-.... _?....
   17458:	3f5ebe05 befc5d27 3f5e5aa6 befdbabb     ..^?']...Z^?....
   17468:	3f5df6be beff17b2 3f5d924d bf003a06     ..]?....M.]?.:..
   17478:	3f5d2d53 bf00e7e4 3f5cc7d1 bf019573     S-]?......\?s...
   17488:	3f5c61c7 bf0242b1 3f5bfb34 bf02ef9f     .a\?.B..4.[?....
   17498:	3f5b941a bf039c3d 3f5b2c79 bf044889     ..[?=...y,[?.H..
   174a8:	3f5ac450 bf04f484 3f5a5ba0 bf05a02c     P.Z?.....[Z?,...
   174b8:	3f59f26a bf064b82 3f5988ad bf06f686     j.Y?.K....Y?....
   174c8:	3f591e6a bf07a136 3f58b3a1 bf084b92     j.Y?6.....X?.K..
   174d8:	3f584853 bf08f59b 3f57dc7f bf099f4e     SHX?......W?N...
   174e8:	3f577026 bf0a48ad 3f570348 bf0af1b7     &pW?.H..H.W?....
   174f8:	3f5695e5 bf0b9a6b 3f5627fe bf0c42c9     ..V?k....'V?.B..
   17508:	3f55b993 bf0cead0 3f554aa4 bf0d9281     ..U?.....JU?....
   17518:	3f54db31 bf0e39da 3f546b3b bf0ee0db     1.T?.9..;kT?....
   17528:	3f53fac3 bf0f8784 3f5389c7 bf102dd5     ..S?......S?.-..
   17538:	3f531849 bf10d3cd 3f52a649 bf11796b     I.S?....I.R?ky..
   17548:	3f5233c6 bf121eb0 3f51c0c2 bf12c39a     .3R?......Q?....
   17558:	3f514d3d bf13682a 3f50d937 bf140c5f     =MQ?*h..7.P?_...
   17568:	3f5064af bf14b039 3f4fefa8 bf1553b7     .dP?9.....O?.S..
   17578:	3f4f7a1f bf15f6d9 3f4f0417 bf16999f     .zO?......O?....
   17588:	3f4e8d90 bf173c07 3f4e1689 bf17de12     ..N?.<....N?....
   17598:	3f4d9f02 bf187fc0 3f4d26fd bf19210f     ..M?.....&M?.!..
   175a8:	3f4cae79 bf19c200 3f4c3578 bf1a6293     y.L?....x5L?.b..
   175b8:	3f4bbbf8 bf1b02c6 3f4b41fa bf1ba299     ..K?.....AK?....
   175c8:	3f4ac77f bf1c420c 3f4a4c87 bf1ce11f     ..J?.B...LJ?....
   175d8:	3f49d112 bf1d7fd1 3f495521 bf1e1e22     ..I?....!UI?"...
   175e8:	3f48d8b3 bf1ebc12 3f485bca bf1f599f     ..H?.....[H?.Y..
   175f8:	3f47de65 bf1ff6cb 3f476085 bf209393     e.G?.....`G?.. .
   17608:	3f46e22a bf212ff9 3f466354 bf21cbfb     *.F?./!.TcF?..!.
   17618:	3f45e403 bf226799 3f456439 bf2302d3     ..E?.g".9dE?..#.
   17628:	3f44e3f5 bf239da9 3f446337 bf24381a     ..D?..#.7cD?.8$.
   17638:	3f43e200 bf24d225 3f436051 bf256bcb     ..C?%.$.Q`C?.k%.
   17648:	3f42de29 bf26050a 3f425b89 bf269de3     ).B?..&..[B?..&.
   17658:	3f41d870 bf273656 3f4154e1 bf27ce61     p.A?V6'..TA?a.'.
   17668:	3f40d0da bf286605 3f404c5c bf28fd41     ..@?.f(.\L@?A.(.
   17678:	3f3fc767 bf299415 3f3f41fc bf2a2a80     g.??..)..A??.**.
   17688:	3f3ebc1b bf2ac082 3f3e35c5 bf2b561b     ..>?..*..5>?.V+.
   17698:	3f3daef9 bf2beb4a 3f3d27b8 bf2c800f     ..=?J.+..'=?..,.
   176a8:	3f3ca003 bf2d1469 3f3c17d9 bf2da859     ..<?i.-...<?Y.-.
   176b8:	3f3b8f3b bf2e3bde 3f3b0629 bf2ecef7     ;.;?.;..).;?....
   176c8:	3f3a7ca4 bf2f61a5 3f39f2ac bf2ff3e6     .|:?.a/...9?../.
   176d8:	3f396842 bf3085bb 3f38dd65 bf311722     Bh9?..0.e.8?".1.
   176e8:	3f385216 bf31a81d 3f37c655 bf3238aa     .R8?..1.U.7?.82.
   176f8:	3f373a23 bf32c8c9 3f36ad7f bf33587a     #:7?..2...6?zX3.
   17708:	3f36206c bf33e7bc 3f3592e7 bf34768f     l 6?..3...5?.v4.
   17718:	3f3504f3 bf3504f3 3f34768f bf3592e7     ..5?..5..v4?..5.
   17728:	3f33e7bc bf36206c 3f33587a bf36ad7f     ..3?l 6.zX3?..6.
   17738:	3f32c8c9 bf373a23 3f3238aa bf37c655     ..2?#:7..82?U.7.
   17748:	3f31a81d bf385216 3f311722 bf38dd65     ..1?.R8.".1?e.8.
   17758:	3f3085bb bf396842 3f2ff3e6 bf39f2ac     ..0?Bh9.../?..9.
   17768:	3f2f61a5 bf3a7ca4 3f2ecef7 bf3b0629     .a/?.|:....?).;.
   17778:	3f2e3bde bf3b8f3b 3f2da859 bf3c17d9     .;.?;.;.Y.-?..<.
   17788:	3f2d1469 bf3ca003 3f2c800f bf3d27b8     i.-?..<...,?.'=.
   17798:	3f2beb4a bf3daef9 3f2b561b bf3e35c5     J.+?..=..V+?.5>.
   177a8:	3f2ac082 bf3ebc1b 3f2a2a80 bf3f41fc     ..*?..>..**?.A?.
   177b8:	3f299415 bf3fc767 3f28fd41 bf404c5c     ..)?g.?.A.(?\L@.
   177c8:	3f286605 bf40d0da 3f27ce61 bf4154e1     .f(?..@.a.'?.TA.
   177d8:	3f273656 bf41d870 3f269de3 bf425b89     V6'?p.A...&?.[B.
   177e8:	3f26050a bf42de29 3f256bcb bf436051     ..&?).B..k%?Q`C.
   177f8:	3f24d225 bf43e200 3f24381a bf446337     %.$?..C..8$?7cD.
   17808:	3f239da9 bf44e3f5 3f2302d3 bf456439     ..#?..D...#?9dE.
   17818:	3f226799 bf45e403 3f21cbfb bf466354     .g"?..E...!?TcF.
   17828:	3f212ff9 bf46e22a 3f209393 bf476085     ./!?*.F... ?.`G.
   17838:	3f1ff6cb bf47de65 3f1f599f bf485bca     ...?e.G..Y.?.[H.
   17848:	3f1ebc12 bf48d8b3 3f1e1e22 bf495521     ...?..H."..?!UI.
   17858:	3f1d7fd1 bf49d112 3f1ce11f bf4a4c87     ...?..I....?.LJ.
   17868:	3f1c420c bf4ac77f 3f1ba299 bf4b41fa     .B.?..J....?.AK.
   17878:	3f1b02c6 bf4bbbf8 3f1a6293 bf4c3578     ...?..K..b.?x5L.
   17888:	3f19c200 bf4cae79 3f19210f bf4d26fd     ...?y.L..!.?.&M.
   17898:	3f187fc0 bf4d9f02 3f17de12 bf4e1689     ...?..M....?..N.
   178a8:	3f173c07 bf4e8d90 3f16999f bf4f0417     .<.?..N....?..O.
   178b8:	3f15f6d9 bf4f7a1f 3f1553b7 bf4fefa8     ...?.zO..S.?..O.
   178c8:	3f14b039 bf5064af 3f140c5f bf50d937     9..?.dP._..?7.P.
   178d8:	3f13682a bf514d3d 3f12c39a bf51c0c2     *h.?=MQ....?..Q.
   178e8:	3f121eb0 bf5233c6 3f11796b bf52a649     ...?.3R.ky.?I.R.
   178f8:	3f10d3cd bf531849 3f102dd5 bf5389c7     ...?I.S..-.?..S.
   17908:	3f0f8784 bf53fac3 3f0ee0db bf546b3b     ...?..S....?;kT.
   17918:	3f0e39da bf54db31 3f0d9281 bf554aa4     .9.?1.T....?.JU.
   17928:	3f0cead0 bf55b993 3f0c42c9 bf5627fe     ...?..U..B.?.'V.
   17938:	3f0b9a6b bf5695e5 3f0af1b7 bf570348     k..?..V....?H.W.
   17948:	3f0a48ad bf577026 3f099f4e bf57dc7f     .H.?&pW.N..?..W.
   17958:	3f08f59b bf584853 3f084b92 bf58b3a1     ...?SHX..K.?..X.
   17968:	3f07a136 bf591e6a 3f06f686 bf5988ad     6..?j.Y....?..Y.
   17978:	3f064b82 bf59f26a 3f05a02c bf5a5ba0     .K.?j.Y.,..?.[Z.
   17988:	3f04f484 bf5ac450 3f044889 bf5b2c79     ...?P.Z..H.?y,[.
   17998:	3f039c3d bf5b941a 3f02ef9f bf5bfb34     =..?..[....?4.[.
   179a8:	3f0242b1 bf5c61c7 3f019573 bf5cc7d1     .B.?.a\.s..?..\.
   179b8:	3f00e7e4 bf5d2d53 3f003a06 bf5d924d     ...?S-]..:.?M.].
   179c8:	3eff17b2 bf5df6be 3efdbabb bf5e5aa6     ...>..]....>.Z^.
   179d8:	3efc5d27 bf5ebe05 3efafef7 bf5f20db     '].>..^....>. _.
   179e8:	3ef9a02d bf5f8327 3ef840c8 bf5fe4e9     -..>'._..@.>.._.
   179f8:	3ef6e0cb bf604621 3ef58035 bf60a6cf     ...>!F`.5..>..`.
   17a08:	3ef41f07 bf6106f2 3ef2bd43 bf61668a     ...>..a.C..>.fa.
   17a18:	3ef15aea bf61c598 3eeff7fb bf62241a     .Z.>..a....>.$b.
   17a28:	3eee9479 bf628210 3eed3063 bf62df7b     y..>..b.c0.>{.b.
   17a38:	3eebcbbb bf633c5a 3eea6681 bf6398ac     ...>Z<c..f.>..c.
   17a48:	3ee900b7 bf63f473 3ee79a5d bf644fac     ...>s.c.]..>.Od.
   17a58:	3ee63375 bf64aa59 3ee4cbfe bf650479     u3.>Y.d....>y.e.
   17a68:	3ee363fa bf655e0b 3ee1fb6a bf65b710     .c.>.^e.j..>..e.
   17a78:	3ee0924f bf660f88 3edf28a9 bf666771     O..>..f..(.>qgf.
   17a88:	3eddbe79 bf66becc 3edc53c1 bf671599     y..>..f..S.>..g.
   17a98:	3edae880 bf676bd8 3ed97cb9 bf67c187     ...>.kg..|.>..g.
   17aa8:	3ed8106b bf6816a8 3ed6a399 bf686b39     k..>..h....>9kh.
   17ab8:	3ed53641 bf68bf3c 3ed3c867 bf6912ae     A6.><.h.g..>..i.
   17ac8:	3ed25a09 bf696591 3ed0eb2a bf69b7e4     .Z.>.ei.*..>..i.
   17ad8:	3ecf7bca bf6a09a7 3ece0bea bf6a5ad9     .{.>..j....>.Zj.
   17ae8:	3ecc9b8b bf6aab7b 3ecb2aae bf6afb8c     ...>{.j..*.>..j.
   17af8:	3ec9b953 bf6b4b0c 3ec8477c bf6b99fb     S..>.Kk.|G.>..k.
   17b08:	3ec6d529 bf6be858 3ec5625c bf6c3624     )..>X.k.\b.>$6l.
   17b18:	3ec3ef15 bf6c835e 3ec27b55 bf6cd007     ...>^.l.U{.>..l.
   17b28:	3ec1071e bf6d1c1d 3ebf926f bf6d67a1     ...>..m.o..>.gm.
   17b38:	3ebe1d4a bf6db293 3ebca7af bf6dfcf2     J..>..m....>..m.
   17b48:	3ebb31a0 bf6e46be 3eb9bb1e bf6e8ff8     .1.>.Fn....>..n.
   17b58:	3eb8442a bf6ed89e 3eb6ccc3 bf6f20b0     *D.>..n....>. o.
   17b68:	3eb554ec bf6f6830 3eb3dca5 bf6faf1b     .T.>0ho....>..o.
   17b78:	3eb263ef bf6ff573 3eb0eacb bf703b37     .c.>s.o....>7;p.
   17b88:	3eaf713a bf708066 3eadf73c bf70c502     :q.>f.p.<..>..p.
   17b98:	3eac7cd4 bf710908 3eab0201 bf714c7a     .|.>..q....>zLq.
   17ba8:	3ea986c4 bf718f57 3ea80b1f bf71d19f     ...>W.q....>..q.
   17bb8:	3ea68f12 bf721352 3ea5129f bf725470     ...>R.r....>pTr.
   17bc8:	3ea395c5 bf7294f8 3ea21887 bf72d4eb     ...>..r....>..r.
   17bd8:	3ea09ae5 bf731447 3e9f1cdf bf73530e     ...>G.s....>.Ss.
   17be8:	3e9d9e78 bf73913f 3e9c1faf bf73ced9     x..>?.s....>..s.
   17bf8:	3e9aa086 bf740bdd 3e9920fe bf74484b     ...>..t.. .>KHt.
   17c08:	3e97a117 bf748422 3e9620d2 bf74bf62     ...>".t.. .>b.t.
   17c18:	3e94a031 bf74fa0b 3e931f35 bf75341d     1..>..t.5..>.4u.
   17c28:	3e919ddd bf756d97 3e901c2c bf75a67b     ...>.mu.,..>{.u.
   17c38:	3e8e9a22 bf75dec6 3e8d17c0 bf76167a     "..>..u....>z.v.
   17c48:	3e8b9507 bf764d97 3e8a11f8 bf76841b     ...>.Mv....>..v.
   17c58:	3e888e93 bf76ba07 3e870ada bf76ef5b     ...>..v....>[.v.
   17c68:	3e8586ce bf772417 3e840270 bf77583a     ...>.$w.p..>:Xw.
   17c78:	3e827dc0 bf778bc5 3e80f8c0 bf77beb7     .}.>..w....>..w.
   17c88:	3e7ee6e1 bf77f110 3e7bdba4 bf7822d1     ..~>..w...{>."x.
   17c98:	3e78cfcc bf7853f8 3e75c35a bf788486     ..x>.Sx.Z.u>..x.
   17ca8:	3e72b651 bf78b47b 3e6fa8b2 bf78e3d6     Q.r>{.x...o>..x.
   17cb8:	3e6c9a7f bf791298 3e698bba bf7940c0     ..l>..y...i>.@y.
   17cc8:	3e667c66 bf796e4e 3e636c83 bf799b43     f|f>Nny..lc>C.y.
   17cd8:	3e605c13 bf79c79d 3e5d4b1a bf79f35e     .\`>..y..K]>^.y.
   17ce8:	3e5a3997 bf7a1e84 3e57278f bf7a4910     .9Z>..z..'W>.Iz.
   17cf8:	3e541501 bf7a7302 3e5101f1 bf7a9c59     ..T>.sz...Q>Y.z.
   17d08:	3e4dee60 bf7ac516 3e4ada4f bf7aed37     `.M>..z.O.J>7.z.
   17d18:	3e47c5c2 bf7b14be 3e44b0b9 bf7b3bab     ..G>..{...D>.;{.
   17d28:	3e419b37 bf7b61fc 3e3e853e bf7b87b2     7.A>.a{.>.>>..{.
   17d38:	3e3b6ecf bf7baccd 3e3857ec bf7bd14d     .n;>..{..W8>M.{.
   17d48:	3e354098 bf7bf531 3e3228d4 bf7c187a     .@5>1.{..(2>z.|.
   17d58:	3e2f10a2 bf7c3b28 3e2bf804 bf7c5d3a     ../>(;|...+>:]|.
   17d68:	3e28defc bf7c7eb0 3e25c58c bf7c9f8a     ..(>.~|...%>..|.
   17d78:	3e22abb6 bf7cbfc9 3e1f917b bf7cdf6c     ..">..|.{..>l.|.
   17d88:	3e1c76de bf7cfe73 3e195be0 bf7d1cdd     .v.>s.|..[.>..}.
   17d98:	3e164083 bf7d3aac 3e1324ca bf7d57de     .@.>.:}..$.>.W}.
   17da8:	3e1008b7 bf7d7474 3e0cec4a bf7d906e     ...>tt}.J..>n.}.
   17db8:	3e09cf86 bf7dabcc 3e06b26e bf7dc68c     ...>..}.n..>..}.
   17dc8:	3e039502 bf7de0b1 3e007745 bf7dfa38     ...>..}.Ew.>8.}.
   17dd8:	3dfab273 bf7e1324 3df475c0 bf7e2b72     s..=$.~..u.=r+~.
   17de8:	3dee3876 bf7e4323 3de7fa9a bf7e5a38     v8.=#C~....=8Z~.
   17df8:	3de1bc2e bf7e70b0 3ddb7d37 bf7e868b     ...=.p~.7}.=..~.
   17e08:	3dd53db9 bf7e9bc9 3dcefdb7 bf7eb069     .=.=..~....=i.~.
   17e18:	3dc8bd36 bf7ec46d 3dc27c39 bf7ed7d4     6..=m.~.9|.=..~.
   17e28:	3dbc3ac3 bf7eea9d 3db5f8da bf7efcc9     .:.=..~....=..~.
   17e38:	3dafb680 bf7f0e58 3da973ba bf7f1f49     ...=X....s.=I...
   17e48:	3da3308c bf7f2f9d 3d9cecf9 bf7f3f54     .0.=./.....=T?..
   17e58:	3d96a905 bf7f4e6d 3d9064b4 bf7f5ce9     ...=mN...d.=.\..
   17e68:	3d8a200a bf7f6ac7 3d83db0a bf7f7808     . .=.j.....=.x..
   17e78:	3d7b2b74 bf7f84ab 3d6ea038 bf7f90b1     t+{=....8.n=....
   17e88:	3d621468 bf7f9c18 3d55880e bf7fa6e3     h.b=......U=....
   17e98:	3d48fb2f bf7fb10f 3d3c6dd5 bf7fba9e     /.H=.....m<=....
   17ea8:	3d2fe007 bf7fc38f 3d2351cc bf7fcbe2     ../=.....Q#=....
   17eb8:	3d16c32c bf7fd398 3d0a342f bf7fdaaf     ,..=..../4.=....
   17ec8:	3cfb49b9 bf7fe129 3ce22a7b bf7fe705     .I.<)...{*.<....
   17ed8:	3cc90ab0 bf7fec43 3cafea69 bf7ff0e3     ...<C...i..<....
   17ee8:	3c96c9b6 bf7ff4e6 3c7b514b bf7ff84a     ...<....KQ{<J...
   17ef8:	3c490e90 bf7ffb11 3c16cb59 bf7ffd39     ..I<....Y..<9...
   17f08:	3bc90f89 bf7ffec4 3b490fc7 bf7fffb1     ...;......I;....

00017f18 <twiddleCoef_rfft_4096>:
   17f18:	00000000 3f800000 3ac90fd4 3f7fffec     .......?...:...?
   17f28:	3b490fc7 3f7fffb1 3b96cbc1 3f7fff4e     ..I;...?...;N..?
   17f38:	3bc90f89 3f7ffec4 3bfb5330 3f7ffe13     ...;...?0S.;...?
   17f48:	3c16cb59 3f7ffd39 3c2fed02 3f7ffc39     Y..<9..?../<9..?
   17f58:	3c490e90 3f7ffb11 3c623000 3f7ff9c1     ..I<...?.0b<...?
   17f68:	3c7b514b 3f7ff84a 3c8a3938 3f7ff6ac     KQ{<J..?89.<...?
   17f78:	3c96c9b6 3f7ff4e6 3ca35a1c 3f7ff2f8     ...<...?.Z.<...?
   17f88:	3cafea69 3f7ff0e3 3cbc7a9b 3f7feea7     i..<...?.z.<...?
   17f98:	3cc90ab0 3f7fec43 3cd59aa6 3f7fe9b8     ...<C..?...<...?
   17fa8:	3ce22a7b 3f7fe705 3ceeba2d 3f7fe42b     {*.<...?-..<+..?
   17fb8:	3cfb49b9 3f7fe129 3d03ec90 3f7fde00     .I.<)..?...=...?
   17fc8:	3d0a342f 3f7fdaaf 3d107bb8 3f7fd737     /4.=...?.{.=7..?
   17fd8:	3d16c32c 3f7fd398 3d1d0a88 3f7fcfd1     ,..=...?...=...?
   17fe8:	3d2351cc 3f7fcbe2 3d2998f6 3f7fc7cc     .Q#=...?..)=...?
   17ff8:	3d2fe007 3f7fc38f 3d3626fc 3f7fbf2a     ../=...?.&6=*..?
   18008:	3d3c6dd5 3f7fba9e 3d42b491 3f7fb5ea     .m<=...?..B=...?
   18018:	3d48fb2f 3f7fb10f 3d4f41af 3f7fac0d     /.H=...?.AO=...?
   18028:	3d55880e 3f7fa6e3 3d5bce4c 3f7fa191     ..U=...?L.[=...?
   18038:	3d621468 3f7f9c18 3d685a62 3f7f9678     h.b=...?bZh=x..?
   18048:	3d6ea038 3f7f90b1 3d74e5e9 3f7f8ac2     8.n=...?..t=...?
   18058:	3d7b2b74 3f7f84ab 3d80b86c 3f7f7e6d     t+{=...?l..=m~.?
   18068:	3d83db0a 3f7f7808 3d86fd94 3f7f717b     ...=.x.?...={q.?
   18078:	3d8a200a 3f7f6ac7 3d8d426a 3f7f63ec     . .=.j.?jB.=.c.?
   18088:	3d9064b4 3f7f5ce9 3d9386e7 3f7f55bf     .d.=.\.?...=.U.?
   18098:	3d96a905 3f7f4e6d 3d99cb0a 3f7f46f4     ...=mN.?...=.F.?
   180a8:	3d9cecf9 3f7f3f54 3da00ecf 3f7f378d     ...=T?.?...=.7.?
   180b8:	3da3308c 3f7f2f9d 3da65230 3f7f2787     .0.=./.?0R.=.'.?
   180c8:	3da973ba 3f7f1f49 3dac952b 3f7f16e4     .s.=I..?+..=...?
   180d8:	3dafb680 3f7f0e58 3db2d7bb 3f7f05a4     ...=X..?...=...?
   180e8:	3db5f8da 3f7efcc9 3db919dd 3f7ef3c7     ...=..~?...=..~?
   180f8:	3dbc3ac3 3f7eea9d 3dbf5b8d 3f7ee14c     .:.=..~?.[.=L.~?
   18108:	3dc27c39 3f7ed7d4 3dc59cc6 3f7ece34     9|.=..~?...=4.~?
   18118:	3dc8bd36 3f7ec46d 3dcbdd86 3f7eba7f     6..=m.~?...=..~?
   18128:	3dcefdb7 3f7eb069 3dd21dc8 3f7ea62d     ...=i.~?...=-.~?
   18138:	3dd53db9 3f7e9bc9 3dd85d89 3f7e913d     .=.=..~?.].==.~?
   18148:	3ddb7d37 3f7e868b 3dde9cc4 3f7e7bb1     7}.=..~?...=.{~?
   18158:	3de1bc2e 3f7e70b0 3de4db76 3f7e6588     ...=.p~?v..=.e~?
   18168:	3de7fa9a 3f7e5a38 3deb199a 3f7e4ec1     ...=8Z~?...=.N~?
   18178:	3dee3876 3f7e4323 3df1572e 3f7e375e     v8.=#C~?.W.=^7~?
   18188:	3df475c0 3f7e2b72 3df7942c 3f7e1f5e     .u.=r+~?,..=^.~?
   18198:	3dfab273 3f7e1324 3dfdd092 3f7e06c2     s..=$.~?...=..~?
   181a8:	3e007745 3f7dfa38 3e02062e 3f7ded88     Ew.>8.}?...>..}?
   181b8:	3e039502 3f7de0b1 3e0523c2 3f7dd3b2     ...>..}?.#.>..}?
   181c8:	3e06b26e 3f7dc68c 3e084105 3f7db940     n..>..}?.A.>@.}?
   181d8:	3e09cf86 3f7dabcc 3e0b5df3 3f7d9e30     ...>..}?.].>0.}?
   181e8:	3e0cec4a 3f7d906e 3e0e7a8b 3f7d8285     J..>n.}?.z.>..}?
   181f8:	3e1008b7 3f7d7474 3e1196cc 3f7d663d     ...>tt}?...>=f}?
   18208:	3e1324ca 3f7d57de 3e14b2b2 3f7d4959     .$.>.W}?...>YI}?
   18218:	3e164083 3f7d3aac 3e17ce3d 3f7d2bd8     .@.>.:}?=..>.+}?
   18228:	3e195be0 3f7d1cdd 3e1ae96b 3f7d0dbc     .[.>..}?k..>..}?
   18238:	3e1c76de 3f7cfe73 3e1e0438 3f7cef03     .v.>s.|?8..>..|?
   18248:	3e1f917b 3f7cdf6c 3e211ea5 3f7ccfae     {..>l.|?..!>..|?
   18258:	3e22abb6 3f7cbfc9 3e2438ad 3f7cafbd     ..">..|?.8$>..|?
   18268:	3e25c58c 3f7c9f8a 3e275251 3f7c8f31     ..%>..|?QR'>1.|?
   18278:	3e28defc 3f7c7eb0 3e2a6b8d 3f7c6e08     ..(>.~|?.k*>.n|?
   18288:	3e2bf804 3f7c5d3a 3e2d8461 3f7c4c44     ..+>:]|?a.->DL|?
   18298:	3e2f10a2 3f7c3b28 3e309cc9 3f7c29e5     ../>(;|?..0>.)|?
   182a8:	3e3228d4 3f7c187a 3e33b4c4 3f7c06e9     .(2>z.|?..3>..|?
   182b8:	3e354098 3f7bf531 3e36cc50 3f7be353     .@5>1.{?P.6>S.{?
   182c8:	3e3857ec 3f7bd14d 3e39e36c 3f7bbf20     .W8>M.{?l.9> .{?
   182d8:	3e3b6ecf 3f7baccd 3e3cfa15 3f7b9a53     .n;>..{?..<>S.{?
   182e8:	3e3e853e 3f7b87b2 3e401049 3f7b74ea     >.>>..{?I.@>.t{?
   182f8:	3e419b37 3f7b61fc 3e432607 3f7b4ee7     7.A>.a{?.&C>.N{?
   18308:	3e44b0b9 3f7b3bab 3e463b4d 3f7b2848     ..D>.;{?M;F>H({?
   18318:	3e47c5c2 3f7b14be 3e495018 3f7b010e     ..G>..{?.PI>..{?
   18328:	3e4ada4f 3f7aed37 3e4c6467 3f7ad93a     O.J>7.z?gdL>:.z?
   18338:	3e4dee60 3f7ac516 3e4f7838 3f7ab0cb     `.M>..z?8xO>..z?
   18348:	3e5101f1 3f7a9c59 3e528b89 3f7a87c1     ..Q>Y.z?..R>..z?
   18358:	3e541501 3f7a7302 3e559e58 3f7a5e1c     ..T>.sz?X.U>.^z?
   18368:	3e57278f 3f7a4910 3e58b0a4 3f7a33dd     .'W>.Iz?..X>.3z?
   18378:	3e5a3997 3f7a1e84 3e5bc26a 3f7a0904     .9Z>..z?j.[>..z?
   18388:	3e5d4b1a 3f79f35e 3e5ed3a8 3f79dd91     .K]>^.y?..^>..y?
   18398:	3e605c13 3f79c79d 3e61e45c 3f79b183     .\`>..y?\.a>..y?
   183a8:	3e636c83 3f799b43 3e64f486 3f7984dc     .lc>C.y?..d>..y?
   183b8:	3e667c66 3f796e4e 3e680422 3f79579a     f|f>Nny?".h>.Wy?
   183c8:	3e698bba 3f7940c0 3e6b132f 3f7929bf     ..i>.@y?/.k>.)y?
   183d8:	3e6c9a7f 3f791298 3e6e21ab 3f78fb4a     ..l>..y?.!n>J.x?
   183e8:	3e6fa8b2 3f78e3d6 3e712f94 3f78cc3b     ..o>..x?./q>;.x?
   183f8:	3e72b651 3f78b47b 3e743ce8 3f789c93     Q.r>{.x?.<t>..x?
   18408:	3e75c35a 3f788486 3e7749a6 3f786c52     Z.u>..x?.Iw>Rlx?
   18418:	3e78cfcc 3f7853f8 3e7a55cb 3f783b77     ..x>.Sx?.Uz>w;x?
   18428:	3e7bdba4 3f7822d1 3e7d6156 3f780a04     ..{>."x?Va}>..x?
   18438:	3e7ee6e1 3f77f110 3e803622 3f77d7f7     ..~>..w?"6.>..w?
   18448:	3e80f8c0 3f77beb7 3e81bb4a 3f77a551     ...>..w?J..>Q.w?
   18458:	3e827dc0 3f778bc5 3e834022 3f777213     .}.>..w?"@.>.rw?
   18468:	3e840270 3f77583a 3e84c4aa 3f773e3c     p..>:Xw?...><>w?
   18478:	3e8586ce 3f772417 3e8648df 3f7709cc     ...>.$w?.H.>..w?
   18488:	3e870ada 3f76ef5b 3e87ccc1 3f76d4c4     ...>[.v?...>..v?
   18498:	3e888e93 3f76ba07 3e895050 3f769f24     ...>..v?PP.>$.v?
   184a8:	3e8a11f8 3f76841b 3e8ad38a 3f7668ec     ...>..v?...>.hv?
   184b8:	3e8b9507 3f764d97 3e8c566e 3f76321b     ...>.Mv?nV.>.2v?
   184c8:	3e8d17c0 3f76167a 3e8dd8fc 3f75fab3     ...>z.v?...>..u?
   184d8:	3e8e9a22 3f75dec6 3e8f5b32 3f75c2b3     "..>..u?2[.>..u?
   184e8:	3e901c2c 3f75a67b 3e90dd10 3f758a1c     ,..>{.u?...>..u?
   184f8:	3e919ddd 3f756d97 3e925e94 3f7550ed     ...>.mu?.^.>.Pu?
   18508:	3e931f35 3f75341d 3e93dfbf 3f751727     5..>.4u?...>'.u?
   18518:	3e94a031 3f74fa0b 3e95608d 3f74dcc9     1..>..t?.`.>..t?
   18528:	3e9620d2 3f74bf62 3e96e100 3f74a1d5     . .>b.t?...>..t?
   18538:	3e97a117 3f748422 3e986116 3f746649     ...>".t?.a.>Ift?
   18548:	3e9920fe 3f74484b 3e99e0ce 3f742a27     . .>KHt?...>'*t?
   18558:	3e9aa086 3f740bdd 3e9b6027 3f73ed6e     ...>..t?'`.>n.s?
   18568:	3e9c1faf 3f73ced9 3e9cdf20 3f73b01f     ...>..s? ..>..s?
   18578:	3e9d9e78 3f73913f 3e9e5db8 3f737239     x..>?.s?.].>9rs?
   18588:	3e9f1cdf 3f73530e 3e9fdbee 3f7333be     ...>.Ss?...>.3s?
   18598:	3ea09ae5 3f731447 3ea159c2 3f72f4ac     ...>G.s?.Y.>..r?
   185a8:	3ea21887 3f72d4eb 3ea2d733 3f72b504     ...>..r?3..>..r?
   185b8:	3ea395c5 3f7294f8 3ea4543f 3f7274c7     ...>..r??T.>.tr?
   185c8:	3ea5129f 3f725470 3ea5d0e5 3f7233f4     ...>pTr?...>.3r?
   185d8:	3ea68f12 3f721352 3ea74d25 3f71f28c     ...>R.r?%M.>..q?
   185e8:	3ea80b1f 3f71d19f 3ea8c8fe 3f71b08e     ...>..q?...>..q?
   185f8:	3ea986c4 3f718f57 3eaa446f 3f716dfb     ...>W.q?oD.>.mq?
   18608:	3eab0201 3f714c7a 3eabbf77 3f712ad4     ...>zLq?w..>.*q?
   18618:	3eac7cd4 3f710908 3ead3a15 3f70e717     .|.>..q?.:.>..p?
   18628:	3eadf73c 3f70c502 3eaeb449 3f70a2c6     <..>..p?I..>..p?
   18638:	3eaf713a 3f708066 3eb02e10 3f705de1     :q.>f.p?...>.]p?
   18648:	3eb0eacb 3f703b37 3eb1a76b 3f701867     ...>7;p?k..>g.p?
   18658:	3eb263ef 3f6ff573 3eb32058 3f6fd25a     .c.>s.o?X .>Z.o?
   18668:	3eb3dca5 3f6faf1b 3eb498d6 3f6f8bb8     ...>..o?...>..o?
   18678:	3eb554ec 3f6f6830 3eb610e6 3f6f4483     .T.>0ho?...>.Do?
   18688:	3eb6ccc3 3f6f20b0 3eb78884 3f6efcba     ...>. o?...>..n?
   18698:	3eb8442a 3f6ed89e 3eb8ffb2 3f6eb45d     *D.>..n?...>].n?
   186a8:	3eb9bb1e 3f6e8ff8 3eba766e 3f6e6b6d     ...>..n?nv.>mkn?
   186b8:	3ebb31a0 3f6e46be 3ebbecb6 3f6e21eb     .1.>.Fn?...>.!n?
   186c8:	3ebca7af 3f6dfcf2 3ebd628b 3f6dd7d5     ...>..m?.b.>..m?
   186d8:	3ebe1d4a 3f6db293 3ebed7eb 3f6d8d2d     J..>..m?...>-.m?
   186e8:	3ebf926f 3f6d67a1 3ec04cd5 3f6d41f2     o..>.gm?.L.>.Am?
   186f8:	3ec1071e 3f6d1c1d 3ec1c148 3f6cf624     ...>..m?H..>$.l?
   18708:	3ec27b55 3f6cd007 3ec33544 3f6ca9c5     U{.>..l?D5.>..l?
   18718:	3ec3ef15 3f6c835e 3ec4a8c8 3f6c5cd4     ...>^.l?...>.\l?
   18728:	3ec5625c 3f6c3624 3ec61bd2 3f6c0f50     \b.>$6l?...>P.l?
   18738:	3ec6d529 3f6be858 3ec78e62 3f6bc13b     )..>X.k?b..>;.k?
   18748:	3ec8477c 3f6b99fb 3ec90077 3f6b7295     |G.>..k?w..>.rk?
   18758:	3ec9b953 3f6b4b0c 3eca7210 3f6b235e     S..>.Kk?.r.>^#k?
   18768:	3ecb2aae 3f6afb8c 3ecbe32c 3f6ad395     .*.>..j?,..>..j?
   18778:	3ecc9b8b 3f6aab7b 3ecd53ca 3f6a833c     ...>{.j?.S.><.j?
   18788:	3ece0bea 3f6a5ad9 3ecec3ea 3f6a3252     ...>.Zj?...>R2j?
   18798:	3ecf7bca 3f6a09a7 3ed0338a 3f69e0d7     .{.>..j?.3.>..i?
   187a8:	3ed0eb2a 3f69b7e4 3ed1a2aa 3f698ecc     *..>..i?...>..i?
   187b8:	3ed25a09 3f696591 3ed31148 3f693c32     .Z.>.ei?H..>2<i?
   187c8:	3ed3c867 3f6912ae 3ed47f64 3f68e907     g..>..i?d..>..h?
   187d8:	3ed53641 3f68bf3c 3ed5ecfd 3f68954c     A6.><.h?...>L.h?
   187e8:	3ed6a399 3f686b39 3ed75a13 3f684103     ...>9kh?.Z.>.Ah?
   187f8:	3ed8106b 3f6816a8 3ed8c6a3 3f67ec2a     k..>..h?...>*.g?
   18808:	3ed97cb9 3f67c187 3eda32ad 3f6796c1     .|.>..g?.2.>..g?
   18818:	3edae880 3f676bd8 3edb9e31 3f6740ca     ...>.kg?1..>.@g?
   18828:	3edc53c1 3f671599 3edd092e 3f66ea45     .S.>..g?...>E.f?
   18838:	3eddbe79 3f66becc 3ede73a2 3f669330     y..>..f?.s.>0.f?
   18848:	3edf28a9 3f666771 3edfdd8d 3f663b8e     .(.>qgf?...>.;f?
   18858:	3ee0924f 3f660f88 3ee146ee 3f65e35e     O..>..f?.F.>^.e?
   18868:	3ee1fb6a 3f65b710 3ee2afc4 3f658aa0     j..>..e?...>..e?
   18878:	3ee363fa 3f655e0b 3ee4180e 3f653154     .c.>.^e?...>T1e?
   18888:	3ee4cbfe 3f650479 3ee57fcb 3f64d77b     ...>y.e?...>{.d?
   18898:	3ee63375 3f64aa59 3ee6e6fb 3f647d14     u3.>Y.d?...>.}d?
   188a8:	3ee79a5d 3f644fac 3ee84d9c 3f642221     ]..>.Od?.M.>!"d?
   188b8:	3ee900b7 3f63f473 3ee9b3ae 3f63c6a1     ...>s.c?...>..c?
   188c8:	3eea6681 3f6398ac 3eeb1930 3f636a95     .f.>..c?0..>.jc?
   188d8:	3eebcbbb 3f633c5a 3eec7e21 3f630dfc     ...>Z<c?!~.>..c?
   188e8:	3eed3063 3f62df7b 3eede280 3f62b0d7     c0.>{.b?...>..b?
   188f8:	3eee9479 3f628210 3eef464c 3f625326     y..>..b?LF.>&Sb?
   18908:	3eeff7fb 3f62241a 3ef0a985 3f61f4ea     ...>.$b?...>..a?
   18918:	3ef15aea 3f61c598 3ef20c29 3f619622     .Z.>..a?)..>".a?
   18928:	3ef2bd43 3f61668a 3ef36e38 3f6136d0     C..>.fa?8n.>.6a?
   18938:	3ef41f07 3f6106f2 3ef4cfb1 3f60d6f2     ...>..a?...>..`?
   18948:	3ef58035 3f60a6cf 3ef63093 3f607689     5..>..`?.0.>.v`?
   18958:	3ef6e0cb 3f604621 3ef790dc 3f601596     ...>!F`?...>..`?
   18968:	3ef840c8 3f5fe4e9 3ef8f08e 3f5fb419     .@.>.._?...>.._?
   18978:	3ef9a02d 3f5f8327 3efa4fa5 3f5f5212     -..>'._?.O.>.R_?
   18988:	3efafef7 3f5f20db 3efbae22 3f5eef81     ...>. _?"..>..^?
   18998:	3efc5d27 3f5ebe05 3efd0c04 3f5e8c67     '].>..^?...>g.^?
   189a8:	3efdbabb 3f5e5aa6 3efe694a 3f5e28c3     ...>.Z^?Ji.>.(^?
   189b8:	3eff17b2 3f5df6be 3effc5f3 3f5dc497     ...>..]?...>..]?
   189c8:	3f003a06 3f5d924d 3f0090ff 3f5d5fe1     .:.?M.]?...?._]?
   189d8:	3f00e7e4 3f5d2d53 3f013eb5 3f5cfaa3     ...?S-]?.>.?..\?
   189e8:	3f019573 3f5cc7d1 3f01ec1c 3f5c94dd     s..?..\?...?..\?
   189f8:	3f0242b1 3f5c61c7 3f029932 3f5c2e8e     .B.?.a\?2..?..\?
   18a08:	3f02ef9f 3f5bfb34 3f0345f8 3f5bc7b8     ...?4.[?.E.?..[?
   18a18:	3f039c3d 3f5b941a 3f03f26d 3f5b605a     =..?..[?m..?Z`[?
   18a28:	3f044889 3f5b2c79 3f049e91 3f5af875     .H.?y,[?...?u.Z?
   18a38:	3f04f484 3f5ac450 3f054a62 3f5a9009     ...?P.Z?bJ.?..Z?
   18a48:	3f05a02c 3f5a5ba0 3f05f5e2 3f5a2716     ,..?.[Z?...?.'Z?
   18a58:	3f064b82 3f59f26a 3f06a10e 3f59bd9c     .K.?j.Y?...?..Y?
   18a68:	3f06f686 3f5988ad 3f074be8 3f59539c     ...?..Y?.K.?.SY?
   18a78:	3f07a136 3f591e6a 3f07f66f 3f58e917     6..?j.Y?o..?..X?
   18a88:	3f084b92 3f58b3a1 3f08a0a1 3f587e0b     .K.?..X?...?.~X?
   18a98:	3f08f59b 3f584853 3f094a7f 3f581279     ...?SHX?.J.?y.X?
   18aa8:	3f099f4e 3f57dc7f 3f09f409 3f57a663     N..?..W?...?c.W?
   18ab8:	3f0a48ad 3f577026 3f0a9d3d 3f5739c7     .H.?&pW?=..?.9W?
   18ac8:	3f0af1b7 3f570348 3f0b461c 3f56cca7     ...?H.W?.F.?..V?
   18ad8:	3f0b9a6b 3f5695e5 3f0beea5 3f565f02     k..?..V?...?._V?
   18ae8:	3f0c42c9 3f5627fe 3f0c96d7 3f55f0d9     .B.?.'V?...?..U?
   18af8:	3f0cead0 3f55b993 3f0d3eb3 3f55822c     ...?..U?.>.?,.U?
   18b08:	3f0d9281 3f554aa4 3f0de638 3f5512fb     ...?.JU?8..?..U?
   18b18:	3f0e39da 3f54db31 3f0e8d65 3f54a347     .9.?1.T?e..?G.T?
   18b28:	3f0ee0db 3f546b3b 3f0f343b 3f54330f     ...?;kT?;4.?.3T?
   18b38:	3f0f8784 3f53fac3 3f0fdab8 3f53c255     ...?..S?...?U.S?
   18b48:	3f102dd5 3f5389c7 3f1080dc 3f535118     .-.?..S?...?.QS?
   18b58:	3f10d3cd 3f531849 3f1126a7 3f52df59     ...?I.S?.&.?Y.R?
   18b68:	3f11796b 3f52a649 3f11cc19 3f526d18     ky.?I.R?...?.mR?
   18b78:	3f121eb0 3f5233c6 3f127130 3f51fa54     ...?.3R?0q.?T.Q?
   18b88:	3f12c39a 3f51c0c2 3f1315ee 3f518710     ...?..Q?...?..Q?
   18b98:	3f13682a 3f514d3d 3f13ba50 3f51134a     *h.?=MQ?P..?J.Q?
   18ba8:	3f140c5f 3f50d937 3f145e58 3f509f03     _..?7.P?X^.?..P?
   18bb8:	3f14b039 3f5064af 3f150204 3f502a3b     9..?.dP?...?;*P?
   18bc8:	3f1553b7 3f4fefa8 3f15a554 3f4fb4f4     .S.?..O?T..?..O?
   18bd8:	3f15f6d9 3f4f7a1f 3f164847 3f4f3f2b     ...?.zO?GH.?+?O?
   18be8:	3f16999f 3f4f0417 3f16eadf 3f4ec8e4     ...?..O?...?..N?
   18bf8:	3f173c07 3f4e8d90 3f178d18 3f4e521c     .<.?..N?...?.RN?
   18c08:	3f17de12 3f4e1689 3f182ef5 3f4ddad5     ...?..N?...?..M?
   18c18:	3f187fc0 3f4d9f02 3f18d073 3f4d6310     ...?..M?s..?.cM?
   18c28:	3f19210f 3f4d26fd 3f197194 3f4ceacb     .!.?.&M?.q.?..L?
   18c38:	3f19c200 3f4cae79 3f1a1255 3f4c7208     ...?y.L?U..?.rL?
   18c48:	3f1a6293 3f4c3578 3f1ab2b8 3f4bf8c7     .b.?x5L?...?..K?
   18c58:	3f1b02c6 3f4bbbf8 3f1b52bb 3f4b7f09     ...?..K?.R.?..K?
   18c68:	3f1ba299 3f4b41fa 3f1bf25f 3f4b04cc     ...?.AK?_..?..K?
   18c78:	3f1c420c 3f4ac77f 3f1c91a2 3f4a8a13     .B.?..J?...?..J?
   18c88:	3f1ce11f 3f4a4c87 3f1d3084 3f4a0edc     ...?.LJ?.0.?..J?
   18c98:	3f1d7fd1 3f49d112 3f1dcf06 3f499329     ...?..I?...?).I?
   18ca8:	3f1e1e22 3f495521 3f1e6d26 3f4916fa     "..?!UI?&m.?..I?
   18cb8:	3f1ebc12 3f48d8b3 3f1f0ae5 3f489a4e     ...?..H?...?N.H?
   18cc8:	3f1f599f 3f485bca 3f1fa841 3f481d27     .Y.?.[H?A..?'.H?
   18cd8:	3f1ff6cb 3f47de65 3f20453b 3f479f84     ...?e.G?;E ?..G?
   18ce8:	3f209393 3f476085 3f20e1d2 3f472167     .. ?.`G?.. ?g!G?
   18cf8:	3f212ff9 3f46e22a 3f217e06 3f46a2ce     ./!?*.F?.~!?..F?
   18d08:	3f21cbfb 3f466354 3f2219d7 3f4623bb     ..!?TcF?.."?.#F?
   18d18:	3f226799 3f45e403 3f22b543 3f45a42d     .g"?..E?C."?-.E?
   18d28:	3f2302d3 3f456439 3f23504b 3f452426     ..#?9dE?KP#?&$E?
   18d38:	3f239da9 3f44e3f5 3f23eaee 3f44a3a5     ..#?..D?..#?..D?
   18d48:	3f24381a 3f446337 3f24852c 3f4422ab     .8$?7cD?,.$?."D?
   18d58:	3f24d225 3f43e200 3f251f04 3f43a138     %.$?..C?..%?8.C?
   18d68:	3f256bcb 3f436051 3f25b877 3f431f4c     .k%?Q`C?w.%?L.C?
   18d78:	3f26050a 3f42de29 3f265184 3f429ce8     ..&?).B?.Q&?..B?
   18d88:	3f269de3 3f425b89 3f26ea2a 3f421a0b     ..&?.[B?*.&?..B?
   18d98:	3f273656 3f41d870 3f278268 3f4196b7     V6'?p.A?h.'?..A?
   18da8:	3f27ce61 3f4154e1 3f281a40 3f4112ec     a.'?.TA?@.(?..A?
   18db8:	3f286605 3f40d0da 3f28b1b0 3f408ea9     .f(?..@?..(?..@?
   18dc8:	3f28fd41 3f404c5c 3f2948b8 3f4009f0     A.(?\L@?.H)?..@?
   18dd8:	3f299415 3f3fc767 3f29df57 3f3f84c0     ..)?g.??W.)?..??
   18de8:	3f2a2a80 3f3f41fc 3f2a758e 3f3eff1b     .**?.A??.u*?..>?
   18df8:	3f2ac082 3f3ebc1b 3f2b0b5b 3f3e78ff     ..*?..>?[.+?.x>?
   18e08:	3f2b561b 3f3e35c5 3f2ba0bf 3f3df26e     .V+?.5>?..+?n.=?
   18e18:	3f2beb4a 3f3daef9 3f2c35b9 3f3d6b67     J.+?..=?.5,?gk=?
   18e28:	3f2c800f 3f3d27b8 3f2cca49 3f3ce3ec     ..,?.'=?I.,?..<?
   18e38:	3f2d1469 3f3ca003 3f2d5e6f 3f3c5bfc     i.-?..<?o^-?.[<?
   18e48:	3f2da859 3f3c17d9 3f2df229 3f3bd398     Y.-?..<?).-?..;?
   18e58:	3f2e3bde 3f3b8f3b 3f2e8578 3f3b4ac1     .;.?;.;?x..?.J;?
   18e68:	3f2ecef7 3f3b0629 3f2f185b 3f3ac175     ...?).;?[./?u.:?
   18e78:	3f2f61a5 3f3a7ca4 3f2faad3 3f3a37b7     .a/?.|:?../?.7:?
   18e88:	3f2ff3e6 3f39f2ac 3f303cde 3f39ad85     ../?..9?.<0?..9?
   18e98:	3f3085bb 3f396842 3f30ce7c 3f3922e1     ..0?Bh9?|.0?."9?
   18ea8:	3f311722 3f38dd65 3f315fad 3f3897cb     ".1?e.8?._1?..8?
   18eb8:	3f31a81d 3f385216 3f31f071 3f380c43     ..1?.R8?q.1?C.8?
   18ec8:	3f3238aa 3f37c655 3f3280c7 3f37804a     .82?U.7?..2?J.7?
   18ed8:	3f32c8c9 3f373a23 3f3310af 3f36f3df     ..2?#:7?..3?..6?
   18ee8:	3f33587a 3f36ad7f 3f33a029 3f366704     zX3?..6?).3?.g6?
   18ef8:	3f33e7bc 3f36206c 3f342f34 3f35d9b8     ..3?l 6?4/4?..5?
   18f08:	3f34768f 3f3592e7 3f34bdcf 3f354bfb     .v4?..5?..4?.K5?
   18f18:	3f3504f3 3f3504f3 3f354bfb 3f34bdcf     ..5?..5?.K5?..4?
   18f28:	3f3592e7 3f34768f 3f35d9b8 3f342f34     ..5?.v4?..5?4/4?
   18f38:	3f36206c 3f33e7bc 3f366704 3f33a029     l 6?..3?.g6?).3?
   18f48:	3f36ad7f 3f33587a 3f36f3df 3f3310af     ..6?zX3?..6?..3?
   18f58:	3f373a23 3f32c8c9 3f37804a 3f3280c7     #:7?..2?J.7?..2?
   18f68:	3f37c655 3f3238aa 3f380c43 3f31f071     U.7?.82?C.8?q.1?
   18f78:	3f385216 3f31a81d 3f3897cb 3f315fad     .R8?..1?..8?._1?
   18f88:	3f38dd65 3f311722 3f3922e1 3f30ce7c     e.8?".1?."9?|.0?
   18f98:	3f396842 3f3085bb 3f39ad85 3f303cde     Bh9?..0?..9?.<0?
   18fa8:	3f39f2ac 3f2ff3e6 3f3a37b7 3f2faad3     ..9?../?.7:?../?
   18fb8:	3f3a7ca4 3f2f61a5 3f3ac175 3f2f185b     .|:?.a/?u.:?[./?
   18fc8:	3f3b0629 3f2ecef7 3f3b4ac1 3f2e8578     ).;?...?.J;?x..?
   18fd8:	3f3b8f3b 3f2e3bde 3f3bd398 3f2df229     ;.;?.;.?..;?).-?
   18fe8:	3f3c17d9 3f2da859 3f3c5bfc 3f2d5e6f     ..<?Y.-?.[<?o^-?
   18ff8:	3f3ca003 3f2d1469 3f3ce3ec 3f2cca49     ..<?i.-?..<?I.,?
   19008:	3f3d27b8 3f2c800f 3f3d6b67 3f2c35b9     .'=?..,?gk=?.5,?
   19018:	3f3daef9 3f2beb4a 3f3df26e 3f2ba0bf     ..=?J.+?n.=?..+?
   19028:	3f3e35c5 3f2b561b 3f3e78ff 3f2b0b5b     .5>?.V+?.x>?[.+?
   19038:	3f3ebc1b 3f2ac082 3f3eff1b 3f2a758e     ..>?..*?..>?.u*?
   19048:	3f3f41fc 3f2a2a80 3f3f84c0 3f29df57     .A??.**?..??W.)?
   19058:	3f3fc767 3f299415 3f4009f0 3f2948b8     g.??..)?..@?.H)?
   19068:	3f404c5c 3f28fd41 3f408ea9 3f28b1b0     \L@?A.(?..@?..(?
   19078:	3f40d0da 3f286605 3f4112ec 3f281a40     ..@?.f(?..A?@.(?
   19088:	3f4154e1 3f27ce61 3f4196b7 3f278268     .TA?a.'?..A?h.'?
   19098:	3f41d870 3f273656 3f421a0b 3f26ea2a     p.A?V6'?..B?*.&?
   190a8:	3f425b89 3f269de3 3f429ce8 3f265184     .[B?..&?..B?.Q&?
   190b8:	3f42de29 3f26050a 3f431f4c 3f25b877     ).B?..&?L.C?w.%?
   190c8:	3f436051 3f256bcb 3f43a138 3f251f04     Q`C?.k%?8.C?..%?
   190d8:	3f43e200 3f24d225 3f4422ab 3f24852c     ..C?%.$?."D?,.$?
   190e8:	3f446337 3f24381a 3f44a3a5 3f23eaee     7cD?.8$?..D?..#?
   190f8:	3f44e3f5 3f239da9 3f452426 3f23504b     ..D?..#?&$E?KP#?
   19108:	3f456439 3f2302d3 3f45a42d 3f22b543     9dE?..#?-.E?C."?
   19118:	3f45e403 3f226799 3f4623bb 3f2219d7     ..E?.g"?.#F?.."?
   19128:	3f466354 3f21cbfb 3f46a2ce 3f217e06     TcF?..!?..F?.~!?
   19138:	3f46e22a 3f212ff9 3f472167 3f20e1d2     *.F?./!?g!G?.. ?
   19148:	3f476085 3f209393 3f479f84 3f20453b     .`G?.. ?..G?;E ?
   19158:	3f47de65 3f1ff6cb 3f481d27 3f1fa841     e.G?...?'.H?A..?
   19168:	3f485bca 3f1f599f 3f489a4e 3f1f0ae5     .[H?.Y.?N.H?...?
   19178:	3f48d8b3 3f1ebc12 3f4916fa 3f1e6d26     ..H?...?..I?&m.?
   19188:	3f495521 3f1e1e22 3f499329 3f1dcf06     !UI?"..?).I?...?
   19198:	3f49d112 3f1d7fd1 3f4a0edc 3f1d3084     ..I?...?..J?.0.?
   191a8:	3f4a4c87 3f1ce11f 3f4a8a13 3f1c91a2     .LJ?...?..J?...?
   191b8:	3f4ac77f 3f1c420c 3f4b04cc 3f1bf25f     ..J?.B.?..K?_..?
   191c8:	3f4b41fa 3f1ba299 3f4b7f09 3f1b52bb     .AK?...?..K?.R.?
   191d8:	3f4bbbf8 3f1b02c6 3f4bf8c7 3f1ab2b8     ..K?...?..K?...?
   191e8:	3f4c3578 3f1a6293 3f4c7208 3f1a1255     x5L?.b.?.rL?U..?
   191f8:	3f4cae79 3f19c200 3f4ceacb 3f197194     y.L?...?..L?.q.?
   19208:	3f4d26fd 3f19210f 3f4d6310 3f18d073     .&M?.!.?.cM?s..?
   19218:	3f4d9f02 3f187fc0 3f4ddad5 3f182ef5     ..M?...?..M?...?
   19228:	3f4e1689 3f17de12 3f4e521c 3f178d18     ..N?...?.RN?...?
   19238:	3f4e8d90 3f173c07 3f4ec8e4 3f16eadf     ..N?.<.?..N?...?
   19248:	3f4f0417 3f16999f 3f4f3f2b 3f164847     ..O?...?+?O?GH.?
   19258:	3f4f7a1f 3f15f6d9 3f4fb4f4 3f15a554     .zO?...?..O?T..?
   19268:	3f4fefa8 3f1553b7 3f502a3b 3f150204     ..O?.S.?;*P?...?
   19278:	3f5064af 3f14b039 3f509f03 3f145e58     .dP?9..?..P?X^.?
   19288:	3f50d937 3f140c5f 3f51134a 3f13ba50     7.P?_..?J.Q?P..?
   19298:	3f514d3d 3f13682a 3f518710 3f1315ee     =MQ?*h.?..Q?...?
   192a8:	3f51c0c2 3f12c39a 3f51fa54 3f127130     ..Q?...?T.Q?0q.?
   192b8:	3f5233c6 3f121eb0 3f526d18 3f11cc19     .3R?...?.mR?...?
   192c8:	3f52a649 3f11796b 3f52df59 3f1126a7     I.R?ky.?Y.R?.&.?
   192d8:	3f531849 3f10d3cd 3f535118 3f1080dc     I.S?...?.QS?...?
   192e8:	3f5389c7 3f102dd5 3f53c255 3f0fdab8     ..S?.-.?U.S?...?
   192f8:	3f53fac3 3f0f8784 3f54330f 3f0f343b     ..S?...?.3T?;4.?
   19308:	3f546b3b 3f0ee0db 3f54a347 3f0e8d65     ;kT?...?G.T?e..?
   19318:	3f54db31 3f0e39da 3f5512fb 3f0de638     1.T?.9.?..U?8..?
   19328:	3f554aa4 3f0d9281 3f55822c 3f0d3eb3     .JU?...?,.U?.>.?
   19338:	3f55b993 3f0cead0 3f55f0d9 3f0c96d7     ..U?...?..U?...?
   19348:	3f5627fe 3f0c42c9 3f565f02 3f0beea5     .'V?.B.?._V?...?
   19358:	3f5695e5 3f0b9a6b 3f56cca7 3f0b461c     ..V?k..?..V?.F.?
   19368:	3f570348 3f0af1b7 3f5739c7 3f0a9d3d     H.W?...?.9W?=..?
   19378:	3f577026 3f0a48ad 3f57a663 3f09f409     &pW?.H.?c.W?...?
   19388:	3f57dc7f 3f099f4e 3f581279 3f094a7f     ..W?N..?y.X?.J.?
   19398:	3f584853 3f08f59b 3f587e0b 3f08a0a1     SHX?...?.~X?...?
   193a8:	3f58b3a1 3f084b92 3f58e917 3f07f66f     ..X?.K.?..X?o..?
   193b8:	3f591e6a 3f07a136 3f59539c 3f074be8     j.Y?6..?.SY?.K.?
   193c8:	3f5988ad 3f06f686 3f59bd9c 3f06a10e     ..Y?...?..Y?...?
   193d8:	3f59f26a 3f064b82 3f5a2716 3f05f5e2     j.Y?.K.?.'Z?...?
   193e8:	3f5a5ba0 3f05a02c 3f5a9009 3f054a62     .[Z?,..?..Z?bJ.?
   193f8:	3f5ac450 3f04f484 3f5af875 3f049e91     P.Z?...?u.Z?...?
   19408:	3f5b2c79 3f044889 3f5b605a 3f03f26d     y,[?.H.?Z`[?m..?
   19418:	3f5b941a 3f039c3d 3f5bc7b8 3f0345f8     ..[?=..?..[?.E.?
   19428:	3f5bfb34 3f02ef9f 3f5c2e8e 3f029932     4.[?...?..\?2..?
   19438:	3f5c61c7 3f0242b1 3f5c94dd 3f01ec1c     .a\?.B.?..\?...?
   19448:	3f5cc7d1 3f019573 3f5cfaa3 3f013eb5     ..\?s..?..\?.>.?
   19458:	3f5d2d53 3f00e7e4 3f5d5fe1 3f0090ff     S-]?...?._]?...?
   19468:	3f5d924d 3f003a06 3f5dc497 3effc5f3     M.]?.:.?..]?...>
   19478:	3f5df6be 3eff17b2 3f5e28c3 3efe694a     ..]?...>.(^?Ji.>
   19488:	3f5e5aa6 3efdbabb 3f5e8c67 3efd0c04     .Z^?...>g.^?...>
   19498:	3f5ebe05 3efc5d27 3f5eef81 3efbae22     ..^?'].>..^?"..>
   194a8:	3f5f20db 3efafef7 3f5f5212 3efa4fa5     . _?...>.R_?.O.>
   194b8:	3f5f8327 3ef9a02d 3f5fb419 3ef8f08e     '._?-..>.._?...>
   194c8:	3f5fe4e9 3ef840c8 3f601596 3ef790dc     .._?.@.>..`?...>
   194d8:	3f604621 3ef6e0cb 3f607689 3ef63093     !F`?...>.v`?.0.>
   194e8:	3f60a6cf 3ef58035 3f60d6f2 3ef4cfb1     ..`?5..>..`?...>
   194f8:	3f6106f2 3ef41f07 3f6136d0 3ef36e38     ..a?...>.6a?8n.>
   19508:	3f61668a 3ef2bd43 3f619622 3ef20c29     .fa?C..>".a?)..>
   19518:	3f61c598 3ef15aea 3f61f4ea 3ef0a985     ..a?.Z.>..a?...>
   19528:	3f62241a 3eeff7fb 3f625326 3eef464c     .$b?...>&Sb?LF.>
   19538:	3f628210 3eee9479 3f62b0d7 3eede280     ..b?y..>..b?...>
   19548:	3f62df7b 3eed3063 3f630dfc 3eec7e21     {.b?c0.>..c?!~.>
   19558:	3f633c5a 3eebcbbb 3f636a95 3eeb1930     Z<c?...>.jc?0..>
   19568:	3f6398ac 3eea6681 3f63c6a1 3ee9b3ae     ..c?.f.>..c?...>
   19578:	3f63f473 3ee900b7 3f642221 3ee84d9c     s.c?...>!"d?.M.>
   19588:	3f644fac 3ee79a5d 3f647d14 3ee6e6fb     .Od?]..>.}d?...>
   19598:	3f64aa59 3ee63375 3f64d77b 3ee57fcb     Y.d?u3.>{.d?...>
   195a8:	3f650479 3ee4cbfe 3f653154 3ee4180e     y.e?...>T1e?...>
   195b8:	3f655e0b 3ee363fa 3f658aa0 3ee2afc4     .^e?.c.>..e?...>
   195c8:	3f65b710 3ee1fb6a 3f65e35e 3ee146ee     ..e?j..>^.e?.F.>
   195d8:	3f660f88 3ee0924f 3f663b8e 3edfdd8d     ..f?O..>.;f?...>
   195e8:	3f666771 3edf28a9 3f669330 3ede73a2     qgf?.(.>0.f?.s.>
   195f8:	3f66becc 3eddbe79 3f66ea45 3edd092e     ..f?y..>E.f?...>
   19608:	3f671599 3edc53c1 3f6740ca 3edb9e31     ..g?.S.>.@g?1..>
   19618:	3f676bd8 3edae880 3f6796c1 3eda32ad     .kg?...>..g?.2.>
   19628:	3f67c187 3ed97cb9 3f67ec2a 3ed8c6a3     ..g?.|.>*.g?...>
   19638:	3f6816a8 3ed8106b 3f684103 3ed75a13     ..h?k..>.Ah?.Z.>
   19648:	3f686b39 3ed6a399 3f68954c 3ed5ecfd     9kh?...>L.h?...>
   19658:	3f68bf3c 3ed53641 3f68e907 3ed47f64     <.h?A6.>..h?d..>
   19668:	3f6912ae 3ed3c867 3f693c32 3ed31148     ..i?g..>2<i?H..>
   19678:	3f696591 3ed25a09 3f698ecc 3ed1a2aa     .ei?.Z.>..i?...>
   19688:	3f69b7e4 3ed0eb2a 3f69e0d7 3ed0338a     ..i?*..>..i?.3.>
   19698:	3f6a09a7 3ecf7bca 3f6a3252 3ecec3ea     ..j?.{.>R2j?...>
   196a8:	3f6a5ad9 3ece0bea 3f6a833c 3ecd53ca     .Zj?...><.j?.S.>
   196b8:	3f6aab7b 3ecc9b8b 3f6ad395 3ecbe32c     {.j?...>..j?,..>
   196c8:	3f6afb8c 3ecb2aae 3f6b235e 3eca7210     ..j?.*.>^#k?.r.>
   196d8:	3f6b4b0c 3ec9b953 3f6b7295 3ec90077     .Kk?S..>.rk?w..>
   196e8:	3f6b99fb 3ec8477c 3f6bc13b 3ec78e62     ..k?|G.>;.k?b..>
   196f8:	3f6be858 3ec6d529 3f6c0f50 3ec61bd2     X.k?)..>P.l?...>
   19708:	3f6c3624 3ec5625c 3f6c5cd4 3ec4a8c8     $6l?\b.>.\l?...>
   19718:	3f6c835e 3ec3ef15 3f6ca9c5 3ec33544     ^.l?...>..l?D5.>
   19728:	3f6cd007 3ec27b55 3f6cf624 3ec1c148     ..l?U{.>$.l?H..>
   19738:	3f6d1c1d 3ec1071e 3f6d41f2 3ec04cd5     ..m?...>.Am?.L.>
   19748:	3f6d67a1 3ebf926f 3f6d8d2d 3ebed7eb     .gm?o..>-.m?...>
   19758:	3f6db293 3ebe1d4a 3f6dd7d5 3ebd628b     ..m?J..>..m?.b.>
   19768:	3f6dfcf2 3ebca7af 3f6e21eb 3ebbecb6     ..m?...>.!n?...>
   19778:	3f6e46be 3ebb31a0 3f6e6b6d 3eba766e     .Fn?.1.>mkn?nv.>
   19788:	3f6e8ff8 3eb9bb1e 3f6eb45d 3eb8ffb2     ..n?...>].n?...>
   19798:	3f6ed89e 3eb8442a 3f6efcba 3eb78884     ..n?*D.>..n?...>
   197a8:	3f6f20b0 3eb6ccc3 3f6f4483 3eb610e6     . o?...>.Do?...>
   197b8:	3f6f6830 3eb554ec 3f6f8bb8 3eb498d6     0ho?.T.>..o?...>
   197c8:	3f6faf1b 3eb3dca5 3f6fd25a 3eb32058     ..o?...>Z.o?X .>
   197d8:	3f6ff573 3eb263ef 3f701867 3eb1a76b     s.o?.c.>g.p?k..>
   197e8:	3f703b37 3eb0eacb 3f705de1 3eb02e10     7;p?...>.]p?...>
   197f8:	3f708066 3eaf713a 3f70a2c6 3eaeb449     f.p?:q.>..p?I..>
   19808:	3f70c502 3eadf73c 3f70e717 3ead3a15     ..p?<..>..p?.:.>
   19818:	3f710908 3eac7cd4 3f712ad4 3eabbf77     ..q?.|.>.*q?w..>
   19828:	3f714c7a 3eab0201 3f716dfb 3eaa446f     zLq?...>.mq?oD.>
   19838:	3f718f57 3ea986c4 3f71b08e 3ea8c8fe     W.q?...>..q?...>
   19848:	3f71d19f 3ea80b1f 3f71f28c 3ea74d25     ..q?...>..q?%M.>
   19858:	3f721352 3ea68f12 3f7233f4 3ea5d0e5     R.r?...>.3r?...>
   19868:	3f725470 3ea5129f 3f7274c7 3ea4543f     pTr?...>.tr??T.>
   19878:	3f7294f8 3ea395c5 3f72b504 3ea2d733     ..r?...>..r?3..>
   19888:	3f72d4eb 3ea21887 3f72f4ac 3ea159c2     ..r?...>..r?.Y.>
   19898:	3f731447 3ea09ae5 3f7333be 3e9fdbee     G.s?...>.3s?...>
   198a8:	3f73530e 3e9f1cdf 3f737239 3e9e5db8     .Ss?...>9rs?.].>
   198b8:	3f73913f 3e9d9e78 3f73b01f 3e9cdf20     ?.s?x..>..s? ..>
   198c8:	3f73ced9 3e9c1faf 3f73ed6e 3e9b6027     ..s?...>n.s?'`.>
   198d8:	3f740bdd 3e9aa086 3f742a27 3e99e0ce     ..t?...>'*t?...>
   198e8:	3f74484b 3e9920fe 3f746649 3e986116     KHt?. .>Ift?.a.>
   198f8:	3f748422 3e97a117 3f74a1d5 3e96e100     ".t?...>..t?...>
   19908:	3f74bf62 3e9620d2 3f74dcc9 3e95608d     b.t?. .>..t?.`.>
   19918:	3f74fa0b 3e94a031 3f751727 3e93dfbf     ..t?1..>'.u?...>
   19928:	3f75341d 3e931f35 3f7550ed 3e925e94     .4u?5..>.Pu?.^.>
   19938:	3f756d97 3e919ddd 3f758a1c 3e90dd10     .mu?...>..u?...>
   19948:	3f75a67b 3e901c2c 3f75c2b3 3e8f5b32     {.u?,..>..u?2[.>
   19958:	3f75dec6 3e8e9a22 3f75fab3 3e8dd8fc     ..u?"..>..u?...>
   19968:	3f76167a 3e8d17c0 3f76321b 3e8c566e     z.v?...>.2v?nV.>
   19978:	3f764d97 3e8b9507 3f7668ec 3e8ad38a     .Mv?...>.hv?...>
   19988:	3f76841b 3e8a11f8 3f769f24 3e895050     ..v?...>$.v?PP.>
   19998:	3f76ba07 3e888e93 3f76d4c4 3e87ccc1     ..v?...>..v?...>
   199a8:	3f76ef5b 3e870ada 3f7709cc 3e8648df     [.v?...>..w?.H.>
   199b8:	3f772417 3e8586ce 3f773e3c 3e84c4aa     .$w?...><>w?...>
   199c8:	3f77583a 3e840270 3f777213 3e834022     :Xw?p..>.rw?"@.>
   199d8:	3f778bc5 3e827dc0 3f77a551 3e81bb4a     ..w?.}.>Q.w?J..>
   199e8:	3f77beb7 3e80f8c0 3f77d7f7 3e803622     ..w?...>..w?"6.>
   199f8:	3f77f110 3e7ee6e1 3f780a04 3e7d6156     ..w?..~>..x?Va}>
   19a08:	3f7822d1 3e7bdba4 3f783b77 3e7a55cb     ."x?..{>w;x?.Uz>
   19a18:	3f7853f8 3e78cfcc 3f786c52 3e7749a6     .Sx?..x>Rlx?.Iw>
   19a28:	3f788486 3e75c35a 3f789c93 3e743ce8     ..x?Z.u>..x?.<t>
   19a38:	3f78b47b 3e72b651 3f78cc3b 3e712f94     {.x?Q.r>;.x?./q>
   19a48:	3f78e3d6 3e6fa8b2 3f78fb4a 3e6e21ab     ..x?..o>J.x?.!n>
   19a58:	3f791298 3e6c9a7f 3f7929bf 3e6b132f     ..y?..l>.)y?/.k>
   19a68:	3f7940c0 3e698bba 3f79579a 3e680422     .@y?..i>.Wy?".h>
   19a78:	3f796e4e 3e667c66 3f7984dc 3e64f486     Nny?f|f>..y?..d>
   19a88:	3f799b43 3e636c83 3f79b183 3e61e45c     C.y?.lc>..y?\.a>
   19a98:	3f79c79d 3e605c13 3f79dd91 3e5ed3a8     ..y?.\`>..y?..^>
   19aa8:	3f79f35e 3e5d4b1a 3f7a0904 3e5bc26a     ^.y?.K]>..z?j.[>
   19ab8:	3f7a1e84 3e5a3997 3f7a33dd 3e58b0a4     ..z?.9Z>.3z?..X>
   19ac8:	3f7a4910 3e57278f 3f7a5e1c 3e559e58     .Iz?.'W>.^z?X.U>
   19ad8:	3f7a7302 3e541501 3f7a87c1 3e528b89     .sz?..T>..z?..R>
   19ae8:	3f7a9c59 3e5101f1 3f7ab0cb 3e4f7838     Y.z?..Q>..z?8xO>
   19af8:	3f7ac516 3e4dee60 3f7ad93a 3e4c6467     ..z?`.M>:.z?gdL>
   19b08:	3f7aed37 3e4ada4f 3f7b010e 3e495018     7.z?O.J>..{?.PI>
   19b18:	3f7b14be 3e47c5c2 3f7b2848 3e463b4d     ..{?..G>H({?M;F>
   19b28:	3f7b3bab 3e44b0b9 3f7b4ee7 3e432607     .;{?..D>.N{?.&C>
   19b38:	3f7b61fc 3e419b37 3f7b74ea 3e401049     .a{?7.A>.t{?I.@>
   19b48:	3f7b87b2 3e3e853e 3f7b9a53 3e3cfa15     ..{?>.>>S.{?..<>
   19b58:	3f7baccd 3e3b6ecf 3f7bbf20 3e39e36c     ..{?.n;> .{?l.9>
   19b68:	3f7bd14d 3e3857ec 3f7be353 3e36cc50     M.{?.W8>S.{?P.6>
   19b78:	3f7bf531 3e354098 3f7c06e9 3e33b4c4     1.{?.@5>..|?..3>
   19b88:	3f7c187a 3e3228d4 3f7c29e5 3e309cc9     z.|?.(2>.)|?..0>
   19b98:	3f7c3b28 3e2f10a2 3f7c4c44 3e2d8461     (;|?../>DL|?a.->
   19ba8:	3f7c5d3a 3e2bf804 3f7c6e08 3e2a6b8d     :]|?..+>.n|?.k*>
   19bb8:	3f7c7eb0 3e28defc 3f7c8f31 3e275251     .~|?..(>1.|?QR'>
   19bc8:	3f7c9f8a 3e25c58c 3f7cafbd 3e2438ad     ..|?..%>..|?.8$>
   19bd8:	3f7cbfc9 3e22abb6 3f7ccfae 3e211ea5     ..|?..">..|?..!>
   19be8:	3f7cdf6c 3e1f917b 3f7cef03 3e1e0438     l.|?{..>..|?8..>
   19bf8:	3f7cfe73 3e1c76de 3f7d0dbc 3e1ae96b     s.|?.v.>..}?k..>
   19c08:	3f7d1cdd 3e195be0 3f7d2bd8 3e17ce3d     ..}?.[.>.+}?=..>
   19c18:	3f7d3aac 3e164083 3f7d4959 3e14b2b2     .:}?.@.>YI}?...>
   19c28:	3f7d57de 3e1324ca 3f7d663d 3e1196cc     .W}?.$.>=f}?...>
   19c38:	3f7d7474 3e1008b7 3f7d8285 3e0e7a8b     tt}?...>..}?.z.>
   19c48:	3f7d906e 3e0cec4a 3f7d9e30 3e0b5df3     n.}?J..>0.}?.].>
   19c58:	3f7dabcc 3e09cf86 3f7db940 3e084105     ..}?...>@.}?.A.>
   19c68:	3f7dc68c 3e06b26e 3f7dd3b2 3e0523c2     ..}?n..>..}?.#.>
   19c78:	3f7de0b1 3e039502 3f7ded88 3e02062e     ..}?...>..}?...>
   19c88:	3f7dfa38 3e007745 3f7e06c2 3dfdd092     8.}?Ew.>..~?...=
   19c98:	3f7e1324 3dfab273 3f7e1f5e 3df7942c     $.~?s..=^.~?,..=
   19ca8:	3f7e2b72 3df475c0 3f7e375e 3df1572e     r+~?.u.=^7~?.W.=
   19cb8:	3f7e4323 3dee3876 3f7e4ec1 3deb199a     #C~?v8.=.N~?...=
   19cc8:	3f7e5a38 3de7fa9a 3f7e6588 3de4db76     8Z~?...=.e~?v..=
   19cd8:	3f7e70b0 3de1bc2e 3f7e7bb1 3dde9cc4     .p~?...=.{~?...=
   19ce8:	3f7e868b 3ddb7d37 3f7e913d 3dd85d89     ..~?7}.==.~?.].=
   19cf8:	3f7e9bc9 3dd53db9 3f7ea62d 3dd21dc8     ..~?.=.=-.~?...=
   19d08:	3f7eb069 3dcefdb7 3f7eba7f 3dcbdd86     i.~?...=..~?...=
   19d18:	3f7ec46d 3dc8bd36 3f7ece34 3dc59cc6     m.~?6..=4.~?...=
   19d28:	3f7ed7d4 3dc27c39 3f7ee14c 3dbf5b8d     ..~?9|.=L.~?.[.=
   19d38:	3f7eea9d 3dbc3ac3 3f7ef3c7 3db919dd     ..~?.:.=..~?...=
   19d48:	3f7efcc9 3db5f8da 3f7f05a4 3db2d7bb     ..~?...=...?...=
   19d58:	3f7f0e58 3dafb680 3f7f16e4 3dac952b     X..?...=...?+..=
   19d68:	3f7f1f49 3da973ba 3f7f2787 3da65230     I..?.s.=.'.?0R.=
   19d78:	3f7f2f9d 3da3308c 3f7f378d 3da00ecf     ./.?.0.=.7.?...=
   19d88:	3f7f3f54 3d9cecf9 3f7f46f4 3d99cb0a     T?.?...=.F.?...=
   19d98:	3f7f4e6d 3d96a905 3f7f55bf 3d9386e7     mN.?...=.U.?...=
   19da8:	3f7f5ce9 3d9064b4 3f7f63ec 3d8d426a     .\.?.d.=.c.?jB.=
   19db8:	3f7f6ac7 3d8a200a 3f7f717b 3d86fd94     .j.?. .={q.?...=
   19dc8:	3f7f7808 3d83db0a 3f7f7e6d 3d80b86c     .x.?...=m~.?l..=
   19dd8:	3f7f84ab 3d7b2b74 3f7f8ac2 3d74e5e9     ...?t+{=...?..t=
   19de8:	3f7f90b1 3d6ea038 3f7f9678 3d685a62     ...?8.n=x..?bZh=
   19df8:	3f7f9c18 3d621468 3f7fa191 3d5bce4c     ...?h.b=...?L.[=
   19e08:	3f7fa6e3 3d55880e 3f7fac0d 3d4f41af     ...?..U=...?.AO=
   19e18:	3f7fb10f 3d48fb2f 3f7fb5ea 3d42b491     ...?/.H=...?..B=
   19e28:	3f7fba9e 3d3c6dd5 3f7fbf2a 3d3626fc     ...?.m<=*..?.&6=
   19e38:	3f7fc38f 3d2fe007 3f7fc7cc 3d2998f6     ...?../=...?..)=
   19e48:	3f7fcbe2 3d2351cc 3f7fcfd1 3d1d0a88     ...?.Q#=...?...=
   19e58:	3f7fd398 3d16c32c 3f7fd737 3d107bb8     ...?,..=7..?.{.=
   19e68:	3f7fdaaf 3d0a342f 3f7fde00 3d03ec90     ...?/4.=...?...=
   19e78:	3f7fe129 3cfb49b9 3f7fe42b 3ceeba2d     )..?.I.<+..?-..<
   19e88:	3f7fe705 3ce22a7b 3f7fe9b8 3cd59aa6     ...?{*.<...?...<
   19e98:	3f7fec43 3cc90ab0 3f7feea7 3cbc7a9b     C..?...<...?.z.<
   19ea8:	3f7ff0e3 3cafea69 3f7ff2f8 3ca35a1c     ...?i..<...?.Z.<
   19eb8:	3f7ff4e6 3c96c9b6 3f7ff6ac 3c8a3938     ...?...<...?89.<
   19ec8:	3f7ff84a 3c7b514b 3f7ff9c1 3c623000     J..?KQ{<...?.0b<
   19ed8:	3f7ffb11 3c490e90 3f7ffc39 3c2fed02     ...?..I<9..?../<
   19ee8:	3f7ffd39 3c16cb59 3f7ffe13 3bfb5330     9..?Y..<...?0S.;
   19ef8:	3f7ffec4 3bc90f89 3f7fff4e 3b96cbc1     ...?...;N..?...;
   19f08:	3f7fffb1 3b490fc7 3f7fffec 3ac90fd4     ...?..I;...?...:
   19f18:	3f800000 00000000 3f7fffec bac90fd4     ...?.......?....
   19f28:	3f7fffb1 bb490fc7 3f7fff4e bb96cbc1     ...?..I.N..?....
   19f38:	3f7ffec4 bbc90f89 3f7ffe13 bbfb5330     ...?.......?0S..
   19f48:	3f7ffd39 bc16cb59 3f7ffc39 bc2fed02     9..?Y...9..?../.
   19f58:	3f7ffb11 bc490e90 3f7ff9c1 bc623000     ...?..I....?.0b.
   19f68:	3f7ff84a bc7b514b 3f7ff6ac bc8a3938     J..?KQ{....?89..
   19f78:	3f7ff4e6 bc96c9b6 3f7ff2f8 bca35a1c     ...?.......?.Z..
   19f88:	3f7ff0e3 bcafea69 3f7feea7 bcbc7a9b     ...?i......?.z..
   19f98:	3f7fec43 bcc90ab0 3f7fe9b8 bcd59aa6     C..?.......?....
   19fa8:	3f7fe705 bce22a7b 3f7fe42b bceeba2d     ...?{*..+..?-...
   19fb8:	3f7fe129 bcfb49b9 3f7fde00 bd03ec90     )..?.I.....?....
   19fc8:	3f7fdaaf bd0a342f 3f7fd737 bd107bb8     ...?/4..7..?.{..
   19fd8:	3f7fd398 bd16c32c 3f7fcfd1 bd1d0a88     ...?,......?....
   19fe8:	3f7fcbe2 bd2351cc 3f7fc7cc bd2998f6     ...?.Q#....?..).
   19ff8:	3f7fc38f bd2fe007 3f7fbf2a bd3626fc     ...?../.*..?.&6.
   1a008:	3f7fba9e bd3c6dd5 3f7fb5ea bd42b491     ...?.m<....?..B.
   1a018:	3f7fb10f bd48fb2f 3f7fac0d bd4f41af     ...?/.H....?.AO.
   1a028:	3f7fa6e3 bd55880e 3f7fa191 bd5bce4c     ...?..U....?L.[.
   1a038:	3f7f9c18 bd621468 3f7f9678 bd685a62     ...?h.b.x..?bZh.
   1a048:	3f7f90b1 bd6ea038 3f7f8ac2 bd74e5e9     ...?8.n....?..t.
   1a058:	3f7f84ab bd7b2b74 3f7f7e6d bd80b86c     ...?t+{.m~.?l...
   1a068:	3f7f7808 bd83db0a 3f7f717b bd86fd94     .x.?....{q.?....
   1a078:	3f7f6ac7 bd8a200a 3f7f63ec bd8d426a     .j.?. ...c.?jB..
   1a088:	3f7f5ce9 bd9064b4 3f7f55bf bd9386e7     .\.?.d...U.?....
   1a098:	3f7f4e6d bd96a905 3f7f46f4 bd99cb0a     mN.?.....F.?....
   1a0a8:	3f7f3f54 bd9cecf9 3f7f378d bda00ecf     T?.?.....7.?....
   1a0b8:	3f7f2f9d bda3308c 3f7f2787 bda65230     ./.?.0...'.?0R..
   1a0c8:	3f7f1f49 bda973ba 3f7f16e4 bdac952b     I..?.s.....?+...
   1a0d8:	3f7f0e58 bdafb680 3f7f05a4 bdb2d7bb     X..?.......?....
   1a0e8:	3f7efcc9 bdb5f8da 3f7ef3c7 bdb919dd     ..~?......~?....
   1a0f8:	3f7eea9d bdbc3ac3 3f7ee14c bdbf5b8d     ..~?.:..L.~?.[..
   1a108:	3f7ed7d4 bdc27c39 3f7ece34 bdc59cc6     ..~?9|..4.~?....
   1a118:	3f7ec46d bdc8bd36 3f7eba7f bdcbdd86     m.~?6.....~?....
   1a128:	3f7eb069 bdcefdb7 3f7ea62d bdd21dc8     i.~?....-.~?....
   1a138:	3f7e9bc9 bdd53db9 3f7e913d bdd85d89     ..~?.=..=.~?.]..
   1a148:	3f7e868b bddb7d37 3f7e7bb1 bdde9cc4     ..~?7}...{~?....
   1a158:	3f7e70b0 bde1bc2e 3f7e6588 bde4db76     .p~?.....e~?v...
   1a168:	3f7e5a38 bde7fa9a 3f7e4ec1 bdeb199a     8Z~?.....N~?....
   1a178:	3f7e4323 bdee3876 3f7e375e bdf1572e     #C~?v8..^7~?.W..
   1a188:	3f7e2b72 bdf475c0 3f7e1f5e bdf7942c     r+~?.u..^.~?,...
   1a198:	3f7e1324 bdfab273 3f7e06c2 bdfdd092     $.~?s.....~?....
   1a1a8:	3f7dfa38 be007745 3f7ded88 be02062e     8.}?Ew....}?....
   1a1b8:	3f7de0b1 be039502 3f7dd3b2 be0523c2     ..}?......}?.#..
   1a1c8:	3f7dc68c be06b26e 3f7db940 be084105     ..}?n...@.}?.A..
   1a1d8:	3f7dabcc be09cf86 3f7d9e30 be0b5df3     ..}?....0.}?.]..
   1a1e8:	3f7d906e be0cec4a 3f7d8285 be0e7a8b     n.}?J.....}?.z..
   1a1f8:	3f7d7474 be1008b7 3f7d663d be1196cc     tt}?....=f}?....
   1a208:	3f7d57de be1324ca 3f7d4959 be14b2b2     .W}?.$..YI}?....
   1a218:	3f7d3aac be164083 3f7d2bd8 be17ce3d     .:}?.@...+}?=...
   1a228:	3f7d1cdd be195be0 3f7d0dbc be1ae96b     ..}?.[....}?k...
   1a238:	3f7cfe73 be1c76de 3f7cef03 be1e0438     s.|?.v....|?8...
   1a248:	3f7cdf6c be1f917b 3f7ccfae be211ea5     l.|?{.....|?..!.
   1a258:	3f7cbfc9 be22abb6 3f7cafbd be2438ad     ..|?.."...|?.8$.
   1a268:	3f7c9f8a be25c58c 3f7c8f31 be275251     ..|?..%.1.|?QR'.
   1a278:	3f7c7eb0 be28defc 3f7c6e08 be2a6b8d     .~|?..(..n|?.k*.
   1a288:	3f7c5d3a be2bf804 3f7c4c44 be2d8461     :]|?..+.DL|?a.-.
   1a298:	3f7c3b28 be2f10a2 3f7c29e5 be309cc9     (;|?../..)|?..0.
   1a2a8:	3f7c187a be3228d4 3f7c06e9 be33b4c4     z.|?.(2...|?..3.
   1a2b8:	3f7bf531 be354098 3f7be353 be36cc50     1.{?.@5.S.{?P.6.
   1a2c8:	3f7bd14d be3857ec 3f7bbf20 be39e36c     M.{?.W8. .{?l.9.
   1a2d8:	3f7baccd be3b6ecf 3f7b9a53 be3cfa15     ..{?.n;.S.{?..<.
   1a2e8:	3f7b87b2 be3e853e 3f7b74ea be401049     ..{?>.>..t{?I.@.
   1a2f8:	3f7b61fc be419b37 3f7b4ee7 be432607     .a{?7.A..N{?.&C.
   1a308:	3f7b3bab be44b0b9 3f7b2848 be463b4d     .;{?..D.H({?M;F.
   1a318:	3f7b14be be47c5c2 3f7b010e be495018     ..{?..G...{?.PI.
   1a328:	3f7aed37 be4ada4f 3f7ad93a be4c6467     7.z?O.J.:.z?gdL.
   1a338:	3f7ac516 be4dee60 3f7ab0cb be4f7838     ..z?`.M...z?8xO.
   1a348:	3f7a9c59 be5101f1 3f7a87c1 be528b89     Y.z?..Q...z?..R.
   1a358:	3f7a7302 be541501 3f7a5e1c be559e58     .sz?..T..^z?X.U.
   1a368:	3f7a4910 be57278f 3f7a33dd be58b0a4     .Iz?.'W..3z?..X.
   1a378:	3f7a1e84 be5a3997 3f7a0904 be5bc26a     ..z?.9Z...z?j.[.
   1a388:	3f79f35e be5d4b1a 3f79dd91 be5ed3a8     ^.y?.K]...y?..^.
   1a398:	3f79c79d be605c13 3f79b183 be61e45c     ..y?.\`...y?\.a.
   1a3a8:	3f799b43 be636c83 3f7984dc be64f486     C.y?.lc...y?..d.
   1a3b8:	3f796e4e be667c66 3f79579a be680422     Nny?f|f..Wy?".h.
   1a3c8:	3f7940c0 be698bba 3f7929bf be6b132f     .@y?..i..)y?/.k.
   1a3d8:	3f791298 be6c9a7f 3f78fb4a be6e21ab     ..y?..l.J.x?.!n.
   1a3e8:	3f78e3d6 be6fa8b2 3f78cc3b be712f94     ..x?..o.;.x?./q.
   1a3f8:	3f78b47b be72b651 3f789c93 be743ce8     {.x?Q.r...x?.<t.
   1a408:	3f788486 be75c35a 3f786c52 be7749a6     ..x?Z.u.Rlx?.Iw.
   1a418:	3f7853f8 be78cfcc 3f783b77 be7a55cb     .Sx?..x.w;x?.Uz.
   1a428:	3f7822d1 be7bdba4 3f780a04 be7d6156     ."x?..{...x?Va}.
   1a438:	3f77f110 be7ee6e1 3f77d7f7 be803622     ..w?..~...w?"6..
   1a448:	3f77beb7 be80f8c0 3f77a551 be81bb4a     ..w?....Q.w?J...
   1a458:	3f778bc5 be827dc0 3f777213 be834022     ..w?.}...rw?"@..
   1a468:	3f77583a be840270 3f773e3c be84c4aa     :Xw?p...<>w?....
   1a478:	3f772417 be8586ce 3f7709cc be8648df     .$w?......w?.H..
   1a488:	3f76ef5b be870ada 3f76d4c4 be87ccc1     [.v?......v?....
   1a498:	3f76ba07 be888e93 3f769f24 be895050     ..v?....$.v?PP..
   1a4a8:	3f76841b be8a11f8 3f7668ec be8ad38a     ..v?.....hv?....
   1a4b8:	3f764d97 be8b9507 3f76321b be8c566e     .Mv?.....2v?nV..
   1a4c8:	3f76167a be8d17c0 3f75fab3 be8dd8fc     z.v?......u?....
   1a4d8:	3f75dec6 be8e9a22 3f75c2b3 be8f5b32     ..u?".....u?2[..
   1a4e8:	3f75a67b be901c2c 3f758a1c be90dd10     {.u?,.....u?....
   1a4f8:	3f756d97 be919ddd 3f7550ed be925e94     .mu?.....Pu?.^..
   1a508:	3f75341d be931f35 3f751727 be93dfbf     .4u?5...'.u?....
   1a518:	3f74fa0b be94a031 3f74dcc9 be95608d     ..t?1.....t?.`..
   1a528:	3f74bf62 be9620d2 3f74a1d5 be96e100     b.t?. ....t?....
   1a538:	3f748422 be97a117 3f746649 be986116     ".t?....Ift?.a..
   1a548:	3f74484b be9920fe 3f742a27 be99e0ce     KHt?. ..'*t?....
   1a558:	3f740bdd be9aa086 3f73ed6e be9b6027     ..t?....n.s?'`..
   1a568:	3f73ced9 be9c1faf 3f73b01f be9cdf20     ..s?......s? ...
   1a578:	3f73913f be9d9e78 3f737239 be9e5db8     ?.s?x...9rs?.]..
   1a588:	3f73530e be9f1cdf 3f7333be be9fdbee     .Ss?.....3s?....
   1a598:	3f731447 bea09ae5 3f72f4ac bea159c2     G.s?......r?.Y..
   1a5a8:	3f72d4eb bea21887 3f72b504 bea2d733     ..r?......r?3...
   1a5b8:	3f7294f8 bea395c5 3f7274c7 bea4543f     ..r?.....tr??T..
   1a5c8:	3f725470 bea5129f 3f7233f4 bea5d0e5     pTr?.....3r?....
   1a5d8:	3f721352 bea68f12 3f71f28c bea74d25     R.r?......q?%M..
   1a5e8:	3f71d19f bea80b1f 3f71b08e bea8c8fe     ..q?......q?....
   1a5f8:	3f718f57 bea986c4 3f716dfb beaa446f     W.q?.....mq?oD..
   1a608:	3f714c7a beab0201 3f712ad4 beabbf77     zLq?.....*q?w...
   1a618:	3f710908 beac7cd4 3f70e717 bead3a15     ..q?.|....p?.:..
   1a628:	3f70c502 beadf73c 3f70a2c6 beaeb449     ..p?<.....p?I...
   1a638:	3f708066 beaf713a 3f705de1 beb02e10     f.p?:q...]p?....
   1a648:	3f703b37 beb0eacb 3f701867 beb1a76b     7;p?....g.p?k...
   1a658:	3f6ff573 beb263ef 3f6fd25a beb32058     s.o?.c..Z.o?X ..
   1a668:	3f6faf1b beb3dca5 3f6f8bb8 beb498d6     ..o?......o?....
   1a678:	3f6f6830 beb554ec 3f6f4483 beb610e6     0ho?.T...Do?....
   1a688:	3f6f20b0 beb6ccc3 3f6efcba beb78884     . o?......n?....
   1a698:	3f6ed89e beb8442a 3f6eb45d beb8ffb2     ..n?*D..].n?....
   1a6a8:	3f6e8ff8 beb9bb1e 3f6e6b6d beba766e     ..n?....mkn?nv..
   1a6b8:	3f6e46be bebb31a0 3f6e21eb bebbecb6     .Fn?.1...!n?....
   1a6c8:	3f6dfcf2 bebca7af 3f6dd7d5 bebd628b     ..m?......m?.b..
   1a6d8:	3f6db293 bebe1d4a 3f6d8d2d bebed7eb     ..m?J...-.m?....
   1a6e8:	3f6d67a1 bebf926f 3f6d41f2 bec04cd5     .gm?o....Am?.L..
   1a6f8:	3f6d1c1d bec1071e 3f6cf624 bec1c148     ..m?....$.l?H...
   1a708:	3f6cd007 bec27b55 3f6ca9c5 bec33544     ..l?U{....l?D5..
   1a718:	3f6c835e bec3ef15 3f6c5cd4 bec4a8c8     ^.l?.....\l?....
   1a728:	3f6c3624 bec5625c 3f6c0f50 bec61bd2     $6l?\b..P.l?....
   1a738:	3f6be858 bec6d529 3f6bc13b bec78e62     X.k?)...;.k?b...
   1a748:	3f6b99fb bec8477c 3f6b7295 bec90077     ..k?|G...rk?w...
   1a758:	3f6b4b0c bec9b953 3f6b235e beca7210     .Kk?S...^#k?.r..
   1a768:	3f6afb8c becb2aae 3f6ad395 becbe32c     ..j?.*....j?,...
   1a778:	3f6aab7b becc9b8b 3f6a833c becd53ca     {.j?....<.j?.S..
   1a788:	3f6a5ad9 bece0bea 3f6a3252 becec3ea     .Zj?....R2j?....
   1a798:	3f6a09a7 becf7bca 3f69e0d7 bed0338a     ..j?.{....i?.3..
   1a7a8:	3f69b7e4 bed0eb2a 3f698ecc bed1a2aa     ..i?*.....i?....
   1a7b8:	3f696591 bed25a09 3f693c32 bed31148     .ei?.Z..2<i?H...
   1a7c8:	3f6912ae bed3c867 3f68e907 bed47f64     ..i?g.....h?d...
   1a7d8:	3f68bf3c bed53641 3f68954c bed5ecfd     <.h?A6..L.h?....
   1a7e8:	3f686b39 bed6a399 3f684103 bed75a13     9kh?.....Ah?.Z..
   1a7f8:	3f6816a8 bed8106b 3f67ec2a bed8c6a3     ..h?k...*.g?....
   1a808:	3f67c187 bed97cb9 3f6796c1 beda32ad     ..g?.|....g?.2..
   1a818:	3f676bd8 bedae880 3f6740ca bedb9e31     .kg?.....@g?1...
   1a828:	3f671599 bedc53c1 3f66ea45 bedd092e     ..g?.S..E.f?....
   1a838:	3f66becc beddbe79 3f669330 bede73a2     ..f?y...0.f?.s..
   1a848:	3f666771 bedf28a9 3f663b8e bedfdd8d     qgf?.(...;f?....
   1a858:	3f660f88 bee0924f 3f65e35e bee146ee     ..f?O...^.e?.F..
   1a868:	3f65b710 bee1fb6a 3f658aa0 bee2afc4     ..e?j.....e?....
   1a878:	3f655e0b bee363fa 3f653154 bee4180e     .^e?.c..T1e?....
   1a888:	3f650479 bee4cbfe 3f64d77b bee57fcb     y.e?....{.d?....
   1a898:	3f64aa59 bee63375 3f647d14 bee6e6fb     Y.d?u3...}d?....
   1a8a8:	3f644fac bee79a5d 3f642221 bee84d9c     .Od?]...!"d?.M..
   1a8b8:	3f63f473 bee900b7 3f63c6a1 bee9b3ae     s.c?......c?....
   1a8c8:	3f6398ac beea6681 3f636a95 beeb1930     ..c?.f...jc?0...
   1a8d8:	3f633c5a beebcbbb 3f630dfc beec7e21     Z<c?......c?!~..
   1a8e8:	3f62df7b beed3063 3f62b0d7 beede280     {.b?c0....b?....
   1a8f8:	3f628210 beee9479 3f625326 beef464c     ..b?y...&Sb?LF..
   1a908:	3f62241a beeff7fb 3f61f4ea bef0a985     .$b?......a?....
   1a918:	3f61c598 bef15aea 3f619622 bef20c29     ..a?.Z..".a?)...
   1a928:	3f61668a bef2bd43 3f6136d0 bef36e38     .fa?C....6a?8n..
   1a938:	3f6106f2 bef41f07 3f60d6f2 bef4cfb1     ..a?......`?....
   1a948:	3f60a6cf bef58035 3f607689 bef63093     ..`?5....v`?.0..
   1a958:	3f604621 bef6e0cb 3f601596 bef790dc     !F`?......`?....
   1a968:	3f5fe4e9 bef840c8 3f5fb419 bef8f08e     .._?.@...._?....
   1a978:	3f5f8327 bef9a02d 3f5f5212 befa4fa5     '._?-....R_?.O..
   1a988:	3f5f20db befafef7 3f5eef81 befbae22     . _?......^?"...
   1a998:	3f5ebe05 befc5d27 3f5e8c67 befd0c04     ..^?']..g.^?....
   1a9a8:	3f5e5aa6 befdbabb 3f5e28c3 befe694a     .Z^?.....(^?Ji..
   1a9b8:	3f5df6be beff17b2 3f5dc497 beffc5f3     ..]?......]?....
   1a9c8:	3f5d924d bf003a06 3f5d5fe1 bf0090ff     M.]?.:..._]?....
   1a9d8:	3f5d2d53 bf00e7e4 3f5cfaa3 bf013eb5     S-]?......\?.>..
   1a9e8:	3f5cc7d1 bf019573 3f5c94dd bf01ec1c     ..\?s.....\?....
   1a9f8:	3f5c61c7 bf0242b1 3f5c2e8e bf029932     .a\?.B....\?2...
   1aa08:	3f5bfb34 bf02ef9f 3f5bc7b8 bf0345f8     4.[?......[?.E..
   1aa18:	3f5b941a bf039c3d 3f5b605a bf03f26d     ..[?=...Z`[?m...
   1aa28:	3f5b2c79 bf044889 3f5af875 bf049e91     y,[?.H..u.Z?....
   1aa38:	3f5ac450 bf04f484 3f5a9009 bf054a62     P.Z?......Z?bJ..
   1aa48:	3f5a5ba0 bf05a02c 3f5a2716 bf05f5e2     .[Z?,....'Z?....
   1aa58:	3f59f26a bf064b82 3f59bd9c bf06a10e     j.Y?.K....Y?....
   1aa68:	3f5988ad bf06f686 3f59539c bf074be8     ..Y?.....SY?.K..
   1aa78:	3f591e6a bf07a136 3f58e917 bf07f66f     j.Y?6.....X?o...
   1aa88:	3f58b3a1 bf084b92 3f587e0b bf08a0a1     ..X?.K...~X?....
   1aa98:	3f584853 bf08f59b 3f581279 bf094a7f     SHX?....y.X?.J..
   1aaa8:	3f57dc7f bf099f4e 3f57a663 bf09f409     ..W?N...c.W?....
   1aab8:	3f577026 bf0a48ad 3f5739c7 bf0a9d3d     &pW?.H...9W?=...
   1aac8:	3f570348 bf0af1b7 3f56cca7 bf0b461c     H.W?......V?.F..
   1aad8:	3f5695e5 bf0b9a6b 3f565f02 bf0beea5     ..V?k...._V?....
   1aae8:	3f5627fe bf0c42c9 3f55f0d9 bf0c96d7     .'V?.B....U?....
   1aaf8:	3f55b993 bf0cead0 3f55822c bf0d3eb3     ..U?....,.U?.>..
   1ab08:	3f554aa4 bf0d9281 3f5512fb bf0de638     .JU?......U?8...
   1ab18:	3f54db31 bf0e39da 3f54a347 bf0e8d65     1.T?.9..G.T?e...
   1ab28:	3f546b3b bf0ee0db 3f54330f bf0f343b     ;kT?.....3T?;4..
   1ab38:	3f53fac3 bf0f8784 3f53c255 bf0fdab8     ..S?....U.S?....
   1ab48:	3f5389c7 bf102dd5 3f535118 bf1080dc     ..S?.-...QS?....
   1ab58:	3f531849 bf10d3cd 3f52df59 bf1126a7     I.S?....Y.R?.&..
   1ab68:	3f52a649 bf11796b 3f526d18 bf11cc19     I.R?ky...mR?....
   1ab78:	3f5233c6 bf121eb0 3f51fa54 bf127130     .3R?....T.Q?0q..
   1ab88:	3f51c0c2 bf12c39a 3f518710 bf1315ee     ..Q?......Q?....
   1ab98:	3f514d3d bf13682a 3f51134a bf13ba50     =MQ?*h..J.Q?P...
   1aba8:	3f50d937 bf140c5f 3f509f03 bf145e58     7.P?_.....P?X^..
   1abb8:	3f5064af bf14b039 3f502a3b bf150204     .dP?9...;*P?....
   1abc8:	3f4fefa8 bf1553b7 3f4fb4f4 bf15a554     ..O?.S....O?T...
   1abd8:	3f4f7a1f bf15f6d9 3f4f3f2b bf164847     .zO?....+?O?GH..
   1abe8:	3f4f0417 bf16999f 3f4ec8e4 bf16eadf     ..O?......N?....
   1abf8:	3f4e8d90 bf173c07 3f4e521c bf178d18     ..N?.<...RN?....
   1ac08:	3f4e1689 bf17de12 3f4ddad5 bf182ef5     ..N?......M?....
   1ac18:	3f4d9f02 bf187fc0 3f4d6310 bf18d073     ..M?.....cM?s...
   1ac28:	3f4d26fd bf19210f 3f4ceacb bf197194     .&M?.!....L?.q..
   1ac38:	3f4cae79 bf19c200 3f4c7208 bf1a1255     y.L?.....rL?U...
   1ac48:	3f4c3578 bf1a6293 3f4bf8c7 bf1ab2b8     x5L?.b....K?....
   1ac58:	3f4bbbf8 bf1b02c6 3f4b7f09 bf1b52bb     ..K?......K?.R..
   1ac68:	3f4b41fa bf1ba299 3f4b04cc bf1bf25f     .AK?......K?_...
   1ac78:	3f4ac77f bf1c420c 3f4a8a13 bf1c91a2     ..J?.B....J?....
   1ac88:	3f4a4c87 bf1ce11f 3f4a0edc bf1d3084     .LJ?......J?.0..
   1ac98:	3f49d112 bf1d7fd1 3f499329 bf1dcf06     ..I?....).I?....
   1aca8:	3f495521 bf1e1e22 3f4916fa bf1e6d26     !UI?".....I?&m..
   1acb8:	3f48d8b3 bf1ebc12 3f489a4e bf1f0ae5     ..H?....N.H?....
   1acc8:	3f485bca bf1f599f 3f481d27 bf1fa841     .[H?.Y..'.H?A...
   1acd8:	3f47de65 bf1ff6cb 3f479f84 bf20453b     e.G?......G?;E .
   1ace8:	3f476085 bf209393 3f472167 bf20e1d2     .`G?.. .g!G?.. .
   1acf8:	3f46e22a bf212ff9 3f46a2ce bf217e06     *.F?./!...F?.~!.
   1ad08:	3f466354 bf21cbfb 3f4623bb bf2219d7     TcF?..!..#F?..".
   1ad18:	3f45e403 bf226799 3f45a42d bf22b543     ..E?.g".-.E?C.".
   1ad28:	3f456439 bf2302d3 3f452426 bf23504b     9dE?..#.&$E?KP#.
   1ad38:	3f44e3f5 bf239da9 3f44a3a5 bf23eaee     ..D?..#...D?..#.
   1ad48:	3f446337 bf24381a 3f4422ab bf24852c     7cD?.8$.."D?,.$.
   1ad58:	3f43e200 bf24d225 3f43a138 bf251f04     ..C?%.$.8.C?..%.
   1ad68:	3f436051 bf256bcb 3f431f4c bf25b877     Q`C?.k%.L.C?w.%.
   1ad78:	3f42de29 bf26050a 3f429ce8 bf265184     ).B?..&...B?.Q&.
   1ad88:	3f425b89 bf269de3 3f421a0b bf26ea2a     .[B?..&...B?*.&.
   1ad98:	3f41d870 bf273656 3f4196b7 bf278268     p.A?V6'...A?h.'.
   1ada8:	3f4154e1 bf27ce61 3f4112ec bf281a40     .TA?a.'...A?@.(.
   1adb8:	3f40d0da bf286605 3f408ea9 bf28b1b0     ..@?.f(...@?..(.
   1adc8:	3f404c5c bf28fd41 3f4009f0 bf2948b8     \L@?A.(...@?.H).
   1add8:	3f3fc767 bf299415 3f3f84c0 bf29df57     g.??..)...??W.).
   1ade8:	3f3f41fc bf2a2a80 3f3eff1b bf2a758e     .A??.**...>?.u*.
   1adf8:	3f3ebc1b bf2ac082 3f3e78ff bf2b0b5b     ..>?..*..x>?[.+.
   1ae08:	3f3e35c5 bf2b561b 3f3df26e bf2ba0bf     .5>?.V+.n.=?..+.
   1ae18:	3f3daef9 bf2beb4a 3f3d6b67 bf2c35b9     ..=?J.+.gk=?.5,.
   1ae28:	3f3d27b8 bf2c800f 3f3ce3ec bf2cca49     .'=?..,...<?I.,.
   1ae38:	3f3ca003 bf2d1469 3f3c5bfc bf2d5e6f     ..<?i.-..[<?o^-.
   1ae48:	3f3c17d9 bf2da859 3f3bd398 bf2df229     ..<?Y.-...;?).-.
   1ae58:	3f3b8f3b bf2e3bde 3f3b4ac1 bf2e8578     ;.;?.;...J;?x...
   1ae68:	3f3b0629 bf2ecef7 3f3ac175 bf2f185b     ).;?....u.:?[./.
   1ae78:	3f3a7ca4 bf2f61a5 3f3a37b7 bf2faad3     .|:?.a/..7:?../.
   1ae88:	3f39f2ac bf2ff3e6 3f39ad85 bf303cde     ..9?../...9?.<0.
   1ae98:	3f396842 bf3085bb 3f3922e1 bf30ce7c     Bh9?..0.."9?|.0.
   1aea8:	3f38dd65 bf311722 3f3897cb bf315fad     e.8?".1...8?._1.
   1aeb8:	3f385216 bf31a81d 3f380c43 bf31f071     .R8?..1.C.8?q.1.
   1aec8:	3f37c655 bf3238aa 3f37804a bf3280c7     U.7?.82.J.7?..2.
   1aed8:	3f373a23 bf32c8c9 3f36f3df bf3310af     #:7?..2...6?..3.
   1aee8:	3f36ad7f bf33587a 3f366704 bf33a029     ..6?zX3..g6?).3.
   1aef8:	3f36206c bf33e7bc 3f35d9b8 bf342f34     l 6?..3...5?4/4.
   1af08:	3f3592e7 bf34768f 3f354bfb bf34bdcf     ..5?.v4..K5?..4.
   1af18:	3f3504f3 bf3504f3 3f34bdcf bf354bfb     ..5?..5...4?.K5.
   1af28:	3f34768f bf3592e7 3f342f34 bf35d9b8     .v4?..5.4/4?..5.
   1af38:	3f33e7bc bf36206c 3f33a029 bf366704     ..3?l 6.).3?.g6.
   1af48:	3f33587a bf36ad7f 3f3310af bf36f3df     zX3?..6...3?..6.
   1af58:	3f32c8c9 bf373a23 3f3280c7 bf37804a     ..2?#:7...2?J.7.
   1af68:	3f3238aa bf37c655 3f31f071 bf380c43     .82?U.7.q.1?C.8.
   1af78:	3f31a81d bf385216 3f315fad bf3897cb     ..1?.R8.._1?..8.
   1af88:	3f311722 bf38dd65 3f30ce7c bf3922e1     ".1?e.8.|.0?."9.
   1af98:	3f3085bb bf396842 3f303cde bf39ad85     ..0?Bh9..<0?..9.
   1afa8:	3f2ff3e6 bf39f2ac 3f2faad3 bf3a37b7     ../?..9.../?.7:.
   1afb8:	3f2f61a5 bf3a7ca4 3f2f185b bf3ac175     .a/?.|:.[./?u.:.
   1afc8:	3f2ecef7 bf3b0629 3f2e8578 bf3b4ac1     ...?).;.x..?.J;.
   1afd8:	3f2e3bde bf3b8f3b 3f2df229 bf3bd398     .;.?;.;.).-?..;.
   1afe8:	3f2da859 bf3c17d9 3f2d5e6f bf3c5bfc     Y.-?..<.o^-?.[<.
   1aff8:	3f2d1469 bf3ca003 3f2cca49 bf3ce3ec     i.-?..<.I.,?..<.
   1b008:	3f2c800f bf3d27b8 3f2c35b9 bf3d6b67     ..,?.'=..5,?gk=.
   1b018:	3f2beb4a bf3daef9 3f2ba0bf bf3df26e     J.+?..=...+?n.=.
   1b028:	3f2b561b bf3e35c5 3f2b0b5b bf3e78ff     .V+?.5>.[.+?.x>.
   1b038:	3f2ac082 bf3ebc1b 3f2a758e bf3eff1b     ..*?..>..u*?..>.
   1b048:	3f2a2a80 bf3f41fc 3f29df57 bf3f84c0     .**?.A?.W.)?..?.
   1b058:	3f299415 bf3fc767 3f2948b8 bf4009f0     ..)?g.?..H)?..@.
   1b068:	3f28fd41 bf404c5c 3f28b1b0 bf408ea9     A.(?\L@...(?..@.
   1b078:	3f286605 bf40d0da 3f281a40 bf4112ec     .f(?..@.@.(?..A.
   1b088:	3f27ce61 bf4154e1 3f278268 bf4196b7     a.'?.TA.h.'?..A.
   1b098:	3f273656 bf41d870 3f26ea2a bf421a0b     V6'?p.A.*.&?..B.
   1b0a8:	3f269de3 bf425b89 3f265184 bf429ce8     ..&?.[B..Q&?..B.
   1b0b8:	3f26050a bf42de29 3f25b877 bf431f4c     ..&?).B.w.%?L.C.
   1b0c8:	3f256bcb bf436051 3f251f04 bf43a138     .k%?Q`C...%?8.C.
   1b0d8:	3f24d225 bf43e200 3f24852c bf4422ab     %.$?..C.,.$?."D.
   1b0e8:	3f24381a bf446337 3f23eaee bf44a3a5     .8$?7cD...#?..D.
   1b0f8:	3f239da9 bf44e3f5 3f23504b bf452426     ..#?..D.KP#?&$E.
   1b108:	3f2302d3 bf456439 3f22b543 bf45a42d     ..#?9dE.C."?-.E.
   1b118:	3f226799 bf45e403 3f2219d7 bf4623bb     .g"?..E..."?.#F.
   1b128:	3f21cbfb bf466354 3f217e06 bf46a2ce     ..!?TcF..~!?..F.
   1b138:	3f212ff9 bf46e22a 3f20e1d2 bf472167     ./!?*.F... ?g!G.
   1b148:	3f209393 bf476085 3f20453b bf479f84     .. ?.`G.;E ?..G.
   1b158:	3f1ff6cb bf47de65 3f1fa841 bf481d27     ...?e.G.A..?'.H.
   1b168:	3f1f599f bf485bca 3f1f0ae5 bf489a4e     .Y.?.[H....?N.H.
   1b178:	3f1ebc12 bf48d8b3 3f1e6d26 bf4916fa     ...?..H.&m.?..I.
   1b188:	3f1e1e22 bf495521 3f1dcf06 bf499329     "..?!UI....?).I.
   1b198:	3f1d7fd1 bf49d112 3f1d3084 bf4a0edc     ...?..I..0.?..J.
   1b1a8:	3f1ce11f bf4a4c87 3f1c91a2 bf4a8a13     ...?.LJ....?..J.
   1b1b8:	3f1c420c bf4ac77f 3f1bf25f bf4b04cc     .B.?..J._..?..K.
   1b1c8:	3f1ba299 bf4b41fa 3f1b52bb bf4b7f09     ...?.AK..R.?..K.
   1b1d8:	3f1b02c6 bf4bbbf8 3f1ab2b8 bf4bf8c7     ...?..K....?..K.
   1b1e8:	3f1a6293 bf4c3578 3f1a1255 bf4c7208     .b.?x5L.U..?.rL.
   1b1f8:	3f19c200 bf4cae79 3f197194 bf4ceacb     ...?y.L..q.?..L.
   1b208:	3f19210f bf4d26fd 3f18d073 bf4d6310     .!.?.&M.s..?.cM.
   1b218:	3f187fc0 bf4d9f02 3f182ef5 bf4ddad5     ...?..M....?..M.
   1b228:	3f17de12 bf4e1689 3f178d18 bf4e521c     ...?..N....?.RN.
   1b238:	3f173c07 bf4e8d90 3f16eadf bf4ec8e4     .<.?..N....?..N.
   1b248:	3f16999f bf4f0417 3f164847 bf4f3f2b     ...?..O.GH.?+?O.
   1b258:	3f15f6d9 bf4f7a1f 3f15a554 bf4fb4f4     ...?.zO.T..?..O.
   1b268:	3f1553b7 bf4fefa8 3f150204 bf502a3b     .S.?..O....?;*P.
   1b278:	3f14b039 bf5064af 3f145e58 bf509f03     9..?.dP.X^.?..P.
   1b288:	3f140c5f bf50d937 3f13ba50 bf51134a     _..?7.P.P..?J.Q.
   1b298:	3f13682a bf514d3d 3f1315ee bf518710     *h.?=MQ....?..Q.
   1b2a8:	3f12c39a bf51c0c2 3f127130 bf51fa54     ...?..Q.0q.?T.Q.
   1b2b8:	3f121eb0 bf5233c6 3f11cc19 bf526d18     ...?.3R....?.mR.
   1b2c8:	3f11796b bf52a649 3f1126a7 bf52df59     ky.?I.R..&.?Y.R.
   1b2d8:	3f10d3cd bf531849 3f1080dc bf535118     ...?I.S....?.QS.
   1b2e8:	3f102dd5 bf5389c7 3f0fdab8 bf53c255     .-.?..S....?U.S.
   1b2f8:	3f0f8784 bf53fac3 3f0f343b bf54330f     ...?..S.;4.?.3T.
   1b308:	3f0ee0db bf546b3b 3f0e8d65 bf54a347     ...?;kT.e..?G.T.
   1b318:	3f0e39da bf54db31 3f0de638 bf5512fb     .9.?1.T.8..?..U.
   1b328:	3f0d9281 bf554aa4 3f0d3eb3 bf55822c     ...?.JU..>.?,.U.
   1b338:	3f0cead0 bf55b993 3f0c96d7 bf55f0d9     ...?..U....?..U.
   1b348:	3f0c42c9 bf5627fe 3f0beea5 bf565f02     .B.?.'V....?._V.
   1b358:	3f0b9a6b bf5695e5 3f0b461c bf56cca7     k..?..V..F.?..V.
   1b368:	3f0af1b7 bf570348 3f0a9d3d bf5739c7     ...?H.W.=..?.9W.
   1b378:	3f0a48ad bf577026 3f09f409 bf57a663     .H.?&pW....?c.W.
   1b388:	3f099f4e bf57dc7f 3f094a7f bf581279     N..?..W..J.?y.X.
   1b398:	3f08f59b bf584853 3f08a0a1 bf587e0b     ...?SHX....?.~X.
   1b3a8:	3f084b92 bf58b3a1 3f07f66f bf58e917     .K.?..X.o..?..X.
   1b3b8:	3f07a136 bf591e6a 3f074be8 bf59539c     6..?j.Y..K.?.SY.
   1b3c8:	3f06f686 bf5988ad 3f06a10e bf59bd9c     ...?..Y....?..Y.
   1b3d8:	3f064b82 bf59f26a 3f05f5e2 bf5a2716     .K.?j.Y....?.'Z.
   1b3e8:	3f05a02c bf5a5ba0 3f054a62 bf5a9009     ,..?.[Z.bJ.?..Z.
   1b3f8:	3f04f484 bf5ac450 3f049e91 bf5af875     ...?P.Z....?u.Z.
   1b408:	3f044889 bf5b2c79 3f03f26d bf5b605a     .H.?y,[.m..?Z`[.
   1b418:	3f039c3d bf5b941a 3f0345f8 bf5bc7b8     =..?..[..E.?..[.
   1b428:	3f02ef9f bf5bfb34 3f029932 bf5c2e8e     ...?4.[.2..?..\.
   1b438:	3f0242b1 bf5c61c7 3f01ec1c bf5c94dd     .B.?.a\....?..\.
   1b448:	3f019573 bf5cc7d1 3f013eb5 bf5cfaa3     s..?..\..>.?..\.
   1b458:	3f00e7e4 bf5d2d53 3f0090ff bf5d5fe1     ...?S-]....?._].
   1b468:	3f003a06 bf5d924d 3effc5f3 bf5dc497     .:.?M.]....>..].
   1b478:	3eff17b2 bf5df6be 3efe694a bf5e28c3     ...>..].Ji.>.(^.
   1b488:	3efdbabb bf5e5aa6 3efd0c04 bf5e8c67     ...>.Z^....>g.^.
   1b498:	3efc5d27 bf5ebe05 3efbae22 bf5eef81     '].>..^."..>..^.
   1b4a8:	3efafef7 bf5f20db 3efa4fa5 bf5f5212     ...>. _..O.>.R_.
   1b4b8:	3ef9a02d bf5f8327 3ef8f08e bf5fb419     -..>'._....>.._.
   1b4c8:	3ef840c8 bf5fe4e9 3ef790dc bf601596     .@.>.._....>..`.
   1b4d8:	3ef6e0cb bf604621 3ef63093 bf607689     ...>!F`..0.>.v`.
   1b4e8:	3ef58035 bf60a6cf 3ef4cfb1 bf60d6f2     5..>..`....>..`.
   1b4f8:	3ef41f07 bf6106f2 3ef36e38 bf6136d0     ...>..a.8n.>.6a.
   1b508:	3ef2bd43 bf61668a 3ef20c29 bf619622     C..>.fa.)..>".a.
   1b518:	3ef15aea bf61c598 3ef0a985 bf61f4ea     .Z.>..a....>..a.
   1b528:	3eeff7fb bf62241a 3eef464c bf625326     ...>.$b.LF.>&Sb.
   1b538:	3eee9479 bf628210 3eede280 bf62b0d7     y..>..b....>..b.
   1b548:	3eed3063 bf62df7b 3eec7e21 bf630dfc     c0.>{.b.!~.>..c.
   1b558:	3eebcbbb bf633c5a 3eeb1930 bf636a95     ...>Z<c.0..>.jc.
   1b568:	3eea6681 bf6398ac 3ee9b3ae bf63c6a1     .f.>..c....>..c.
   1b578:	3ee900b7 bf63f473 3ee84d9c bf642221     ...>s.c..M.>!"d.
   1b588:	3ee79a5d bf644fac 3ee6e6fb bf647d14     ]..>.Od....>.}d.
   1b598:	3ee63375 bf64aa59 3ee57fcb bf64d77b     u3.>Y.d....>{.d.
   1b5a8:	3ee4cbfe bf650479 3ee4180e bf653154     ...>y.e....>T1e.
   1b5b8:	3ee363fa bf655e0b 3ee2afc4 bf658aa0     .c.>.^e....>..e.
   1b5c8:	3ee1fb6a bf65b710 3ee146ee bf65e35e     j..>..e..F.>^.e.
   1b5d8:	3ee0924f bf660f88 3edfdd8d bf663b8e     O..>..f....>.;f.
   1b5e8:	3edf28a9 bf666771 3ede73a2 bf669330     .(.>qgf..s.>0.f.
   1b5f8:	3eddbe79 bf66becc 3edd092e bf66ea45     y..>..f....>E.f.
   1b608:	3edc53c1 bf671599 3edb9e31 bf6740ca     .S.>..g.1..>.@g.
   1b618:	3edae880 bf676bd8 3eda32ad bf6796c1     ...>.kg..2.>..g.
   1b628:	3ed97cb9 bf67c187 3ed8c6a3 bf67ec2a     .|.>..g....>*.g.
   1b638:	3ed8106b bf6816a8 3ed75a13 bf684103     k..>..h..Z.>.Ah.
   1b648:	3ed6a399 bf686b39 3ed5ecfd bf68954c     ...>9kh....>L.h.
   1b658:	3ed53641 bf68bf3c 3ed47f64 bf68e907     A6.><.h.d..>..h.
   1b668:	3ed3c867 bf6912ae 3ed31148 bf693c32     g..>..i.H..>2<i.
   1b678:	3ed25a09 bf696591 3ed1a2aa bf698ecc     .Z.>.ei....>..i.
   1b688:	3ed0eb2a bf69b7e4 3ed0338a bf69e0d7     *..>..i..3.>..i.
   1b698:	3ecf7bca bf6a09a7 3ecec3ea bf6a3252     .{.>..j....>R2j.
   1b6a8:	3ece0bea bf6a5ad9 3ecd53ca bf6a833c     ...>.Zj..S.><.j.
   1b6b8:	3ecc9b8b bf6aab7b 3ecbe32c bf6ad395     ...>{.j.,..>..j.
   1b6c8:	3ecb2aae bf6afb8c 3eca7210 bf6b235e     .*.>..j..r.>^#k.
   1b6d8:	3ec9b953 bf6b4b0c 3ec90077 bf6b7295     S..>.Kk.w..>.rk.
   1b6e8:	3ec8477c bf6b99fb 3ec78e62 bf6bc13b     |G.>..k.b..>;.k.
   1b6f8:	3ec6d529 bf6be858 3ec61bd2 bf6c0f50     )..>X.k....>P.l.
   1b708:	3ec5625c bf6c3624 3ec4a8c8 bf6c5cd4     \b.>$6l....>.\l.
   1b718:	3ec3ef15 bf6c835e 3ec33544 bf6ca9c5     ...>^.l.D5.>..l.
   1b728:	3ec27b55 bf6cd007 3ec1c148 bf6cf624     U{.>..l.H..>$.l.
   1b738:	3ec1071e bf6d1c1d 3ec04cd5 bf6d41f2     ...>..m..L.>.Am.
   1b748:	3ebf926f bf6d67a1 3ebed7eb bf6d8d2d     o..>.gm....>-.m.
   1b758:	3ebe1d4a bf6db293 3ebd628b bf6dd7d5     J..>..m..b.>..m.
   1b768:	3ebca7af bf6dfcf2 3ebbecb6 bf6e21eb     ...>..m....>.!n.
   1b778:	3ebb31a0 bf6e46be 3eba766e bf6e6b6d     .1.>.Fn.nv.>mkn.
   1b788:	3eb9bb1e bf6e8ff8 3eb8ffb2 bf6eb45d     ...>..n....>].n.
   1b798:	3eb8442a bf6ed89e 3eb78884 bf6efcba     *D.>..n....>..n.
   1b7a8:	3eb6ccc3 bf6f20b0 3eb610e6 bf6f4483     ...>. o....>.Do.
   1b7b8:	3eb554ec bf6f6830 3eb498d6 bf6f8bb8     .T.>0ho....>..o.
   1b7c8:	3eb3dca5 bf6faf1b 3eb32058 bf6fd25a     ...>..o.X .>Z.o.
   1b7d8:	3eb263ef bf6ff573 3eb1a76b bf701867     .c.>s.o.k..>g.p.
   1b7e8:	3eb0eacb bf703b37 3eb02e10 bf705de1     ...>7;p....>.]p.
   1b7f8:	3eaf713a bf708066 3eaeb449 bf70a2c6     :q.>f.p.I..>..p.
   1b808:	3eadf73c bf70c502 3ead3a15 bf70e717     <..>..p..:.>..p.
   1b818:	3eac7cd4 bf710908 3eabbf77 bf712ad4     .|.>..q.w..>.*q.
   1b828:	3eab0201 bf714c7a 3eaa446f bf716dfb     ...>zLq.oD.>.mq.
   1b838:	3ea986c4 bf718f57 3ea8c8fe bf71b08e     ...>W.q....>..q.
   1b848:	3ea80b1f bf71d19f 3ea74d25 bf71f28c     ...>..q.%M.>..q.
   1b858:	3ea68f12 bf721352 3ea5d0e5 bf7233f4     ...>R.r....>.3r.
   1b868:	3ea5129f bf725470 3ea4543f bf7274c7     ...>pTr.?T.>.tr.
   1b878:	3ea395c5 bf7294f8 3ea2d733 bf72b504     ...>..r.3..>..r.
   1b888:	3ea21887 bf72d4eb 3ea159c2 bf72f4ac     ...>..r..Y.>..r.
   1b898:	3ea09ae5 bf731447 3e9fdbee bf7333be     ...>G.s....>.3s.
   1b8a8:	3e9f1cdf bf73530e 3e9e5db8 bf737239     ...>.Ss..].>9rs.
   1b8b8:	3e9d9e78 bf73913f 3e9cdf20 bf73b01f     x..>?.s. ..>..s.
   1b8c8:	3e9c1faf bf73ced9 3e9b6027 bf73ed6e     ...>..s.'`.>n.s.
   1b8d8:	3e9aa086 bf740bdd 3e99e0ce bf742a27     ...>..t....>'*t.
   1b8e8:	3e9920fe bf74484b 3e986116 bf746649     . .>KHt..a.>Ift.
   1b8f8:	3e97a117 bf748422 3e96e100 bf74a1d5     ...>".t....>..t.
   1b908:	3e9620d2 bf74bf62 3e95608d bf74dcc9     . .>b.t..`.>..t.
   1b918:	3e94a031 bf74fa0b 3e93dfbf bf751727     1..>..t....>'.u.
   1b928:	3e931f35 bf75341d 3e925e94 bf7550ed     5..>.4u..^.>.Pu.
   1b938:	3e919ddd bf756d97 3e90dd10 bf758a1c     ...>.mu....>..u.
   1b948:	3e901c2c bf75a67b 3e8f5b32 bf75c2b3     ,..>{.u.2[.>..u.
   1b958:	3e8e9a22 bf75dec6 3e8dd8fc bf75fab3     "..>..u....>..u.
   1b968:	3e8d17c0 bf76167a 3e8c566e bf76321b     ...>z.v.nV.>.2v.
   1b978:	3e8b9507 bf764d97 3e8ad38a bf7668ec     ...>.Mv....>.hv.
   1b988:	3e8a11f8 bf76841b 3e895050 bf769f24     ...>..v.PP.>$.v.
   1b998:	3e888e93 bf76ba07 3e87ccc1 bf76d4c4     ...>..v....>..v.
   1b9a8:	3e870ada bf76ef5b 3e8648df bf7709cc     ...>[.v..H.>..w.
   1b9b8:	3e8586ce bf772417 3e84c4aa bf773e3c     ...>.$w....><>w.
   1b9c8:	3e840270 bf77583a 3e834022 bf777213     p..>:Xw."@.>.rw.
   1b9d8:	3e827dc0 bf778bc5 3e81bb4a bf77a551     .}.>..w.J..>Q.w.
   1b9e8:	3e80f8c0 bf77beb7 3e803622 bf77d7f7     ...>..w."6.>..w.
   1b9f8:	3e7ee6e1 bf77f110 3e7d6156 bf780a04     ..~>..w.Va}>..x.
   1ba08:	3e7bdba4 bf7822d1 3e7a55cb bf783b77     ..{>."x..Uz>w;x.
   1ba18:	3e78cfcc bf7853f8 3e7749a6 bf786c52     ..x>.Sx..Iw>Rlx.
   1ba28:	3e75c35a bf788486 3e743ce8 bf789c93     Z.u>..x..<t>..x.
   1ba38:	3e72b651 bf78b47b 3e712f94 bf78cc3b     Q.r>{.x../q>;.x.
   1ba48:	3e6fa8b2 bf78e3d6 3e6e21ab bf78fb4a     ..o>..x..!n>J.x.
   1ba58:	3e6c9a7f bf791298 3e6b132f bf7929bf     ..l>..y./.k>.)y.
   1ba68:	3e698bba bf7940c0 3e680422 bf79579a     ..i>.@y.".h>.Wy.
   1ba78:	3e667c66 bf796e4e 3e64f486 bf7984dc     f|f>Nny...d>..y.
   1ba88:	3e636c83 bf799b43 3e61e45c bf79b183     .lc>C.y.\.a>..y.
   1ba98:	3e605c13 bf79c79d 3e5ed3a8 bf79dd91     .\`>..y...^>..y.
   1baa8:	3e5d4b1a bf79f35e 3e5bc26a bf7a0904     .K]>^.y.j.[>..z.
   1bab8:	3e5a3997 bf7a1e84 3e58b0a4 bf7a33dd     .9Z>..z...X>.3z.
   1bac8:	3e57278f bf7a4910 3e559e58 bf7a5e1c     .'W>.Iz.X.U>.^z.
   1bad8:	3e541501 bf7a7302 3e528b89 bf7a87c1     ..T>.sz...R>..z.
   1bae8:	3e5101f1 bf7a9c59 3e4f7838 bf7ab0cb     ..Q>Y.z.8xO>..z.
   1baf8:	3e4dee60 bf7ac516 3e4c6467 bf7ad93a     `.M>..z.gdL>:.z.
   1bb08:	3e4ada4f bf7aed37 3e495018 bf7b010e     O.J>7.z..PI>..{.
   1bb18:	3e47c5c2 bf7b14be 3e463b4d bf7b2848     ..G>..{.M;F>H({.
   1bb28:	3e44b0b9 bf7b3bab 3e432607 bf7b4ee7     ..D>.;{..&C>.N{.
   1bb38:	3e419b37 bf7b61fc 3e401049 bf7b74ea     7.A>.a{.I.@>.t{.
   1bb48:	3e3e853e bf7b87b2 3e3cfa15 bf7b9a53     >.>>..{...<>S.{.
   1bb58:	3e3b6ecf bf7baccd 3e39e36c bf7bbf20     .n;>..{.l.9> .{.
   1bb68:	3e3857ec bf7bd14d 3e36cc50 bf7be353     .W8>M.{.P.6>S.{.
   1bb78:	3e354098 bf7bf531 3e33b4c4 bf7c06e9     .@5>1.{...3>..|.
   1bb88:	3e3228d4 bf7c187a 3e309cc9 bf7c29e5     .(2>z.|...0>.)|.
   1bb98:	3e2f10a2 bf7c3b28 3e2d8461 bf7c4c44     ../>(;|.a.->DL|.
   1bba8:	3e2bf804 bf7c5d3a 3e2a6b8d bf7c6e08     ..+>:]|..k*>.n|.
   1bbb8:	3e28defc bf7c7eb0 3e275251 bf7c8f31     ..(>.~|.QR'>1.|.
   1bbc8:	3e25c58c bf7c9f8a 3e2438ad bf7cafbd     ..%>..|..8$>..|.
   1bbd8:	3e22abb6 bf7cbfc9 3e211ea5 bf7ccfae     ..">..|...!>..|.
   1bbe8:	3e1f917b bf7cdf6c 3e1e0438 bf7cef03     {..>l.|.8..>..|.
   1bbf8:	3e1c76de bf7cfe73 3e1ae96b bf7d0dbc     .v.>s.|.k..>..}.
   1bc08:	3e195be0 bf7d1cdd 3e17ce3d bf7d2bd8     .[.>..}.=..>.+}.
   1bc18:	3e164083 bf7d3aac 3e14b2b2 bf7d4959     .@.>.:}....>YI}.
   1bc28:	3e1324ca bf7d57de 3e1196cc bf7d663d     .$.>.W}....>=f}.
   1bc38:	3e1008b7 bf7d7474 3e0e7a8b bf7d8285     ...>tt}..z.>..}.
   1bc48:	3e0cec4a bf7d906e 3e0b5df3 bf7d9e30     J..>n.}..].>0.}.
   1bc58:	3e09cf86 bf7dabcc 3e084105 bf7db940     ...>..}..A.>@.}.
   1bc68:	3e06b26e bf7dc68c 3e0523c2 bf7dd3b2     n..>..}..#.>..}.
   1bc78:	3e039502 bf7de0b1 3e02062e bf7ded88     ...>..}....>..}.
   1bc88:	3e007745 bf7dfa38 3dfdd092 bf7e06c2     Ew.>8.}....=..~.
   1bc98:	3dfab273 bf7e1324 3df7942c bf7e1f5e     s..=$.~.,..=^.~.
   1bca8:	3df475c0 bf7e2b72 3df1572e bf7e375e     .u.=r+~..W.=^7~.
   1bcb8:	3dee3876 bf7e4323 3deb199a bf7e4ec1     v8.=#C~....=.N~.
   1bcc8:	3de7fa9a bf7e5a38 3de4db76 bf7e6588     ...=8Z~.v..=.e~.
   1bcd8:	3de1bc2e bf7e70b0 3dde9cc4 bf7e7bb1     ...=.p~....=.{~.
   1bce8:	3ddb7d37 bf7e868b 3dd85d89 bf7e913d     7}.=..~..].==.~.
   1bcf8:	3dd53db9 bf7e9bc9 3dd21dc8 bf7ea62d     .=.=..~....=-.~.
   1bd08:	3dcefdb7 bf7eb069 3dcbdd86 bf7eba7f     ...=i.~....=..~.
   1bd18:	3dc8bd36 bf7ec46d 3dc59cc6 bf7ece34     6..=m.~....=4.~.
   1bd28:	3dc27c39 bf7ed7d4 3dbf5b8d bf7ee14c     9|.=..~..[.=L.~.
   1bd38:	3dbc3ac3 bf7eea9d 3db919dd bf7ef3c7     .:.=..~....=..~.
   1bd48:	3db5f8da bf7efcc9 3db2d7bb bf7f05a4     ...=..~....=....
   1bd58:	3dafb680 bf7f0e58 3dac952b bf7f16e4     ...=X...+..=....
   1bd68:	3da973ba bf7f1f49 3da65230 bf7f2787     .s.=I...0R.=.'..
   1bd78:	3da3308c bf7f2f9d 3da00ecf bf7f378d     .0.=./.....=.7..
   1bd88:	3d9cecf9 bf7f3f54 3d99cb0a bf7f46f4     ...=T?.....=.F..
   1bd98:	3d96a905 bf7f4e6d 3d9386e7 bf7f55bf     ...=mN.....=.U..
   1bda8:	3d9064b4 bf7f5ce9 3d8d426a bf7f63ec     .d.=.\..jB.=.c..
   1bdb8:	3d8a200a bf7f6ac7 3d86fd94 bf7f717b     . .=.j.....={q..
   1bdc8:	3d83db0a bf7f7808 3d80b86c bf7f7e6d     ...=.x..l..=m~..
   1bdd8:	3d7b2b74 bf7f84ab 3d74e5e9 bf7f8ac2     t+{=......t=....
   1bde8:	3d6ea038 bf7f90b1 3d685a62 bf7f9678     8.n=....bZh=x...
   1bdf8:	3d621468 bf7f9c18 3d5bce4c bf7fa191     h.b=....L.[=....
   1be08:	3d55880e bf7fa6e3 3d4f41af bf7fac0d     ..U=.....AO=....
   1be18:	3d48fb2f bf7fb10f 3d42b491 bf7fb5ea     /.H=......B=....
   1be28:	3d3c6dd5 bf7fba9e 3d3626fc bf7fbf2a     .m<=.....&6=*...
   1be38:	3d2fe007 bf7fc38f 3d2998f6 bf7fc7cc     ../=......)=....
   1be48:	3d2351cc bf7fcbe2 3d1d0a88 bf7fcfd1     .Q#=.......=....
   1be58:	3d16c32c bf7fd398 3d107bb8 bf7fd737     ,..=.....{.=7...
   1be68:	3d0a342f bf7fdaaf 3d03ec90 bf7fde00     /4.=.......=....
   1be78:	3cfb49b9 bf7fe129 3ceeba2d bf7fe42b     .I.<)...-..<+...
   1be88:	3ce22a7b bf7fe705 3cd59aa6 bf7fe9b8     {*.<.......<....
   1be98:	3cc90ab0 bf7fec43 3cbc7a9b bf7feea7     ...<C....z.<....
   1bea8:	3cafea69 bf7ff0e3 3ca35a1c bf7ff2f8     i..<.....Z.<....
   1beb8:	3c96c9b6 bf7ff4e6 3c8a3938 bf7ff6ac     ...<....89.<....
   1bec8:	3c7b514b bf7ff84a 3c623000 bf7ff9c1     KQ{<J....0b<....
   1bed8:	3c490e90 bf7ffb11 3c2fed02 bf7ffc39     ..I<....../<9...
   1bee8:	3c16cb59 bf7ffd39 3bfb5330 bf7ffe13     Y..<9...0S.;....
   1bef8:	3bc90f89 bf7ffec4 3b96cbc1 bf7fff4e     ...;.......;N...
   1bf08:	3b490fc7 bf7fffb1 3ac90fd4 bf7fffec     ..I;.......:....

0001bf18 <twiddleCoef_256>:
   1bf18:	3f800000 00000000 3f7fec43 3cc90ab0     ...?....C..?...<
   1bf28:	3f7fb10f 3d48fb2f 3f7f4e6d 3d96a905     ...?/.H=mN.?...=
   1bf38:	3f7ec46d 3dc8bd36 3f7e1324 3dfab273     m.~?6..=$.~?s..=
   1bf48:	3f7d3aac 3e164083 3f7c3b28 3e2f10a2     .:}?.@.>(;|?../>
   1bf58:	3f7b14be 3e47c5c2 3f79c79d 3e605c13     ..{?..G>..y?.\`>
   1bf68:	3f7853f8 3e78cfcc 3f76ba07 3e888e93     .Sx?..x>..v?...>
   1bf78:	3f74fa0b 3e94a031 3f731447 3ea09ae5     ..t?1..>G.s?...>
   1bf88:	3f710908 3eac7cd4 3f6ed89e 3eb8442a     ..q?.|.>..n?*D.>
   1bf98:	3f6c835e 3ec3ef15 3f6a09a7 3ecf7bca     ^.l?...>..j?.{.>
   1bfa8:	3f676bd8 3edae880 3f64aa59 3ee63375     .kg?...>Y.d?u3.>
   1bfb8:	3f61c598 3ef15aea 3f5ebe05 3efc5d27     ..a?.Z.>..^?'].>
   1bfc8:	3f5b941a 3f039c3d 3f584853 3f08f59b     ..[?=..?SHX?...?
   1bfd8:	3f54db31 3f0e39da 3f514d3d 3f13682a     1.T?.9.?=MQ?*h.?
   1bfe8:	3f4d9f02 3f187fc0 3f49d112 3f1d7fd1     ..M?...?..I?...?
   1bff8:	3f45e403 3f226799 3f41d870 3f273656     ..E?.g"?p.A?V6'?
   1c008:	3f3daef9 3f2beb4a 3f396842 3f3085bb     ..=?J.+?Bh9?..0?
   1c018:	3f3504f3 3f3504f3 3f3085bb 3f396842     ..5?..5?..0?Bh9?
   1c028:	3f2beb4a 3f3daef9 3f273656 3f41d870     J.+?..=?V6'?p.A?
   1c038:	3f226799 3f45e403 3f1d7fd1 3f49d112     .g"?..E?...?..I?
   1c048:	3f187fc0 3f4d9f02 3f13682a 3f514d3d     ...?..M?*h.?=MQ?
   1c058:	3f0e39da 3f54db31 3f08f59b 3f584853     .9.?1.T?...?SHX?
   1c068:	3f039c3d 3f5b941a 3efc5d27 3f5ebe05     =..?..[?'].>..^?
   1c078:	3ef15aea 3f61c598 3ee63375 3f64aa59     .Z.>..a?u3.>Y.d?
   1c088:	3edae880 3f676bd8 3ecf7bca 3f6a09a7     ...>.kg?.{.>..j?
   1c098:	3ec3ef15 3f6c835e 3eb8442a 3f6ed89e     ...>^.l?*D.>..n?
   1c0a8:	3eac7cd4 3f710908 3ea09ae5 3f731447     .|.>..q?...>G.s?
   1c0b8:	3e94a031 3f74fa0b 3e888e93 3f76ba07     1..>..t?...>..v?
   1c0c8:	3e78cfcc 3f7853f8 3e605c13 3f79c79d     ..x>.Sx?.\`>..y?
   1c0d8:	3e47c5c2 3f7b14be 3e2f10a2 3f7c3b28     ..G>..{?../>(;|?
   1c0e8:	3e164083 3f7d3aac 3dfab273 3f7e1324     .@.>.:}?s..=$.~?
   1c0f8:	3dc8bd36 3f7ec46d 3d96a905 3f7f4e6d     6..=m.~?...=mN.?
   1c108:	3d48fb2f 3f7fb10f 3cc90ab0 3f7fec43     /.H=...?...<C..?
   1c118:	00000000 3f800000 bcc90ab0 3f7fec43     .......?....C..?
   1c128:	bd48fb2f 3f7fb10f bd96a905 3f7f4e6d     /.H....?....mN.?
   1c138:	bdc8bd36 3f7ec46d bdfab273 3f7e1324     6...m.~?s...$.~?
   1c148:	be164083 3f7d3aac be2f10a2 3f7c3b28     .@...:}?../.(;|?
   1c158:	be47c5c2 3f7b14be be605c13 3f79c79d     ..G...{?.\`...y?
   1c168:	be78cfcc 3f7853f8 be888e93 3f76ba07     ..x..Sx?......v?
   1c178:	be94a031 3f74fa0b bea09ae5 3f731447     1.....t?....G.s?
   1c188:	beac7cd4 3f710908 beb8442a 3f6ed89e     .|....q?*D....n?
   1c198:	bec3ef15 3f6c835e becf7bca 3f6a09a7     ....^.l?.{....j?
   1c1a8:	bedae880 3f676bd8 bee63375 3f64aa59     .....kg?u3..Y.d?
   1c1b8:	bef15aea 3f61c598 befc5d27 3f5ebe05     .Z....a?']....^?
   1c1c8:	bf039c3d 3f5b941a bf08f59b 3f584853     =.....[?....SHX?
   1c1d8:	bf0e39da 3f54db31 bf13682a 3f514d3d     .9..1.T?*h..=MQ?
   1c1e8:	bf187fc0 3f4d9f02 bf1d7fd1 3f49d112     ......M?......I?
   1c1f8:	bf226799 3f45e403 bf273656 3f41d870     .g"...E?V6'.p.A?
   1c208:	bf2beb4a 3f3daef9 bf3085bb 3f396842     J.+...=?..0.Bh9?
   1c218:	bf3504f3 3f3504f3 bf396842 3f3085bb     ..5...5?Bh9...0?
   1c228:	bf3daef9 3f2beb4a bf41d870 3f273656     ..=.J.+?p.A.V6'?
   1c238:	bf45e403 3f226799 bf49d112 3f1d7fd1     ..E..g"?..I....?
   1c248:	bf4d9f02 3f187fc0 bf514d3d 3f13682a     ..M....?=MQ.*h.?
   1c258:	bf54db31 3f0e39da bf584853 3f08f59b     1.T..9.?SHX....?
   1c268:	bf5b941a 3f039c3d bf5ebe05 3efc5d27     ..[.=..?..^.'].>
   1c278:	bf61c598 3ef15aea bf64aa59 3ee63375     ..a..Z.>Y.d.u3.>
   1c288:	bf676bd8 3edae880 bf6a09a7 3ecf7bca     .kg....>..j..{.>
   1c298:	bf6c835e 3ec3ef15 bf6ed89e 3eb8442a     ^.l....>..n.*D.>
   1c2a8:	bf710908 3eac7cd4 bf731447 3ea09ae5     ..q..|.>G.s....>
   1c2b8:	bf74fa0b 3e94a031 bf76ba07 3e888e93     ..t.1..>..v....>
   1c2c8:	bf7853f8 3e78cfcc bf79c79d 3e605c13     .Sx...x>..y..\`>
   1c2d8:	bf7b14be 3e47c5c2 bf7c3b28 3e2f10a2     ..{...G>(;|.../>
   1c2e8:	bf7d3aac 3e164083 bf7e1324 3dfab273     .:}..@.>$.~.s..=
   1c2f8:	bf7ec46d 3dc8bd36 bf7f4e6d 3d96a905     m.~.6..=mN.....=
   1c308:	bf7fb10f 3d48fb2f bf7fec43 3cc90ab0     ..../.H=C......<
   1c318:	bf800000 00000000 bf7fec43 bcc90ab0     ........C.......
   1c328:	bf7fb10f bd48fb2f bf7f4e6d bd96a905     ..../.H.mN......
   1c338:	bf7ec46d bdc8bd36 bf7e1324 bdfab273     m.~.6...$.~.s...
   1c348:	bf7d3aac be164083 bf7c3b28 be2f10a2     .:}..@..(;|.../.
   1c358:	bf7b14be be47c5c2 bf79c79d be605c13     ..{...G...y..\`.
   1c368:	bf7853f8 be78cfcc bf76ba07 be888e93     .Sx...x...v.....
   1c378:	bf74fa0b be94a031 bf731447 bea09ae5     ..t.1...G.s.....
   1c388:	bf710908 beac7cd4 bf6ed89e beb8442a     ..q..|....n.*D..
   1c398:	bf6c835e bec3ef15 bf6a09a7 becf7bca     ^.l.......j..{..
   1c3a8:	bf676bd8 bedae880 bf64aa59 bee63375     .kg.....Y.d.u3..
   1c3b8:	bf61c598 bef15aea bf5ebe05 befc5d27     ..a..Z....^.']..
   1c3c8:	bf5b941a bf039c3d bf584853 bf08f59b     ..[.=...SHX.....
   1c3d8:	bf54db31 bf0e39da bf514d3d bf13682a     1.T..9..=MQ.*h..
   1c3e8:	bf4d9f02 bf187fc0 bf49d112 bf1d7fd1     ..M.......I.....
   1c3f8:	bf45e403 bf226799 bf41d870 bf273656     ..E..g".p.A.V6'.
   1c408:	bf3daef9 bf2beb4a bf396842 bf3085bb     ..=.J.+.Bh9...0.
   1c418:	bf3504f3 bf3504f3 bf3085bb bf396842     ..5...5...0.Bh9.
   1c428:	bf2beb4a bf3daef9 bf273656 bf41d870     J.+...=.V6'.p.A.
   1c438:	bf226799 bf45e403 bf1d7fd1 bf49d112     .g"...E.......I.
   1c448:	bf187fc0 bf4d9f02 bf13682a bf514d3d     ......M.*h..=MQ.
   1c458:	bf0e39da bf54db31 bf08f59b bf584853     .9..1.T.....SHX.
   1c468:	bf039c3d bf5b941a befc5d27 bf5ebe05     =.....[.']....^.
   1c478:	bef15aea bf61c598 bee63375 bf64aa59     .Z....a.u3..Y.d.
   1c488:	bedae880 bf676bd8 becf7bca bf6a09a7     .....kg..{....j.
   1c498:	bec3ef15 bf6c835e beb8442a bf6ed89e     ....^.l.*D....n.
   1c4a8:	beac7cd4 bf710908 bea09ae5 bf731447     .|....q.....G.s.
   1c4b8:	be94a031 bf74fa0b be888e93 bf76ba07     1.....t.......v.
   1c4c8:	be78cfcc bf7853f8 be605c13 bf79c79d     ..x..Sx..\`...y.
   1c4d8:	be47c5c2 bf7b14be be2f10a2 bf7c3b28     ..G...{.../.(;|.
   1c4e8:	be164083 bf7d3aac bdfab273 bf7e1324     .@...:}.s...$.~.
   1c4f8:	bdc8bd36 bf7ec46d bd96a905 bf7f4e6d     6...m.~.....mN..
   1c508:	bd48fb2f bf7fb10f bcc90ab0 bf7fec43     /.H.........C...
   1c518:	80000000 bf800000 3cc90ab0 bf7fec43     ...........<C...
   1c528:	3d48fb2f bf7fb10f 3d96a905 bf7f4e6d     /.H=.......=mN..
   1c538:	3dc8bd36 bf7ec46d 3dfab273 bf7e1324     6..=m.~.s..=$.~.
   1c548:	3e164083 bf7d3aac 3e2f10a2 bf7c3b28     .@.>.:}.../>(;|.
   1c558:	3e47c5c2 bf7b14be 3e605c13 bf79c79d     ..G>..{..\`>..y.
   1c568:	3e78cfcc bf7853f8 3e888e93 bf76ba07     ..x>.Sx....>..v.
   1c578:	3e94a031 bf74fa0b 3ea09ae5 bf731447     1..>..t....>G.s.
   1c588:	3eac7cd4 bf710908 3eb8442a bf6ed89e     .|.>..q.*D.>..n.
   1c598:	3ec3ef15 bf6c835e 3ecf7bca bf6a09a7     ...>^.l..{.>..j.
   1c5a8:	3edae880 bf676bd8 3ee63375 bf64aa59     ...>.kg.u3.>Y.d.
   1c5b8:	3ef15aea bf61c598 3efc5d27 bf5ebe05     .Z.>..a.'].>..^.
   1c5c8:	3f039c3d bf5b941a 3f08f59b bf584853     =..?..[....?SHX.
   1c5d8:	3f0e39da bf54db31 3f13682a bf514d3d     .9.?1.T.*h.?=MQ.
   1c5e8:	3f187fc0 bf4d9f02 3f1d7fd1 bf49d112     ...?..M....?..I.
   1c5f8:	3f226799 bf45e403 3f273656 bf41d870     .g"?..E.V6'?p.A.
   1c608:	3f2beb4a bf3daef9 3f3085bb bf396842     J.+?..=...0?Bh9.
   1c618:	3f3504f3 bf3504f3 3f396842 bf3085bb     ..5?..5.Bh9?..0.
   1c628:	3f3daef9 bf2beb4a 3f41d870 bf273656     ..=?J.+.p.A?V6'.
   1c638:	3f45e403 bf226799 3f49d112 bf1d7fd1     ..E?.g"...I?....
   1c648:	3f4d9f02 bf187fc0 3f514d3d bf13682a     ..M?....=MQ?*h..
   1c658:	3f54db31 bf0e39da 3f584853 bf08f59b     1.T?.9..SHX?....
   1c668:	3f5b941a bf039c3d 3f5ebe05 befc5d27     ..[?=.....^?']..
   1c678:	3f61c598 bef15aea 3f64aa59 bee63375     ..a?.Z..Y.d?u3..
   1c688:	3f676bd8 bedae880 3f6a09a7 becf7bca     .kg?......j?.{..
   1c698:	3f6c835e bec3ef15 3f6ed89e beb8442a     ^.l?......n?*D..
   1c6a8:	3f710908 beac7cd4 3f731447 bea09ae5     ..q?.|..G.s?....
   1c6b8:	3f74fa0b be94a031 3f76ba07 be888e93     ..t?1.....v?....
   1c6c8:	3f7853f8 be78cfcc 3f79c79d be605c13     .Sx?..x...y?.\`.
   1c6d8:	3f7b14be be47c5c2 3f7c3b28 be2f10a2     ..{?..G.(;|?../.
   1c6e8:	3f7d3aac be164083 3f7e1324 bdfab273     .:}?.@..$.~?s...
   1c6f8:	3f7ec46d bdc8bd36 3f7f4e6d bd96a905     m.~?6...mN.?....
   1c708:	3f7fb10f bd48fb2f 3f7fec43 bcc90ab0     ...?/.H.C..?....

0001c718 <twiddleCoef_16>:
   1c718:	3f800000 00000000 3f6c835e 3ec3ef15     ...?....^.l?...>
   1c728:	3f3504f3 3f3504f3 3ec3ef15 3f6c835e     ..5?..5?...>^.l?
   1c738:	00000000 3f800000 bec3ef15 3f6c835e     .......?....^.l?
   1c748:	bf3504f3 3f3504f3 bf6c835e 3ec3ef15     ..5...5?^.l....>
   1c758:	bf800000 00000000 bf6c835e bec3ef15     ........^.l.....
   1c768:	bf3504f3 bf3504f3 bec3ef15 bf6c835e     ..5...5.....^.l.
   1c778:	80000000 bf800000 3ec3ef15 bf6c835e     ...........>^.l.
   1c788:	3f3504f3 bf3504f3 3f6c835e bec3ef15     ..5?..5.^.l?....

0001c798 <twiddleCoef_1024>:
   1c798:	3f800000 00000000 3f7ffec4 3bc90f89     ...?.......?...;
   1c7a8:	3f7ffb11 3c490e90 3f7ff4e6 3c96c9b6     ...?..I<...?...<
   1c7b8:	3f7fec43 3cc90ab0 3f7fe129 3cfb49b9     C..?...<)..?.I.<
   1c7c8:	3f7fd398 3d16c32c 3f7fc38f 3d2fe007     ...?,..=...?../=
   1c7d8:	3f7fb10f 3d48fb2f 3f7f9c18 3d621468     ...?/.H=...?h.b=
   1c7e8:	3f7f84ab 3d7b2b74 3f7f6ac7 3d8a200a     ...?t+{=.j.?. .=
   1c7f8:	3f7f4e6d 3d96a905 3f7f2f9d 3da3308c     mN.?...=./.?.0.=
   1c808:	3f7f0e58 3dafb680 3f7eea9d 3dbc3ac3     X..?...=..~?.:.=
   1c818:	3f7ec46d 3dc8bd36 3f7e9bc9 3dd53db9     m.~?6..=..~?.=.=
   1c828:	3f7e70b0 3de1bc2e 3f7e4323 3dee3876     .p~?...=#C~?v8.=
   1c838:	3f7e1324 3dfab273 3f7de0b1 3e039502     $.~?s..=..}?...>
   1c848:	3f7dabcc 3e09cf86 3f7d7474 3e1008b7     ..}?...>tt}?...>
   1c858:	3f7d3aac 3e164083 3f7cfe73 3e1c76de     .:}?.@.>s.|?.v.>
   1c868:	3f7cbfc9 3e22abb6 3f7c7eb0 3e28defc     ..|?..">.~|?..(>
   1c878:	3f7c3b28 3e2f10a2 3f7bf531 3e354098     (;|?../>1.{?.@5>
   1c888:	3f7baccd 3e3b6ecf 3f7b61fc 3e419b37     ..{?.n;>.a{?7.A>
   1c898:	3f7b14be 3e47c5c2 3f7ac516 3e4dee60     ..{?..G>..z?`.M>
   1c8a8:	3f7a7302 3e541501 3f7a1e84 3e5a3997     .sz?..T>..z?.9Z>
   1c8b8:	3f79c79d 3e605c13 3f796e4e 3e667c66     ..y?.\`>Nny?f|f>
   1c8c8:	3f791298 3e6c9a7f 3f78b47b 3e72b651     ..y?..l>{.x?Q.r>
   1c8d8:	3f7853f8 3e78cfcc 3f77f110 3e7ee6e1     .Sx?..x>..w?..~>
   1c8e8:	3f778bc5 3e827dc0 3f772417 3e8586ce     ..w?.}.>.$w?...>
   1c8f8:	3f76ba07 3e888e93 3f764d97 3e8b9507     ..v?...>.Mv?...>
   1c908:	3f75dec6 3e8e9a22 3f756d97 3e919ddd     ..u?"..>.mu?...>
   1c918:	3f74fa0b 3e94a031 3f748422 3e97a117     ..t?1..>".t?...>
   1c928:	3f740bdd 3e9aa086 3f73913f 3e9d9e78     ..t?...>?.s?x..>
   1c938:	3f731447 3ea09ae5 3f7294f8 3ea395c5     G.s?...>..r?...>
   1c948:	3f721352 3ea68f12 3f718f57 3ea986c4     R.r?...>W.q?...>
   1c958:	3f710908 3eac7cd4 3f708066 3eaf713a     ..q?.|.>f.p?:q.>
   1c968:	3f6ff573 3eb263ef 3f6f6830 3eb554ec     s.o?.c.>0ho?.T.>
   1c978:	3f6ed89e 3eb8442a 3f6e46be 3ebb31a0     ..n?*D.>.Fn?.1.>
   1c988:	3f6db293 3ebe1d4a 3f6d1c1d 3ec1071e     ..m?J..>..m?...>
   1c998:	3f6c835e 3ec3ef15 3f6be858 3ec6d529     ^.l?...>X.k?)..>
   1c9a8:	3f6b4b0c 3ec9b953 3f6aab7b 3ecc9b8b     .Kk?S..>{.j?...>
   1c9b8:	3f6a09a7 3ecf7bca 3f696591 3ed25a09     ..j?.{.>.ei?.Z.>
   1c9c8:	3f68bf3c 3ed53641 3f6816a8 3ed8106b     <.h?A6.>..h?k..>
   1c9d8:	3f676bd8 3edae880 3f66becc 3eddbe79     .kg?...>..f?y..>
   1c9e8:	3f660f88 3ee0924f 3f655e0b 3ee363fa     ..f?O..>.^e?.c.>
   1c9f8:	3f64aa59 3ee63375 3f63f473 3ee900b7     Y.d?u3.>s.c?...>
   1ca08:	3f633c5a 3eebcbbb 3f628210 3eee9479     Z<c?...>..b?y..>
   1ca18:	3f61c598 3ef15aea 3f6106f2 3ef41f07     ..a?.Z.>..a?...>
   1ca28:	3f604621 3ef6e0cb 3f5f8327 3ef9a02d     !F`?...>'._?-..>
   1ca38:	3f5ebe05 3efc5d27 3f5df6be 3eff17b2     ..^?'].>..]?...>
   1ca48:	3f5d2d53 3f00e7e4 3f5c61c7 3f0242b1     S-]?...?.a\?.B.?
   1ca58:	3f5b941a 3f039c3d 3f5ac450 3f04f484     ..[?=..?P.Z?...?
   1ca68:	3f59f26a 3f064b82 3f591e6a 3f07a136     j.Y?.K.?j.Y?6..?
   1ca78:	3f584853 3f08f59b 3f577026 3f0a48ad     SHX?...?&pW?.H.?
   1ca88:	3f5695e5 3f0b9a6b 3f55b993 3f0cead0     ..V?k..?..U?...?
   1ca98:	3f54db31 3f0e39da 3f53fac3 3f0f8784     1.T?.9.?..S?...?
   1caa8:	3f531849 3f10d3cd 3f5233c6 3f121eb0     I.S?...?.3R?...?
   1cab8:	3f514d3d 3f13682a 3f5064af 3f14b039     =MQ?*h.?.dP?9..?
   1cac8:	3f4f7a1f 3f15f6d9 3f4e8d90 3f173c07     .zO?...?..N?.<.?
   1cad8:	3f4d9f02 3f187fc0 3f4cae79 3f19c200     ..M?...?y.L?...?
   1cae8:	3f4bbbf8 3f1b02c6 3f4ac77f 3f1c420c     ..K?...?..J?.B.?
   1caf8:	3f49d112 3f1d7fd1 3f48d8b3 3f1ebc12     ..I?...?..H?...?
   1cb08:	3f47de65 3f1ff6cb 3f46e22a 3f212ff9     e.G?...?*.F?./!?
   1cb18:	3f45e403 3f226799 3f44e3f5 3f239da9     ..E?.g"?..D?..#?
   1cb28:	3f43e200 3f24d225 3f42de29 3f26050a     ..C?%.$?).B?..&?
   1cb38:	3f41d870 3f273656 3f40d0da 3f286605     p.A?V6'?..@?.f(?
   1cb48:	3f3fc767 3f299415 3f3ebc1b 3f2ac082     g.??..)?..>?..*?
   1cb58:	3f3daef9 3f2beb4a 3f3ca003 3f2d1469     ..=?J.+?..<?i.-?
   1cb68:	3f3b8f3b 3f2e3bde 3f3a7ca4 3f2f61a5     ;.;?.;.?.|:?.a/?
   1cb78:	3f396842 3f3085bb 3f385216 3f31a81d     Bh9?..0?.R8?..1?
   1cb88:	3f373a23 3f32c8c9 3f36206c 3f33e7bc     #:7?..2?l 6?..3?
   1cb98:	3f3504f3 3f3504f3 3f33e7bc 3f36206c     ..5?..5?..3?l 6?
   1cba8:	3f32c8c9 3f373a23 3f31a81d 3f385216     ..2?#:7?..1?.R8?
   1cbb8:	3f3085bb 3f396842 3f2f61a5 3f3a7ca4     ..0?Bh9?.a/?.|:?
   1cbc8:	3f2e3bde 3f3b8f3b 3f2d1469 3f3ca003     .;.?;.;?i.-?..<?
   1cbd8:	3f2beb4a 3f3daef9 3f2ac082 3f3ebc1b     J.+?..=?..*?..>?
   1cbe8:	3f299415 3f3fc767 3f286605 3f40d0da     ..)?g.??.f(?..@?
   1cbf8:	3f273656 3f41d870 3f26050a 3f42de29     V6'?p.A?..&?).B?
   1cc08:	3f24d225 3f43e200 3f239da9 3f44e3f5     %.$?..C?..#?..D?
   1cc18:	3f226799 3f45e403 3f212ff9 3f46e22a     .g"?..E?./!?*.F?
   1cc28:	3f1ff6cb 3f47de65 3f1ebc12 3f48d8b3     ...?e.G?...?..H?
   1cc38:	3f1d7fd1 3f49d112 3f1c420c 3f4ac77f     ...?..I?.B.?..J?
   1cc48:	3f1b02c6 3f4bbbf8 3f19c200 3f4cae79     ...?..K?...?y.L?
   1cc58:	3f187fc0 3f4d9f02 3f173c07 3f4e8d90     ...?..M?.<.?..N?
   1cc68:	3f15f6d9 3f4f7a1f 3f14b039 3f5064af     ...?.zO?9..?.dP?
   1cc78:	3f13682a 3f514d3d 3f121eb0 3f5233c6     *h.?=MQ?...?.3R?
   1cc88:	3f10d3cd 3f531849 3f0f8784 3f53fac3     ...?I.S?...?..S?
   1cc98:	3f0e39da 3f54db31 3f0cead0 3f55b993     .9.?1.T?...?..U?
   1cca8:	3f0b9a6b 3f5695e5 3f0a48ad 3f577026     k..?..V?.H.?&pW?
   1ccb8:	3f08f59b 3f584853 3f07a136 3f591e6a     ...?SHX?6..?j.Y?
   1ccc8:	3f064b82 3f59f26a 3f04f484 3f5ac450     .K.?j.Y?...?P.Z?
   1ccd8:	3f039c3d 3f5b941a 3f0242b1 3f5c61c7     =..?..[?.B.?.a\?
   1cce8:	3f00e7e4 3f5d2d53 3eff17b2 3f5df6be     ...?S-]?...>..]?
   1ccf8:	3efc5d27 3f5ebe05 3ef9a02d 3f5f8327     '].>..^?-..>'._?
   1cd08:	3ef6e0cb 3f604621 3ef41f07 3f6106f2     ...>!F`?...>..a?
   1cd18:	3ef15aea 3f61c598 3eee9479 3f628210     .Z.>..a?y..>..b?
   1cd28:	3eebcbbb 3f633c5a 3ee900b7 3f63f473     ...>Z<c?...>s.c?
   1cd38:	3ee63375 3f64aa59 3ee363fa 3f655e0b     u3.>Y.d?.c.>.^e?
   1cd48:	3ee0924f 3f660f88 3eddbe79 3f66becc     O..>..f?y..>..f?
   1cd58:	3edae880 3f676bd8 3ed8106b 3f6816a8     ...>.kg?k..>..h?
   1cd68:	3ed53641 3f68bf3c 3ed25a09 3f696591     A6.><.h?.Z.>.ei?
   1cd78:	3ecf7bca 3f6a09a7 3ecc9b8b 3f6aab7b     .{.>..j?...>{.j?
   1cd88:	3ec9b953 3f6b4b0c 3ec6d529 3f6be858     S..>.Kk?)..>X.k?
   1cd98:	3ec3ef15 3f6c835e 3ec1071e 3f6d1c1d     ...>^.l?...>..m?
   1cda8:	3ebe1d4a 3f6db293 3ebb31a0 3f6e46be     J..>..m?.1.>.Fn?
   1cdb8:	3eb8442a 3f6ed89e 3eb554ec 3f6f6830     *D.>..n?.T.>0ho?
   1cdc8:	3eb263ef 3f6ff573 3eaf713a 3f708066     .c.>s.o?:q.>f.p?
   1cdd8:	3eac7cd4 3f710908 3ea986c4 3f718f57     .|.>..q?...>W.q?
   1cde8:	3ea68f12 3f721352 3ea395c5 3f7294f8     ...>R.r?...>..r?
   1cdf8:	3ea09ae5 3f731447 3e9d9e78 3f73913f     ...>G.s?x..>?.s?
   1ce08:	3e9aa086 3f740bdd 3e97a117 3f748422     ...>..t?...>".t?
   1ce18:	3e94a031 3f74fa0b 3e919ddd 3f756d97     1..>..t?...>.mu?
   1ce28:	3e8e9a22 3f75dec6 3e8b9507 3f764d97     "..>..u?...>.Mv?
   1ce38:	3e888e93 3f76ba07 3e8586ce 3f772417     ...>..v?...>.$w?
   1ce48:	3e827dc0 3f778bc5 3e7ee6e1 3f77f110     .}.>..w?..~>..w?
   1ce58:	3e78cfcc 3f7853f8 3e72b651 3f78b47b     ..x>.Sx?Q.r>{.x?
   1ce68:	3e6c9a7f 3f791298 3e667c66 3f796e4e     ..l>..y?f|f>Nny?
   1ce78:	3e605c13 3f79c79d 3e5a3997 3f7a1e84     .\`>..y?.9Z>..z?
   1ce88:	3e541501 3f7a7302 3e4dee60 3f7ac516     ..T>.sz?`.M>..z?
   1ce98:	3e47c5c2 3f7b14be 3e419b37 3f7b61fc     ..G>..{?7.A>.a{?
   1cea8:	3e3b6ecf 3f7baccd 3e354098 3f7bf531     .n;>..{?.@5>1.{?
   1ceb8:	3e2f10a2 3f7c3b28 3e28defc 3f7c7eb0     ../>(;|?..(>.~|?
   1cec8:	3e22abb6 3f7cbfc9 3e1c76de 3f7cfe73     ..">..|?.v.>s.|?
   1ced8:	3e164083 3f7d3aac 3e1008b7 3f7d7474     .@.>.:}?...>tt}?
   1cee8:	3e09cf86 3f7dabcc 3e039502 3f7de0b1     ...>..}?...>..}?
   1cef8:	3dfab273 3f7e1324 3dee3876 3f7e4323     s..=$.~?v8.=#C~?
   1cf08:	3de1bc2e 3f7e70b0 3dd53db9 3f7e9bc9     ...=.p~?.=.=..~?
   1cf18:	3dc8bd36 3f7ec46d 3dbc3ac3 3f7eea9d     6..=m.~?.:.=..~?
   1cf28:	3dafb680 3f7f0e58 3da3308c 3f7f2f9d     ...=X..?.0.=./.?
   1cf38:	3d96a905 3f7f4e6d 3d8a200a 3f7f6ac7     ...=mN.?. .=.j.?
   1cf48:	3d7b2b74 3f7f84ab 3d621468 3f7f9c18     t+{=...?h.b=...?
   1cf58:	3d48fb2f 3f7fb10f 3d2fe007 3f7fc38f     /.H=...?../=...?
   1cf68:	3d16c32c 3f7fd398 3cfb49b9 3f7fe129     ,..=...?.I.<)..?
   1cf78:	3cc90ab0 3f7fec43 3c96c9b6 3f7ff4e6     ...<C..?...<...?
   1cf88:	3c490e90 3f7ffb11 3bc90f89 3f7ffec4     ..I<...?...;...?
   1cf98:	00000000 3f800000 bbc90f89 3f7ffec4     .......?.......?
   1cfa8:	bc490e90 3f7ffb11 bc96c9b6 3f7ff4e6     ..I....?.......?
   1cfb8:	bcc90ab0 3f7fec43 bcfb49b9 3f7fe129     ....C..?.I..)..?
   1cfc8:	bd16c32c 3f7fd398 bd2fe007 3f7fc38f     ,......?../....?
   1cfd8:	bd48fb2f 3f7fb10f bd621468 3f7f9c18     /.H....?h.b....?
   1cfe8:	bd7b2b74 3f7f84ab bd8a200a 3f7f6ac7     t+{....?. ...j.?
   1cff8:	bd96a905 3f7f4e6d bda3308c 3f7f2f9d     ....mN.?.0.../.?
   1d008:	bdafb680 3f7f0e58 bdbc3ac3 3f7eea9d     ....X..?.:....~?
   1d018:	bdc8bd36 3f7ec46d bdd53db9 3f7e9bc9     6...m.~?.=....~?
   1d028:	bde1bc2e 3f7e70b0 bdee3876 3f7e4323     .....p~?v8..#C~?
   1d038:	bdfab273 3f7e1324 be039502 3f7de0b1     s...$.~?......}?
   1d048:	be09cf86 3f7dabcc be1008b7 3f7d7474     ......}?....tt}?
   1d058:	be164083 3f7d3aac be1c76de 3f7cfe73     .@...:}?.v..s.|?
   1d068:	be22abb6 3f7cbfc9 be28defc 3f7c7eb0     .."...|?..(..~|?
   1d078:	be2f10a2 3f7c3b28 be354098 3f7bf531     ../.(;|?.@5.1.{?
   1d088:	be3b6ecf 3f7baccd be419b37 3f7b61fc     .n;...{?7.A..a{?
   1d098:	be47c5c2 3f7b14be be4dee60 3f7ac516     ..G...{?`.M...z?
   1d0a8:	be541501 3f7a7302 be5a3997 3f7a1e84     ..T..sz?.9Z...z?
   1d0b8:	be605c13 3f79c79d be667c66 3f796e4e     .\`...y?f|f.Nny?
   1d0c8:	be6c9a7f 3f791298 be72b651 3f78b47b     ..l...y?Q.r.{.x?
   1d0d8:	be78cfcc 3f7853f8 be7ee6e1 3f77f110     ..x..Sx?..~...w?
   1d0e8:	be827dc0 3f778bc5 be8586ce 3f772417     .}....w?.....$w?
   1d0f8:	be888e93 3f76ba07 be8b9507 3f764d97     ......v?.....Mv?
   1d108:	be8e9a22 3f75dec6 be919ddd 3f756d97     ".....u?.....mu?
   1d118:	be94a031 3f74fa0b be97a117 3f748422     1.....t?....".t?
   1d128:	be9aa086 3f740bdd be9d9e78 3f73913f     ......t?x...?.s?
   1d138:	bea09ae5 3f731447 bea395c5 3f7294f8     ....G.s?......r?
   1d148:	bea68f12 3f721352 bea986c4 3f718f57     ....R.r?....W.q?
   1d158:	beac7cd4 3f710908 beaf713a 3f708066     .|....q?:q..f.p?
   1d168:	beb263ef 3f6ff573 beb554ec 3f6f6830     .c..s.o?.T..0ho?
   1d178:	beb8442a 3f6ed89e bebb31a0 3f6e46be     *D....n?.1...Fn?
   1d188:	bebe1d4a 3f6db293 bec1071e 3f6d1c1d     J.....m?......m?
   1d198:	bec3ef15 3f6c835e bec6d529 3f6be858     ....^.l?)...X.k?
   1d1a8:	bec9b953 3f6b4b0c becc9b8b 3f6aab7b     S....Kk?....{.j?
   1d1b8:	becf7bca 3f6a09a7 bed25a09 3f696591     .{....j?.Z...ei?
   1d1c8:	bed53641 3f68bf3c bed8106b 3f6816a8     A6..<.h?k.....h?
   1d1d8:	bedae880 3f676bd8 beddbe79 3f66becc     .....kg?y.....f?
   1d1e8:	bee0924f 3f660f88 bee363fa 3f655e0b     O.....f?.c...^e?
   1d1f8:	bee63375 3f64aa59 bee900b7 3f63f473     u3..Y.d?....s.c?
   1d208:	beebcbbb 3f633c5a beee9479 3f628210     ....Z<c?y.....b?
   1d218:	bef15aea 3f61c598 bef41f07 3f6106f2     .Z....a?......a?
   1d228:	bef6e0cb 3f604621 bef9a02d 3f5f8327     ....!F`?-...'._?
   1d238:	befc5d27 3f5ebe05 beff17b2 3f5df6be     ']....^?......]?
   1d248:	bf00e7e4 3f5d2d53 bf0242b1 3f5c61c7     ....S-]?.B...a\?
   1d258:	bf039c3d 3f5b941a bf04f484 3f5ac450     =.....[?....P.Z?
   1d268:	bf064b82 3f59f26a bf07a136 3f591e6a     .K..j.Y?6...j.Y?
   1d278:	bf08f59b 3f584853 bf0a48ad 3f577026     ....SHX?.H..&pW?
   1d288:	bf0b9a6b 3f5695e5 bf0cead0 3f55b993     k.....V?......U?
   1d298:	bf0e39da 3f54db31 bf0f8784 3f53fac3     .9..1.T?......S?
   1d2a8:	bf10d3cd 3f531849 bf121eb0 3f5233c6     ....I.S?.....3R?
   1d2b8:	bf13682a 3f514d3d bf14b039 3f5064af     *h..=MQ?9....dP?
   1d2c8:	bf15f6d9 3f4f7a1f bf173c07 3f4e8d90     .....zO?.<....N?
   1d2d8:	bf187fc0 3f4d9f02 bf19c200 3f4cae79     ......M?....y.L?
   1d2e8:	bf1b02c6 3f4bbbf8 bf1c420c 3f4ac77f     ......K?.B....J?
   1d2f8:	bf1d7fd1 3f49d112 bf1ebc12 3f48d8b3     ......I?......H?
   1d308:	bf1ff6cb 3f47de65 bf212ff9 3f46e22a     ....e.G?./!.*.F?
   1d318:	bf226799 3f45e403 bf239da9 3f44e3f5     .g"...E?..#...D?
   1d328:	bf24d225 3f43e200 bf26050a 3f42de29     %.$...C?..&.).B?
   1d338:	bf273656 3f41d870 bf286605 3f40d0da     V6'.p.A?.f(...@?
   1d348:	bf299415 3f3fc767 bf2ac082 3f3ebc1b     ..).g.??..*...>?
   1d358:	bf2beb4a 3f3daef9 bf2d1469 3f3ca003     J.+...=?i.-...<?
   1d368:	bf2e3bde 3f3b8f3b bf2f61a5 3f3a7ca4     .;..;.;?.a/..|:?
   1d378:	bf3085bb 3f396842 bf31a81d 3f385216     ..0.Bh9?..1..R8?
   1d388:	bf32c8c9 3f373a23 bf33e7bc 3f36206c     ..2.#:7?..3.l 6?
   1d398:	bf3504f3 3f3504f3 bf36206c 3f33e7bc     ..5...5?l 6...3?
   1d3a8:	bf373a23 3f32c8c9 bf385216 3f31a81d     #:7...2?.R8...1?
   1d3b8:	bf396842 3f3085bb bf3a7ca4 3f2f61a5     Bh9...0?.|:..a/?
   1d3c8:	bf3b8f3b 3f2e3bde bf3ca003 3f2d1469     ;.;..;.?..<.i.-?
   1d3d8:	bf3daef9 3f2beb4a bf3ebc1b 3f2ac082     ..=.J.+?..>...*?
   1d3e8:	bf3fc767 3f299415 bf40d0da 3f286605     g.?...)?..@..f(?
   1d3f8:	bf41d870 3f273656 bf42de29 3f26050a     p.A.V6'?).B...&?
   1d408:	bf43e200 3f24d225 bf44e3f5 3f239da9     ..C.%.$?..D...#?
   1d418:	bf45e403 3f226799 bf46e22a 3f212ff9     ..E..g"?*.F../!?
   1d428:	bf47de65 3f1ff6cb bf48d8b3 3f1ebc12     e.G....?..H....?
   1d438:	bf49d112 3f1d7fd1 bf4ac77f 3f1c420c     ..I....?..J..B.?
   1d448:	bf4bbbf8 3f1b02c6 bf4cae79 3f19c200     ..K....?y.L....?
   1d458:	bf4d9f02 3f187fc0 bf4e8d90 3f173c07     ..M....?..N..<.?
   1d468:	bf4f7a1f 3f15f6d9 bf5064af 3f14b039     .zO....?.dP.9..?
   1d478:	bf514d3d 3f13682a bf5233c6 3f121eb0     =MQ.*h.?.3R....?
   1d488:	bf531849 3f10d3cd bf53fac3 3f0f8784     I.S....?..S....?
   1d498:	bf54db31 3f0e39da bf55b993 3f0cead0     1.T..9.?..U....?
   1d4a8:	bf5695e5 3f0b9a6b bf577026 3f0a48ad     ..V.k..?&pW..H.?
   1d4b8:	bf584853 3f08f59b bf591e6a 3f07a136     SHX....?j.Y.6..?
   1d4c8:	bf59f26a 3f064b82 bf5ac450 3f04f484     j.Y..K.?P.Z....?
   1d4d8:	bf5b941a 3f039c3d bf5c61c7 3f0242b1     ..[.=..?.a\..B.?
   1d4e8:	bf5d2d53 3f00e7e4 bf5df6be 3eff17b2     S-]....?..]....>
   1d4f8:	bf5ebe05 3efc5d27 bf5f8327 3ef9a02d     ..^.'].>'._.-..>
   1d508:	bf604621 3ef6e0cb bf6106f2 3ef41f07     !F`....>..a....>
   1d518:	bf61c598 3ef15aea bf628210 3eee9479     ..a..Z.>..b.y..>
   1d528:	bf633c5a 3eebcbbb bf63f473 3ee900b7     Z<c....>s.c....>
   1d538:	bf64aa59 3ee63375 bf655e0b 3ee363fa     Y.d.u3.>.^e..c.>
   1d548:	bf660f88 3ee0924f bf66becc 3eddbe79     ..f.O..>..f.y..>
   1d558:	bf676bd8 3edae880 bf6816a8 3ed8106b     .kg....>..h.k..>
   1d568:	bf68bf3c 3ed53641 bf696591 3ed25a09     <.h.A6.>.ei..Z.>
   1d578:	bf6a09a7 3ecf7bca bf6aab7b 3ecc9b8b     ..j..{.>{.j....>
   1d588:	bf6b4b0c 3ec9b953 bf6be858 3ec6d529     .Kk.S..>X.k.)..>
   1d598:	bf6c835e 3ec3ef15 bf6d1c1d 3ec1071e     ^.l....>..m....>
   1d5a8:	bf6db293 3ebe1d4a bf6e46be 3ebb31a0     ..m.J..>.Fn..1.>
   1d5b8:	bf6ed89e 3eb8442a bf6f6830 3eb554ec     ..n.*D.>0ho..T.>
   1d5c8:	bf6ff573 3eb263ef bf708066 3eaf713a     s.o..c.>f.p.:q.>
   1d5d8:	bf710908 3eac7cd4 bf718f57 3ea986c4     ..q..|.>W.q....>
   1d5e8:	bf721352 3ea68f12 bf7294f8 3ea395c5     R.r....>..r....>
   1d5f8:	bf731447 3ea09ae5 bf73913f 3e9d9e78     G.s....>?.s.x..>
   1d608:	bf740bdd 3e9aa086 bf748422 3e97a117     ..t....>".t....>
   1d618:	bf74fa0b 3e94a031 bf756d97 3e919ddd     ..t.1..>.mu....>
   1d628:	bf75dec6 3e8e9a22 bf764d97 3e8b9507     ..u."..>.Mv....>
   1d638:	bf76ba07 3e888e93 bf772417 3e8586ce     ..v....>.$w....>
   1d648:	bf778bc5 3e827dc0 bf77f110 3e7ee6e1     ..w..}.>..w...~>
   1d658:	bf7853f8 3e78cfcc bf78b47b 3e72b651     .Sx...x>{.x.Q.r>
   1d668:	bf791298 3e6c9a7f bf796e4e 3e667c66     ..y...l>Nny.f|f>
   1d678:	bf79c79d 3e605c13 bf7a1e84 3e5a3997     ..y..\`>..z..9Z>
   1d688:	bf7a7302 3e541501 bf7ac516 3e4dee60     .sz...T>..z.`.M>
   1d698:	bf7b14be 3e47c5c2 bf7b61fc 3e419b37     ..{...G>.a{.7.A>
   1d6a8:	bf7baccd 3e3b6ecf bf7bf531 3e354098     ..{..n;>1.{..@5>
   1d6b8:	bf7c3b28 3e2f10a2 bf7c7eb0 3e28defc     (;|.../>.~|...(>
   1d6c8:	bf7cbfc9 3e22abb6 bf7cfe73 3e1c76de     ..|...">s.|..v.>
   1d6d8:	bf7d3aac 3e164083 bf7d7474 3e1008b7     .:}..@.>tt}....>
   1d6e8:	bf7dabcc 3e09cf86 bf7de0b1 3e039502     ..}....>..}....>
   1d6f8:	bf7e1324 3dfab273 bf7e4323 3dee3876     $.~.s..=#C~.v8.=
   1d708:	bf7e70b0 3de1bc2e bf7e9bc9 3dd53db9     .p~....=..~..=.=
   1d718:	bf7ec46d 3dc8bd36 bf7eea9d 3dbc3ac3     m.~.6..=..~..:.=
   1d728:	bf7f0e58 3dafb680 bf7f2f9d 3da3308c     X......=./...0.=
   1d738:	bf7f4e6d 3d96a905 bf7f6ac7 3d8a200a     mN.....=.j... .=
   1d748:	bf7f84ab 3d7b2b74 bf7f9c18 3d621468     ....t+{=....h.b=
   1d758:	bf7fb10f 3d48fb2f bf7fc38f 3d2fe007     ..../.H=....../=
   1d768:	bf7fd398 3d16c32c bf7fe129 3cfb49b9     ....,..=)....I.<
   1d778:	bf7fec43 3cc90ab0 bf7ff4e6 3c96c9b6     C......<.......<
   1d788:	bf7ffb11 3c490e90 bf7ffec4 3bc90f89     ......I<.......;
   1d798:	bf800000 00000000 bf7ffec4 bbc90f89     ................
   1d7a8:	bf7ffb11 bc490e90 bf7ff4e6 bc96c9b6     ......I.........
   1d7b8:	bf7fec43 bcc90ab0 bf7fe129 bcfb49b9     C.......)....I..
   1d7c8:	bf7fd398 bd16c32c bf7fc38f bd2fe007     ....,........./.
   1d7d8:	bf7fb10f bd48fb2f bf7f9c18 bd621468     ..../.H.....h.b.
   1d7e8:	bf7f84ab bd7b2b74 bf7f6ac7 bd8a200a     ....t+{..j... ..
   1d7f8:	bf7f4e6d bd96a905 bf7f2f9d bda3308c     mN......./...0..
   1d808:	bf7f0e58 bdafb680 bf7eea9d bdbc3ac3     X.........~..:..
   1d818:	bf7ec46d bdc8bd36 bf7e9bc9 bdd53db9     m.~.6.....~..=..
   1d828:	bf7e70b0 bde1bc2e bf7e4323 bdee3876     .p~.....#C~.v8..
   1d838:	bf7e1324 bdfab273 bf7de0b1 be039502     $.~.s.....}.....
   1d848:	bf7dabcc be09cf86 bf7d7474 be1008b7     ..}.....tt}.....
   1d858:	bf7d3aac be164083 bf7cfe73 be1c76de     .:}..@..s.|..v..
   1d868:	bf7cbfc9 be22abb6 bf7c7eb0 be28defc     ..|..."..~|...(.
   1d878:	bf7c3b28 be2f10a2 bf7bf531 be354098     (;|.../.1.{..@5.
   1d888:	bf7baccd be3b6ecf bf7b61fc be419b37     ..{..n;..a{.7.A.
   1d898:	bf7b14be be47c5c2 bf7ac516 be4dee60     ..{...G...z.`.M.
   1d8a8:	bf7a7302 be541501 bf7a1e84 be5a3997     .sz...T...z..9Z.
   1d8b8:	bf79c79d be605c13 bf796e4e be667c66     ..y..\`.Nny.f|f.
   1d8c8:	bf791298 be6c9a7f bf78b47b be72b651     ..y...l.{.x.Q.r.
   1d8d8:	bf7853f8 be78cfcc bf77f110 be7ee6e1     .Sx...x...w...~.
   1d8e8:	bf778bc5 be827dc0 bf772417 be8586ce     ..w..}...$w.....
   1d8f8:	bf76ba07 be888e93 bf764d97 be8b9507     ..v......Mv.....
   1d908:	bf75dec6 be8e9a22 bf756d97 be919ddd     ..u."....mu.....
   1d918:	bf74fa0b be94a031 bf748422 be97a117     ..t.1...".t.....
   1d928:	bf740bdd be9aa086 bf73913f be9d9e78     ..t.....?.s.x...
   1d938:	bf731447 bea09ae5 bf7294f8 bea395c5     G.s.......r.....
   1d948:	bf721352 bea68f12 bf718f57 bea986c4     R.r.....W.q.....
   1d958:	bf710908 beac7cd4 bf708066 beaf713a     ..q..|..f.p.:q..
   1d968:	bf6ff573 beb263ef bf6f6830 beb554ec     s.o..c..0ho..T..
   1d978:	bf6ed89e beb8442a bf6e46be bebb31a0     ..n.*D...Fn..1..
   1d988:	bf6db293 bebe1d4a bf6d1c1d bec1071e     ..m.J.....m.....
   1d998:	bf6c835e bec3ef15 bf6be858 bec6d529     ^.l.....X.k.)...
   1d9a8:	bf6b4b0c bec9b953 bf6aab7b becc9b8b     .Kk.S...{.j.....
   1d9b8:	bf6a09a7 becf7bca bf696591 bed25a09     ..j..{...ei..Z..
   1d9c8:	bf68bf3c bed53641 bf6816a8 bed8106b     <.h.A6....h.k...
   1d9d8:	bf676bd8 bedae880 bf66becc beddbe79     .kg.......f.y...
   1d9e8:	bf660f88 bee0924f bf655e0b bee363fa     ..f.O....^e..c..
   1d9f8:	bf64aa59 bee63375 bf63f473 bee900b7     Y.d.u3..s.c.....
   1da08:	bf633c5a beebcbbb bf628210 beee9479     Z<c.......b.y...
   1da18:	bf61c598 bef15aea bf6106f2 bef41f07     ..a..Z....a.....
   1da28:	bf604621 bef6e0cb bf5f8327 bef9a02d     !F`.....'._.-...
   1da38:	bf5ebe05 befc5d27 bf5df6be beff17b2     ..^.']....].....
   1da48:	bf5d2d53 bf00e7e4 bf5c61c7 bf0242b1     S-]......a\..B..
   1da58:	bf5b941a bf039c3d bf5ac450 bf04f484     ..[.=...P.Z.....
   1da68:	bf59f26a bf064b82 bf591e6a bf07a136     j.Y..K..j.Y.6...
   1da78:	bf584853 bf08f59b bf577026 bf0a48ad     SHX.....&pW..H..
   1da88:	bf5695e5 bf0b9a6b bf55b993 bf0cead0     ..V.k.....U.....
   1da98:	bf54db31 bf0e39da bf53fac3 bf0f8784     1.T..9....S.....
   1daa8:	bf531849 bf10d3cd bf5233c6 bf121eb0     I.S......3R.....
   1dab8:	bf514d3d bf13682a bf5064af bf14b039     =MQ.*h...dP.9...
   1dac8:	bf4f7a1f bf15f6d9 bf4e8d90 bf173c07     .zO.......N..<..
   1dad8:	bf4d9f02 bf187fc0 bf4cae79 bf19c200     ..M.....y.L.....
   1dae8:	bf4bbbf8 bf1b02c6 bf4ac77f bf1c420c     ..K.......J..B..
   1daf8:	bf49d112 bf1d7fd1 bf48d8b3 bf1ebc12     ..I.......H.....
   1db08:	bf47de65 bf1ff6cb bf46e22a bf212ff9     e.G.....*.F../!.
   1db18:	bf45e403 bf226799 bf44e3f5 bf239da9     ..E..g"...D...#.
   1db28:	bf43e200 bf24d225 bf42de29 bf26050a     ..C.%.$.).B...&.
   1db38:	bf41d870 bf273656 bf40d0da bf286605     p.A.V6'...@..f(.
   1db48:	bf3fc767 bf299415 bf3ebc1b bf2ac082     g.?...)...>...*.
   1db58:	bf3daef9 bf2beb4a bf3ca003 bf2d1469     ..=.J.+...<.i.-.
   1db68:	bf3b8f3b bf2e3bde bf3a7ca4 bf2f61a5     ;.;..;...|:..a/.
   1db78:	bf396842 bf3085bb bf385216 bf31a81d     Bh9...0..R8...1.
   1db88:	bf373a23 bf32c8c9 bf36206c bf33e7bc     #:7...2.l 6...3.
   1db98:	bf3504f3 bf3504f3 bf33e7bc bf36206c     ..5...5...3.l 6.
   1dba8:	bf32c8c9 bf373a23 bf31a81d bf385216     ..2.#:7...1..R8.
   1dbb8:	bf3085bb bf396842 bf2f61a5 bf3a7ca4     ..0.Bh9..a/..|:.
   1dbc8:	bf2e3bde bf3b8f3b bf2d1469 bf3ca003     .;..;.;.i.-...<.
   1dbd8:	bf2beb4a bf3daef9 bf2ac082 bf3ebc1b     J.+...=...*...>.
   1dbe8:	bf299415 bf3fc767 bf286605 bf40d0da     ..).g.?..f(...@.
   1dbf8:	bf273656 bf41d870 bf26050a bf42de29     V6'.p.A...&.).B.
   1dc08:	bf24d225 bf43e200 bf239da9 bf44e3f5     %.$...C...#...D.
   1dc18:	bf226799 bf45e403 bf212ff9 bf46e22a     .g"...E../!.*.F.
   1dc28:	bf1ff6cb bf47de65 bf1ebc12 bf48d8b3     ....e.G.......H.
   1dc38:	bf1d7fd1 bf49d112 bf1c420c bf4ac77f     ......I..B....J.
   1dc48:	bf1b02c6 bf4bbbf8 bf19c200 bf4cae79     ......K.....y.L.
   1dc58:	bf187fc0 bf4d9f02 bf173c07 bf4e8d90     ......M..<....N.
   1dc68:	bf15f6d9 bf4f7a1f bf14b039 bf5064af     .....zO.9....dP.
   1dc78:	bf13682a bf514d3d bf121eb0 bf5233c6     *h..=MQ......3R.
   1dc88:	bf10d3cd bf531849 bf0f8784 bf53fac3     ....I.S.......S.
   1dc98:	bf0e39da bf54db31 bf0cead0 bf55b993     .9..1.T.......U.
   1dca8:	bf0b9a6b bf5695e5 bf0a48ad bf577026     k.....V..H..&pW.
   1dcb8:	bf08f59b bf584853 bf07a136 bf591e6a     ....SHX.6...j.Y.
   1dcc8:	bf064b82 bf59f26a bf04f484 bf5ac450     .K..j.Y.....P.Z.
   1dcd8:	bf039c3d bf5b941a bf0242b1 bf5c61c7     =.....[..B...a\.
   1dce8:	bf00e7e4 bf5d2d53 beff17b2 bf5df6be     ....S-].......].
   1dcf8:	befc5d27 bf5ebe05 bef9a02d bf5f8327     ']....^.-...'._.
   1dd08:	bef6e0cb bf604621 bef41f07 bf6106f2     ....!F`.......a.
   1dd18:	bef15aea bf61c598 beee9479 bf628210     .Z....a.y.....b.
   1dd28:	beebcbbb bf633c5a bee900b7 bf63f473     ....Z<c.....s.c.
   1dd38:	bee63375 bf64aa59 bee363fa bf655e0b     u3..Y.d..c...^e.
   1dd48:	bee0924f bf660f88 beddbe79 bf66becc     O.....f.y.....f.
   1dd58:	bedae880 bf676bd8 bed8106b bf6816a8     .....kg.k.....h.
   1dd68:	bed53641 bf68bf3c bed25a09 bf696591     A6..<.h..Z...ei.
   1dd78:	becf7bca bf6a09a7 becc9b8b bf6aab7b     .{....j.....{.j.
   1dd88:	bec9b953 bf6b4b0c bec6d529 bf6be858     S....Kk.)...X.k.
   1dd98:	bec3ef15 bf6c835e bec1071e bf6d1c1d     ....^.l.......m.
   1dda8:	bebe1d4a bf6db293 bebb31a0 bf6e46be     J.....m..1...Fn.
   1ddb8:	beb8442a bf6ed89e beb554ec bf6f6830     *D....n..T..0ho.
   1ddc8:	beb263ef bf6ff573 beaf713a bf708066     .c..s.o.:q..f.p.
   1ddd8:	beac7cd4 bf710908 bea986c4 bf718f57     .|....q.....W.q.
   1dde8:	bea68f12 bf721352 bea395c5 bf7294f8     ....R.r.......r.
   1ddf8:	bea09ae5 bf731447 be9d9e78 bf73913f     ....G.s.x...?.s.
   1de08:	be9aa086 bf740bdd be97a117 bf748422     ......t.....".t.
   1de18:	be94a031 bf74fa0b be919ddd bf756d97     1.....t......mu.
   1de28:	be8e9a22 bf75dec6 be8b9507 bf764d97     ".....u......Mv.
   1de38:	be888e93 bf76ba07 be8586ce bf772417     ......v......$w.
   1de48:	be827dc0 bf778bc5 be7ee6e1 bf77f110     .}....w...~...w.
   1de58:	be78cfcc bf7853f8 be72b651 bf78b47b     ..x..Sx.Q.r.{.x.
   1de68:	be6c9a7f bf791298 be667c66 bf796e4e     ..l...y.f|f.Nny.
   1de78:	be605c13 bf79c79d be5a3997 bf7a1e84     .\`...y..9Z...z.
   1de88:	be541501 bf7a7302 be4dee60 bf7ac516     ..T..sz.`.M...z.
   1de98:	be47c5c2 bf7b14be be419b37 bf7b61fc     ..G...{.7.A..a{.
   1dea8:	be3b6ecf bf7baccd be354098 bf7bf531     .n;...{..@5.1.{.
   1deb8:	be2f10a2 bf7c3b28 be28defc bf7c7eb0     ../.(;|...(..~|.
   1dec8:	be22abb6 bf7cbfc9 be1c76de bf7cfe73     .."...|..v..s.|.
   1ded8:	be164083 bf7d3aac be1008b7 bf7d7474     .@...:}.....tt}.
   1dee8:	be09cf86 bf7dabcc be039502 bf7de0b1     ......}.......}.
   1def8:	bdfab273 bf7e1324 bdee3876 bf7e4323     s...$.~.v8..#C~.
   1df08:	bde1bc2e bf7e70b0 bdd53db9 bf7e9bc9     .....p~..=....~.
   1df18:	bdc8bd36 bf7ec46d bdbc3ac3 bf7eea9d     6...m.~..:....~.
   1df28:	bdafb680 bf7f0e58 bda3308c bf7f2f9d     ....X....0.../..
   1df38:	bd96a905 bf7f4e6d bd8a200a bf7f6ac7     ....mN... ...j..
   1df48:	bd7b2b74 bf7f84ab bd621468 bf7f9c18     t+{.....h.b.....
   1df58:	bd48fb2f bf7fb10f bd2fe007 bf7fc38f     /.H......./.....
   1df68:	bd16c32c bf7fd398 bcfb49b9 bf7fe129     ,........I..)...
   1df78:	bcc90ab0 bf7fec43 bc96c9b6 bf7ff4e6     ....C...........
   1df88:	bc490e90 bf7ffb11 bbc90f89 bf7ffec4     ..I.............
   1df98:	80000000 bf800000 3bc90f89 bf7ffec4     ...........;....
   1dfa8:	3c490e90 bf7ffb11 3c96c9b6 bf7ff4e6     ..I<.......<....
   1dfb8:	3cc90ab0 bf7fec43 3cfb49b9 bf7fe129     ...<C....I.<)...
   1dfc8:	3d16c32c bf7fd398 3d2fe007 bf7fc38f     ,..=....../=....
   1dfd8:	3d48fb2f bf7fb10f 3d621468 bf7f9c18     /.H=....h.b=....
   1dfe8:	3d7b2b74 bf7f84ab 3d8a200a bf7f6ac7     t+{=..... .=.j..
   1dff8:	3d96a905 bf7f4e6d 3da3308c bf7f2f9d     ...=mN...0.=./..
   1e008:	3dafb680 bf7f0e58 3dbc3ac3 bf7eea9d     ...=X....:.=..~.
   1e018:	3dc8bd36 bf7ec46d 3dd53db9 bf7e9bc9     6..=m.~..=.=..~.
   1e028:	3de1bc2e bf7e70b0 3dee3876 bf7e4323     ...=.p~.v8.=#C~.
   1e038:	3dfab273 bf7e1324 3e039502 bf7de0b1     s..=$.~....>..}.
   1e048:	3e09cf86 bf7dabcc 3e1008b7 bf7d7474     ...>..}....>tt}.
   1e058:	3e164083 bf7d3aac 3e1c76de bf7cfe73     .@.>.:}..v.>s.|.
   1e068:	3e22abb6 bf7cbfc9 3e28defc bf7c7eb0     ..">..|...(>.~|.
   1e078:	3e2f10a2 bf7c3b28 3e354098 bf7bf531     ../>(;|..@5>1.{.
   1e088:	3e3b6ecf bf7baccd 3e419b37 bf7b61fc     .n;>..{.7.A>.a{.
   1e098:	3e47c5c2 bf7b14be 3e4dee60 bf7ac516     ..G>..{.`.M>..z.
   1e0a8:	3e541501 bf7a7302 3e5a3997 bf7a1e84     ..T>.sz..9Z>..z.
   1e0b8:	3e605c13 bf79c79d 3e667c66 bf796e4e     .\`>..y.f|f>Nny.
   1e0c8:	3e6c9a7f bf791298 3e72b651 bf78b47b     ..l>..y.Q.r>{.x.
   1e0d8:	3e78cfcc bf7853f8 3e7ee6e1 bf77f110     ..x>.Sx...~>..w.
   1e0e8:	3e827dc0 bf778bc5 3e8586ce bf772417     .}.>..w....>.$w.
   1e0f8:	3e888e93 bf76ba07 3e8b9507 bf764d97     ...>..v....>.Mv.
   1e108:	3e8e9a22 bf75dec6 3e919ddd bf756d97     "..>..u....>.mu.
   1e118:	3e94a031 bf74fa0b 3e97a117 bf748422     1..>..t....>".t.
   1e128:	3e9aa086 bf740bdd 3e9d9e78 bf73913f     ...>..t.x..>?.s.
   1e138:	3ea09ae5 bf731447 3ea395c5 bf7294f8     ...>G.s....>..r.
   1e148:	3ea68f12 bf721352 3ea986c4 bf718f57     ...>R.r....>W.q.
   1e158:	3eac7cd4 bf710908 3eaf713a bf708066     .|.>..q.:q.>f.p.
   1e168:	3eb263ef bf6ff573 3eb554ec bf6f6830     .c.>s.o..T.>0ho.
   1e178:	3eb8442a bf6ed89e 3ebb31a0 bf6e46be     *D.>..n..1.>.Fn.
   1e188:	3ebe1d4a bf6db293 3ec1071e bf6d1c1d     J..>..m....>..m.
   1e198:	3ec3ef15 bf6c835e 3ec6d529 bf6be858     ...>^.l.)..>X.k.
   1e1a8:	3ec9b953 bf6b4b0c 3ecc9b8b bf6aab7b     S..>.Kk....>{.j.
   1e1b8:	3ecf7bca bf6a09a7 3ed25a09 bf696591     .{.>..j..Z.>.ei.
   1e1c8:	3ed53641 bf68bf3c 3ed8106b bf6816a8     A6.><.h.k..>..h.
   1e1d8:	3edae880 bf676bd8 3eddbe79 bf66becc     ...>.kg.y..>..f.
   1e1e8:	3ee0924f bf660f88 3ee363fa bf655e0b     O..>..f..c.>.^e.
   1e1f8:	3ee63375 bf64aa59 3ee900b7 bf63f473     u3.>Y.d....>s.c.
   1e208:	3eebcbbb bf633c5a 3eee9479 bf628210     ...>Z<c.y..>..b.
   1e218:	3ef15aea bf61c598 3ef41f07 bf6106f2     .Z.>..a....>..a.
   1e228:	3ef6e0cb bf604621 3ef9a02d bf5f8327     ...>!F`.-..>'._.
   1e238:	3efc5d27 bf5ebe05 3eff17b2 bf5df6be     '].>..^....>..].
   1e248:	3f00e7e4 bf5d2d53 3f0242b1 bf5c61c7     ...?S-]..B.?.a\.
   1e258:	3f039c3d bf5b941a 3f04f484 bf5ac450     =..?..[....?P.Z.
   1e268:	3f064b82 bf59f26a 3f07a136 bf591e6a     .K.?j.Y.6..?j.Y.
   1e278:	3f08f59b bf584853 3f0a48ad bf577026     ...?SHX..H.?&pW.
   1e288:	3f0b9a6b bf5695e5 3f0cead0 bf55b993     k..?..V....?..U.
   1e298:	3f0e39da bf54db31 3f0f8784 bf53fac3     .9.?1.T....?..S.
   1e2a8:	3f10d3cd bf531849 3f121eb0 bf5233c6     ...?I.S....?.3R.
   1e2b8:	3f13682a bf514d3d 3f14b039 bf5064af     *h.?=MQ.9..?.dP.
   1e2c8:	3f15f6d9 bf4f7a1f 3f173c07 bf4e8d90     ...?.zO..<.?..N.
   1e2d8:	3f187fc0 bf4d9f02 3f19c200 bf4cae79     ...?..M....?y.L.
   1e2e8:	3f1b02c6 bf4bbbf8 3f1c420c bf4ac77f     ...?..K..B.?..J.
   1e2f8:	3f1d7fd1 bf49d112 3f1ebc12 bf48d8b3     ...?..I....?..H.
   1e308:	3f1ff6cb bf47de65 3f212ff9 bf46e22a     ...?e.G../!?*.F.
   1e318:	3f226799 bf45e403 3f239da9 bf44e3f5     .g"?..E...#?..D.
   1e328:	3f24d225 bf43e200 3f26050a bf42de29     %.$?..C...&?).B.
   1e338:	3f273656 bf41d870 3f286605 bf40d0da     V6'?p.A..f(?..@.
   1e348:	3f299415 bf3fc767 3f2ac082 bf3ebc1b     ..)?g.?...*?..>.
   1e358:	3f2beb4a bf3daef9 3f2d1469 bf3ca003     J.+?..=.i.-?..<.
   1e368:	3f2e3bde bf3b8f3b 3f2f61a5 bf3a7ca4     .;.?;.;..a/?.|:.
   1e378:	3f3085bb bf396842 3f31a81d bf385216     ..0?Bh9...1?.R8.
   1e388:	3f32c8c9 bf373a23 3f33e7bc bf36206c     ..2?#:7...3?l 6.
   1e398:	3f3504f3 bf3504f3 3f36206c bf33e7bc     ..5?..5.l 6?..3.
   1e3a8:	3f373a23 bf32c8c9 3f385216 bf31a81d     #:7?..2..R8?..1.
   1e3b8:	3f396842 bf3085bb 3f3a7ca4 bf2f61a5     Bh9?..0..|:?.a/.
   1e3c8:	3f3b8f3b bf2e3bde 3f3ca003 bf2d1469     ;.;?.;....<?i.-.
   1e3d8:	3f3daef9 bf2beb4a 3f3ebc1b bf2ac082     ..=?J.+...>?..*.
   1e3e8:	3f3fc767 bf299415 3f40d0da bf286605     g.??..)...@?.f(.
   1e3f8:	3f41d870 bf273656 3f42de29 bf26050a     p.A?V6'.).B?..&.
   1e408:	3f43e200 bf24d225 3f44e3f5 bf239da9     ..C?%.$...D?..#.
   1e418:	3f45e403 bf226799 3f46e22a bf212ff9     ..E?.g".*.F?./!.
   1e428:	3f47de65 bf1ff6cb 3f48d8b3 bf1ebc12     e.G?......H?....
   1e438:	3f49d112 bf1d7fd1 3f4ac77f bf1c420c     ..I?......J?.B..
   1e448:	3f4bbbf8 bf1b02c6 3f4cae79 bf19c200     ..K?....y.L?....
   1e458:	3f4d9f02 bf187fc0 3f4e8d90 bf173c07     ..M?......N?.<..
   1e468:	3f4f7a1f bf15f6d9 3f5064af bf14b039     .zO?.....dP?9...
   1e478:	3f514d3d bf13682a 3f5233c6 bf121eb0     =MQ?*h...3R?....
   1e488:	3f531849 bf10d3cd 3f53fac3 bf0f8784     I.S?......S?....
   1e498:	3f54db31 bf0e39da 3f55b993 bf0cead0     1.T?.9....U?....
   1e4a8:	3f5695e5 bf0b9a6b 3f577026 bf0a48ad     ..V?k...&pW?.H..
   1e4b8:	3f584853 bf08f59b 3f591e6a bf07a136     SHX?....j.Y?6...
   1e4c8:	3f59f26a bf064b82 3f5ac450 bf04f484     j.Y?.K..P.Z?....
   1e4d8:	3f5b941a bf039c3d 3f5c61c7 bf0242b1     ..[?=....a\?.B..
   1e4e8:	3f5d2d53 bf00e7e4 3f5df6be beff17b2     S-]?......]?....
   1e4f8:	3f5ebe05 befc5d27 3f5f8327 bef9a02d     ..^?']..'._?-...
   1e508:	3f604621 bef6e0cb 3f6106f2 bef41f07     !F`?......a?....
   1e518:	3f61c598 bef15aea 3f628210 beee9479     ..a?.Z....b?y...
   1e528:	3f633c5a beebcbbb 3f63f473 bee900b7     Z<c?....s.c?....
   1e538:	3f64aa59 bee63375 3f655e0b bee363fa     Y.d?u3...^e?.c..
   1e548:	3f660f88 bee0924f 3f66becc beddbe79     ..f?O.....f?y...
   1e558:	3f676bd8 bedae880 3f6816a8 bed8106b     .kg?......h?k...
   1e568:	3f68bf3c bed53641 3f696591 bed25a09     <.h?A6...ei?.Z..
   1e578:	3f6a09a7 becf7bca 3f6aab7b becc9b8b     ..j?.{..{.j?....
   1e588:	3f6b4b0c bec9b953 3f6be858 bec6d529     .Kk?S...X.k?)...
   1e598:	3f6c835e bec3ef15 3f6d1c1d bec1071e     ^.l?......m?....
   1e5a8:	3f6db293 bebe1d4a 3f6e46be bebb31a0     ..m?J....Fn?.1..
   1e5b8:	3f6ed89e beb8442a 3f6f6830 beb554ec     ..n?*D..0ho?.T..
   1e5c8:	3f6ff573 beb263ef 3f708066 beaf713a     s.o?.c..f.p?:q..
   1e5d8:	3f710908 beac7cd4 3f718f57 bea986c4     ..q?.|..W.q?....
   1e5e8:	3f721352 bea68f12 3f7294f8 bea395c5     R.r?......r?....
   1e5f8:	3f731447 bea09ae5 3f73913f be9d9e78     G.s?....?.s?x...
   1e608:	3f740bdd be9aa086 3f748422 be97a117     ..t?....".t?....
   1e618:	3f74fa0b be94a031 3f756d97 be919ddd     ..t?1....mu?....
   1e628:	3f75dec6 be8e9a22 3f764d97 be8b9507     ..u?"....Mv?....
   1e638:	3f76ba07 be888e93 3f772417 be8586ce     ..v?.....$w?....
   1e648:	3f778bc5 be827dc0 3f77f110 be7ee6e1     ..w?.}....w?..~.
   1e658:	3f7853f8 be78cfcc 3f78b47b be72b651     .Sx?..x.{.x?Q.r.
   1e668:	3f791298 be6c9a7f 3f796e4e be667c66     ..y?..l.Nny?f|f.
   1e678:	3f79c79d be605c13 3f7a1e84 be5a3997     ..y?.\`...z?.9Z.
   1e688:	3f7a7302 be541501 3f7ac516 be4dee60     .sz?..T...z?`.M.
   1e698:	3f7b14be be47c5c2 3f7b61fc be419b37     ..{?..G..a{?7.A.
   1e6a8:	3f7baccd be3b6ecf 3f7bf531 be354098     ..{?.n;.1.{?.@5.
   1e6b8:	3f7c3b28 be2f10a2 3f7c7eb0 be28defc     (;|?../..~|?..(.
   1e6c8:	3f7cbfc9 be22abb6 3f7cfe73 be1c76de     ..|?..".s.|?.v..
   1e6d8:	3f7d3aac be164083 3f7d7474 be1008b7     .:}?.@..tt}?....
   1e6e8:	3f7dabcc be09cf86 3f7de0b1 be039502     ..}?......}?....
   1e6f8:	3f7e1324 bdfab273 3f7e4323 bdee3876     $.~?s...#C~?v8..
   1e708:	3f7e70b0 bde1bc2e 3f7e9bc9 bdd53db9     .p~?......~?.=..
   1e718:	3f7ec46d bdc8bd36 3f7eea9d bdbc3ac3     m.~?6.....~?.:..
   1e728:	3f7f0e58 bdafb680 3f7f2f9d bda3308c     X..?...../.?.0..
   1e738:	3f7f4e6d bd96a905 3f7f6ac7 bd8a200a     mN.?.....j.?. ..
   1e748:	3f7f84ab bd7b2b74 3f7f9c18 bd621468     ...?t+{....?h.b.
   1e758:	3f7fb10f bd48fb2f 3f7fc38f bd2fe007     ...?/.H....?../.
   1e768:	3f7fd398 bd16c32c 3f7fe129 bcfb49b9     ...?,...)..?.I..
   1e778:	3f7fec43 bcc90ab0 3f7ff4e6 bc96c9b6     C..?.......?....
   1e788:	3f7ffb11 bc490e90 3f7ffec4 bbc90f89     ...?..I....?....

0001e798 <twiddleCoef_32>:
   1e798:	3f800000 00000000 3f7b14be 3e47c5c2     ...?......{?..G>
   1e7a8:	3f6c835e 3ec3ef15 3f54db31 3f0e39da     ^.l?...>1.T?.9.?
   1e7b8:	3f3504f3 3f3504f3 3f0e39da 3f54db31     ..5?..5?.9.?1.T?
   1e7c8:	3ec3ef15 3f6c835e 3e47c5c2 3f7b14be     ...>^.l?..G>..{?
   1e7d8:	00000000 3f800000 be47c5c2 3f7b14be     .......?..G...{?
   1e7e8:	bec3ef15 3f6c835e bf0e39da 3f54db31     ....^.l?.9..1.T?
   1e7f8:	bf3504f3 3f3504f3 bf54db31 3f0e39da     ..5...5?1.T..9.?
   1e808:	bf6c835e 3ec3ef15 bf7b14be 3e47c5c2     ^.l....>..{...G>
   1e818:	bf800000 00000000 bf7b14be be47c5c2     ..........{...G.
   1e828:	bf6c835e bec3ef15 bf54db31 bf0e39da     ^.l.....1.T..9..
   1e838:	bf3504f3 bf3504f3 bf0e39da bf54db31     ..5...5..9..1.T.
   1e848:	bec3ef15 bf6c835e be47c5c2 bf7b14be     ....^.l...G...{.
   1e858:	80000000 bf800000 3e47c5c2 bf7b14be     ..........G>..{.
   1e868:	3ec3ef15 bf6c835e 3f0e39da bf54db31     ...>^.l..9.?1.T.
   1e878:	3f3504f3 bf3504f3 3f54db31 bf0e39da     ..5?..5.1.T?.9..
   1e888:	3f6c835e bec3ef15 3f7b14be be47c5c2     ^.l?......{?..G.

0001e898 <armBitRevIndexTable1024>:
   1e898:	10000008 02000010 12000018 04000020     ............ ...
   1e8a8:	14000028 06000030 16000038 08000040     (...0...8...@...
   1e8b8:	18000048 0a000050 1a000058 0c000060     H...P...X...`...
   1e8c8:	1c000068 0e000070 1e000078 08000080     h...p...x.......
   1e8d8:	10400088 02400090 12400098 044000a0     ..@...@...@...@.
   1e8e8:	144000a8 064000b0 164000b8 084000c0     ..@...@...@...@.
   1e8f8:	184000c8 0a4000d0 1a4000d8 0c4000e0     ..@...@...@...@.
   1e908:	1c4000e8 0e4000f0 1e4000f8 08000100     ..@...@...@.....
   1e918:	10800108 02800110 12800118 04800120     ............ ...
   1e928:	14800128 06800130 16800138 08800140     (...0...8...@...
   1e938:	18800148 0a800150 1a800158 0c800160     H...P...X...`...
   1e948:	1c800168 0e800170 1e800178 08400180     h...p...x.....@.
   1e958:	10c00188 02c00190 12c00198 04c001a0     ................
   1e968:	14c001a8 06c001b0 16c001b8 08c001c0     ................
   1e978:	18c001c8 0ac001d0 1ac001d8 0cc001e0     ................
   1e988:	1cc001e8 0ec001f0 1ec001f8 08000200     ................
   1e998:	11000208 03000210 13000218 05000220     ............ ...
   1e9a8:	15000228 07000230 17000238 09000240     (...0...8...@...
   1e9b8:	19000248 0b000250 1b000258 0d000260     H...P...X...`...
   1e9c8:	1d000268 0f000270 1f000278 08800280     h...p...x.......
   1e9d8:	11400288 03400290 13400298 054002a0     ..@...@...@...@.
   1e9e8:	154002a8 074002b0 174002b8 094002c0     ..@...@...@...@.
   1e9f8:	194002c8 0b4002d0 1b4002d8 0d4002e0     ..@...@...@...@.
   1ea08:	1d4002e8 0f4002f0 1f4002f8 08400300     ..@...@...@...@.
   1ea18:	11800308 03800310 13800318 05800320     ............ ...
   1ea28:	15800328 07800330 17800338 09800340     (...0...8...@...
   1ea38:	19800348 0b800350 1b800358 0d800360     H...P...X...`...
   1ea48:	1d800368 0f800370 1f800378 08c00380     h...p...x.......
   1ea58:	11c00388 03c00390 13c00398 05c003a0     ................
   1ea68:	15c003a8 07c003b0 17c003b8 09c003c0     ................
   1ea78:	19c003c8 0bc003d0 1bc003d8 0dc003e0     ................
   1ea88:	1dc003e8 0fc003f0 1fc003f8 10000400     ................
   1ea98:	10080408 11000410 12080418 10080420     ............ ...
   1eaa8:	14080428 06080430 16080438 08080440     (...0...8...@...
   1eab8:	18080448 0a080450 1a080458 0c080460     H...P...X...`...
   1eac8:	1c080468 0e080470 1e080478 18000480     h...p...x.......
   1ead8:	10480488 19000490 12480498 180804a0     ..H.......H.....
   1eae8:	144804a8 064804b0 164804b8 084804c0     ..H...H...H...H.
   1eaf8:	184804c8 0a4804d0 1a4804d8 0c4804e0     ..H...H...H...H.
   1eb08:	1c4804e8 0e4804f0 1e4804f8 10400500     ..H...H...H...@.
   1eb18:	10880508 11400510 12880518 10480520     ......@..... .H.
   1eb28:	14880528 06880530 16880538 08880540     (...0...8...@...
   1eb38:	18880548 0a880550 1a880558 0c880560     H...P...X...`...
   1eb48:	1c880568 0e880570 1e880578 18400580     h...p...x.....@.
   1eb58:	10c80588 19400590 12c80598 184805a0     ......@.......H.
   1eb68:	14c805a8 06c805b0 16c805b8 08c805c0     ................
   1eb78:	18c805c8 0ac805d0 1ac805d8 0cc805e0     ................
   1eb88:	1cc805e8 0ec805f0 1ec805f8 10800600     ................
   1eb98:	11080608 11800610 13080618 10880620     ............ ...
   1eba8:	15080628 07080630 17080638 09080640     (...0...8...@...
   1ebb8:	19080648 0b080650 1b080658 0d080660     H...P...X...`...
   1ebc8:	1d080668 0f080670 1f080678 18800680     h...p...x.......
   1ebd8:	11480688 19800690 13480698 188806a0     ..H.......H.....
   1ebe8:	154806a8 074806b0 174806b8 094806c0     ..H...H...H...H.
   1ebf8:	194806c8 0b4806d0 1b4806d8 0d4806e0     ..H...H...H...H.
   1ec08:	1d4806e8 0f4806f0 1f4806f8 10c00700     ..H...H...H.....
   1ec18:	11880708 11c00710 13880718 10c80720     ............ ...
   1ec28:	15880728 07880730 17880738 09880740     (...0...8...@...
   1ec38:	19880748 0b880750 1b880758 0d880760     H...P...X...`...
   1ec48:	1d880768 0f880770 1f880778 18c00780     h...p...x.......
   1ec58:	11c80788 19c00790 13c80798 18c807a0     ................
   1ec68:	15c807a8 07c807b0 17c807b8 09c807c0     ................
   1ec78:	19c807c8 0bc807d0 1bc807d8 0dc807e0     ................
   1ec88:	1dc807e8 0fc807f0 1fc807f8 10100808     ................
   1ec98:	08400810 12100818 11000820 14100828     ..@..... ...(...
   1eca8:	11800830 16100838 18100848 0a100850     0...8...H...P...
   1ecb8:	1a100858 0c100860 1c100868 0e100870     X...`...h...p...
   1ecc8:	1e100878 0a000880 10500888 0b000890     x.........P.....
   1ecd8:	12500898 0a0808a0 145008a8 0b0808b0     ..P.......P.....
   1ece8:	165008b8 0a1008c0 185008c8 0a5008d0     ..P.......P...P.
   1ecf8:	1a5008d8 0c5008e0 1c5008e8 0e5008f0     ..P...P...P...P.
   1ed08:	1e5008f8 10900908 09800910 12900918     ..P.............
   1ed18:	19000920 14900928 19800930 16900938      ...(...0...8...
   1ed28:	0b000940 18900948 0a900950 1a900958     @...H...P...X...
   1ed38:	0c900960 1c900968 0e900970 1e900978     `...h...p...x...
   1ed48:	0a400980 10d00988 0b400990 12d00998     ..@.......@.....
   1ed58:	0a4809a0 14d009a8 0b4809b0 16d009b8     ..H.......H.....
   1ed68:	0a5009c0 18d009c8 0ad009d0 1ad009d8     ..P.............
   1ed78:	0cd009e0 1cd009e8 0ed009f0 1ed009f8     ................
   1ed88:	11100a08 13100a18 11400a20 15100a28     ........ .@.(...
   1ed98:	11c00a30 17100a38 19100a48 0b100a50     0...8...H...P...
   1eda8:	1b100a58 0d100a60 1d100a68 0f100a70     X...`...h...p...
   1edb8:	1f100a78 11500a88 0b800a90 13500a98     x.....P.......P.
   1edc8:	11500aa0 15500aa8 0b880ab0 17500ab8     ..P...P.......P.
   1edd8:	0b800ac0 19500ac8 0b500ad0 1b500ad8     ......P...P...P.
   1ede8:	0d500ae0 1d500ae8 0f500af0 1f500af8     ..P...P...P...P.
   1edf8:	11900b08 13900b18 19400b20 15900b28     ........ .@.(...
   1ee08:	19c00b30 17900b38 19900b48 0b900b50     0...8...H...P...
   1ee18:	1b900b58 0d900b60 1d900b68 0f900b70     X...`...h...p...
   1ee28:	1f900b78 11d00b88 0bc00b90 13d00b98     x...............
   1ee38:	19500ba0 15d00ba8 0bc80bb0 17d00bb8     ..P.............
   1ee48:	19d00bc8 1bd00bd8 0dd00be0 1dd00be8     ................
   1ee58:	0fd00bf0 1fd00bf8 12000c00 10180c08     ................
   1ee68:	13000c10 12180c18 12080c20 14180c28     ........ ...(...
   1ee78:	13080c30 16180c38 12100c40 18180c48     0...8...@...H...
   1ee88:	13100c50 1a180c58 12180c60 1c180c68     P...X...`...h...
   1ee98:	0e180c70 1e180c78 1a000c80 10580c88     p...x.........X.
   1eea8:	1b000c90 12580c98 1a080ca0 14580ca8     ......X.......X.
   1eeb8:	1b080cb0 16580cb8 1a100cc0 18580cc8     ......X.......X.
   1eec8:	1b100cd0 1a580cd8 1a180ce0 1c580ce8     ......X.......X.
   1eed8:	0e580cf0 1e580cf8 12400d00 10980d08     ..X...X...@.....
   1eee8:	13400d10 12980d18 12480d20 14980d28     ..@..... .H.(...
   1eef8:	13480d30 16980d38 12500d40 18980d48     0.H.8...@.P.H...
   1ef08:	13500d50 1a980d58 12580d60 1c980d68     P.P.X...`.X.h...
   1ef18:	0e980d70 1e980d78 1a400d80 10d80d88     p...x.....@.....
   1ef28:	1b400d90 12d80d98 1a480da0 14d80da8     ..@.......H.....
   1ef38:	1b480db0 16d80db8 1a500dc0 18d80dc8     ..H.......P.....
   1ef48:	1b500dd0 1ad80dd8 1a580de0 1cd80de8     ..P.......X.....
   1ef58:	0ed80df0 1ed80df8 12800e00 11180e08     ................
   1ef68:	13800e10 13180e18 12880e20 15180e28     ........ ...(...
   1ef78:	13880e30 17180e38 12900e40 19180e48     0...8...@...H...
   1ef88:	13900e50 1b180e58 12980e60 1d180e68     P...X...`...h...
   1ef98:	0f180e70 1f180e78 1a800e80 11580e88     p...x.........X.
   1efa8:	1b800e90 13580e98 1a880ea0 15580ea8     ......X.......X.
   1efb8:	1b880eb0 17580eb8 1a900ec0 19580ec8     ......X.......X.
   1efc8:	1b900ed0 1b580ed8 1a980ee0 1d580ee8     ......X.......X.
   1efd8:	0f580ef0 1f580ef8 12c00f00 11980f08     ..X...X.........
   1efe8:	13c00f10 13980f18 12c80f20 15980f28     ........ ...(...
   1eff8:	13c80f30 17980f38 12d00f40 19980f48     0...8...@...H...
   1f008:	13d00f50 1b980f58 12d80f60 1d980f68     P...X...`...h...
   1f018:	0f980f70 1f980f78 1ac00f80 11d80f88     p...x...........
   1f028:	1bc00f90 13d80f98 1ac80fa0 15d80fa8     ................
   1f038:	1bc80fb0 17d80fb8 1ad00fc0 19d80fc8     ................
   1f048:	1bd00fd0 1bd80fd8 1ad80fe0 1dd80fe8     ................
   1f058:	1bd80ff0 1fd80ff8 10201008 10401010     .......... ...@.
   1f068:	12201018 14201028 10881030 16201038     .. .(. .0...8. .
   1f078:	11001040 18201048 11401050 1a201058     @...H. .P.@.X. .
   1f088:	12081060 1c201068 12881070 1e201078     `...h. .p...x. .
   1f098:	12001080 12081088 12401090 12601098     ..........@...`.
   1f0a8:	122010a0 146010a8 126010b0 166010b8     .. ...`...`...`.
   1f0b8:	130010c0 186010c8 134010d0 1a6010d8     ......`...@...`.
   1f0c8:	121810e0 1c6010e8 129810f0 1e6010f8     ......`.......`.
   1f0d8:	12201108 11401110 12a01118 18081120     .. ...@..... ...
   1f0e8:	14a01128 18881130 16a01138 18a01148     (...0...8...H...
   1f0f8:	1aa01158 1a081160 1ca01168 1a881170     X...`...h...p...
   1f108:	1ea01178 12101180 12181188 12501190     x.............P.
   1f118:	12e01198 181811a0 14e011a8 189811b0     ................
   1f128:	16e011b8 131011c0 18e011c8 135011d0     ..............P.
   1f138:	1ae011d8 1a1811e0 1ce011e8 1a9811f0     ................
   1f148:	1ee011f8 18001200 18081208 18401210     ..............@.
   1f158:	13201218 18201220 15201228 18601230     .. . . .(. .0.`.
   1f168:	17201238 19001240 19201248 19401250     8. .@...H. .P.@.
   1f178:	1b201258 19201260 1d201268 12c81270     X. .`. .h. .p...
   1f188:	1f201278 1a001280 1a081288 1a401290     x. ...........@.
   1f198:	13601298 1a2012a0 156012a8 1a6012b0     ..`... ...`...`.
   1f1a8:	176012b8 1b0012c0 196012c8 1b4012d0     ..`.......`...@.
   1f1b8:	1b6012d8 1b2012e0 1d6012e8 1b6012f0     ..`... ...`...`.
   1f1c8:	1f6012f8 18101300 18181308 18501310     ..`...........P.
   1f1d8:	13a01318 18481320 15a01328 18c81330     .... .H.(...0...
   1f1e8:	17a01338 19101340 19a01348 19501350     8...@...H...P.P.
   1f1f8:	1ba01358 1a481360 1da01368 1ac81370     X...`.H.h...p...
   1f208:	1fa01378 1a101380 1a181388 1a501390     x.............P.
   1f218:	13e01398 185813a0 15e013a8 18d813b0     ......X.........
   1f228:	17e013b8 1b1013c0 19e013c8 1b5013d0     ..............P.
   1f238:	1be013d8 1a5813e0 1de013e8 1ad813f0     ......X.........
   1f248:	1fe013f8 14201408 15001410 15201418     ...... ....... .
   1f258:	15081430 16281438 15001440 18281448     0...8.(.@...H.(.
   1f268:	15101450 1a281458 15201460 1c281468     P...X.(.`. .h.(.
   1f278:	15181470 1e281478 1c001480 1c201488     p...x.(....... .
   1f288:	1d001490 1d201498 1c0814a0 1c2814a8     ...... .......(.
   1f298:	1d0814b0 166814b8 1c1014c0 186814c8     ......h.......h.
   1f2a8:	1d1014d0 1a6814d8 1c1814e0 1c6814e8     ......h.......h.
   1f2b8:	1d1814f0 1e6814f8 15201508 15401510     ......h... ...@.
   1f2c8:	15601518 18281520 1c281528 15481530     ..`. .(.(.(.0.H.
   1f2d8:	16a81538 18a81548 1aa81558 1a281560     8...H...X...`.(.
   1f2e8:	1ca81568 1aa81570 1ea81578 1c401580     h...p...x.....@.
   1f2f8:	1c601588 1d401590 1d601598 1c4815a0     ..`...@...`...H.
   1f308:	1c6815a8 1d4815b0 16e815b8 1c5015c0     ..h...H.......P.
   1f318:	18e815c8 1d5015d0 1ae815d8 1c5815e0     ......P.......X.
   1f328:	1ce815e8 1d5815f0 1ee815f8 1c001600     ......X.........
   1f338:	1c081608 1c401610 1c481618 1c201620     ......@...H. . .
   1f348:	1c281628 1c601630 17281638 1d001640     (.(.0.`.8.(.@...
   1f358:	19281648 1d401650 1b281658 1d201660     H.(.P.@.X.(.`. .
   1f368:	1d281668 1d601670 1f281678 1c801680     h.(.p.`.x.(.....
   1f378:	1ca01688 1d801690 1da01698 1c8816a0     ................
   1f388:	1ca816a8 1d8816b0 176816b8 1c9016c0     ..........h.....
   1f398:	196816c8 1d9016d0 1b6816d8 1c9816e0     ..h.......h.....
   1f3a8:	1d6816e8 1d9816f0 1f6816f8 1c101700     ..h.......h.....
   1f3b8:	1c181708 1c501710 1c581718 18681720     ......P...X. .h.
   1f3c8:	1c681728 18e81730 17a81738 1d101740     (.h.0...8...@...
   1f3d8:	19a81748 1d501750 1ba81758 1a681760     H...P.P.X...`.h.
   1f3e8:	1da81768 1ae81770 1fa81778 1cc01780     h...p...x.......
   1f3f8:	1ce01788 1dc01790 1de01798 1cc817a0     ................
   1f408:	1ce817a8 1dc817b0 17e817b8 1cd017c0     ................
   1f418:	19e817c8 1dd017d0 1be817d8 1cd817e0     ................
   1f428:	1de817e8 1dd817f0 1fe817f8 18601818     ..............`.
   1f438:	18481830 1c601838 1a301858 1c301868     0.H.8.`.X.0.h.0.
   1f448:	1a181870 1e301878 1a001880 1a081888     p...x.0.........
   1f458:	1b001890 19601898 1a2018a0 1a2818a8     ......`... ...(.
   1f468:	1b2018b0 1d6018b8 1a1018c0 1a1818c8     .. ...`.........
   1f478:	1b1018d0 1a7018d8 1a3018e0 1c7018e8     ......p...0...p.
   1f488:	1a5818f0 1e7018f8 19201908 1a601918     ..X...p... ...`.
   1f498:	1d081928 19881930 1d881938 1b201948     (...0...8...H. .
   1f4a8:	1ab01958 1b081960 1cb01968 1b881970     X...`...h...p...
   1f4b8:	1eb01978 1a401980 1a481988 1b401990     x.....@...H...@.
   1f4c8:	1b601998 1a6019a0 1d1819a8 1b6019b0     ..`...`.......`.
   1f4d8:	1d9819b8 1a5019c0 1a5819c8 1b5019d0     ......P...X...P.
   1f4e8:	1af019d8 1b1819e0 1cf019e8 1b9819f0     ................
   1f4f8:	1ef019f8 1c701a38 1b301a58 1d301a68     ....8.p.X.0.h.0.
   1f508:	1b181a70 1f301a78 1ac01a90 1ac81a98     p...x.0.........
   1f518:	1ae01ab0 1ae81ab8 1b801ac0 1b881ac8     ................
   1f528:	1bc01ad0 1b701ad8 1ba01ae0 1d701ae8     ......p.......p.
   1f538:	1be01af0 1f701af8 1d481b28 1dc81b38     ......p.(.H.8...
   1f548:	1b601b48 1bb01b58 1db01b68 1bc81b70     H.`.X...h...p...
   1f558:	1fb01b78 1bc01b90 1bc81b98 1d581ba8     x.............X.
   1f568:	1be01bb0 1dd81bb8 1bf01bd8 1df01be8     ................
   1f578:	1ff01bf8 1c201c08 1c301c18 1c681c38     ...... ...0.8.h.
   1f588:	1c601c48 1c701c58 1e381c78 1e001c80     H.`.X.p.x.8.....
   1f598:	1e201c88 1f001c90 1f201c98 1e081ca0     .. ....... .....
   1f5a8:	1e281ca8 1f081cb0 1f281cb8 1e101cc0     ..(.......(.....
   1f5b8:	1e301cc8 1f101cd0 1f301cd8 1e181ce0     ..0.......0.....
   1f5c8:	1e381ce8 1f181cf0 1e781cf8 1d201d08     ..8.......x... .
   1f5d8:	1d301d18 1da81d38 1d601d48 1d701d58     ..0.8...H.`.X.p.
   1f5e8:	1f281d68 1eb81d78 1e401d80 1e601d88     h.(.x.....@...`.
   1f5f8:	1f401d90 1f601d98 1e481da0 1e681da8     ..@...`...H...h.
   1f608:	1f481db0 1f681db8 1e501dc0 1e701dc8     ..H...h...P...p.
   1f618:	1f501dd0 1f701dd8 1e581de0 1e781de8     ..P...p...X...x.
   1f628:	1f581df0 1ef81df8 1e201e08 1e301e18     ..X....... ...0.
   1f638:	1e601e48 1e701e58 1f381e78 1ea01e88     H.`.X.p.x.8.....
   1f648:	1f801e90 1fa01e98 1f881eb0 1fa81eb8     ................
   1f658:	1f801ec0 1f881ec8 1f901ed0 1fb01ed8     ................
   1f668:	1fa01ee0 1fa81ee8 1f981ef0 1f781ef8     ..............x.
   1f678:	1f201f08 1f301f18 1f601f48 1f701f58     .. ...0.H.`.X.p.
   1f688:	1fb81f78 1fa01f88 1fc01f90 1fe01f98     x...............
   1f698:	1fc81fb0 1fe81fb8 1fe01fc8 1ff01fd8     ................

0001f6a8 <armBitRevIndexTable16>:
   1f6a8:	00400008 00480018 00400010 00500028     ..@...H...@.(.P.
   1f6b8:	00400020 00580038 00480030 00680058      .@.8.X.0.H.X.h.
   1f6c8:	00600048 00700068                       H.`.h.p.

0001f6d0 <twiddleCoef_rfft_32>:
   1f6d0:	00000000 3f800000 3e47c5c2 3f7b14be     .......?..G>..{?
   1f6e0:	3ec3ef15 3f6c835e 3f0e39da 3f54db31     ...>^.l?.9.?1.T?
   1f6f0:	3f3504f3 3f3504f3 3f54db31 3f0e39da     ..5?..5?1.T?.9.?
   1f700:	3f6c835e 3ec3ef15 3f7b14be 3e47c5c2     ^.l?...>..{?..G>
   1f710:	3f800000 00000000 3f7b14be be47c5c2     ...?......{?..G.
   1f720:	3f6c835e bec3ef15 3f54db31 bf0e39da     ^.l?....1.T?.9..
   1f730:	3f3504f3 bf3504f3 3f0e39da bf54db31     ..5?..5..9.?1.T.
   1f740:	3ec3ef15 bf6c835e 3e47c5c2 bf7b14be     ...>^.l...G>..{.

0001f750 <armBitRevIndexTable32>:
   1f750:	00400008 00800010 00c00018 00400020     ..@......... .@.
   1f760:	00480028 00880030 00c80038 00800040     (.H.0...8...@...
   1f770:	00500048 00d00058 00900050 00c00060     H.P.X...P...`...
   1f780:	00d00068 00980070 00d80078 00c00088     h...p...x.......
   1f790:	00a00090 00d000a8 00e00098 00d000b0     ................
   1f7a0:	00e800b8 00f000d8 00e000c8 00f000e8     ................

0001f7b0 <twiddleCoef_128>:
   1f7b0:	3f800000 00000000 3f7fb10f 3d48fb2f     ...?.......?/.H=
   1f7c0:	3f7ec46d 3dc8bd36 3f7d3aac 3e164083     m.~?6..=.:}?.@.>
   1f7d0:	3f7b14be 3e47c5c2 3f7853f8 3e78cfcc     ..{?..G>.Sx?..x>
   1f7e0:	3f74fa0b 3e94a031 3f710908 3eac7cd4     ..t?1..>..q?.|.>
   1f7f0:	3f6c835e 3ec3ef15 3f676bd8 3edae880     ^.l?...>.kg?...>
   1f800:	3f61c598 3ef15aea 3f5b941a 3f039c3d     ..a?.Z.>..[?=..?
   1f810:	3f54db31 3f0e39da 3f4d9f02 3f187fc0     1.T?.9.?..M?...?
   1f820:	3f45e403 3f226799 3f3daef9 3f2beb4a     ..E?.g"?..=?J.+?
   1f830:	3f3504f3 3f3504f3 3f2beb4a 3f3daef9     ..5?..5?J.+?..=?
   1f840:	3f226799 3f45e403 3f187fc0 3f4d9f02     .g"?..E?...?..M?
   1f850:	3f0e39da 3f54db31 3f039c3d 3f5b941a     .9.?1.T?=..?..[?
   1f860:	3ef15aea 3f61c598 3edae880 3f676bd8     .Z.>..a?...>.kg?
   1f870:	3ec3ef15 3f6c835e 3eac7cd4 3f710908     ...>^.l?.|.>..q?
   1f880:	3e94a031 3f74fa0b 3e78cfcc 3f7853f8     1..>..t?..x>.Sx?
   1f890:	3e47c5c2 3f7b14be 3e164083 3f7d3aac     ..G>..{?.@.>.:}?
   1f8a0:	3dc8bd36 3f7ec46d 3d48fb2f 3f7fb10f     6..=m.~?/.H=...?
   1f8b0:	00000000 3f800000 bd48fb2f 3f7fb10f     .......?/.H....?
   1f8c0:	bdc8bd36 3f7ec46d be164083 3f7d3aac     6...m.~?.@...:}?
   1f8d0:	be47c5c2 3f7b14be be78cfcc 3f7853f8     ..G...{?..x..Sx?
   1f8e0:	be94a031 3f74fa0b beac7cd4 3f710908     1.....t?.|....q?
   1f8f0:	bec3ef15 3f6c835e bedae880 3f676bd8     ....^.l?.....kg?
   1f900:	bef15aea 3f61c598 bf039c3d 3f5b941a     .Z....a?=.....[?
   1f910:	bf0e39da 3f54db31 bf187fc0 3f4d9f02     .9..1.T?......M?
   1f920:	bf226799 3f45e403 bf2beb4a 3f3daef9     .g"...E?J.+...=?
   1f930:	bf3504f3 3f3504f3 bf3daef9 3f2beb4a     ..5...5?..=.J.+?
   1f940:	bf45e403 3f226799 bf4d9f02 3f187fc0     ..E..g"?..M....?
   1f950:	bf54db31 3f0e39da bf5b941a 3f039c3d     1.T..9.?..[.=..?
   1f960:	bf61c598 3ef15aea bf676bd8 3edae880     ..a..Z.>.kg....>
   1f970:	bf6c835e 3ec3ef15 bf710908 3eac7cd4     ^.l....>..q..|.>
   1f980:	bf74fa0b 3e94a031 bf7853f8 3e78cfcc     ..t.1..>.Sx...x>
   1f990:	bf7b14be 3e47c5c2 bf7d3aac 3e164083     ..{...G>.:}..@.>
   1f9a0:	bf7ec46d 3dc8bd36 bf7fb10f 3d48fb2f     m.~.6..=..../.H=
   1f9b0:	bf800000 00000000 bf7fb10f bd48fb2f     ............/.H.
   1f9c0:	bf7ec46d bdc8bd36 bf7d3aac be164083     m.~.6....:}..@..
   1f9d0:	bf7b14be be47c5c2 bf7853f8 be78cfcc     ..{...G..Sx...x.
   1f9e0:	bf74fa0b be94a031 bf710908 beac7cd4     ..t.1.....q..|..
   1f9f0:	bf6c835e bec3ef15 bf676bd8 bedae880     ^.l......kg.....
   1fa00:	bf61c598 bef15aea bf5b941a bf039c3d     ..a..Z....[.=...
   1fa10:	bf54db31 bf0e39da bf4d9f02 bf187fc0     1.T..9....M.....
   1fa20:	bf45e403 bf226799 bf3daef9 bf2beb4a     ..E..g"...=.J.+.
   1fa30:	bf3504f3 bf3504f3 bf2beb4a bf3daef9     ..5...5.J.+...=.
   1fa40:	bf226799 bf45e403 bf187fc0 bf4d9f02     .g"...E.......M.
   1fa50:	bf0e39da bf54db31 bf039c3d bf5b941a     .9..1.T.=.....[.
   1fa60:	bef15aea bf61c598 bedae880 bf676bd8     .Z....a......kg.
   1fa70:	bec3ef15 bf6c835e beac7cd4 bf710908     ....^.l..|....q.
   1fa80:	be94a031 bf74fa0b be78cfcc bf7853f8     1.....t...x..Sx.
   1fa90:	be47c5c2 bf7b14be be164083 bf7d3aac     ..G...{..@...:}.
   1faa0:	bdc8bd36 bf7ec46d bd48fb2f bf7fb10f     6...m.~./.H.....
   1fab0:	80000000 bf800000 3d48fb2f bf7fb10f     ......../.H=....
   1fac0:	3dc8bd36 bf7ec46d 3e164083 bf7d3aac     6..=m.~..@.>.:}.
   1fad0:	3e47c5c2 bf7b14be 3e78cfcc bf7853f8     ..G>..{...x>.Sx.
   1fae0:	3e94a031 bf74fa0b 3eac7cd4 bf710908     1..>..t..|.>..q.
   1faf0:	3ec3ef15 bf6c835e 3edae880 bf676bd8     ...>^.l....>.kg.
   1fb00:	3ef15aea bf61c598 3f039c3d bf5b941a     .Z.>..a.=..?..[.
   1fb10:	3f0e39da bf54db31 3f187fc0 bf4d9f02     .9.?1.T....?..M.
   1fb20:	3f226799 bf45e403 3f2beb4a bf3daef9     .g"?..E.J.+?..=.
   1fb30:	3f3504f3 bf3504f3 3f3daef9 bf2beb4a     ..5?..5...=?J.+.
   1fb40:	3f45e403 bf226799 3f4d9f02 bf187fc0     ..E?.g"...M?....
   1fb50:	3f54db31 bf0e39da 3f5b941a bf039c3d     1.T?.9....[?=...
   1fb60:	3f61c598 bef15aea 3f676bd8 bedae880     ..a?.Z...kg?....
   1fb70:	3f6c835e bec3ef15 3f710908 beac7cd4     ^.l?......q?.|..
   1fb80:	3f74fa0b be94a031 3f7853f8 be78cfcc     ..t?1....Sx?..x.
   1fb90:	3f7b14be be47c5c2 3f7d3aac be164083     ..{?..G..:}?.@..
   1fba0:	3f7ec46d bdc8bd36 3f7fb10f bd48fb2f     m.~?6......?/.H.

0001fbb0 <twiddleCoef_512>:
   1fbb0:	3f800000 00000000 3f7ffb11 3c490e90     ...?.......?..I<
   1fbc0:	3f7fec43 3cc90ab0 3f7fd398 3d16c32c     C..?...<...?,..=
   1fbd0:	3f7fb10f 3d48fb2f 3f7f84ab 3d7b2b74     ...?/.H=...?t+{=
   1fbe0:	3f7f4e6d 3d96a905 3f7f0e58 3dafb680     mN.?...=X..?...=
   1fbf0:	3f7ec46d 3dc8bd36 3f7e70b0 3de1bc2e     m.~?6..=.p~?...=
   1fc00:	3f7e1324 3dfab273 3f7dabcc 3e09cf86     $.~?s..=..}?...>
   1fc10:	3f7d3aac 3e164083 3f7cbfc9 3e22abb6     .:}?.@.>..|?..">
   1fc20:	3f7c3b28 3e2f10a2 3f7baccd 3e3b6ecf     (;|?../>..{?.n;>
   1fc30:	3f7b14be 3e47c5c2 3f7a7302 3e541501     ..{?..G>.sz?..T>
   1fc40:	3f79c79d 3e605c13 3f791298 3e6c9a7f     ..y?.\`>..y?..l>
   1fc50:	3f7853f8 3e78cfcc 3f778bc5 3e827dc0     .Sx?..x>..w?.}.>
   1fc60:	3f76ba07 3e888e93 3f75dec6 3e8e9a22     ..v?...>..u?"..>
   1fc70:	3f74fa0b 3e94a031 3f740bdd 3e9aa086     ..t?1..>..t?...>
   1fc80:	3f731447 3ea09ae5 3f721352 3ea68f12     G.s?...>R.r?...>
   1fc90:	3f710908 3eac7cd4 3f6ff573 3eb263ef     ..q?.|.>s.o?.c.>
   1fca0:	3f6ed89e 3eb8442a 3f6db293 3ebe1d4a     ..n?*D.>..m?J..>
   1fcb0:	3f6c835e 3ec3ef15 3f6b4b0c 3ec9b953     ^.l?...>.Kk?S..>
   1fcc0:	3f6a09a7 3ecf7bca 3f68bf3c 3ed53641     ..j?.{.><.h?A6.>
   1fcd0:	3f676bd8 3edae880 3f660f88 3ee0924f     .kg?...>..f?O..>
   1fce0:	3f64aa59 3ee63375 3f633c5a 3eebcbbb     Y.d?u3.>Z<c?...>
   1fcf0:	3f61c598 3ef15aea 3f604621 3ef6e0cb     ..a?.Z.>!F`?...>
   1fd00:	3f5ebe05 3efc5d27 3f5d2d53 3f00e7e4     ..^?'].>S-]?...?
   1fd10:	3f5b941a 3f039c3d 3f59f26a 3f064b82     ..[?=..?j.Y?.K.?
   1fd20:	3f584853 3f08f59b 3f5695e5 3f0b9a6b     SHX?...?..V?k..?
   1fd30:	3f54db31 3f0e39da 3f531849 3f10d3cd     1.T?.9.?I.S?...?
   1fd40:	3f514d3d 3f13682a 3f4f7a1f 3f15f6d9     =MQ?*h.?.zO?...?
   1fd50:	3f4d9f02 3f187fc0 3f4bbbf8 3f1b02c6     ..M?...?..K?...?
   1fd60:	3f49d112 3f1d7fd1 3f47de65 3f1ff6cb     ..I?...?e.G?...?
   1fd70:	3f45e403 3f226799 3f43e200 3f24d225     ..E?.g"?..C?%.$?
   1fd80:	3f41d870 3f273656 3f3fc767 3f299415     p.A?V6'?g.??..)?
   1fd90:	3f3daef9 3f2beb4a 3f3b8f3b 3f2e3bde     ..=?J.+?;.;?.;.?
   1fda0:	3f396842 3f3085bb 3f373a23 3f32c8c9     Bh9?..0?#:7?..2?
   1fdb0:	3f3504f3 3f3504f3 3f32c8c9 3f373a23     ..5?..5?..2?#:7?
   1fdc0:	3f3085bb 3f396842 3f2e3bde 3f3b8f3b     ..0?Bh9?.;.?;.;?
   1fdd0:	3f2beb4a 3f3daef9 3f299415 3f3fc767     J.+?..=?..)?g.??
   1fde0:	3f273656 3f41d870 3f24d225 3f43e200     V6'?p.A?%.$?..C?
   1fdf0:	3f226799 3f45e403 3f1ff6cb 3f47de65     .g"?..E?...?e.G?
   1fe00:	3f1d7fd1 3f49d112 3f1b02c6 3f4bbbf8     ...?..I?...?..K?
   1fe10:	3f187fc0 3f4d9f02 3f15f6d9 3f4f7a1f     ...?..M?...?.zO?
   1fe20:	3f13682a 3f514d3d 3f10d3cd 3f531849     *h.?=MQ?...?I.S?
   1fe30:	3f0e39da 3f54db31 3f0b9a6b 3f5695e5     .9.?1.T?k..?..V?
   1fe40:	3f08f59b 3f584853 3f064b82 3f59f26a     ...?SHX?.K.?j.Y?
   1fe50:	3f039c3d 3f5b941a 3f00e7e4 3f5d2d53     =..?..[?...?S-]?
   1fe60:	3efc5d27 3f5ebe05 3ef6e0cb 3f604621     '].>..^?...>!F`?
   1fe70:	3ef15aea 3f61c598 3eebcbbb 3f633c5a     .Z.>..a?...>Z<c?
   1fe80:	3ee63375 3f64aa59 3ee0924f 3f660f88     u3.>Y.d?O..>..f?
   1fe90:	3edae880 3f676bd8 3ed53641 3f68bf3c     ...>.kg?A6.><.h?
   1fea0:	3ecf7bca 3f6a09a7 3ec9b953 3f6b4b0c     .{.>..j?S..>.Kk?
   1feb0:	3ec3ef15 3f6c835e 3ebe1d4a 3f6db293     ...>^.l?J..>..m?
   1fec0:	3eb8442a 3f6ed89e 3eb263ef 3f6ff573     *D.>..n?.c.>s.o?
   1fed0:	3eac7cd4 3f710908 3ea68f12 3f721352     .|.>..q?...>R.r?
   1fee0:	3ea09ae5 3f731447 3e9aa086 3f740bdd     ...>G.s?...>..t?
   1fef0:	3e94a031 3f74fa0b 3e8e9a22 3f75dec6     1..>..t?"..>..u?
   1ff00:	3e888e93 3f76ba07 3e827dc0 3f778bc5     ...>..v?.}.>..w?
   1ff10:	3e78cfcc 3f7853f8 3e6c9a7f 3f791298     ..x>.Sx?..l>..y?
   1ff20:	3e605c13 3f79c79d 3e541501 3f7a7302     .\`>..y?..T>.sz?
   1ff30:	3e47c5c2 3f7b14be 3e3b6ecf 3f7baccd     ..G>..{?.n;>..{?
   1ff40:	3e2f10a2 3f7c3b28 3e22abb6 3f7cbfc9     ../>(;|?..">..|?
   1ff50:	3e164083 3f7d3aac 3e09cf86 3f7dabcc     .@.>.:}?...>..}?
   1ff60:	3dfab273 3f7e1324 3de1bc2e 3f7e70b0     s..=$.~?...=.p~?
   1ff70:	3dc8bd36 3f7ec46d 3dafb680 3f7f0e58     6..=m.~?...=X..?
   1ff80:	3d96a905 3f7f4e6d 3d7b2b74 3f7f84ab     ...=mN.?t+{=...?
   1ff90:	3d48fb2f 3f7fb10f 3d16c32c 3f7fd398     /.H=...?,..=...?
   1ffa0:	3cc90ab0 3f7fec43 3c490e90 3f7ffb11     ...<C..?..I<...?
   1ffb0:	00000000 3f800000 bc490e90 3f7ffb11     .......?..I....?
   1ffc0:	bcc90ab0 3f7fec43 bd16c32c 3f7fd398     ....C..?,......?
   1ffd0:	bd48fb2f 3f7fb10f bd7b2b74 3f7f84ab     /.H....?t+{....?
   1ffe0:	bd96a905 3f7f4e6d bdafb680 3f7f0e58     ....mN.?....X..?
   1fff0:	bdc8bd36 3f7ec46d bde1bc2e 3f7e70b0     6...m.~?.....p~?
   20000:	bdfab273 3f7e1324 be09cf86 3f7dabcc     s...$.~?......}?
   20010:	be164083 3f7d3aac be22abb6 3f7cbfc9     .@...:}?.."...|?
   20020:	be2f10a2 3f7c3b28 be3b6ecf 3f7baccd     ../.(;|?.n;...{?
   20030:	be47c5c2 3f7b14be be541501 3f7a7302     ..G...{?..T..sz?
   20040:	be605c13 3f79c79d be6c9a7f 3f791298     .\`...y?..l...y?
   20050:	be78cfcc 3f7853f8 be827dc0 3f778bc5     ..x..Sx?.}....w?
   20060:	be888e93 3f76ba07 be8e9a22 3f75dec6     ......v?".....u?
   20070:	be94a031 3f74fa0b be9aa086 3f740bdd     1.....t?......t?
   20080:	bea09ae5 3f731447 bea68f12 3f721352     ....G.s?....R.r?
   20090:	beac7cd4 3f710908 beb263ef 3f6ff573     .|....q?.c..s.o?
   200a0:	beb8442a 3f6ed89e bebe1d4a 3f6db293     *D....n?J.....m?
   200b0:	bec3ef15 3f6c835e bec9b953 3f6b4b0c     ....^.l?S....Kk?
   200c0:	becf7bca 3f6a09a7 bed53641 3f68bf3c     .{....j?A6..<.h?
   200d0:	bedae880 3f676bd8 bee0924f 3f660f88     .....kg?O.....f?
   200e0:	bee63375 3f64aa59 beebcbbb 3f633c5a     u3..Y.d?....Z<c?
   200f0:	bef15aea 3f61c598 bef6e0cb 3f604621     .Z....a?....!F`?
   20100:	befc5d27 3f5ebe05 bf00e7e4 3f5d2d53     ']....^?....S-]?
   20110:	bf039c3d 3f5b941a bf064b82 3f59f26a     =.....[?.K..j.Y?
   20120:	bf08f59b 3f584853 bf0b9a6b 3f5695e5     ....SHX?k.....V?
   20130:	bf0e39da 3f54db31 bf10d3cd 3f531849     .9..1.T?....I.S?
   20140:	bf13682a 3f514d3d bf15f6d9 3f4f7a1f     *h..=MQ?.....zO?
   20150:	bf187fc0 3f4d9f02 bf1b02c6 3f4bbbf8     ......M?......K?
   20160:	bf1d7fd1 3f49d112 bf1ff6cb 3f47de65     ......I?....e.G?
   20170:	bf226799 3f45e403 bf24d225 3f43e200     .g"...E?%.$...C?
   20180:	bf273656 3f41d870 bf299415 3f3fc767     V6'.p.A?..).g.??
   20190:	bf2beb4a 3f3daef9 bf2e3bde 3f3b8f3b     J.+...=?.;..;.;?
   201a0:	bf3085bb 3f396842 bf32c8c9 3f373a23     ..0.Bh9?..2.#:7?
   201b0:	bf3504f3 3f3504f3 bf373a23 3f32c8c9     ..5...5?#:7...2?
   201c0:	bf396842 3f3085bb bf3b8f3b 3f2e3bde     Bh9...0?;.;..;.?
   201d0:	bf3daef9 3f2beb4a bf3fc767 3f299415     ..=.J.+?g.?...)?
   201e0:	bf41d870 3f273656 bf43e200 3f24d225     p.A.V6'?..C.%.$?
   201f0:	bf45e403 3f226799 bf47de65 3f1ff6cb     ..E..g"?e.G....?
   20200:	bf49d112 3f1d7fd1 bf4bbbf8 3f1b02c6     ..I....?..K....?
   20210:	bf4d9f02 3f187fc0 bf4f7a1f 3f15f6d9     ..M....?.zO....?
   20220:	bf514d3d 3f13682a bf531849 3f10d3cd     =MQ.*h.?I.S....?
   20230:	bf54db31 3f0e39da bf5695e5 3f0b9a6b     1.T..9.?..V.k..?
   20240:	bf584853 3f08f59b bf59f26a 3f064b82     SHX....?j.Y..K.?
   20250:	bf5b941a 3f039c3d bf5d2d53 3f00e7e4     ..[.=..?S-]....?
   20260:	bf5ebe05 3efc5d27 bf604621 3ef6e0cb     ..^.'].>!F`....>
   20270:	bf61c598 3ef15aea bf633c5a 3eebcbbb     ..a..Z.>Z<c....>
   20280:	bf64aa59 3ee63375 bf660f88 3ee0924f     Y.d.u3.>..f.O..>
   20290:	bf676bd8 3edae880 bf68bf3c 3ed53641     .kg....><.h.A6.>
   202a0:	bf6a09a7 3ecf7bca bf6b4b0c 3ec9b953     ..j..{.>.Kk.S..>
   202b0:	bf6c835e 3ec3ef15 bf6db293 3ebe1d4a     ^.l....>..m.J..>
   202c0:	bf6ed89e 3eb8442a bf6ff573 3eb263ef     ..n.*D.>s.o..c.>
   202d0:	bf710908 3eac7cd4 bf721352 3ea68f12     ..q..|.>R.r....>
   202e0:	bf731447 3ea09ae5 bf740bdd 3e9aa086     G.s....>..t....>
   202f0:	bf74fa0b 3e94a031 bf75dec6 3e8e9a22     ..t.1..>..u."..>
   20300:	bf76ba07 3e888e93 bf778bc5 3e827dc0     ..v....>..w..}.>
   20310:	bf7853f8 3e78cfcc bf791298 3e6c9a7f     .Sx...x>..y...l>
   20320:	bf79c79d 3e605c13 bf7a7302 3e541501     ..y..\`>.sz...T>
   20330:	bf7b14be 3e47c5c2 bf7baccd 3e3b6ecf     ..{...G>..{..n;>
   20340:	bf7c3b28 3e2f10a2 bf7cbfc9 3e22abb6     (;|.../>..|...">
   20350:	bf7d3aac 3e164083 bf7dabcc 3e09cf86     .:}..@.>..}....>
   20360:	bf7e1324 3dfab273 bf7e70b0 3de1bc2e     $.~.s..=.p~....=
   20370:	bf7ec46d 3dc8bd36 bf7f0e58 3dafb680     m.~.6..=X......=
   20380:	bf7f4e6d 3d96a905 bf7f84ab 3d7b2b74     mN.....=....t+{=
   20390:	bf7fb10f 3d48fb2f bf7fd398 3d16c32c     ..../.H=....,..=
   203a0:	bf7fec43 3cc90ab0 bf7ffb11 3c490e90     C......<......I<
   203b0:	bf800000 00000000 bf7ffb11 bc490e90     ..............I.
   203c0:	bf7fec43 bcc90ab0 bf7fd398 bd16c32c     C...........,...
   203d0:	bf7fb10f bd48fb2f bf7f84ab bd7b2b74     ..../.H.....t+{.
   203e0:	bf7f4e6d bd96a905 bf7f0e58 bdafb680     mN......X.......
   203f0:	bf7ec46d bdc8bd36 bf7e70b0 bde1bc2e     m.~.6....p~.....
   20400:	bf7e1324 bdfab273 bf7dabcc be09cf86     $.~.s.....}.....
   20410:	bf7d3aac be164083 bf7cbfc9 be22abb6     .:}..@....|...".
   20420:	bf7c3b28 be2f10a2 bf7baccd be3b6ecf     (;|.../...{..n;.
   20430:	bf7b14be be47c5c2 bf7a7302 be541501     ..{...G..sz...T.
   20440:	bf79c79d be605c13 bf791298 be6c9a7f     ..y..\`...y...l.
   20450:	bf7853f8 be78cfcc bf778bc5 be827dc0     .Sx...x...w..}..
   20460:	bf76ba07 be888e93 bf75dec6 be8e9a22     ..v.......u."...
   20470:	bf74fa0b be94a031 bf740bdd be9aa086     ..t.1.....t.....
   20480:	bf731447 bea09ae5 bf721352 bea68f12     G.s.....R.r.....
   20490:	bf710908 beac7cd4 bf6ff573 beb263ef     ..q..|..s.o..c..
   204a0:	bf6ed89e beb8442a bf6db293 bebe1d4a     ..n.*D....m.J...
   204b0:	bf6c835e bec3ef15 bf6b4b0c bec9b953     ^.l......Kk.S...
   204c0:	bf6a09a7 becf7bca bf68bf3c bed53641     ..j..{..<.h.A6..
   204d0:	bf676bd8 bedae880 bf660f88 bee0924f     .kg.......f.O...
   204e0:	bf64aa59 bee63375 bf633c5a beebcbbb     Y.d.u3..Z<c.....
   204f0:	bf61c598 bef15aea bf604621 bef6e0cb     ..a..Z..!F`.....
   20500:	bf5ebe05 befc5d27 bf5d2d53 bf00e7e4     ..^.']..S-].....
   20510:	bf5b941a bf039c3d bf59f26a bf064b82     ..[.=...j.Y..K..
   20520:	bf584853 bf08f59b bf5695e5 bf0b9a6b     SHX.......V.k...
   20530:	bf54db31 bf0e39da bf531849 bf10d3cd     1.T..9..I.S.....
   20540:	bf514d3d bf13682a bf4f7a1f bf15f6d9     =MQ.*h...zO.....
   20550:	bf4d9f02 bf187fc0 bf4bbbf8 bf1b02c6     ..M.......K.....
   20560:	bf49d112 bf1d7fd1 bf47de65 bf1ff6cb     ..I.....e.G.....
   20570:	bf45e403 bf226799 bf43e200 bf24d225     ..E..g"...C.%.$.
   20580:	bf41d870 bf273656 bf3fc767 bf299415     p.A.V6'.g.?...).
   20590:	bf3daef9 bf2beb4a bf3b8f3b bf2e3bde     ..=.J.+.;.;..;..
   205a0:	bf396842 bf3085bb bf373a23 bf32c8c9     Bh9...0.#:7...2.
   205b0:	bf3504f3 bf3504f3 bf32c8c9 bf373a23     ..5...5...2.#:7.
   205c0:	bf3085bb bf396842 bf2e3bde bf3b8f3b     ..0.Bh9..;..;.;.
   205d0:	bf2beb4a bf3daef9 bf299415 bf3fc767     J.+...=...).g.?.
   205e0:	bf273656 bf41d870 bf24d225 bf43e200     V6'.p.A.%.$...C.
   205f0:	bf226799 bf45e403 bf1ff6cb bf47de65     .g"...E.....e.G.
   20600:	bf1d7fd1 bf49d112 bf1b02c6 bf4bbbf8     ......I.......K.
   20610:	bf187fc0 bf4d9f02 bf15f6d9 bf4f7a1f     ......M......zO.
   20620:	bf13682a bf514d3d bf10d3cd bf531849     *h..=MQ.....I.S.
   20630:	bf0e39da bf54db31 bf0b9a6b bf5695e5     .9..1.T.k.....V.
   20640:	bf08f59b bf584853 bf064b82 bf59f26a     ....SHX..K..j.Y.
   20650:	bf039c3d bf5b941a bf00e7e4 bf5d2d53     =.....[.....S-].
   20660:	befc5d27 bf5ebe05 bef6e0cb bf604621     ']....^.....!F`.
   20670:	bef15aea bf61c598 beebcbbb bf633c5a     .Z....a.....Z<c.
   20680:	bee63375 bf64aa59 bee0924f bf660f88     u3..Y.d.O.....f.
   20690:	bedae880 bf676bd8 bed53641 bf68bf3c     .....kg.A6..<.h.
   206a0:	becf7bca bf6a09a7 bec9b953 bf6b4b0c     .{....j.S....Kk.
   206b0:	bec3ef15 bf6c835e bebe1d4a bf6db293     ....^.l.J.....m.
   206c0:	beb8442a bf6ed89e beb263ef bf6ff573     *D....n..c..s.o.
   206d0:	beac7cd4 bf710908 bea68f12 bf721352     .|....q.....R.r.
   206e0:	bea09ae5 bf731447 be9aa086 bf740bdd     ....G.s.......t.
   206f0:	be94a031 bf74fa0b be8e9a22 bf75dec6     1.....t.".....u.
   20700:	be888e93 bf76ba07 be827dc0 bf778bc5     ......v..}....w.
   20710:	be78cfcc bf7853f8 be6c9a7f bf791298     ..x..Sx...l...y.
   20720:	be605c13 bf79c79d be541501 bf7a7302     .\`...y...T..sz.
   20730:	be47c5c2 bf7b14be be3b6ecf bf7baccd     ..G...{..n;...{.
   20740:	be2f10a2 bf7c3b28 be22abb6 bf7cbfc9     ../.(;|..."...|.
   20750:	be164083 bf7d3aac be09cf86 bf7dabcc     .@...:}.......}.
   20760:	bdfab273 bf7e1324 bde1bc2e bf7e70b0     s...$.~......p~.
   20770:	bdc8bd36 bf7ec46d bdafb680 bf7f0e58     6...m.~.....X...
   20780:	bd96a905 bf7f4e6d bd7b2b74 bf7f84ab     ....mN..t+{.....
   20790:	bd48fb2f bf7fb10f bd16c32c bf7fd398     /.H.....,.......
   207a0:	bcc90ab0 bf7fec43 bc490e90 bf7ffb11     ....C.....I.....
   207b0:	80000000 bf800000 3c490e90 bf7ffb11     ..........I<....
   207c0:	3cc90ab0 bf7fec43 3d16c32c bf7fd398     ...<C...,..=....
   207d0:	3d48fb2f bf7fb10f 3d7b2b74 bf7f84ab     /.H=....t+{=....
   207e0:	3d96a905 bf7f4e6d 3dafb680 bf7f0e58     ...=mN.....=X...
   207f0:	3dc8bd36 bf7ec46d 3de1bc2e bf7e70b0     6..=m.~....=.p~.
   20800:	3dfab273 bf7e1324 3e09cf86 bf7dabcc     s..=$.~....>..}.
   20810:	3e164083 bf7d3aac 3e22abb6 bf7cbfc9     .@.>.:}...">..|.
   20820:	3e2f10a2 bf7c3b28 3e3b6ecf bf7baccd     ../>(;|..n;>..{.
   20830:	3e47c5c2 bf7b14be 3e541501 bf7a7302     ..G>..{...T>.sz.
   20840:	3e605c13 bf79c79d 3e6c9a7f bf791298     .\`>..y...l>..y.
   20850:	3e78cfcc bf7853f8 3e827dc0 bf778bc5     ..x>.Sx..}.>..w.
   20860:	3e888e93 bf76ba07 3e8e9a22 bf75dec6     ...>..v."..>..u.
   20870:	3e94a031 bf74fa0b 3e9aa086 bf740bdd     1..>..t....>..t.
   20880:	3ea09ae5 bf731447 3ea68f12 bf721352     ...>G.s....>R.r.
   20890:	3eac7cd4 bf710908 3eb263ef bf6ff573     .|.>..q..c.>s.o.
   208a0:	3eb8442a bf6ed89e 3ebe1d4a bf6db293     *D.>..n.J..>..m.
   208b0:	3ec3ef15 bf6c835e 3ec9b953 bf6b4b0c     ...>^.l.S..>.Kk.
   208c0:	3ecf7bca bf6a09a7 3ed53641 bf68bf3c     .{.>..j.A6.><.h.
   208d0:	3edae880 bf676bd8 3ee0924f bf660f88     ...>.kg.O..>..f.
   208e0:	3ee63375 bf64aa59 3eebcbbb bf633c5a     u3.>Y.d....>Z<c.
   208f0:	3ef15aea bf61c598 3ef6e0cb bf604621     .Z.>..a....>!F`.
   20900:	3efc5d27 bf5ebe05 3f00e7e4 bf5d2d53     '].>..^....?S-].
   20910:	3f039c3d bf5b941a 3f064b82 bf59f26a     =..?..[..K.?j.Y.
   20920:	3f08f59b bf584853 3f0b9a6b bf5695e5     ...?SHX.k..?..V.
   20930:	3f0e39da bf54db31 3f10d3cd bf531849     .9.?1.T....?I.S.
   20940:	3f13682a bf514d3d 3f15f6d9 bf4f7a1f     *h.?=MQ....?.zO.
   20950:	3f187fc0 bf4d9f02 3f1b02c6 bf4bbbf8     ...?..M....?..K.
   20960:	3f1d7fd1 bf49d112 3f1ff6cb bf47de65     ...?..I....?e.G.
   20970:	3f226799 bf45e403 3f24d225 bf43e200     .g"?..E.%.$?..C.
   20980:	3f273656 bf41d870 3f299415 bf3fc767     V6'?p.A...)?g.?.
   20990:	3f2beb4a bf3daef9 3f2e3bde bf3b8f3b     J.+?..=..;.?;.;.
   209a0:	3f3085bb bf396842 3f32c8c9 bf373a23     ..0?Bh9...2?#:7.
   209b0:	3f3504f3 bf3504f3 3f373a23 bf32c8c9     ..5?..5.#:7?..2.
   209c0:	3f396842 bf3085bb 3f3b8f3b bf2e3bde     Bh9?..0.;.;?.;..
   209d0:	3f3daef9 bf2beb4a 3f3fc767 bf299415     ..=?J.+.g.??..).
   209e0:	3f41d870 bf273656 3f43e200 bf24d225     p.A?V6'...C?%.$.
   209f0:	3f45e403 bf226799 3f47de65 bf1ff6cb     ..E?.g".e.G?....
   20a00:	3f49d112 bf1d7fd1 3f4bbbf8 bf1b02c6     ..I?......K?....
   20a10:	3f4d9f02 bf187fc0 3f4f7a1f bf15f6d9     ..M?.....zO?....
   20a20:	3f514d3d bf13682a 3f531849 bf10d3cd     =MQ?*h..I.S?....
   20a30:	3f54db31 bf0e39da 3f5695e5 bf0b9a6b     1.T?.9....V?k...
   20a40:	3f584853 bf08f59b 3f59f26a bf064b82     SHX?....j.Y?.K..
   20a50:	3f5b941a bf039c3d 3f5d2d53 bf00e7e4     ..[?=...S-]?....
   20a60:	3f5ebe05 befc5d27 3f604621 bef6e0cb     ..^?']..!F`?....
   20a70:	3f61c598 bef15aea 3f633c5a beebcbbb     ..a?.Z..Z<c?....
   20a80:	3f64aa59 bee63375 3f660f88 bee0924f     Y.d?u3....f?O...
   20a90:	3f676bd8 bedae880 3f68bf3c bed53641     .kg?....<.h?A6..
   20aa0:	3f6a09a7 becf7bca 3f6b4b0c bec9b953     ..j?.{...Kk?S...
   20ab0:	3f6c835e bec3ef15 3f6db293 bebe1d4a     ^.l?......m?J...
   20ac0:	3f6ed89e beb8442a 3f6ff573 beb263ef     ..n?*D..s.o?.c..
   20ad0:	3f710908 beac7cd4 3f721352 bea68f12     ..q?.|..R.r?....
   20ae0:	3f731447 bea09ae5 3f740bdd be9aa086     G.s?......t?....
   20af0:	3f74fa0b be94a031 3f75dec6 be8e9a22     ..t?1.....u?"...
   20b00:	3f76ba07 be888e93 3f778bc5 be827dc0     ..v?......w?.}..
   20b10:	3f7853f8 be78cfcc 3f791298 be6c9a7f     .Sx?..x...y?..l.
   20b20:	3f79c79d be605c13 3f7a7302 be541501     ..y?.\`..sz?..T.
   20b30:	3f7b14be be47c5c2 3f7baccd be3b6ecf     ..{?..G...{?.n;.
   20b40:	3f7c3b28 be2f10a2 3f7cbfc9 be22abb6     (;|?../...|?..".
   20b50:	3f7d3aac be164083 3f7dabcc be09cf86     .:}?.@....}?....
   20b60:	3f7e1324 bdfab273 3f7e70b0 bde1bc2e     $.~?s....p~?....
   20b70:	3f7ec46d bdc8bd36 3f7f0e58 bdafb680     m.~?6...X..?....
   20b80:	3f7f4e6d bd96a905 3f7f84ab bd7b2b74     mN.?.......?t+{.
   20b90:	3f7fb10f bd48fb2f 3f7fd398 bd16c32c     ...?/.H....?,...
   20ba0:	3f7fec43 bcc90ab0 3f7ffb11 bc490e90     C..?.......?..I.

00020bb0 <armBitRevIndexTable2048>:
   20bb0:	10000008 20000010 30000018 02000020     ....... ...0 ...
   20bc0:	12000028 22000030 32000038 04000040     (...0.."8..2@...
   20bd0:	14000048 24000050 34000058 06000060     H...P..$X..4`...
   20be0:	16000068 26000070 36000078 08000080     h...p..&x..6....
   20bf0:	18000088 28000090 38000098 0a0000a0     .......(...8....
   20c00:	1a0000a8 2a0000b0 3a0000b8 0c0000c0     .......*...:....
   20c10:	1c0000c8 2c0000d0 3c0000d8 0e0000e0     .......,...<....
   20c20:	1e0000e8 2e0000f0 3e0000f8 04000100     ...........>....
   20c30:	10400108 20400110 30400118 02400120     ..@...@ ..@0 .@.
   20c40:	12400128 22400130 32400138 04400140     (.@.0.@"8.@2@.@.
   20c50:	14400148 24400150 34400158 06400160     H.@.P.@$X.@4`.@.
   20c60:	16400168 26400170 36400178 08400180     h.@.p.@&x.@6..@.
   20c70:	18400188 28400190 38400198 0a4001a0     ..@...@(..@8..@.
   20c80:	1a4001a8 2a4001b0 3a4001b8 0c4001c0     ..@...@*..@:..@.
   20c90:	1c4001c8 2c4001d0 3c4001d8 0e4001e0     ..@...@,..@<..@.
   20ca0:	1e4001e8 2e4001f0 3e4001f8 08000200     ..@...@...@>....
   20cb0:	10800208 20800210 30800218 02800220     ....... ...0 ...
   20cc0:	12800228 22800230 32800238 04800240     (...0.."8..2@...
   20cd0:	14800248 24800250 34800258 06800260     H...P..$X..4`...
   20ce0:	16800268 26800270 36800278 08800280     h...p..&x..6....
   20cf0:	18800288 28800290 38800298 0a8002a0     .......(...8....
   20d00:	1a8002a8 2a8002b0 3a8002b8 0c8002c0     .......*...:....
   20d10:	1c8002c8 2c8002d0 3c8002d8 0e8002e0     .......,...<....
   20d20:	1e8002e8 2e8002f0 3e8002f8 0c000300     ...........>....
   20d30:	10c00308 20c00310 30c00318 0c800320     ....... ...0 ...
   20d40:	12c00328 22c00330 32c00338 04c00340     (...0.."8..2@...
   20d50:	14c00348 24c00350 34c00358 06c00360     H...P..$X..4`...
   20d60:	16c00368 26c00370 36c00378 08c00380     h...p..&x..6....
   20d70:	18c00388 28c00390 38c00398 0ac003a0     .......(...8....
   20d80:	1ac003a8 2ac003b0 3ac003b8 0cc003c0     .......*...:....
   20d90:	1cc003c8 2cc003d0 3cc003d8 0ec003e0     .......,...<....
   20da0:	1ec003e8 2ec003f0 3ec003f8 11000408     ...........>....
   20db0:	21000410 31000418 0c000420 13000428     ...!...1 ...(...
   20dc0:	23000430 33000438 05000440 15000448     0..#8..3@...H...
   20dd0:	25000450 35000458 07000460 17000468     P..%X..5`...h...
   20de0:	27000470 37000478 09000480 19000488     p..'x..7........
   20df0:	29000490 39000498 0b0004a0 1b0004a8     ...)...9........
   20e00:	2b0004b0 3b0004b8 0d0004c0 1d0004c8     ...+...;........
   20e10:	2d0004d0 3d0004d8 0f0004e0 1f0004e8     ...-...=........
   20e20:	2f0004f0 3f0004f8 11400508 21400510     .../...?..@...@!
   20e30:	31400518 0d000520 13400528 23400530     ..@1 ...(.@.0.@#
   20e40:	33400538 15400548 25400550 35400558     8.@3H.@.P.@%X.@5
   20e50:	07400560 17400568 27400570 37400578     `.@.h.@.p.@'x.@7
   20e60:	09400580 19400588 29400590 39400598     ..@...@...@)..@9
   20e70:	0b4005a0 1b4005a8 2b4005b0 3b4005b8     ..@...@...@+..@;
   20e80:	0d4005c0 1d4005c8 2d4005d0 3d4005d8     ..@...@...@-..@=
   20e90:	0f4005e0 1f4005e8 2f4005f0 3f4005f8     ..@...@...@/..@?
   20ea0:	08400600 11800608 21800610 31800618     ..@........!...1
   20eb0:	08c00620 13800628 23800630 33800638      ...(...0..#8..3
   20ec0:	09400640 15800648 25800650 35800658     @.@.H...P..%X..5
   20ed0:	07800660 17800668 27800670 37800678     `...h...p..'x..7
   20ee0:	09800680 19800688 29800690 39800698     ...........)...9
   20ef0:	0b8006a0 1b8006a8 2b8006b0 3b8006b8     ...........+...;
   20f00:	0d8006c0 1d8006c8 2d8006d0 3d8006d8     ...........-...=
   20f10:	0f8006e0 1f8006e8 2f8006f0 3f8006f8     .........../...?
   20f20:	0c400700 11c00708 21c00710 31c00718     ..@........!...1
   20f30:	0cc00720 13c00728 23c00730 33c00738      ...(...0..#8..3
   20f40:	0d400740 15c00748 25c00750 35c00758     @.@.H...P..%X..5
   20f50:	07c00760 17c00768 27c00770 37c00778     `...h...p..'x..7
   20f60:	09c00780 19c00788 29c00790 39c00798     ...........)...9
   20f70:	0bc007a0 1bc007a8 2bc007b0 3bc007b8     ...........+...;
   20f80:	0dc007c0 1dc007c8 2dc007d0 3dc007d8     ...........-...=
   20f90:	0fc007e0 1fc007e8 2fc007f0 3fc007f8     .........../...?
   20fa0:	10000800 10080808 20080810 30080818     ........... ...0
   20fb0:	10800820 12080828 22080830 32080838      ...(...0.."8..2
   20fc0:	11000840 14080848 24080850 34080858     @...H...P..$X..4
   20fd0:	11800860 16080868 26080870 36080878     `...h...p..&x..6
   20fe0:	10080880 18080888 28080890 38080898     ...........(...8
   20ff0:	0a0808a0 1a0808a8 2a0808b0 3a0808b8     ...........*...:
   21000:	0c0808c0 1c0808c8 2c0808d0 3c0808d8     ...........,...<
   21010:	0e0808e0 1e0808e8 2e0808f0 3e0808f8     ...............>
   21020:	14000900 10480908 20480910 30480918     ......H...H ..H0
   21030:	14800920 12480928 22480930 32480938      ...(.H.0.H"8.H2
   21040:	15000940 14480948 24480950 34480958     @...H.H.P.H$X.H4
   21050:	15800960 16480968 26480970 36480978     `...h.H.p.H&x.H6
   21060:	14080980 18480988 28480990 38480998     ......H...H(..H8
   21070:	0a4809a0 1a4809a8 2a4809b0 3a4809b8     ..H...H...H*..H:
   21080:	0c4809c0 1c4809c8 2c4809d0 3c4809d8     ..H...H...H,..H<
   21090:	0e4809e0 1e4809e8 2e4809f0 3e4809f8     ..H...H...H...H>
   210a0:	18000a00 10880a08 20880a10 30880a18     ........... ...0
   210b0:	18800a20 12880a28 22880a30 32880a38      ...(...0.."8..2
   210c0:	19000a40 14880a48 24880a50 34880a58     @...H...P..$X..4
   210d0:	19800a60 16880a68 26880a70 36880a78     `...h...p..&x..6
   210e0:	18080a80 18880a88 28880a90 38880a98     ...........(...8
   210f0:	18880aa0 1a880aa8 2a880ab0 3a880ab8     ...........*...:
   21100:	0c880ac0 1c880ac8 2c880ad0 3c880ad8     ...........,...<
   21110:	0e880ae0 1e880ae8 2e880af0 3e880af8     ...............>
   21120:	1c000b00 10c80b08 20c80b10 30c80b18     ........... ...0
   21130:	1c800b20 12c80b28 22c80b30 32c80b38      ...(...0.."8..2
   21140:	1d000b40 14c80b48 24c80b50 34c80b58     @...H...P..$X..4
   21150:	1d800b60 16c80b68 26c80b70 36c80b78     `...h...p..&x..6
   21160:	1c080b80 18c80b88 28c80b90 38c80b98     ...........(...8
   21170:	1c880ba0 1ac80ba8 2ac80bb0 3ac80bb8     ...........*...:
   21180:	0cc80bc0 1cc80bc8 2cc80bd0 3cc80bd8     ...........,...<
   21190:	0ec80be0 1ec80be8 2ec80bf0 3ec80bf8     ...............>
   211a0:	10400c00 11080c08 21080c10 31080c18     ..@........!...1
   211b0:	10c00c20 13080c28 23080c30 33080c38      ...(...0..#8..3
   211c0:	11400c40 15080c48 25080c50 35080c58     @.@.H...P..%X..5
   211d0:	11c00c60 17080c68 27080c70 37080c78     `...h...p..'x..7
   211e0:	10480c80 19080c88 29080c90 39080c98     ..H........)...9
   211f0:	10c80ca0 1b080ca8 2b080cb0 3b080cb8     ...........+...;
   21200:	0d080cc0 1d080cc8 2d080cd0 3d080cd8     ...........-...=
   21210:	0f080ce0 1f080ce8 2f080cf0 3f080cf8     .........../...?
   21220:	14400d00 11480d08 21480d10 31480d18     ..@...H...H!..H1
   21230:	14c00d20 13480d28 23480d30 33480d38      ...(.H.0.H#8.H3
   21240:	15400d40 15480d48 25480d50 35480d58     @.@.H.H.P.H%X.H5
   21250:	15c00d60 17480d68 27480d70 37480d78     `...h.H.p.H'x.H7
   21260:	14480d80 19480d88 29480d90 39480d98     ..H...H...H)..H9
   21270:	14c80da0 1b480da8 2b480db0 3b480db8     ......H...H+..H;
   21280:	15480dc0 1d480dc8 2d480dd0 3d480dd8     ..H...H...H-..H=
   21290:	0f480de0 1f480de8 2f480df0 3f480df8     ..H...H...H/..H?
   212a0:	18400e00 11880e08 21880e10 31880e18     ..@........!...1
   212b0:	18c00e20 13880e28 23880e30 33880e38      ...(...0..#8..3
   212c0:	19400e40 15880e48 25880e50 35880e58     @.@.H...P..%X..5
   212d0:	19c00e60 17880e68 27880e70 37880e78     `...h...p..'x..7
   212e0:	18480e80 19880e88 29880e90 39880e98     ..H........)...9
   212f0:	18c80ea0 1b880ea8 2b880eb0 3b880eb8     ...........+...;
   21300:	19480ec0 1d880ec8 2d880ed0 3d880ed8     ..H........-...=
   21310:	0f880ee0 1f880ee8 2f880ef0 3f880ef8     .........../...?
   21320:	1c400f00 11c80f08 21c80f10 31c80f18     ..@........!...1
   21330:	1cc00f20 13c80f28 23c80f30 33c80f38      ...(...0..#8..3
   21340:	1d400f40 15c80f48 25c80f50 35c80f58     @.@.H...P..%X..5
   21350:	1dc00f60 17c80f68 27c80f70 37c80f78     `...h...p..'x..7
   21360:	1c480f80 19c80f88 29c80f90 39c80f98     ..H........)...9
   21370:	1cc80fa0 1bc80fa8 2bc80fb0 3bc80fb8     ...........+...;
   21380:	1d480fc0 1dc80fc8 2dc80fd0 3dc80fd8     ..H........-...=
   21390:	1dc80fe0 1fc80fe8 2fc80ff0 3fc80ff8     .........../...?
   213a0:	20001000 10101008 20101010 30101018     ... ....... ...0
   213b0:	20801020 12101028 22101030 32101038      .. (...0.."8..2
   213c0:	21001040 14101048 24101050 34101058     @..!H...P..$X..4
   213d0:	21801060 16101068 26101070 36101078     `..!h...p..&x..6
   213e0:	20081080 18101088 28101090 38101098     ... .......(...8
   213f0:	208810a0 1a1010a8 2a1010b0 3a1010b8     ... .......*...:
   21400:	210810c0 1c1010c8 2c1010d0 3c1010d8     ...!.......,...<
   21410:	218810e0 1e1010e8 2e1010f0 3e1010f8     ...!...........>
   21420:	24001100 24101108 20501110 30501118     ...$...$..P ..P0
   21430:	24801120 12501128 22501130 32501138      ..$(.P.0.P"8.P2
   21440:	25001140 14501148 24501150 34501158     @..%H.P.P.P$X.P4
   21450:	25801160 16501168 26501170 36501178     `..%h.P.p.P&x.P6
   21460:	24081180 18501188 28501190 38501198     ...$..P...P(..P8
   21470:	248811a0 1a5011a8 2a5011b0 3a5011b8     ...$..P...P*..P:
   21480:	250811c0 1c5011c8 2c5011d0 3c5011d8     ...%..P...P,..P<
   21490:	258811e0 1e5011e8 2e5011f0 3e5011f8     ...%..P...P...P>
   214a0:	28001200 28101208 20901210 30901218     ...(...(... ...0
   214b0:	28801220 12901228 22901230 32901238      ..((...0.."8..2
   214c0:	29001240 14901248 24901250 34901258     @..)H...P..$X..4
   214d0:	29801260 16901268 26901270 36901278     `..)h...p..&x..6
   214e0:	28081280 18901288 28901290 38901298     ...(.......(...8
   214f0:	288812a0 1a9012a8 2a9012b0 3a9012b8     ...(.......*...:
   21500:	290812c0 1c9012c8 2c9012d0 3c9012d8     ...).......,...<
   21510:	298812e0 1e9012e8 2e9012f0 3e9012f8     ...)...........>
   21520:	2c001300 2c101308 20d01310 30d01318     ...,...,... ...0
   21530:	2c801320 2c901328 22d01330 32d01338      ..,(..,0.."8..2
   21540:	2d001340 14d01348 24d01350 34d01358     @..-H...P..$X..4
   21550:	2d801360 16d01368 26d01370 36d01378     `..-h...p..&x..6
   21560:	2c081380 18d01388 28d01390 38d01398     ...,.......(...8
   21570:	2c8813a0 1ad013a8 2ad013b0 3ad013b8     ...,.......*...:
   21580:	2d0813c0 1cd013c8 2cd013d0 3cd013d8     ...-.......,...<
   21590:	2d8813e0 1ed013e8 2ed013f0 3ed013f8     ...-...........>
   215a0:	20401400 20501408 21101410 31101418     ..@ ..P ...!...1
   215b0:	20c01420 20d01428 23101430 33101438      .. (.. 0..#8..3
   215c0:	21401440 15101448 25101450 35101458     @.@!H...P..%X..5
   215d0:	21c01460 17101468 27101470 37101478     `..!h...p..'x..7
   215e0:	20481480 19101488 29101490 39101498     ..H .......)...9
   215f0:	20c814a0 1b1014a8 2b1014b0 3b1014b8     ... .......+...;
   21600:	214814c0 1d1014c8 2d1014d0 3d1014d8     ..H!.......-...=
   21610:	21c814e0 1f1014e8 2f1014f0 3f1014f8     ...!......./...?
   21620:	24401500 24501508 21501510 31501518     ..@$..P$..P!..P1
   21630:	24c01520 24d01528 23501530 33501538      ..$(..$0.P#8.P3
   21640:	25401540 15501548 25501550 35501558     @.@%H.P.P.P%X.P5
   21650:	25c01560 17501568 27501570 37501578     `..%h.P.p.P'x.P7
   21660:	24481580 19501588 29501590 39501598     ..H$..P...P)..P9
   21670:	24c815a0 1b5015a8 2b5015b0 3b5015b8     ...$..P...P+..P;
   21680:	254815c0 1d5015c8 2d5015d0 3d5015d8     ..H%..P...P-..P=
   21690:	25c815e0 1f5015e8 2f5015f0 3f5015f8     ...%..P...P/..P?
   216a0:	28401600 28501608 21901610 31901618     ..@(..P(...!...1
   216b0:	28c01620 28d01628 23901630 33901638      ..((..(0..#8..3
   216c0:	29401640 29501648 25901650 35901658     @.@)H.P)P..%X..5
   216d0:	29c01660 17901668 27901670 37901678     `..)h...p..'x..7
   216e0:	28481680 19901688 29901690 39901698     ..H(.......)...9
   216f0:	28c816a0 1b9016a8 2b9016b0 3b9016b8     ...(.......+...;
   21700:	294816c0 1d9016c8 2d9016d0 3d9016d8     ..H).......-...=
   21710:	29c816e0 1f9016e8 2f9016f0 3f9016f8     ...)......./...?
   21720:	2c401700 2c501708 21d01710 31d01718     ..@,..P,...!...1
   21730:	2cc01720 2cd01728 23d01730 33d01738      ..,(..,0..#8..3
   21740:	2d401740 2d501748 25d01750 35d01758     @.@-H.P-P..%X..5
   21750:	2dc01760 17d01768 27d01770 37d01778     `..-h...p..'x..7
   21760:	2c481780 19d01788 29d01790 39d01798     ..H,.......)...9
   21770:	2cc817a0 1bd017a8 2bd017b0 3bd017b8     ...,.......+...;
   21780:	2d4817c0 1dd017c8 2dd017d0 3dd017d8     ..H-.......-...=
   21790:	2dc817e0 1fd017e8 2fd017f0 3fd017f8     ...-......./...?
   217a0:	30001800 30101808 20181810 30181818     ...0...0... ...0
   217b0:	30801820 30901828 22181830 32181838      ..0(..00.."8..2
   217c0:	31001840 31101848 24181850 34181858     @..1H..1P..$X..4
   217d0:	31801860 31901868 26181870 36181878     `..1h..1p..&x..6
   217e0:	30081880 30181888 28181890 38181898     ...0...0...(...8
   217f0:	308818a0 1a1818a8 2a1818b0 3a1818b8     ...0.......*...:
   21800:	310818c0 1c1818c8 2c1818d0 3c1818d8     ...1.......,...<
   21810:	318818e0 1e1818e8 2e1818f0 3e1818f8     ...1...........>
   21820:	34001900 34101908 20581910 30581918     ...4...4..X ..X0
   21830:	34801920 34901928 22581930 32581938      ..4(..40.X"8.X2
   21840:	35001940 35101948 24581950 34581958     @..5H..5P.X$X.X4
   21850:	35801960 35901968 26581970 36581978     `..5h..5p.X&x.X6
   21860:	34081980 34181988 28581990 38581998     ...4...4..X(..X8
   21870:	348819a0 1a5819a8 2a5819b0 3a5819b8     ...4..X...X*..X:
   21880:	350819c0 1c5819c8 2c5819d0 3c5819d8     ...5..X...X,..X<
   21890:	358819e0 1e5819e8 2e5819f0 3e5819f8     ...5..X...X...X>
   218a0:	38001a00 38101a08 20981a10 30981a18     ...8...8... ...0
   218b0:	38801a20 38901a28 22981a30 32981a38      ..8(..80.."8..2
   218c0:	39001a40 39101a48 24981a50 34981a58     @..9H..9P..$X..4
   218d0:	39801a60 39901a68 26981a70 36981a78     `..9h..9p..&x..6
   218e0:	38081a80 38181a88 28981a90 38981a98     ...8...8...(...8
   218f0:	38881aa0 38981aa8 2a981ab0 3a981ab8     ...8...8...*...:
   21900:	39081ac0 1c981ac8 2c981ad0 3c981ad8     ...9.......,...<
   21910:	39881ae0 1e981ae8 2e981af0 3e981af8     ...9...........>
   21920:	3c001b00 3c101b08 20d81b10 30d81b18     ...<...<... ...0
   21930:	3c801b20 3c901b28 22d81b30 32d81b38      ..<(..<0.."8..2
   21940:	3d001b40 3d101b48 24d81b50 34d81b58     @..=H..=P..$X..4
   21950:	3d801b60 3d901b68 26d81b70 36d81b78     `..=h..=p..&x..6
   21960:	3c081b80 3c181b88 28d81b90 38d81b98     ...<...<...(...8
   21970:	3c881ba0 3c981ba8 2ad81bb0 3ad81bb8     ...<...<...*...:
   21980:	3d081bc0 1cd81bc8 2cd81bd0 3cd81bd8     ...=.......,...<
   21990:	3d881be0 1ed81be8 2ed81bf0 3ed81bf8     ...=...........>
   219a0:	30401c00 30501c08 21181c10 31181c18     ..@0..P0...!...1
   219b0:	30c01c20 30d01c28 23181c30 33181c38      ..0(..00..#8..3
   219c0:	31401c40 31501c48 25181c50 35181c58     @.@1H.P1P..%X..5
   219d0:	31c01c60 31d01c68 27181c70 37181c78     `..1h..1p..'x..7
   219e0:	30481c80 30581c88 29181c90 39181c98     ..H0..X0...)...9
   219f0:	30c81ca0 30d81ca8 2b181cb0 3b181cb8     ...0...0...+...;
   21a00:	31481cc0 1d181cc8 2d181cd0 3d181cd8     ..H1.......-...=
   21a10:	31c81ce0 1f181ce8 2f181cf0 3f181cf8     ...1......./...?
   21a20:	34401d00 34501d08 21581d10 31581d18     ..@4..P4..X!..X1
   21a30:	34c01d20 34d01d28 23581d30 33581d38      ..4(..40.X#8.X3
   21a40:	35401d40 35501d48 25581d50 35581d58     @.@5H.P5P.X%X.X5
   21a50:	35c01d60 35d01d68 27581d70 37581d78     `..5h..5p.X'x.X7
   21a60:	34481d80 34581d88 29581d90 39581d98     ..H4..X4..X)..X9
   21a70:	34c81da0 34d81da8 2b581db0 3b581db8     ...4...4..X+..X;
   21a80:	35481dc0 35581dc8 2d581dd0 3d581dd8     ..H5..X5..X-..X=
   21a90:	35c81de0 1f581de8 2f581df0 3f581df8     ...5..X...X/..X?
   21aa0:	38401e00 38501e08 21981e10 31981e18     ..@8..P8...!...1
   21ab0:	38c01e20 38d01e28 23981e30 33981e38      ..8(..80..#8..3
   21ac0:	39401e40 39501e48 25981e50 35981e58     @.@9H.P9P..%X..5
   21ad0:	39c01e60 39d01e68 27981e70 37981e78     `..9h..9p..'x..7
   21ae0:	38481e80 38581e88 29981e90 39981e98     ..H8..X8...)...9
   21af0:	38c81ea0 38d81ea8 2b981eb0 3b981eb8     ...8...8...+...;
   21b00:	39481ec0 39581ec8 2d981ed0 3d981ed8     ..H9..X9...-...=
   21b10:	39c81ee0 1f981ee8 2f981ef0 3f981ef8     ...9......./...?
   21b20:	3c401f00 3c501f08 21d81f10 31d81f18     ..@<..P<...!...1
   21b30:	3cc01f20 3cd01f28 23d81f30 33d81f38      ..<(..<0..#8..3
   21b40:	3d401f40 3d501f48 25d81f50 35d81f58     @.@=H.P=P..%X..5
   21b50:	3dc01f60 3dd01f68 27d81f70 37d81f78     `..=h..=p..'x..7
   21b60:	3c481f80 3c581f88 29d81f90 39d81f98     ..H<..X<...)...9
   21b70:	3cc81fa0 3cd81fa8 2bd81fb0 3bd81fb8     ...<...<...+...;
   21b80:	3d481fc0 3d581fc8 2dd81fd0 3dd81fd8     ..H=..X=...-...=
   21b90:	3dc81fe0 3dd81fe8 2fd81ff0 3fd81ff8     ...=...=.../...?
   21ba0:	20802008 20202010 30202018 28802028     . . .   .  0( .(
   21bb0:	22202030 32202038 21002040 20c02048     0  "8  2@ .!H . 
   21bc0:	24202050 34202058 24102060 28c02068     P  $X  4` .$h .(
   21bd0:	26202070 36202078 30802088 28202090     p  &x  6. .0.  (
   21be0:	38202098 300820a0 388020a8 2a2020b0     .  8. .0. .8.  *
   21bf0:	3a2020b8 210820c0 30c020c8 2c2020d0     .  :. .!. .0.  ,
   21c00:	3c2020d8 310820e0 38c020e8 2e2020f0     .  <. .1. .8.  .
   21c10:	3e2020f8 24002100 21802108 24102110     .  >.!.$.!.!.!.$
   21c20:	30602118 24202120 29802128 22602130     .!`0 ! $(!.)0!`"
   21c30:	32602138 25002140 21c02148 24602150     8!`2@!.%H!.!P!`$
   21c40:	34602158 24502160 29c02168 26602170     X!`4`!P$h!.)p!`&
   21c50:	36602178 24082180 31802188 28602190     x!`6.!.$.!.1.!`(
   21c60:	38602198 340821a0 398021a8 2a6021b0     .!`8.!.4.!.9.!`*
   21c70:	3a6021b8 250821c0 31c021c8 2c6021d0     .!`:.!.%.!.1.!`,
   21c80:	3c6021d8 350821e0 39c021e8 2e6021f0     .!`<.!.5.!.9.!`.
   21c90:	3e6021f8 30002200 30802208 30082210     .!`>.".0.".0.".0
   21ca0:	30a02218 30102220 28882228 22a02230     .".0 ".0(".(0"."
   21cb0:	32a02238 30402240 30c02248 24a02250     8".2@"@0H".0P".$
   21cc0:	34a02258 30502260 28c82268 26a02270     X".4`"P0h".(p".&
   21cd0:	36a02278 30202280 30882288 28a02290     x".6." 0.".0.".(
   21ce0:	38a02298 301822a0 388822a8 2aa022b0     .".8.".0.".8.".*
   21cf0:	3aa022b8 306022c0 30c822c8 2ca022d0     .".:."`0.".0.".,
   21d00:	3ca022d8 311822e0 38c822e8 2ea022f0     .".<.".1.".8."..
   21d10:	3ea022f8 31002300 31802308 31082310     .".>.#.1.#.1.#.1
   21d20:	30e02318 31102320 29882328 31182330     .#.0 #.1(#.)0#.1
   21d30:	32e02338 31402340 31c02348 24e02350     8#.2@#@1H#.1P#.$
   21d40:	34e02358 31502360 29c82368 26e02370     X#.4`#P1h#.)p#.&
   21d50:	36e02378 24182380 31882388 28e02390     x#.6.#.$.#.1.#.(
   21d60:	38e02398 341823a0 398823a8 2ae023b0     .#.8.#.4.#.9.#.*
   21d70:	3ae023b8 251823c0 31c823c8 2ce023d0     .#.:.#.%.#.1.#.,
   21d80:	3ce023d8 351823e0 39c823e8 2ee023f0     .#.<.#.5.#.9.#..
   21d90:	3ee023f8 24802408 24202410 31202418     .#.>.$.$.$ $.$ 1
   21da0:	2c802428 31102430 33202438 25002440     ($.,0$.18$ 3@$.%
   21db0:	24c02448 25202450 35202458 25102460     H$.$P$ %X$ 5`$.%
   21dc0:	2cc02468 27202470 37202478 34802488     h$.,p$ 'x$ 7.$.4
   21dd0:	29202490 39202498 304824a0 3c8024a8     .$ ).$ 9.$H0.$.<
   21de0:	2b2024b0 3b2024b8 250824c0 34c024c8     .$ +.$ ;.$.%.$.4
   21df0:	2d2024d0 3d2024d8 314824e0 3cc024e8     .$ -.$ =.$H1.$.<
   21e00:	2f2024f0 3f2024f8 25802508 25202510     .$ /.$ ?.%.%.% %
   21e10:	31602518 2d802528 31502530 33602538     .%`1(%.-0%P18%`3
   21e20:	25c02548 25602550 35602558 2dc02568     H%.%P%`%X%`5h%.-
   21e30:	27602570 37602578 35802588 29602590     p%`'x%`7.%.5.%`)
   21e40:	39602598 344825a0 3d8025a8 2b6025b0     .%`9.%H4.%.=.%`+
   21e50:	3b6025b8 35c025c8 2d6025d0 3d6025d8     .%`;.%.5.%`-.%`=
   21e60:	354825e0 3dc025e8 2f6025f0 3f6025f8     .%H5.%.=.%`/.%`?
   21e70:	34002600 34802608 34082610 31a02618     .&.4.&.4.&.4.&.1
   21e80:	34102620 2c882628 34182630 33a02638      &.4(&.,0&.48&.3
   21e90:	34402640 34c02648 34482650 35a02658     @&@4H&.4P&H4X&.5
   21ea0:	34502660 2cc82668 27a02670 37a02678     `&P4h&.,p&.'x&.7
   21eb0:	34202680 34882688 29a02690 39a02698     .& 4.&.4.&.).&.9
   21ec0:	305826a0 3c8826a8 2ba026b0 3ba026b8     .&X0.&.<.&.+.&.;
   21ed0:	346026c0 34c826c8 2da026d0 3da026d8     .&`4.&.4.&.-.&.=
   21ee0:	315826e0 3cc826e8 2fa026f0 3fa026f8     .&X1.&.<.&./.&.?
   21ef0:	35002700 35802708 35082710 31e02718     .'.5.'.5.'.5.'.1
   21f00:	35102720 2d882728 35182730 33e02738      '.5('.-0'.58'.3
   21f10:	35402740 35c02748 35482750 35e02758     @'@5H'.5P'H5X'.5
   21f20:	35502760 2dc82768 27e02770 37e02778     `'P5h'.-p'.'x'.7
   21f30:	35202780 35882788 29e02790 39e02798     .' 5.'.5.'.).'.9
   21f40:	345827a0 3d8827a8 2be027b0 3be027b8     .'X4.'.=.'.+.'.;
   21f50:	356027c0 35c827c8 2de027d0 3de027d8     .'`5.'.5.'.-.'.=
   21f60:	355827e0 3dc827e8 2fe027f0 3fe027f8     .'X5.'.=.'./.'.?
   21f70:	28202808 28802810 30282818 28902828     .( (.(.(.((0((.(
   21f80:	28882830 32282838 2c002840 2c202848     0(.(8((2@(.,H( ,
   21f90:	2c802850 34282858 2c082860 28d02868     P(.,X((4`(.,h(.(
   21fa0:	2c882870 36282878 30902888 38282898     p(.,x((6.(.0.((8
   21fb0:	302828a0 389028a8 2a2828b0 3a2828b8     .((0.(.8.((*.((:
   21fc0:	2c1028c0 30d028c8 2c2828d0 3c2828d8     .(.,.(.0.((,.((<
   21fd0:	2c1828e0 38d028e8 2e2828f0 3e2828f8     .(.,.(.8.((..((>
   21fe0:	2c002900 2c082908 2c102910 30682918     .).,.).,.).,.)h0
   21ff0:	2c202920 29902928 30d02930 32682938      ) ,().)0).08)h2
   22000:	2c402940 2c602948 2cc02950 34682958     @)@,H)`,P).,X)h4
   22010:	2c482960 29d02968 2cc82970 36682978     `)H,h).)p).,x)h6
   22020:	2c802980 31902988 2c282990 38682998     .).,.).1.)(,.)h8
   22030:	342829a0 399029a8 2a6829b0 3a6829b8     .)(4.).9.)h*.)h:
   22040:	2c5029c0 31d029c8 2c6829d0 3c6829d8     .)P,.).1.)h,.)h<
   22050:	2c5829e0 39d029e8 2e6829f0 3e6829f8     .)X,.).9.)h..)h>
   22060:	38002a00 38202a08 38802a10 30a82a18     .*.8.* 8.*.8.*.0
   22070:	38082a20 38282a28 38882a30 32a82a38      *.8(*(80*.88*.2
   22080:	3c002a40 3c202a48 3c802a50 34a82a58     @*.<H* <P*.<X*.4
   22090:	3c082a60 3c282a68 3c882a70 36a82a78     `*.<h*(<p*.<x*.6
   220a0:	38102a80 30982a88 38902a90 38a82a98     .*.8.*.0.*.8.*.8
   220b0:	38182aa0 38982aa8 38982ab0 3aa82ab8     .*.8.*.8.*.8.*.:
   220c0:	3c102ac0 30d82ac8 2ca82ad0 3ca82ad8     .*.<.*.0.*.,.*.<
   220d0:	3c182ae0 38d82ae8 2ea82af0 3ea82af8     .*.<.*.8.*...*.>
   220e0:	38402b00 38602b08 38c02b10 30e82b18     .+@8.+`8.+.8.+.0
   220f0:	38482b20 38682b28 38c82b30 32e82b38      +H8(+h80+.88+.2
   22100:	3c402b40 3c602b48 3cc02b50 34e82b58     @+@<H+`<P+.<X+.4
   22110:	3c482b60 3c682b68 3cc82b70 36e82b78     `+H<h+h<p+.<x+.6
   22120:	38502b80 31982b88 38d02b90 38e82b98     .+P8.+.1.+.8.+.8
   22130:	38582ba0 39982ba8 38d82bb0 3ae82bb8     .+X8.+.9.+.8.+.:
   22140:	3c502bc0 31d82bc8 2ce82bd0 3ce82bd8     .+P<.+.1.+.,.+.<
   22150:	3c582be0 39d82be8 2ee82bf0 3ee82bf8     .+X<.+.9.+...+.>
   22160:	2c202c08 2c802c10 31282c18 2c902c28     ., ,.,.,.,(1(,.,
   22170:	31902c30 33282c38 2d002c40 2d202c48     0,.18,(3@,.-H, -
   22180:	2d802c50 35282c58 2d082c60 2cd02c68     P,.-X,(5`,.-h,.,
   22190:	2d882c70 37282c78 34902c88 39282c98     p,.-x,(7.,.4.,(9
   221a0:	30682ca0 3c902ca8 38682cb0 3b282cb8     .,h0.,.<.,h8.,(;
   221b0:	2d102cc0 34d02cc8 2d282cd0 3d282cd8     .,.-.,.4.,(-.,(=
   221c0:	2d182ce0 3cd02ce8 2f282cf0 3f282cf8     .,.-.,.<.,(/.,(?
   221d0:	2d202d08 2d802d10 31682d18 2d902d28     .- -.-.-.-h1(-.-
   221e0:	31d02d30 33682d38 2d602d48 2dc02d50     0-.18-h3H-`-P-.-
   221f0:	35682d58 2dd02d68 2dc82d70 37682d78     X-h5h-.-p-.-x-h7
   22200:	35902d88 39682d98 34682da0 3d902da8     .-.5.-h9.-h4.-.=
   22210:	3c682db0 3b682db8 35d02dc8 3d682dd8     .-h<.-h;.-.5.-h=
   22220:	35682de0 3dd02de8 2f682df0 3f682df8     .-h5.-.=.-h/.-h?
   22230:	39002e00 39202e08 39802e10 31a82e18     ...9.. 9...9...1
   22240:	39082e20 39282e28 39882e30 33a82e38      ..9(.(90..98..3
   22250:	3d002e40 3d202e48 3d802e50 35a82e58     @..=H. =P..=X..5
   22260:	3d082e60 3d282e68 3d882e70 37a82e78     `..=h.(=p..=x..7
   22270:	39102e80 34982e88 39902e90 39a82e98     ...9...4...9...9
   22280:	39182ea0 3c982ea8 39982eb0 3ba82eb8     ...9...<...9...;
   22290:	3d102ec0 34d82ec8 3d902ed0 3da82ed8     ...=...4...=...=
   222a0:	3d182ee0 3cd82ee8 2fa82ef0 3fa82ef8     ...=...<.../...?
   222b0:	39402f00 39602f08 39c02f10 31e82f18     ./@9./`9./.9./.1
   222c0:	39482f20 39682f28 39c82f30 33e82f38      /H9(/h90/.98/.3
   222d0:	3d402f40 3d602f48 3dc02f50 35e82f58     @/@=H/`=P/.=X/.5
   222e0:	3d482f60 3d682f68 3dc82f70 37e82f78     `/H=h/h=p/.=x/.7
   222f0:	39502f80 35982f88 39d02f90 39e82f98     ./P9./.5./.9./.9
   22300:	39582fa0 3d982fa8 39d82fb0 3be82fb8     ./X9./.=./.9./.;
   22310:	3d502fc0 35d82fc8 3dd02fd0 3de82fd8     ./P=./.5./.=./.=
   22320:	3d582fe0 3dd82fe8 3dd82ff0 3fe82ff8     ./X=./.=./.=./.?
   22330:	30303018 32303038 31003040 31083048     .0008002@0.1H0.1
   22340:	31103050 34303058 31203060 31283068     P0.1X004`0 1h0(1
   22350:	34183070 36303078 30a03088 38303098     p0.4x006.0.0.008
   22360:	38a030a8 388830b0 3a3030b8 318030c0     .0.8.0.8.00:.0.1
   22370:	30e030c8 319030d0 3c3030d8 318830e0     .0.0.0.1.00<.0.1
   22380:	38e030e8 398830f0 3e3030f8 34003100     .0.8.0.9.00>.1.4
   22390:	34083108 34103110 34183118 34203120     .1.4.1.4.1.4 1 4
   223a0:	34283128 34303130 32703138 35003140     (1(4010481p2@1.5
   223b0:	35083148 35103150 34703158 35203160     H1.5P1.5X1p4`1 5
   223c0:	35283168 34583170 36703178 34803180     h1(5p1X4x1p6.1.4
   223d0:	31a03188 34903190 38703198 348831a0     .1.1.1.4.1p8.1.4
   223e0:	39a031a8 3c8831b0 3a7031b8 358031c0     .1.9.1.<.1p:.1.5
   223f0:	31e031c8 359031d0 3c7031d8 358831e0     .1.1.1.5.1p<.1.5
   22400:	39e031e8 3d8831f0 3e7031f8 38003200     .1.9.1.=.1p>.2.8
   22410:	38803208 38083210 38883218 38103220     .2.8.2.8.2.8 2.8
   22420:	38903228 38183230 32b03238 38403240     (2.802.882.2@2@8
   22430:	38c03248 38483250 34b03258 38503260     H2.8P2H8X2.4`2P8
   22440:	38d03268 38583270 36b03278 38203280     h2.8p2X8x2.6.2 8
   22450:	38a03288 38283290 38b03298 383032a0     .2.8.2(8.2.8.208
   22460:	38a832a8 389832b0 3ab032b8 386032c0     .2.8.2.8.2.:.2`8
   22470:	38e032c8 386832d0 3cb032d8 387032e0     .2.8.2h8.2.<.2p8
   22480:	38e832e8 399832f0 3eb032f8 39003300     .2.8.2.9.2.>.3.9
   22490:	39803308 39083310 39883318 39103320     .3.9.3.9.3.9 3.9
   224a0:	39903328 39183330 39983338 39403340     (3.903.983.9@3@9
   224b0:	39c03348 39483350 34f03358 39503360     H3.9P3H9X3.4`3P9
   224c0:	39d03368 39583370 36f03378 39203380     h3.9p3X9x3.6.3 9
   224d0:	39a03388 39283390 38f03398 349833a0     .3.9.3(9.3.8.3.4
   224e0:	39a833a8 3c9833b0 3af033b8 396033c0     .3.9.3.<.3.:.3`9
   224f0:	39e033c8 396833d0 3cf033d8 359833e0     .3.9.3h9.3.<.3.5
   22500:	39e833e8 3d9833f0 3ef033f8 34303418     .3.9.3.=.3.>.404
   22510:	39183438 35003440 35083448 35103450     84.9@4.5H4.5P4.5
   22520:	35303458 35203460 35283468 35183470     X405`4 5h4(5p4.5
   22530:	37303478 34a03488 39303498 3ca034a8     x407.4.4.409.4.<
   22540:	38c834b0 3b3034b8 358034c0 34e034c8     .4.8.40;.4.5.4.4
   22550:	359034d0 3d3034d8 358834e0 3ce034e8     .4.5.40=.4.5.4.<
   22560:	39c834f0 3f3034f8 35303518 39583538     .4.9.40?.50585X9
   22570:	35703558 37703578 35a03588 39703598     X5p5x5p7.5.5.5p9
   22580:	3da035a8 3cc835b0 3b7035b8 35e035c8     .5.=.5.<.5p;.5.5
   22590:	3d7035d8 3de035e8 3dc835f0 3f7035f8     .5p=.5.=.5.=.5p?
   225a0:	3c003600 3c803608 3c083610 3c883618     .6.<.6.<.6.<.6.<
   225b0:	3c103620 3c903628 3c183630 3c983638      6.<(6.<06.<86.<
   225c0:	3c403640 3cc03648 3c483650 3cc83658     @6@<H6.<P6H<X6.<
   225d0:	3c503660 3cd03668 3c583670 37b03678     `6P<h6.<p6X<x6.7
   225e0:	3c203680 3ca03688 3c283690 39b03698     .6 <.6.<.6(<.6.9
   225f0:	3c3036a0 3ca836a8 38d836b0 3bb036b8     .60<.6.<.6.8.6.;
   22600:	3c6036c0 3ce036c8 3c6836d0 3db036d8     .6`<.6.<.6h<.6.=
   22610:	3c7036e0 3ce836e8 39d836f0 3fb036f8     .6p<.6.<.6.9.6.?
   22620:	3d003700 3d803708 3d083710 3d883718     .7.=.7.=.7.=.7.=
   22630:	3d103720 3d903728 3d183730 3d983738      7.=(7.=07.=87.=
   22640:	3d403740 3dc03748 3d483750 3dc83758     @7@=H7.=P7H=X7.=
   22650:	3d503760 3dd03768 3d583770 37f03778     `7P=h7.=p7X=x7.7
   22660:	3d203780 3da03788 3d283790 39f03798     .7 =.7.=.7(=.7.9
   22670:	3d3037a0 3da837a8 3cd837b0 3bf037b8     .70=.7.=.7.<.7.;
   22680:	3d6037c0 3de037c8 3d6837d0 3df037d8     .7`=.7.=.7h=.7.=
   22690:	3d7037e0 3de837e8 3dd837f0 3ff037f8     .7p=.7.=.7.=.7.?
   226a0:	38983838 39003840 39083848 39103850     88.8@8.9H8.9P8.9
   226b0:	39183858 39203860 39283868 39303870     X8.9`8 9h8(9p809
   226c0:	3c983878 38b038a8 3a3838b8 398038c0     x8.<.8.8.88:.8.9
   226d0:	398838c8 399038d0 3c3838d8 39a038e0     .8.9.8.9.88<.8.9
   226e0:	38f038e8 3e3838f8 39a838f0 3c003900     .8.8.88>.8.9.9.<
   226f0:	3c083908 3c103910 3c183918 3c203920     .9.<.9.<.9.< 9 <
   22700:	3c283928 3c303930 3c383938 3d003940     (9(<090<898<@9.=
   22710:	3d083948 3d103950 3d183958 3d203960     H9.=P9.=X9.=`9 =
   22720:	3d283968 3d303970 3cd83978 3c803980     h9(=p90=x9.<.9.<
   22730:	3c883988 3c903990 3c983998 3ca039a0     .9.<.9.<.9.<.9.<
   22740:	39b039a8 3a7839b8 3ca839b0 3d8039c0     .9.9.9x:.9.<.9.=
   22750:	3d8839c8 3d9039d0 3c7839d8 3da039e0     .9.=.9.=.9x<.9.=
   22760:	39f039e8 3e7839f8 3da839f0 3a103a08     .9.9.9x>.9.=.:.:
   22770:	3a203a10 3a303a18 3a803a20 3a903a28     .: :.:0: :.:(:.:
   22780:	3aa03a30 3ab03a38 3b003a40 3b103a48     0:.:8:.:@:.;H:.;
   22790:	3b203a50 3b303a58 3b803a60 3b903a68     P: ;X:0;`:.;h:.;
   227a0:	3ba03a70 3bb03a78 3aa03a88 3ab03a98     p:.;x:.;.:.:.:.:
   227b0:	3ab03aa8 3b083ac0 3b183ac8 3b283ad0     .:.:.:.;.:.;.:(;
   227c0:	3cb83ad8 3b883ae0 3b983ae8 3ba83af0     .:.<.:.;.:.;.:.;
   227d0:	3eb83af8 3e003b00 3e103b08 3e203b10     .:.>.;.>.;.>.; >
   227e0:	3e303b18 3e803b20 3e903b28 3ea03b30     .;0> ;.>(;.>0;.>
   227f0:	3eb03b38 3f003b40 3f103b48 3f203b50     8;.>@;.?H;.?P; ?
   22800:	3f303b58 3f803b60 3f903b68 3fa03b70     X;0?`;.?h;.?p;.?
   22810:	3fb03b78 3e083b80 3e183b88 3e283b90     x;.?.;.>.;.>.;(>
   22820:	3e383b98 3e883ba0 3e983ba8 3ea83bb0     .;8>.;.>.;.>.;.>
   22830:	3eb83bb8 3f083bc0 3f183bc8 3f283bd0     .;.>.;.?.;.?.;(?
   22840:	3cf83bd8 3f883be0 3f983be8 3fa83bf0     .;.<.;.?.;.?.;.?
   22850:	3ef83bf8 3c983c38 3d003c40 3d083c48     .;.>8<.<@<.=H<.=
   22860:	3d103c50 3d183c58 3d203c60 3d283c68     P<.=X<.=`< =h<(=
   22870:	3d303c70 3d983c78 3cb03ca8 3eb03cb8     p<0=x<.=.<.<.<.>
   22880:	3d803cc0 3d883cc8 3d903cd0 3d383cd8     .<.=.<.=.<.=.<8=
   22890:	3da03ce0 3cf03ce8 3da83cf0 3f383cf8     .<.=.<.<.<.=.<8?
   228a0:	3d983d38 3dd83d78 3db03da8 3fb03db8     8=.=x=.=.=.=.=.?
   228b0:	3df03de8 3e803e08 3f783df8 3e803e10     .=.=.>.>.=x?.>.>
   228c0:	3e883e18 3e803e20 3e903e28 3e883e30     .>.> >.>(>.>0>.>
   228d0:	3e983e38 3f003e40 3f203e48 3f803e50     8>.>@>.?H> ?P>.?
   228e0:	3fa03e58 3f083e60 3f283e68 3f883e70     X>.?`>.?h>(?p>.?
   228f0:	3fa83e78 3ea03e88 3ea83e98 3f103ec0     x>.?.>.>.>.>.>.?
   22900:	3eb03ea8 3f303ec8 3f903ed0 3fb03ed8     .>.>.>0?.>.?.>.?
   22910:	3f183ee0 3f383ee8 3f983ef0 3f803f08     .>.?.>8?.>.?.?.?
   22920:	3fb83ef8 3f803f10 3f883f18 3f803f20     .>.?.?.?.?.? ?.?
   22930:	3f903f28 3f883f30 3f983f38 3f503f48     (?.?0?.?8?.?H?P?
   22940:	3f603f50 3f703f58 3fc03f60 3fd03f68     P?`?X?p?`?.?h?.?
   22950:	3fe03f70 3ff03f78 3fa03f88 3fa83f98     p?.?x?.?.?.?.?.?
   22960:	3fb03fa8 3ff03fd8 3fe03fc8 3ff03fe8     .?.?.?.?.?.?.?.?

00022970 <twiddleCoef_64>:
   22970:	3f800000 00000000 3f7ec46d 3dc8bd36     ...?....m.~?6..=
   22980:	3f7b14be 3e47c5c2 3f74fa0b 3e94a031     ..{?..G>..t?1..>
   22990:	3f6c835e 3ec3ef15 3f61c598 3ef15aea     ^.l?...>..a?.Z.>
   229a0:	3f54db31 3f0e39da 3f45e403 3f226799     1.T?.9.?..E?.g"?
   229b0:	3f3504f3 3f3504f3 3f226799 3f45e403     ..5?..5?.g"?..E?
   229c0:	3f0e39da 3f54db31 3ef15aea 3f61c598     .9.?1.T?.Z.>..a?
   229d0:	3ec3ef15 3f6c835e 3e94a031 3f74fa0b     ...>^.l?1..>..t?
   229e0:	3e47c5c2 3f7b14be 3dc8bd36 3f7ec46d     ..G>..{?6..=m.~?
   229f0:	00000000 3f800000 bdc8bd36 3f7ec46d     .......?6...m.~?
   22a00:	be47c5c2 3f7b14be be94a031 3f74fa0b     ..G...{?1.....t?
   22a10:	bec3ef15 3f6c835e bef15aea 3f61c598     ....^.l?.Z....a?
   22a20:	bf0e39da 3f54db31 bf226799 3f45e403     .9..1.T?.g"...E?
   22a30:	bf3504f3 3f3504f3 bf45e403 3f226799     ..5...5?..E..g"?
   22a40:	bf54db31 3f0e39da bf61c598 3ef15aea     1.T..9.?..a..Z.>
   22a50:	bf6c835e 3ec3ef15 bf74fa0b 3e94a031     ^.l....>..t.1..>
   22a60:	bf7b14be 3e47c5c2 bf7ec46d 3dc8bd36     ..{...G>m.~.6..=
   22a70:	bf800000 00000000 bf7ec46d bdc8bd36     ........m.~.6...
   22a80:	bf7b14be be47c5c2 bf74fa0b be94a031     ..{...G...t.1...
   22a90:	bf6c835e bec3ef15 bf61c598 bef15aea     ^.l.......a..Z..
   22aa0:	bf54db31 bf0e39da bf45e403 bf226799     1.T..9....E..g".
   22ab0:	bf3504f3 bf3504f3 bf226799 bf45e403     ..5...5..g"...E.
   22ac0:	bf0e39da bf54db31 bef15aea bf61c598     .9..1.T..Z....a.
   22ad0:	bec3ef15 bf6c835e be94a031 bf74fa0b     ....^.l.1.....t.
   22ae0:	be47c5c2 bf7b14be bdc8bd36 bf7ec46d     ..G...{.6...m.~.
   22af0:	80000000 bf800000 3dc8bd36 bf7ec46d     ........6..=m.~.
   22b00:	3e47c5c2 bf7b14be 3e94a031 bf74fa0b     ..G>..{.1..>..t.
   22b10:	3ec3ef15 bf6c835e 3ef15aea bf61c598     ...>^.l..Z.>..a.
   22b20:	3f0e39da bf54db31 3f226799 bf45e403     .9.?1.T..g"?..E.
   22b30:	3f3504f3 bf3504f3 3f45e403 bf226799     ..5?..5...E?.g".
   22b40:	3f54db31 bf0e39da 3f61c598 bef15aea     1.T?.9....a?.Z..
   22b50:	3f6c835e bec3ef15 3f74fa0b be94a031     ^.l?......t?1...
   22b60:	3f7b14be be47c5c2 3f7ec46d bdc8bd36     ..{?..G.m.~?6...

00022b70 <twiddleCoef_rfft_512>:
   22b70:	00000000 3f800000 3c490e90 3f7ffb11     .......?..I<...?
   22b80:	3cc90ab0 3f7fec43 3d16c32c 3f7fd398     ...<C..?,..=...?
   22b90:	3d48fb2f 3f7fb10f 3d7b2b74 3f7f84ab     /.H=...?t+{=...?
   22ba0:	3d96a905 3f7f4e6d 3dafb680 3f7f0e58     ...=mN.?...=X..?
   22bb0:	3dc8bd36 3f7ec46d 3de1bc2e 3f7e70b0     6..=m.~?...=.p~?
   22bc0:	3dfab273 3f7e1324 3e09cf86 3f7dabcc     s..=$.~?...>..}?
   22bd0:	3e164083 3f7d3aac 3e22abb6 3f7cbfc9     .@.>.:}?..">..|?
   22be0:	3e2f10a2 3f7c3b28 3e3b6ecf 3f7baccd     ../>(;|?.n;>..{?
   22bf0:	3e47c5c2 3f7b14be 3e541501 3f7a7302     ..G>..{?..T>.sz?
   22c00:	3e605c13 3f79c79d 3e6c9a7f 3f791298     .\`>..y?..l>..y?
   22c10:	3e78cfcc 3f7853f8 3e827dc0 3f778bc5     ..x>.Sx?.}.>..w?
   22c20:	3e888e93 3f76ba07 3e8e9a22 3f75dec6     ...>..v?"..>..u?
   22c30:	3e94a031 3f74fa0b 3e9aa086 3f740bdd     1..>..t?...>..t?
   22c40:	3ea09ae5 3f731447 3ea68f12 3f721352     ...>G.s?...>R.r?
   22c50:	3eac7cd4 3f710908 3eb263ef 3f6ff573     .|.>..q?.c.>s.o?
   22c60:	3eb8442a 3f6ed89e 3ebe1d4a 3f6db293     *D.>..n?J..>..m?
   22c70:	3ec3ef15 3f6c835e 3ec9b953 3f6b4b0c     ...>^.l?S..>.Kk?
   22c80:	3ecf7bca 3f6a09a7 3ed53641 3f68bf3c     .{.>..j?A6.><.h?
   22c90:	3edae880 3f676bd8 3ee0924f 3f660f88     ...>.kg?O..>..f?
   22ca0:	3ee63375 3f64aa59 3eebcbbb 3f633c5a     u3.>Y.d?...>Z<c?
   22cb0:	3ef15aea 3f61c598 3ef6e0cb 3f604621     .Z.>..a?...>!F`?
   22cc0:	3efc5d27 3f5ebe05 3f00e7e4 3f5d2d53     '].>..^?...?S-]?
   22cd0:	3f039c3d 3f5b941a 3f064b82 3f59f26a     =..?..[?.K.?j.Y?
   22ce0:	3f08f59b 3f584853 3f0b9a6b 3f5695e5     ...?SHX?k..?..V?
   22cf0:	3f0e39da 3f54db31 3f10d3cd 3f531849     .9.?1.T?...?I.S?
   22d00:	3f13682a 3f514d3d 3f15f6d9 3f4f7a1f     *h.?=MQ?...?.zO?
   22d10:	3f187fc0 3f4d9f02 3f1b02c6 3f4bbbf8     ...?..M?...?..K?
   22d20:	3f1d7fd1 3f49d112 3f1ff6cb 3f47de65     ...?..I?...?e.G?
   22d30:	3f226799 3f45e403 3f24d225 3f43e200     .g"?..E?%.$?..C?
   22d40:	3f273656 3f41d870 3f299415 3f3fc767     V6'?p.A?..)?g.??
   22d50:	3f2beb4a 3f3daef9 3f2e3bde 3f3b8f3b     J.+?..=?.;.?;.;?
   22d60:	3f3085bb 3f396842 3f32c8c9 3f373a23     ..0?Bh9?..2?#:7?
   22d70:	3f3504f3 3f3504f3 3f373a23 3f32c8c9     ..5?..5?#:7?..2?
   22d80:	3f396842 3f3085bb 3f3b8f3b 3f2e3bde     Bh9?..0?;.;?.;.?
   22d90:	3f3daef9 3f2beb4a 3f3fc767 3f299415     ..=?J.+?g.??..)?
   22da0:	3f41d870 3f273656 3f43e200 3f24d225     p.A?V6'?..C?%.$?
   22db0:	3f45e403 3f226799 3f47de65 3f1ff6cb     ..E?.g"?e.G?...?
   22dc0:	3f49d112 3f1d7fd1 3f4bbbf8 3f1b02c6     ..I?...?..K?...?
   22dd0:	3f4d9f02 3f187fc0 3f4f7a1f 3f15f6d9     ..M?...?.zO?...?
   22de0:	3f514d3d 3f13682a 3f531849 3f10d3cd     =MQ?*h.?I.S?...?
   22df0:	3f54db31 3f0e39da 3f5695e5 3f0b9a6b     1.T?.9.?..V?k..?
   22e00:	3f584853 3f08f59b 3f59f26a 3f064b82     SHX?...?j.Y?.K.?
   22e10:	3f5b941a 3f039c3d 3f5d2d53 3f00e7e4     ..[?=..?S-]?...?
   22e20:	3f5ebe05 3efc5d27 3f604621 3ef6e0cb     ..^?'].>!F`?...>
   22e30:	3f61c598 3ef15aea 3f633c5a 3eebcbbb     ..a?.Z.>Z<c?...>
   22e40:	3f64aa59 3ee63375 3f660f88 3ee0924f     Y.d?u3.>..f?O..>
   22e50:	3f676bd8 3edae880 3f68bf3c 3ed53641     .kg?...><.h?A6.>
   22e60:	3f6a09a7 3ecf7bca 3f6b4b0c 3ec9b953     ..j?.{.>.Kk?S..>
   22e70:	3f6c835e 3ec3ef15 3f6db293 3ebe1d4a     ^.l?...>..m?J..>
   22e80:	3f6ed89e 3eb8442a 3f6ff573 3eb263ef     ..n?*D.>s.o?.c.>
   22e90:	3f710908 3eac7cd4 3f721352 3ea68f12     ..q?.|.>R.r?...>
   22ea0:	3f731447 3ea09ae5 3f740bdd 3e9aa086     G.s?...>..t?...>
   22eb0:	3f74fa0b 3e94a031 3f75dec6 3e8e9a22     ..t?1..>..u?"..>
   22ec0:	3f76ba07 3e888e93 3f778bc5 3e827dc0     ..v?...>..w?.}.>
   22ed0:	3f7853f8 3e78cfcc 3f791298 3e6c9a7f     .Sx?..x>..y?..l>
   22ee0:	3f79c79d 3e605c13 3f7a7302 3e541501     ..y?.\`>.sz?..T>
   22ef0:	3f7b14be 3e47c5c2 3f7baccd 3e3b6ecf     ..{?..G>..{?.n;>
   22f00:	3f7c3b28 3e2f10a2 3f7cbfc9 3e22abb6     (;|?../>..|?..">
   22f10:	3f7d3aac 3e164083 3f7dabcc 3e09cf86     .:}?.@.>..}?...>
   22f20:	3f7e1324 3dfab273 3f7e70b0 3de1bc2e     $.~?s..=.p~?...=
   22f30:	3f7ec46d 3dc8bd36 3f7f0e58 3dafb680     m.~?6..=X..?...=
   22f40:	3f7f4e6d 3d96a905 3f7f84ab 3d7b2b74     mN.?...=...?t+{=
   22f50:	3f7fb10f 3d48fb2f 3f7fd398 3d16c32c     ...?/.H=...?,..=
   22f60:	3f7fec43 3cc90ab0 3f7ffb11 3c490e90     C..?...<...?..I<
   22f70:	3f800000 00000000 3f7ffb11 bc490e90     ...?.......?..I.
   22f80:	3f7fec43 bcc90ab0 3f7fd398 bd16c32c     C..?.......?,...
   22f90:	3f7fb10f bd48fb2f 3f7f84ab bd7b2b74     ...?/.H....?t+{.
   22fa0:	3f7f4e6d bd96a905 3f7f0e58 bdafb680     mN.?....X..?....
   22fb0:	3f7ec46d bdc8bd36 3f7e70b0 bde1bc2e     m.~?6....p~?....
   22fc0:	3f7e1324 bdfab273 3f7dabcc be09cf86     $.~?s.....}?....
   22fd0:	3f7d3aac be164083 3f7cbfc9 be22abb6     .:}?.@....|?..".
   22fe0:	3f7c3b28 be2f10a2 3f7baccd be3b6ecf     (;|?../...{?.n;.
   22ff0:	3f7b14be be47c5c2 3f7a7302 be541501     ..{?..G..sz?..T.
   23000:	3f79c79d be605c13 3f791298 be6c9a7f     ..y?.\`...y?..l.
   23010:	3f7853f8 be78cfcc 3f778bc5 be827dc0     .Sx?..x...w?.}..
   23020:	3f76ba07 be888e93 3f75dec6 be8e9a22     ..v?......u?"...
   23030:	3f74fa0b be94a031 3f740bdd be9aa086     ..t?1.....t?....
   23040:	3f731447 bea09ae5 3f721352 bea68f12     G.s?....R.r?....
   23050:	3f710908 beac7cd4 3f6ff573 beb263ef     ..q?.|..s.o?.c..
   23060:	3f6ed89e beb8442a 3f6db293 bebe1d4a     ..n?*D....m?J...
   23070:	3f6c835e bec3ef15 3f6b4b0c bec9b953     ^.l?.....Kk?S...
   23080:	3f6a09a7 becf7bca 3f68bf3c bed53641     ..j?.{..<.h?A6..
   23090:	3f676bd8 bedae880 3f660f88 bee0924f     .kg?......f?O...
   230a0:	3f64aa59 bee63375 3f633c5a beebcbbb     Y.d?u3..Z<c?....
   230b0:	3f61c598 bef15aea 3f604621 bef6e0cb     ..a?.Z..!F`?....
   230c0:	3f5ebe05 befc5d27 3f5d2d53 bf00e7e4     ..^?']..S-]?....
   230d0:	3f5b941a bf039c3d 3f59f26a bf064b82     ..[?=...j.Y?.K..
   230e0:	3f584853 bf08f59b 3f5695e5 bf0b9a6b     SHX?......V?k...
   230f0:	3f54db31 bf0e39da 3f531849 bf10d3cd     1.T?.9..I.S?....
   23100:	3f514d3d bf13682a 3f4f7a1f bf15f6d9     =MQ?*h...zO?....
   23110:	3f4d9f02 bf187fc0 3f4bbbf8 bf1b02c6     ..M?......K?....
   23120:	3f49d112 bf1d7fd1 3f47de65 bf1ff6cb     ..I?....e.G?....
   23130:	3f45e403 bf226799 3f43e200 bf24d225     ..E?.g"...C?%.$.
   23140:	3f41d870 bf273656 3f3fc767 bf299415     p.A?V6'.g.??..).
   23150:	3f3daef9 bf2beb4a 3f3b8f3b bf2e3bde     ..=?J.+.;.;?.;..
   23160:	3f396842 bf3085bb 3f373a23 bf32c8c9     Bh9?..0.#:7?..2.
   23170:	3f3504f3 bf3504f3 3f32c8c9 bf373a23     ..5?..5...2?#:7.
   23180:	3f3085bb bf396842 3f2e3bde bf3b8f3b     ..0?Bh9..;.?;.;.
   23190:	3f2beb4a bf3daef9 3f299415 bf3fc767     J.+?..=...)?g.?.
   231a0:	3f273656 bf41d870 3f24d225 bf43e200     V6'?p.A.%.$?..C.
   231b0:	3f226799 bf45e403 3f1ff6cb bf47de65     .g"?..E....?e.G.
   231c0:	3f1d7fd1 bf49d112 3f1b02c6 bf4bbbf8     ...?..I....?..K.
   231d0:	3f187fc0 bf4d9f02 3f15f6d9 bf4f7a1f     ...?..M....?.zO.
   231e0:	3f13682a bf514d3d 3f10d3cd bf531849     *h.?=MQ....?I.S.
   231f0:	3f0e39da bf54db31 3f0b9a6b bf5695e5     .9.?1.T.k..?..V.
   23200:	3f08f59b bf584853 3f064b82 bf59f26a     ...?SHX..K.?j.Y.
   23210:	3f039c3d bf5b941a 3f00e7e4 bf5d2d53     =..?..[....?S-].
   23220:	3efc5d27 bf5ebe05 3ef6e0cb bf604621     '].>..^....>!F`.
   23230:	3ef15aea bf61c598 3eebcbbb bf633c5a     .Z.>..a....>Z<c.
   23240:	3ee63375 bf64aa59 3ee0924f bf660f88     u3.>Y.d.O..>..f.
   23250:	3edae880 bf676bd8 3ed53641 bf68bf3c     ...>.kg.A6.><.h.
   23260:	3ecf7bca bf6a09a7 3ec9b953 bf6b4b0c     .{.>..j.S..>.Kk.
   23270:	3ec3ef15 bf6c835e 3ebe1d4a bf6db293     ...>^.l.J..>..m.
   23280:	3eb8442a bf6ed89e 3eb263ef bf6ff573     *D.>..n..c.>s.o.
   23290:	3eac7cd4 bf710908 3ea68f12 bf721352     .|.>..q....>R.r.
   232a0:	3ea09ae5 bf731447 3e9aa086 bf740bdd     ...>G.s....>..t.
   232b0:	3e94a031 bf74fa0b 3e8e9a22 bf75dec6     1..>..t."..>..u.
   232c0:	3e888e93 bf76ba07 3e827dc0 bf778bc5     ...>..v..}.>..w.
   232d0:	3e78cfcc bf7853f8 3e6c9a7f bf791298     ..x>.Sx...l>..y.
   232e0:	3e605c13 bf79c79d 3e541501 bf7a7302     .\`>..y...T>.sz.
   232f0:	3e47c5c2 bf7b14be 3e3b6ecf bf7baccd     ..G>..{..n;>..{.
   23300:	3e2f10a2 bf7c3b28 3e22abb6 bf7cbfc9     ../>(;|...">..|.
   23310:	3e164083 bf7d3aac 3e09cf86 bf7dabcc     .@.>.:}....>..}.
   23320:	3dfab273 bf7e1324 3de1bc2e bf7e70b0     s..=$.~....=.p~.
   23330:	3dc8bd36 bf7ec46d 3dafb680 bf7f0e58     6..=m.~....=X...
   23340:	3d96a905 bf7f4e6d 3d7b2b74 bf7f84ab     ...=mN..t+{=....
   23350:	3d48fb2f bf7fb10f 3d16c32c bf7fd398     /.H=....,..=....
   23360:	3cc90ab0 bf7fec43 3c490e90 bf7ffb11     ...<C.....I<....

00023370 <armBitRevIndexTable512>:
   23370:	02000008 04000010 06000018 08000020     ............ ...
   23380:	0a000028 0c000030 0e000038 02400048     (...0...8...H.@.
   23390:	04400050 06400058 08400060 0a400068     P.@.X.@.`.@.h.@.
   233a0:	0c400070 0e400078 02800088 04800090     p.@.x.@.........
   233b0:	06800098 088000a0 0a8000a8 0c8000b0     ................
   233c0:	0e8000b8 02c000c8 04c000d0 06c000d8     ................
   233d0:	08c000e0 0ac000e8 0cc000f0 0ec000f8     ................
   233e0:	03000108 05000110 07000118 09000120     ............ ...
   233f0:	0b000128 0d000130 0f000138 03400148     (...0...8...H.@.
   23400:	05400150 07400158 09400160 0b400168     P.@.X.@.`.@.h.@.
   23410:	0d400170 0f400178 03800188 05800190     p.@.x.@.........
   23420:	07800198 098001a0 0b8001a8 0d8001b0     ................
   23430:	0f8001b8 03c001c8 05c001d0 07c001d8     ................
   23440:	09c001e0 0bc001e8 0dc001f0 0fc001f8     ................
   23450:	04080210 06080218 08080220 0a080228     ........ ...(...
   23460:	0c080230 0e080238 04480250 06480258     0...8...P.H.X.H.
   23470:	08480260 0a480268 0c480270 0e480278     `.H.h.H.p.H.x.H.
   23480:	04880290 06880298 088802a0 0a8802a8     ................
   23490:	0c8802b0 0e8802b8 04c802d0 06c802d8     ................
   234a0:	08c802e0 0ac802e8 0cc802f0 0ec802f8     ................
   234b0:	05080310 07080318 09080320 0b080328     ........ ...(...
   234c0:	0d080330 0f080338 05480350 07480358     0...8...P.H.X.H.
   234d0:	09480360 0b480368 0d480370 0f480378     `.H.h.H.p.H.x.H.
   234e0:	05880390 07880398 098803a0 0b8803a8     ................
   234f0:	0d8803b0 0f8803b8 05c803d0 07c803d8     ................
   23500:	09c803e0 0bc803e8 0dc803f0 0fc803f8     ................
   23510:	06100418 08100420 0a100428 0c100430     .... ...(...0...
   23520:	0e100438 06500458 08500460 0a500468     8...X.P.`.P.h.P.
   23530:	0c500470 0e500478 06900498 089004a0     p.P.x.P.........
   23540:	0a9004a8 0c9004b0 0e9004b8 06d004d8     ................
   23550:	08d004e0 0ad004e8 0cd004f0 0ed004f8     ................
   23560:	07100518 09100520 0b100528 0d100530     .... ...(...0...
   23570:	0f100538 07500558 09500560 0b500568     8...X.P.`.P.h.P.
   23580:	0d500570 0f500578 07900598 099005a0     p.P.x.P.........
   23590:	0b9005a8 0d9005b0 0f9005b8 07d005d8     ................
   235a0:	09d005e0 0bd005e8 0dd005f0 0fd005f8     ................
   235b0:	08180620 0a180628 0c180630 0e180638      ...(...0...8...
   235c0:	08580660 0a580668 0c580670 0e580678     `.X.h.X.p.X.x.X.
   235d0:	089806a0 0a9806a8 0c9806b0 0e9806b8     ................
   235e0:	08d806e0 0ad806e8 0cd806f0 0ed806f8     ................
   235f0:	09180720 0b180728 0d180730 0f180738      ...(...0...8...
   23600:	09580760 0b580768 0d580770 0f580778     `.X.h.X.p.X.x.X.
   23610:	099807a0 0b9807a8 0d9807b0 0f9807b8     ................
   23620:	09d807e0 0bd807e8 0dd807f0 0fd807f8     ................
   23630:	0a200828 0c200830 0e200838 0a600868     (. .0. .8. .h.`.
   23640:	0c600870 0e600878 0aa008a8 0ca008b0     p.`.x.`.........
   23650:	0ea008b8 0ae008e8 0ce008f0 0ee008f8     ................
   23660:	0b200928 0d200930 0f200938 0b600968     (. .0. .8. .h.`.
   23670:	0d600970 0f600978 0ba009a8 0da009b0     p.`.x.`.........
   23680:	0fa009b8 0be009e8 0de009f0 0fe009f8     ................
   23690:	0c280a30 0e280a38 0c680a70 0e680a78     0.(.8.(.p.h.x.h.
   236a0:	0ca80ab0 0ea80ab8 0ce80af0 0ee80af8     ................
   236b0:	0d280b30 0f280b38 0d680b70 0f680b78     0.(.8.(.p.h.x.h.
   236c0:	0da80bb0 0fa80bb8 0de80bf0 0fe80bf8     ................
   236d0:	0e300c38 0e700c78 0eb00cb8 0ef00cf8     8.0.x.p.........
   236e0:	0f300d38 0f700d78 0fb00db8 0ff00df8     8.0.x.p.........

000236f0 <twiddleCoef_rfft_1024>:
   236f0:	00000000 3f800000 3bc90f89 3f7ffec4     .......?...;...?
   23700:	3c490e90 3f7ffb11 3c96c9b6 3f7ff4e6     ..I<...?...<...?
   23710:	3cc90ab0 3f7fec43 3cfb49b9 3f7fe129     ...<C..?.I.<)..?
   23720:	3d16c32c 3f7fd398 3d2fe007 3f7fc38f     ,..=...?../=...?
   23730:	3d48fb2f 3f7fb10f 3d621468 3f7f9c18     /.H=...?h.b=...?
   23740:	3d7b2b74 3f7f84ab 3d8a200a 3f7f6ac7     t+{=...?. .=.j.?
   23750:	3d96a905 3f7f4e6d 3da3308c 3f7f2f9d     ...=mN.?.0.=./.?
   23760:	3dafb680 3f7f0e58 3dbc3ac3 3f7eea9d     ...=X..?.:.=..~?
   23770:	3dc8bd36 3f7ec46d 3dd53db9 3f7e9bc9     6..=m.~?.=.=..~?
   23780:	3de1bc2e 3f7e70b0 3dee3876 3f7e4323     ...=.p~?v8.=#C~?
   23790:	3dfab273 3f7e1324 3e039502 3f7de0b1     s..=$.~?...>..}?
   237a0:	3e09cf86 3f7dabcc 3e1008b7 3f7d7474     ...>..}?...>tt}?
   237b0:	3e164083 3f7d3aac 3e1c76de 3f7cfe73     .@.>.:}?.v.>s.|?
   237c0:	3e22abb6 3f7cbfc9 3e28defc 3f7c7eb0     ..">..|?..(>.~|?
   237d0:	3e2f10a2 3f7c3b28 3e354098 3f7bf531     ../>(;|?.@5>1.{?
   237e0:	3e3b6ecf 3f7baccd 3e419b37 3f7b61fc     .n;>..{?7.A>.a{?
   237f0:	3e47c5c2 3f7b14be 3e4dee60 3f7ac516     ..G>..{?`.M>..z?
   23800:	3e541501 3f7a7302 3e5a3997 3f7a1e84     ..T>.sz?.9Z>..z?
   23810:	3e605c13 3f79c79d 3e667c66 3f796e4e     .\`>..y?f|f>Nny?
   23820:	3e6c9a7f 3f791298 3e72b651 3f78b47b     ..l>..y?Q.r>{.x?
   23830:	3e78cfcc 3f7853f8 3e7ee6e1 3f77f110     ..x>.Sx?..~>..w?
   23840:	3e827dc0 3f778bc5 3e8586ce 3f772417     .}.>..w?...>.$w?
   23850:	3e888e93 3f76ba07 3e8b9507 3f764d97     ...>..v?...>.Mv?
   23860:	3e8e9a22 3f75dec6 3e919ddd 3f756d97     "..>..u?...>.mu?
   23870:	3e94a031 3f74fa0b 3e97a117 3f748422     1..>..t?...>".t?
   23880:	3e9aa086 3f740bdd 3e9d9e78 3f73913f     ...>..t?x..>?.s?
   23890:	3ea09ae5 3f731447 3ea395c5 3f7294f8     ...>G.s?...>..r?
   238a0:	3ea68f12 3f721352 3ea986c4 3f718f57     ...>R.r?...>W.q?
   238b0:	3eac7cd4 3f710908 3eaf713a 3f708066     .|.>..q?:q.>f.p?
   238c0:	3eb263ef 3f6ff573 3eb554ec 3f6f6830     .c.>s.o?.T.>0ho?
   238d0:	3eb8442a 3f6ed89e 3ebb31a0 3f6e46be     *D.>..n?.1.>.Fn?
   238e0:	3ebe1d4a 3f6db293 3ec1071e 3f6d1c1d     J..>..m?...>..m?
   238f0:	3ec3ef15 3f6c835e 3ec6d529 3f6be858     ...>^.l?)..>X.k?
   23900:	3ec9b953 3f6b4b0c 3ecc9b8b 3f6aab7b     S..>.Kk?...>{.j?
   23910:	3ecf7bca 3f6a09a7 3ed25a09 3f696591     .{.>..j?.Z.>.ei?
   23920:	3ed53641 3f68bf3c 3ed8106b 3f6816a8     A6.><.h?k..>..h?
   23930:	3edae880 3f676bd8 3eddbe79 3f66becc     ...>.kg?y..>..f?
   23940:	3ee0924f 3f660f88 3ee363fa 3f655e0b     O..>..f?.c.>.^e?
   23950:	3ee63375 3f64aa59 3ee900b7 3f63f473     u3.>Y.d?...>s.c?
   23960:	3eebcbbb 3f633c5a 3eee9479 3f628210     ...>Z<c?y..>..b?
   23970:	3ef15aea 3f61c598 3ef41f07 3f6106f2     .Z.>..a?...>..a?
   23980:	3ef6e0cb 3f604621 3ef9a02d 3f5f8327     ...>!F`?-..>'._?
   23990:	3efc5d27 3f5ebe05 3eff17b2 3f5df6be     '].>..^?...>..]?
   239a0:	3f00e7e4 3f5d2d53 3f0242b1 3f5c61c7     ...?S-]?.B.?.a\?
   239b0:	3f039c3d 3f5b941a 3f04f484 3f5ac450     =..?..[?...?P.Z?
   239c0:	3f064b82 3f59f26a 3f07a136 3f591e6a     .K.?j.Y?6..?j.Y?
   239d0:	3f08f59b 3f584853 3f0a48ad 3f577026     ...?SHX?.H.?&pW?
   239e0:	3f0b9a6b 3f5695e5 3f0cead0 3f55b993     k..?..V?...?..U?
   239f0:	3f0e39da 3f54db31 3f0f8784 3f53fac3     .9.?1.T?...?..S?
   23a00:	3f10d3cd 3f531849 3f121eb0 3f5233c6     ...?I.S?...?.3R?
   23a10:	3f13682a 3f514d3d 3f14b039 3f5064af     *h.?=MQ?9..?.dP?
   23a20:	3f15f6d9 3f4f7a1f 3f173c07 3f4e8d90     ...?.zO?.<.?..N?
   23a30:	3f187fc0 3f4d9f02 3f19c200 3f4cae79     ...?..M?...?y.L?
   23a40:	3f1b02c6 3f4bbbf8 3f1c420c 3f4ac77f     ...?..K?.B.?..J?
   23a50:	3f1d7fd1 3f49d112 3f1ebc12 3f48d8b3     ...?..I?...?..H?
   23a60:	3f1ff6cb 3f47de65 3f212ff9 3f46e22a     ...?e.G?./!?*.F?
   23a70:	3f226799 3f45e403 3f239da9 3f44e3f5     .g"?..E?..#?..D?
   23a80:	3f24d225 3f43e200 3f26050a 3f42de29     %.$?..C?..&?).B?
   23a90:	3f273656 3f41d870 3f286605 3f40d0da     V6'?p.A?.f(?..@?
   23aa0:	3f299415 3f3fc767 3f2ac082 3f3ebc1b     ..)?g.??..*?..>?
   23ab0:	3f2beb4a 3f3daef9 3f2d1469 3f3ca003     J.+?..=?i.-?..<?
   23ac0:	3f2e3bde 3f3b8f3b 3f2f61a5 3f3a7ca4     .;.?;.;?.a/?.|:?
   23ad0:	3f3085bb 3f396842 3f31a81d 3f385216     ..0?Bh9?..1?.R8?
   23ae0:	3f32c8c9 3f373a23 3f33e7bc 3f36206c     ..2?#:7?..3?l 6?
   23af0:	3f3504f3 3f3504f3 3f36206c 3f33e7bc     ..5?..5?l 6?..3?
   23b00:	3f373a23 3f32c8c9 3f385216 3f31a81d     #:7?..2?.R8?..1?
   23b10:	3f396842 3f3085bb 3f3a7ca4 3f2f61a5     Bh9?..0?.|:?.a/?
   23b20:	3f3b8f3b 3f2e3bde 3f3ca003 3f2d1469     ;.;?.;.?..<?i.-?
   23b30:	3f3daef9 3f2beb4a 3f3ebc1b 3f2ac082     ..=?J.+?..>?..*?
   23b40:	3f3fc767 3f299415 3f40d0da 3f286605     g.??..)?..@?.f(?
   23b50:	3f41d870 3f273656 3f42de29 3f26050a     p.A?V6'?).B?..&?
   23b60:	3f43e200 3f24d225 3f44e3f5 3f239da9     ..C?%.$?..D?..#?
   23b70:	3f45e403 3f226799 3f46e22a 3f212ff9     ..E?.g"?*.F?./!?
   23b80:	3f47de65 3f1ff6cb 3f48d8b3 3f1ebc12     e.G?...?..H?...?
   23b90:	3f49d112 3f1d7fd1 3f4ac77f 3f1c420c     ..I?...?..J?.B.?
   23ba0:	3f4bbbf8 3f1b02c6 3f4cae79 3f19c200     ..K?...?y.L?...?
   23bb0:	3f4d9f02 3f187fc0 3f4e8d90 3f173c07     ..M?...?..N?.<.?
   23bc0:	3f4f7a1f 3f15f6d9 3f5064af 3f14b039     .zO?...?.dP?9..?
   23bd0:	3f514d3d 3f13682a 3f5233c6 3f121eb0     =MQ?*h.?.3R?...?
   23be0:	3f531849 3f10d3cd 3f53fac3 3f0f8784     I.S?...?..S?...?
   23bf0:	3f54db31 3f0e39da 3f55b993 3f0cead0     1.T?.9.?..U?...?
   23c00:	3f5695e5 3f0b9a6b 3f577026 3f0a48ad     ..V?k..?&pW?.H.?
   23c10:	3f584853 3f08f59b 3f591e6a 3f07a136     SHX?...?j.Y?6..?
   23c20:	3f59f26a 3f064b82 3f5ac450 3f04f484     j.Y?.K.?P.Z?...?
   23c30:	3f5b941a 3f039c3d 3f5c61c7 3f0242b1     ..[?=..?.a\?.B.?
   23c40:	3f5d2d53 3f00e7e4 3f5df6be 3eff17b2     S-]?...?..]?...>
   23c50:	3f5ebe05 3efc5d27 3f5f8327 3ef9a02d     ..^?'].>'._?-..>
   23c60:	3f604621 3ef6e0cb 3f6106f2 3ef41f07     !F`?...>..a?...>
   23c70:	3f61c598 3ef15aea 3f628210 3eee9479     ..a?.Z.>..b?y..>
   23c80:	3f633c5a 3eebcbbb 3f63f473 3ee900b7     Z<c?...>s.c?...>
   23c90:	3f64aa59 3ee63375 3f655e0b 3ee363fa     Y.d?u3.>.^e?.c.>
   23ca0:	3f660f88 3ee0924f 3f66becc 3eddbe79     ..f?O..>..f?y..>
   23cb0:	3f676bd8 3edae880 3f6816a8 3ed8106b     .kg?...>..h?k..>
   23cc0:	3f68bf3c 3ed53641 3f696591 3ed25a09     <.h?A6.>.ei?.Z.>
   23cd0:	3f6a09a7 3ecf7bca 3f6aab7b 3ecc9b8b     ..j?.{.>{.j?...>
   23ce0:	3f6b4b0c 3ec9b953 3f6be858 3ec6d529     .Kk?S..>X.k?)..>
   23cf0:	3f6c835e 3ec3ef15 3f6d1c1d 3ec1071e     ^.l?...>..m?...>
   23d00:	3f6db293 3ebe1d4a 3f6e46be 3ebb31a0     ..m?J..>.Fn?.1.>
   23d10:	3f6ed89e 3eb8442a 3f6f6830 3eb554ec     ..n?*D.>0ho?.T.>
   23d20:	3f6ff573 3eb263ef 3f708066 3eaf713a     s.o?.c.>f.p?:q.>
   23d30:	3f710908 3eac7cd4 3f718f57 3ea986c4     ..q?.|.>W.q?...>
   23d40:	3f721352 3ea68f12 3f7294f8 3ea395c5     R.r?...>..r?...>
   23d50:	3f731447 3ea09ae5 3f73913f 3e9d9e78     G.s?...>?.s?x..>
   23d60:	3f740bdd 3e9aa086 3f748422 3e97a117     ..t?...>".t?...>
   23d70:	3f74fa0b 3e94a031 3f756d97 3e919ddd     ..t?1..>.mu?...>
   23d80:	3f75dec6 3e8e9a22 3f764d97 3e8b9507     ..u?"..>.Mv?...>
   23d90:	3f76ba07 3e888e93 3f772417 3e8586ce     ..v?...>.$w?...>
   23da0:	3f778bc5 3e827dc0 3f77f110 3e7ee6e1     ..w?.}.>..w?..~>
   23db0:	3f7853f8 3e78cfcc 3f78b47b 3e72b651     .Sx?..x>{.x?Q.r>
   23dc0:	3f791298 3e6c9a7f 3f796e4e 3e667c66     ..y?..l>Nny?f|f>
   23dd0:	3f79c79d 3e605c13 3f7a1e84 3e5a3997     ..y?.\`>..z?.9Z>
   23de0:	3f7a7302 3e541501 3f7ac516 3e4dee60     .sz?..T>..z?`.M>
   23df0:	3f7b14be 3e47c5c2 3f7b61fc 3e419b37     ..{?..G>.a{?7.A>
   23e00:	3f7baccd 3e3b6ecf 3f7bf531 3e354098     ..{?.n;>1.{?.@5>
   23e10:	3f7c3b28 3e2f10a2 3f7c7eb0 3e28defc     (;|?../>.~|?..(>
   23e20:	3f7cbfc9 3e22abb6 3f7cfe73 3e1c76de     ..|?..">s.|?.v.>
   23e30:	3f7d3aac 3e164083 3f7d7474 3e1008b7     .:}?.@.>tt}?...>
   23e40:	3f7dabcc 3e09cf86 3f7de0b1 3e039502     ..}?...>..}?...>
   23e50:	3f7e1324 3dfab273 3f7e4323 3dee3876     $.~?s..=#C~?v8.=
   23e60:	3f7e70b0 3de1bc2e 3f7e9bc9 3dd53db9     .p~?...=..~?.=.=
   23e70:	3f7ec46d 3dc8bd36 3f7eea9d 3dbc3ac3     m.~?6..=..~?.:.=
   23e80:	3f7f0e58 3dafb680 3f7f2f9d 3da3308c     X..?...=./.?.0.=
   23e90:	3f7f4e6d 3d96a905 3f7f6ac7 3d8a200a     mN.?...=.j.?. .=
   23ea0:	3f7f84ab 3d7b2b74 3f7f9c18 3d621468     ...?t+{=...?h.b=
   23eb0:	3f7fb10f 3d48fb2f 3f7fc38f 3d2fe007     ...?/.H=...?../=
   23ec0:	3f7fd398 3d16c32c 3f7fe129 3cfb49b9     ...?,..=)..?.I.<
   23ed0:	3f7fec43 3cc90ab0 3f7ff4e6 3c96c9b6     C..?...<...?...<
   23ee0:	3f7ffb11 3c490e90 3f7ffec4 3bc90f89     ...?..I<...?...;
   23ef0:	3f800000 00000000 3f7ffec4 bbc90f89     ...?.......?....
   23f00:	3f7ffb11 bc490e90 3f7ff4e6 bc96c9b6     ...?..I....?....
   23f10:	3f7fec43 bcc90ab0 3f7fe129 bcfb49b9     C..?....)..?.I..
   23f20:	3f7fd398 bd16c32c 3f7fc38f bd2fe007     ...?,......?../.
   23f30:	3f7fb10f bd48fb2f 3f7f9c18 bd621468     ...?/.H....?h.b.
   23f40:	3f7f84ab bd7b2b74 3f7f6ac7 bd8a200a     ...?t+{..j.?. ..
   23f50:	3f7f4e6d bd96a905 3f7f2f9d bda3308c     mN.?...../.?.0..
   23f60:	3f7f0e58 bdafb680 3f7eea9d bdbc3ac3     X..?......~?.:..
   23f70:	3f7ec46d bdc8bd36 3f7e9bc9 bdd53db9     m.~?6.....~?.=..
   23f80:	3f7e70b0 bde1bc2e 3f7e4323 bdee3876     .p~?....#C~?v8..
   23f90:	3f7e1324 bdfab273 3f7de0b1 be039502     $.~?s.....}?....
   23fa0:	3f7dabcc be09cf86 3f7d7474 be1008b7     ..}?....tt}?....
   23fb0:	3f7d3aac be164083 3f7cfe73 be1c76de     .:}?.@..s.|?.v..
   23fc0:	3f7cbfc9 be22abb6 3f7c7eb0 be28defc     ..|?.."..~|?..(.
   23fd0:	3f7c3b28 be2f10a2 3f7bf531 be354098     (;|?../.1.{?.@5.
   23fe0:	3f7baccd be3b6ecf 3f7b61fc be419b37     ..{?.n;..a{?7.A.
   23ff0:	3f7b14be be47c5c2 3f7ac516 be4dee60     ..{?..G...z?`.M.
   24000:	3f7a7302 be541501 3f7a1e84 be5a3997     .sz?..T...z?.9Z.
   24010:	3f79c79d be605c13 3f796e4e be667c66     ..y?.\`.Nny?f|f.
   24020:	3f791298 be6c9a7f 3f78b47b be72b651     ..y?..l.{.x?Q.r.
   24030:	3f7853f8 be78cfcc 3f77f110 be7ee6e1     .Sx?..x...w?..~.
   24040:	3f778bc5 be827dc0 3f772417 be8586ce     ..w?.}...$w?....
   24050:	3f76ba07 be888e93 3f764d97 be8b9507     ..v?.....Mv?....
   24060:	3f75dec6 be8e9a22 3f756d97 be919ddd     ..u?"....mu?....
   24070:	3f74fa0b be94a031 3f748422 be97a117     ..t?1...".t?....
   24080:	3f740bdd be9aa086 3f73913f be9d9e78     ..t?....?.s?x...
   24090:	3f731447 bea09ae5 3f7294f8 bea395c5     G.s?......r?....
   240a0:	3f721352 bea68f12 3f718f57 bea986c4     R.r?....W.q?....
   240b0:	3f710908 beac7cd4 3f708066 beaf713a     ..q?.|..f.p?:q..
   240c0:	3f6ff573 beb263ef 3f6f6830 beb554ec     s.o?.c..0ho?.T..
   240d0:	3f6ed89e beb8442a 3f6e46be bebb31a0     ..n?*D...Fn?.1..
   240e0:	3f6db293 bebe1d4a 3f6d1c1d bec1071e     ..m?J.....m?....
   240f0:	3f6c835e bec3ef15 3f6be858 bec6d529     ^.l?....X.k?)...
   24100:	3f6b4b0c bec9b953 3f6aab7b becc9b8b     .Kk?S...{.j?....
   24110:	3f6a09a7 becf7bca 3f696591 bed25a09     ..j?.{...ei?.Z..
   24120:	3f68bf3c bed53641 3f6816a8 bed8106b     <.h?A6....h?k...
   24130:	3f676bd8 bedae880 3f66becc beddbe79     .kg?......f?y...
   24140:	3f660f88 bee0924f 3f655e0b bee363fa     ..f?O....^e?.c..
   24150:	3f64aa59 bee63375 3f63f473 bee900b7     Y.d?u3..s.c?....
   24160:	3f633c5a beebcbbb 3f628210 beee9479     Z<c?......b?y...
   24170:	3f61c598 bef15aea 3f6106f2 bef41f07     ..a?.Z....a?....
   24180:	3f604621 bef6e0cb 3f5f8327 bef9a02d     !F`?....'._?-...
   24190:	3f5ebe05 befc5d27 3f5df6be beff17b2     ..^?']....]?....
   241a0:	3f5d2d53 bf00e7e4 3f5c61c7 bf0242b1     S-]?.....a\?.B..
   241b0:	3f5b941a bf039c3d 3f5ac450 bf04f484     ..[?=...P.Z?....
   241c0:	3f59f26a bf064b82 3f591e6a bf07a136     j.Y?.K..j.Y?6...
   241d0:	3f584853 bf08f59b 3f577026 bf0a48ad     SHX?....&pW?.H..
   241e0:	3f5695e5 bf0b9a6b 3f55b993 bf0cead0     ..V?k.....U?....
   241f0:	3f54db31 bf0e39da 3f53fac3 bf0f8784     1.T?.9....S?....
   24200:	3f531849 bf10d3cd 3f5233c6 bf121eb0     I.S?.....3R?....
   24210:	3f514d3d bf13682a 3f5064af bf14b039     =MQ?*h...dP?9...
   24220:	3f4f7a1f bf15f6d9 3f4e8d90 bf173c07     .zO?......N?.<..
   24230:	3f4d9f02 bf187fc0 3f4cae79 bf19c200     ..M?....y.L?....
   24240:	3f4bbbf8 bf1b02c6 3f4ac77f bf1c420c     ..K?......J?.B..
   24250:	3f49d112 bf1d7fd1 3f48d8b3 bf1ebc12     ..I?......H?....
   24260:	3f47de65 bf1ff6cb 3f46e22a bf212ff9     e.G?....*.F?./!.
   24270:	3f45e403 bf226799 3f44e3f5 bf239da9     ..E?.g"...D?..#.
   24280:	3f43e200 bf24d225 3f42de29 bf26050a     ..C?%.$.).B?..&.
   24290:	3f41d870 bf273656 3f40d0da bf286605     p.A?V6'...@?.f(.
   242a0:	3f3fc767 bf299415 3f3ebc1b bf2ac082     g.??..)...>?..*.
   242b0:	3f3daef9 bf2beb4a 3f3ca003 bf2d1469     ..=?J.+...<?i.-.
   242c0:	3f3b8f3b bf2e3bde 3f3a7ca4 bf2f61a5     ;.;?.;...|:?.a/.
   242d0:	3f396842 bf3085bb 3f385216 bf31a81d     Bh9?..0..R8?..1.
   242e0:	3f373a23 bf32c8c9 3f36206c bf33e7bc     #:7?..2.l 6?..3.
   242f0:	3f3504f3 bf3504f3 3f33e7bc bf36206c     ..5?..5...3?l 6.
   24300:	3f32c8c9 bf373a23 3f31a81d bf385216     ..2?#:7...1?.R8.
   24310:	3f3085bb bf396842 3f2f61a5 bf3a7ca4     ..0?Bh9..a/?.|:.
   24320:	3f2e3bde bf3b8f3b 3f2d1469 bf3ca003     .;.?;.;.i.-?..<.
   24330:	3f2beb4a bf3daef9 3f2ac082 bf3ebc1b     J.+?..=...*?..>.
   24340:	3f299415 bf3fc767 3f286605 bf40d0da     ..)?g.?..f(?..@.
   24350:	3f273656 bf41d870 3f26050a bf42de29     V6'?p.A...&?).B.
   24360:	3f24d225 bf43e200 3f239da9 bf44e3f5     %.$?..C...#?..D.
   24370:	3f226799 bf45e403 3f212ff9 bf46e22a     .g"?..E../!?*.F.
   24380:	3f1ff6cb bf47de65 3f1ebc12 bf48d8b3     ...?e.G....?..H.
   24390:	3f1d7fd1 bf49d112 3f1c420c bf4ac77f     ...?..I..B.?..J.
   243a0:	3f1b02c6 bf4bbbf8 3f19c200 bf4cae79     ...?..K....?y.L.
   243b0:	3f187fc0 bf4d9f02 3f173c07 bf4e8d90     ...?..M..<.?..N.
   243c0:	3f15f6d9 bf4f7a1f 3f14b039 bf5064af     ...?.zO.9..?.dP.
   243d0:	3f13682a bf514d3d 3f121eb0 bf5233c6     *h.?=MQ....?.3R.
   243e0:	3f10d3cd bf531849 3f0f8784 bf53fac3     ...?I.S....?..S.
   243f0:	3f0e39da bf54db31 3f0cead0 bf55b993     .9.?1.T....?..U.
   24400:	3f0b9a6b bf5695e5 3f0a48ad bf577026     k..?..V..H.?&pW.
   24410:	3f08f59b bf584853 3f07a136 bf591e6a     ...?SHX.6..?j.Y.
   24420:	3f064b82 bf59f26a 3f04f484 bf5ac450     .K.?j.Y....?P.Z.
   24430:	3f039c3d bf5b941a 3f0242b1 bf5c61c7     =..?..[..B.?.a\.
   24440:	3f00e7e4 bf5d2d53 3eff17b2 bf5df6be     ...?S-]....>..].
   24450:	3efc5d27 bf5ebe05 3ef9a02d bf5f8327     '].>..^.-..>'._.
   24460:	3ef6e0cb bf604621 3ef41f07 bf6106f2     ...>!F`....>..a.
   24470:	3ef15aea bf61c598 3eee9479 bf628210     .Z.>..a.y..>..b.
   24480:	3eebcbbb bf633c5a 3ee900b7 bf63f473     ...>Z<c....>s.c.
   24490:	3ee63375 bf64aa59 3ee363fa bf655e0b     u3.>Y.d..c.>.^e.
   244a0:	3ee0924f bf660f88 3eddbe79 bf66becc     O..>..f.y..>..f.
   244b0:	3edae880 bf676bd8 3ed8106b bf6816a8     ...>.kg.k..>..h.
   244c0:	3ed53641 bf68bf3c 3ed25a09 bf696591     A6.><.h..Z.>.ei.
   244d0:	3ecf7bca bf6a09a7 3ecc9b8b bf6aab7b     .{.>..j....>{.j.
   244e0:	3ec9b953 bf6b4b0c 3ec6d529 bf6be858     S..>.Kk.)..>X.k.
   244f0:	3ec3ef15 bf6c835e 3ec1071e bf6d1c1d     ...>^.l....>..m.
   24500:	3ebe1d4a bf6db293 3ebb31a0 bf6e46be     J..>..m..1.>.Fn.
   24510:	3eb8442a bf6ed89e 3eb554ec bf6f6830     *D.>..n..T.>0ho.
   24520:	3eb263ef bf6ff573 3eaf713a bf708066     .c.>s.o.:q.>f.p.
   24530:	3eac7cd4 bf710908 3ea986c4 bf718f57     .|.>..q....>W.q.
   24540:	3ea68f12 bf721352 3ea395c5 bf7294f8     ...>R.r....>..r.
   24550:	3ea09ae5 bf731447 3e9d9e78 bf73913f     ...>G.s.x..>?.s.
   24560:	3e9aa086 bf740bdd 3e97a117 bf748422     ...>..t....>".t.
   24570:	3e94a031 bf74fa0b 3e919ddd bf756d97     1..>..t....>.mu.
   24580:	3e8e9a22 bf75dec6 3e8b9507 bf764d97     "..>..u....>.Mv.
   24590:	3e888e93 bf76ba07 3e8586ce bf772417     ...>..v....>.$w.
   245a0:	3e827dc0 bf778bc5 3e7ee6e1 bf77f110     .}.>..w...~>..w.
   245b0:	3e78cfcc bf7853f8 3e72b651 bf78b47b     ..x>.Sx.Q.r>{.x.
   245c0:	3e6c9a7f bf791298 3e667c66 bf796e4e     ..l>..y.f|f>Nny.
   245d0:	3e605c13 bf79c79d 3e5a3997 bf7a1e84     .\`>..y..9Z>..z.
   245e0:	3e541501 bf7a7302 3e4dee60 bf7ac516     ..T>.sz.`.M>..z.
   245f0:	3e47c5c2 bf7b14be 3e419b37 bf7b61fc     ..G>..{.7.A>.a{.
   24600:	3e3b6ecf bf7baccd 3e354098 bf7bf531     .n;>..{..@5>1.{.
   24610:	3e2f10a2 bf7c3b28 3e28defc bf7c7eb0     ../>(;|...(>.~|.
   24620:	3e22abb6 bf7cbfc9 3e1c76de bf7cfe73     ..">..|..v.>s.|.
   24630:	3e164083 bf7d3aac 3e1008b7 bf7d7474     .@.>.:}....>tt}.
   24640:	3e09cf86 bf7dabcc 3e039502 bf7de0b1     ...>..}....>..}.
   24650:	3dfab273 bf7e1324 3dee3876 bf7e4323     s..=$.~.v8.=#C~.
   24660:	3de1bc2e bf7e70b0 3dd53db9 bf7e9bc9     ...=.p~..=.=..~.
   24670:	3dc8bd36 bf7ec46d 3dbc3ac3 bf7eea9d     6..=m.~..:.=..~.
   24680:	3dafb680 bf7f0e58 3da3308c bf7f2f9d     ...=X....0.=./..
   24690:	3d96a905 bf7f4e6d 3d8a200a bf7f6ac7     ...=mN... .=.j..
   246a0:	3d7b2b74 bf7f84ab 3d621468 bf7f9c18     t+{=....h.b=....
   246b0:	3d48fb2f bf7fb10f 3d2fe007 bf7fc38f     /.H=....../=....
   246c0:	3d16c32c bf7fd398 3cfb49b9 bf7fe129     ,..=.....I.<)...
   246d0:	3cc90ab0 bf7fec43 3c96c9b6 bf7ff4e6     ...<C......<....
   246e0:	3c490e90 bf7ffb11 3bc90f89 bf7ffec4     ..I<.......;....

000246f0 <twiddleCoef_rfft_256>:
   246f0:	00000000 3f800000 3cc90ab0 3f7fec43     .......?...<C..?
   24700:	3d48fb2f 3f7fb10f 3d96a905 3f7f4e6d     /.H=...?...=mN.?
   24710:	3dc8bd36 3f7ec46d 3dfab273 3f7e1324     6..=m.~?s..=$.~?
   24720:	3e164083 3f7d3aac 3e2f10a2 3f7c3b28     .@.>.:}?../>(;|?
   24730:	3e47c5c2 3f7b14be 3e605c13 3f79c79d     ..G>..{?.\`>..y?
   24740:	3e78cfcc 3f7853f8 3e888e93 3f76ba07     ..x>.Sx?...>..v?
   24750:	3e94a031 3f74fa0b 3ea09ae5 3f731447     1..>..t?...>G.s?
   24760:	3eac7cd4 3f710908 3eb8442a 3f6ed89e     .|.>..q?*D.>..n?
   24770:	3ec3ef15 3f6c835e 3ecf7bca 3f6a09a7     ...>^.l?.{.>..j?
   24780:	3edae880 3f676bd8 3ee63375 3f64aa59     ...>.kg?u3.>Y.d?
   24790:	3ef15aea 3f61c598 3efc5d27 3f5ebe05     .Z.>..a?'].>..^?
   247a0:	3f039c3d 3f5b941a 3f08f59b 3f584853     =..?..[?...?SHX?
   247b0:	3f0e39da 3f54db31 3f13682a 3f514d3d     .9.?1.T?*h.?=MQ?
   247c0:	3f187fc0 3f4d9f02 3f1d7fd1 3f49d112     ...?..M?...?..I?
   247d0:	3f226799 3f45e403 3f273656 3f41d870     .g"?..E?V6'?p.A?
   247e0:	3f2beb4a 3f3daef9 3f3085bb 3f396842     J.+?..=?..0?Bh9?
   247f0:	3f3504f3 3f3504f3 3f396842 3f3085bb     ..5?..5?Bh9?..0?
   24800:	3f3daef9 3f2beb4a 3f41d870 3f273656     ..=?J.+?p.A?V6'?
   24810:	3f45e403 3f226799 3f49d112 3f1d7fd1     ..E?.g"?..I?...?
   24820:	3f4d9f02 3f187fc0 3f514d3d 3f13682a     ..M?...?=MQ?*h.?
   24830:	3f54db31 3f0e39da 3f584853 3f08f59b     1.T?.9.?SHX?...?
   24840:	3f5b941a 3f039c3d 3f5ebe05 3efc5d27     ..[?=..?..^?'].>
   24850:	3f61c598 3ef15aea 3f64aa59 3ee63375     ..a?.Z.>Y.d?u3.>
   24860:	3f676bd8 3edae880 3f6a09a7 3ecf7bca     .kg?...>..j?.{.>
   24870:	3f6c835e 3ec3ef15 3f6ed89e 3eb8442a     ^.l?...>..n?*D.>
   24880:	3f710908 3eac7cd4 3f731447 3ea09ae5     ..q?.|.>G.s?...>
   24890:	3f74fa0b 3e94a031 3f76ba07 3e888e93     ..t?1..>..v?...>
   248a0:	3f7853f8 3e78cfcc 3f79c79d 3e605c13     .Sx?..x>..y?.\`>
   248b0:	3f7b14be 3e47c5c2 3f7c3b28 3e2f10a2     ..{?..G>(;|?../>
   248c0:	3f7d3aac 3e164083 3f7e1324 3dfab273     .:}?.@.>$.~?s..=
   248d0:	3f7ec46d 3dc8bd36 3f7f4e6d 3d96a905     m.~?6..=mN.?...=
   248e0:	3f7fb10f 3d48fb2f 3f7fec43 3cc90ab0     ...?/.H=C..?...<
   248f0:	3f800000 00000000 3f7fec43 bcc90ab0     ...?....C..?....
   24900:	3f7fb10f bd48fb2f 3f7f4e6d bd96a905     ...?/.H.mN.?....
   24910:	3f7ec46d bdc8bd36 3f7e1324 bdfab273     m.~?6...$.~?s...
   24920:	3f7d3aac be164083 3f7c3b28 be2f10a2     .:}?.@..(;|?../.
   24930:	3f7b14be be47c5c2 3f79c79d be605c13     ..{?..G...y?.\`.
   24940:	3f7853f8 be78cfcc 3f76ba07 be888e93     .Sx?..x...v?....
   24950:	3f74fa0b be94a031 3f731447 bea09ae5     ..t?1...G.s?....
   24960:	3f710908 beac7cd4 3f6ed89e beb8442a     ..q?.|....n?*D..
   24970:	3f6c835e bec3ef15 3f6a09a7 becf7bca     ^.l?......j?.{..
   24980:	3f676bd8 bedae880 3f64aa59 bee63375     .kg?....Y.d?u3..
   24990:	3f61c598 bef15aea 3f5ebe05 befc5d27     ..a?.Z....^?']..
   249a0:	3f5b941a bf039c3d 3f584853 bf08f59b     ..[?=...SHX?....
   249b0:	3f54db31 bf0e39da 3f514d3d bf13682a     1.T?.9..=MQ?*h..
   249c0:	3f4d9f02 bf187fc0 3f49d112 bf1d7fd1     ..M?......I?....
   249d0:	3f45e403 bf226799 3f41d870 bf273656     ..E?.g".p.A?V6'.
   249e0:	3f3daef9 bf2beb4a 3f396842 bf3085bb     ..=?J.+.Bh9?..0.
   249f0:	3f3504f3 bf3504f3 3f3085bb bf396842     ..5?..5...0?Bh9.
   24a00:	3f2beb4a bf3daef9 3f273656 bf41d870     J.+?..=.V6'?p.A.
   24a10:	3f226799 bf45e403 3f1d7fd1 bf49d112     .g"?..E....?..I.
   24a20:	3f187fc0 bf4d9f02 3f13682a bf514d3d     ...?..M.*h.?=MQ.
   24a30:	3f0e39da bf54db31 3f08f59b bf584853     .9.?1.T....?SHX.
   24a40:	3f039c3d bf5b941a 3efc5d27 bf5ebe05     =..?..[.'].>..^.
   24a50:	3ef15aea bf61c598 3ee63375 bf64aa59     .Z.>..a.u3.>Y.d.
   24a60:	3edae880 bf676bd8 3ecf7bca bf6a09a7     ...>.kg..{.>..j.
   24a70:	3ec3ef15 bf6c835e 3eb8442a bf6ed89e     ...>^.l.*D.>..n.
   24a80:	3eac7cd4 bf710908 3ea09ae5 bf731447     .|.>..q....>G.s.
   24a90:	3e94a031 bf74fa0b 3e888e93 bf76ba07     1..>..t....>..v.
   24aa0:	3e78cfcc bf7853f8 3e605c13 bf79c79d     ..x>.Sx..\`>..y.
   24ab0:	3e47c5c2 bf7b14be 3e2f10a2 bf7c3b28     ..G>..{.../>(;|.
   24ac0:	3e164083 bf7d3aac 3dfab273 bf7e1324     .@.>.:}.s..=$.~.
   24ad0:	3dc8bd36 bf7ec46d 3d96a905 bf7f4e6d     6..=m.~....=mN..
   24ae0:	3d48fb2f bf7fb10f 3cc90ab0 bf7fec43     /.H=.......<C...

00024af0 <armBitRevIndexTable256>:
   24af0:	02000008 04000010 06000018 00400020     ............ .@.
   24b00:	02400028 04400030 06400038 00800040     (.@.0.@.8.@.@...
   24b10:	02800048 04800050 06800058 00c00060     H...P...X...`...
   24b20:	02c00068 04c00070 06c00078 01000080     h...p...x.......
   24b30:	03000088 05000090 07000098 014000a0     ..............@.
   24b40:	034000a8 054000b0 074000b8 018000c0     ..@...@...@.....
   24b50:	038000c8 058000d0 078000d8 01c000e0     ................
   24b60:	03c000e8 05c000f0 07c000f8 02000100     ................
   24b70:	02080108 04080110 06080118 02800120     ............ ...
   24b80:	02480128 04480130 06480138 03000140     (.H.0.H.8.H.@...
   24b90:	02880148 04880150 06880158 03800160     H...P...X...`...
   24ba0:	02c80168 04c80170 06c80178 02080180     h...p...x.......
   24bb0:	03080188 05080190 07080198 028801a0     ................
   24bc0:	034801a8 054801b0 074801b8 030801c0     ..H...H...H.....
   24bd0:	038801c8 058801d0 078801d8 038801e0     ................
   24be0:	03c801e8 05c801f0 07c801f8 02100208     ................
   24bf0:	04000200 04100210 06100218 04800220     ............ ...
   24c00:	02500228 04500230 06500238 05000240     (.P.0.P.8.P.@...
   24c10:	02900248 04900250 06900258 05800260     H...P...X...`...
   24c20:	02d00268 04d00270 06d00278 04080280     h...p...x.......
   24c30:	03100288 05100290 07100298 048802a0     ................
   24c40:	035002a8 055002b0 075002b8 050802c0     ..P...P...P.....
   24c50:	039002c8 059002d0 079002d8 058802e0     ................
   24c60:	03d002e8 05d002f0 07d002f8 06000300     ................
   24c70:	06100308 04180310 06180318 06800320     ............ ...
   24c80:	06900328 04580330 06580338 07000340     (...0.X.8.X.@...
   24c90:	07100348 04980350 06980358 07800360     H...P...X...`...
   24ca0:	07900368 04d80370 06d80378 06080380     h...p...x.......
   24cb0:	06180388 05180390 07180398 068803a0     ................
   24cc0:	069803a8 055803b0 075803b8 070803c0     ......X...X.....
   24cd0:	071803c8 059803d0 079803d8 078803e0     ................
   24ce0:	079803e8 05d803f0 07d803f8 04800408     ................
   24cf0:	04200410 06200418 05800428 04600430     .. ... .(...0.`.
   24d00:	06600438 06000440 04880448 04a00450     8.`.@...H...P...
   24d10:	06a00458 06100460 05880468 04e00470     X...`...h...p...
   24d20:	06e00478 06800488 05200490 07200498     x......... ... .
   24d30:	060804a0 078004a8 056004b0 076004b8     ..........`...`.
   24d40:	062004c0 068804c8 05a004d0 07a004d8     .. .............
   24d50:	061804e0 078804e8 05e004f0 07e004f8     ................
   24d60:	05200508 05800510 06280518 05900528     .. .......(.(...
   24d70:	05880530 06680538 07000540 07200548     0...8.h.@...H. .
   24d80:	07800550 06a80558 07080560 05980568     P...X...`...h...
   24d90:	07880570 06e80578 06900588 07280598     p...x.........(.
   24da0:	062805a0 079005a8 072805b0 076805b8     ..(.......(...h.
   24db0:	071005c0 069805c8 079005d0 07a805d8     ................
   24dc0:	071805e0 079805e8 079805f0 07e805f8     ................
   24dd0:	06300618 06700638 07000640 07800648     ..0.8.p.@...H...
   24de0:	07080650 06b00658 07100660 07900668     P...X...`...h...
   24df0:	07180670 06f00678 06a00688 07300698     p...x.........0.
   24e00:	07a006a8 078806b0 077006b8 072006c0     ..........p... .
   24e10:	07a006c8 072806d0 07b006d8 073006e0     ......(.......0.
   24e20:	07a806e8 079806f0 07f006f8 07500748     ............H.P.
   24e30:	07980738 07600750 07700758 07c00760     8...P.`.X.p.`...
   24e40:	07d00768 07f00778 07e00770 07f007b8     h...x...p.......
   24e50:	07b007a8 07f007d8 07e007c8 07f007e8     ................

00024e60 <twiddleCoef_rfft_128>:
   24e60:	00000000 3f800000 3d48fb2f 3f7fb10f     .......?/.H=...?
   24e70:	3dc8bd36 3f7ec46d 3e164083 3f7d3aac     6..=m.~?.@.>.:}?
   24e80:	3e47c5c2 3f7b14be 3e78cfcc 3f7853f8     ..G>..{?..x>.Sx?
   24e90:	3e94a031 3f74fa0b 3eac7cd4 3f710908     1..>..t?.|.>..q?
   24ea0:	3ec3ef15 3f6c835e 3edae880 3f676bd8     ...>^.l?...>.kg?
   24eb0:	3ef15aea 3f61c598 3f039c3d 3f5b941a     .Z.>..a?=..?..[?
   24ec0:	3f0e39da 3f54db31 3f187fc0 3f4d9f02     .9.?1.T?...?..M?
   24ed0:	3f226799 3f45e403 3f2beb4a 3f3daef9     .g"?..E?J.+?..=?
   24ee0:	3f3504f3 3f3504f3 3f3daef9 3f2beb4a     ..5?..5?..=?J.+?
   24ef0:	3f45e403 3f226799 3f4d9f02 3f187fc0     ..E?.g"?..M?...?
   24f00:	3f54db31 3f0e39da 3f5b941a 3f039c3d     1.T?.9.?..[?=..?
   24f10:	3f61c598 3ef15aea 3f676bd8 3edae880     ..a?.Z.>.kg?...>
   24f20:	3f6c835e 3ec3ef15 3f710908 3eac7cd4     ^.l?...>..q?.|.>
   24f30:	3f74fa0b 3e94a031 3f7853f8 3e78cfcc     ..t?1..>.Sx?..x>
   24f40:	3f7b14be 3e47c5c2 3f7d3aac 3e164083     ..{?..G>.:}?.@.>
   24f50:	3f7ec46d 3dc8bd36 3f7fb10f 3d48fb2f     m.~?6..=...?/.H=
   24f60:	3f800000 00000000 3f7fb10f bd48fb2f     ...?.......?/.H.
   24f70:	3f7ec46d bdc8bd36 3f7d3aac be164083     m.~?6....:}?.@..
   24f80:	3f7b14be be47c5c2 3f7853f8 be78cfcc     ..{?..G..Sx?..x.
   24f90:	3f74fa0b be94a031 3f710908 beac7cd4     ..t?1.....q?.|..
   24fa0:	3f6c835e bec3ef15 3f676bd8 bedae880     ^.l?.....kg?....
   24fb0:	3f61c598 bef15aea 3f5b941a bf039c3d     ..a?.Z....[?=...
   24fc0:	3f54db31 bf0e39da 3f4d9f02 bf187fc0     1.T?.9....M?....
   24fd0:	3f45e403 bf226799 3f3daef9 bf2beb4a     ..E?.g"...=?J.+.
   24fe0:	3f3504f3 bf3504f3 3f2beb4a bf3daef9     ..5?..5.J.+?..=.
   24ff0:	3f226799 bf45e403 3f187fc0 bf4d9f02     .g"?..E....?..M.
   25000:	3f0e39da bf54db31 3f039c3d bf5b941a     .9.?1.T.=..?..[.
   25010:	3ef15aea bf61c598 3edae880 bf676bd8     .Z.>..a....>.kg.
   25020:	3ec3ef15 bf6c835e 3eac7cd4 bf710908     ...>^.l..|.>..q.
   25030:	3e94a031 bf74fa0b 3e78cfcc bf7853f8     1..>..t...x>.Sx.
   25040:	3e47c5c2 bf7b14be 3e164083 bf7d3aac     ..G>..{..@.>.:}.
   25050:	3dc8bd36 bf7ec46d 3d48fb2f bf7fb10f     6..=m.~./.H=....

00025060 <armBitRevIndexTable128>:
   25060:	02000008 00400010 02400018 00800020     ......@...@. ...
   25070:	02800028 00c00030 02c00038 01000040     (...0...8...@...
   25080:	03000048 01400050 03400058 01800060     H...P.@.X.@.`...
   25090:	03800068 01c00070 03c00078 02000080     h...p...x.......
   250a0:	02080088 03000090 02480098 020800a0     ..........H.....
   250b0:	028800a8 00c800b0 02c800b8 010800c0     ................
   250c0:	030800c8 014800d0 034800d8 018800e0     ......H...H.....
   250d0:	038800e8 01c800f0 03c800f8 02100108     ................
   250e0:	01400110 02500118 03000120 02900128     ..@...P. ...(...
   250f0:	01480130 02d00138 03100148 03500158     0.H.8...H...X.P.
   25100:	01900160 03900168 01d00170 03d00178     `...h...p...x...
   25110:	02400180 02180188 03400190 02580198     ..@.......@...X.
   25120:	024801a0 029801a8 034801b0 02d801b8     ..H.......H.....
   25130:	025001c0 031801c8 035001d0 035801d8     ..P.......P...X.
   25140:	025801e0 039801e8 035801f0 03d801f8     ..X.......X.....
   25150:	02200208 02400210 02600218 02a00228     .. ...@...`.(...
   25160:	02600230 02e00238 03000240 03200248     0.`.8...@...H. .
   25170:	03400250 03600258 03200260 03a00268     P.@.X.`.`. .h...
   25180:	03600270 03e00278 02a00288 03800290     p.`.x...........
   25190:	03a00298 038802b0 02e802b8 038002c0     ................
   251a0:	032802c8 039002d0 036802d8 03a002e0     ..(.......h.....
   251b0:	03a802e8 039802f0 03e802f8 03200308     .............. .
   251c0:	03400310 03600318 03880328 03600330     ..@...`.(...0.`.
   251d0:	03980338 03600348 03700358 03b00368     8...H.`.X.p.h...
   251e0:	03f00378 03a00388 03c00390 03e00398     x...............
   251f0:	03c803b0 03e803b8 03e003c8 03f003d8     ................
